(dp1
S'output'
p2
S''
sS'layer'
p3
S'Framework'
p4
sS'code'
p5
S''
sS'snapshot'
p6
(dp7
S'exception'
p8
(dp9
g5
S'1'
sS'__getslice__'
p10
S"<method-wrapper '__getslice__' of exceptions.SystemExit object>"
p11
sS'__str__'
p12
S"<method-wrapper '__str__' of exceptions.SystemExit object>"
p13
sS'__reduce__'
p14
S'<built-in method __reduce__ of exceptions.SystemExit object>'
p15
sS'__dict__'
p16
S'{}'
p17
sS'__sizeof__'
p18
S'<built-in method __sizeof__ of exceptions.SystemExit object>'
p19
sS'__init__'
p20
S"<method-wrapper '__init__' of exceptions.SystemExit object>"
p21
sS'__setattr__'
p22
S"<method-wrapper '__setattr__' of exceptions.SystemExit object>"
p23
sS'__reduce_ex__'
p24
S'<built-in method __reduce_ex__ of exceptions.SystemExit object>'
p25
sS'__new__'
p26
S'<built-in method __new__ of type object>'
p27
sS'__format__'
p28
S'<built-in method __format__ of exceptions.SystemExit object>'
p29
sS'__class__'
p30
S"<type 'exceptions.SystemExit'>"
p31
sS'__doc__'
p32
S"'Request to exit from the interpreter.'"
p33
sS'__getitem__'
p34
S"<method-wrapper '__getitem__' of exceptions.SystemExit object>"
p35
sS'__setstate__'
p36
S'<built-in method __setstate__ of exceptions.SystemExit object>'
p37
sS'__getattribute__'
p38
S"<method-wrapper '__getattribute__' of exceptions.SystemExit object>"
p39
sS'args'
p40
S'(1,)'
p41
sS'__subclasshook__'
p42
S'<built-in method __subclasshook__ of type object>'
p43
sS'__unicode__'
p44
S'<built-in method __unicode__ of exceptions.SystemExit object>'
p45
sS'__delattr__'
p46
S"<method-wrapper '__delattr__' of exceptions.SystemExit object>"
p47
sS'__repr__'
p48
S"<method-wrapper '__repr__' of exceptions.SystemExit object>"
p49
sS'__hash__'
p50
S"<method-wrapper '__hash__' of exceptions.SystemExit object>"
p51
ssS'evalue'
p52
S'1'
sS'request'
p53
ccopy_reg
_reconstructor
p54
(cgluon.html
BEAUTIFY
p55
c__builtin__
object
p56
NtRp57
(dp58
S'attributes'
p59
(dp60
sS'components'
p61
(lp62
g54
(cgluon.html
TABLE
p63
g56
NtRp64
(dp65
g59
(dp66
S'level'
p67
I5
ssS'parent'
p68
Nsg61
(lp69
g54
(cgluon.html
TR
p70
g56
NtRp71
(dp72
g59
(dp73
sg68
g64
sg61
(lp74
g54
(cgluon.html
TD
p75
g56
NtRp76
(dp77
g59
(dp78
S'_style'
p79
S'font-weight:bold;'
p80
ssg68
g71
sg61
(lp81
S'ajax'
p82
asbag54
(g75
g56
NtRp83
(dp84
g59
(dp85
S'_valign'
p86
S'top'
p87
ssg68
g71
sg61
(lp88
S':'
asbag54
(g75
g56
NtRp89
(dp90
g59
(dp91
sg68
g71
sg61
(lp92
g54
(g55
g56
NtRp93
(dp94
g59
(dp95
g67
I5
ssg68
g89
sg61
(lp96
S'True'
p97
asbasbasbag54
(g70
g56
NtRp98
(dp99
g59
(dp100
sg68
g64
sg61
(lp101
g54
(g75
g56
NtRp102
(dp103
g59
(dp104
g79
g80
ssg68
g98
sg61
(lp105
S'application'
p106
asbag54
(g75
g56
NtRp107
(dp108
g59
(dp109
g86
g87
ssg68
g98
sg61
(lp110
S':'
asbag54
(g75
g56
NtRp111
(dp112
g59
(dp113
sg68
g98
sg61
(lp114
g54
(g55
g56
NtRp115
(dp116
g59
(dp117
g67
I5
ssg68
g111
sg61
(lp118
S'admin'
p119
asbasbasbag54
(g70
g56
NtRp120
(dp121
g59
(dp122
sg68
g64
sg61
(lp123
g54
(g75
g56
NtRp124
(dp125
g59
(dp126
g79
g80
ssg68
g120
sg61
(lp127
g40
asbag54
(g75
g56
NtRp128
(dp129
g59
(dp130
g86
g87
ssg68
g120
sg61
(lp131
S':'
asbag54
(g75
g56
NtRp132
(dp133
g59
(dp134
sg68
g120
sg61
(lp135
g54
(g55
g56
NtRp136
(dp137
g59
(dp138
g67
I5
ssg68
g132
sg61
(lp139
g54
(g63
g56
NtRp140
(dp141
g59
(dp142
g67
I4
ssg68
Nsg61
(lp143
g54
(g70
g56
NtRp144
(dp145
g59
(dp146
sg68
g140
sg61
(lp147
g54
(g75
g56
NtRp148
(dp149
g59
(dp150
sg68
g144
sg61
(lp151
g54
(g55
g56
NtRp152
(dp153
g59
(dp154
g67
I4
ssg68
g148
sg61
(lp155
S'init'
p156
asbasbasbasbasbasbasbag54
(g70
g56
NtRp157
(dp158
g59
(dp159
sg68
g64
sg61
(lp160
g54
(g75
g56
NtRp161
(dp162
g59
(dp163
g79
g80
ssg68
g157
sg61
(lp164
S'body'
p165
asbag54
(g75
g56
NtRp166
(dp167
g59
(dp168
g86
g87
ssg68
g157
sg61
(lp169
S':'
asbag54
(g75
g56
NtRp170
(dp171
g59
(dp172
sg68
g157
sg61
(lp173
g54
(g55
g56
NtRp174
(dp175
g59
(dp176
g67
I5
ssg68
g170
sg61
(lp177
S"<closed file '<fdopen>', mode 'w+b' at 0x1021ea810>"
p178
asbasbasbag54
(g70
g56
NtRp179
(dp180
g59
(dp181
sg68
g64
sg61
(lp182
g54
(g75
g56
NtRp183
(dp184
g59
(dp185
g79
g80
ssg68
g179
sg61
(lp186
S'client'
p187
asbag54
(g75
g56
NtRp188
(dp189
g59
(dp190
g86
g87
ssg68
g179
sg61
(lp191
S':'
asbag54
(g75
g56
NtRp192
(dp193
g59
(dp194
sg68
g179
sg61
(lp195
g54
(g55
g56
NtRp196
(dp197
g59
(dp198
g67
I5
ssg68
g192
sg61
(lp199
S'127.0.0.1'
p200
asbasbasbag54
(g70
g56
NtRp201
(dp202
g59
(dp203
sg68
g64
sg61
(lp204
g54
(g75
g56
NtRp205
(dp206
g59
(dp207
g79
g80
ssg68
g201
sg61
(lp208
S'controller'
p209
asbag54
(g75
g56
NtRp210
(dp211
g59
(dp212
g86
g87
ssg68
g201
sg61
(lp213
S':'
asbag54
(g75
g56
NtRp214
(dp215
g59
(dp216
sg68
g201
sg61
(lp217
g54
(g55
g56
NtRp218
(dp219
g59
(dp220
g67
I5
ssg68
g214
sg61
(lp221
S'shell'
p222
asbasbasbag54
(g70
g56
NtRp223
(dp224
g59
(dp225
sg68
g64
sg61
(lp226
g54
(g75
g56
NtRp227
(dp228
g59
(dp229
g79
g80
ssg68
g223
sg61
(lp230
S'cookies'
p231
asbag54
(g75
g56
NtRp232
(dp233
g59
(dp234
g86
g87
ssg68
g223
sg61
(lp235
S':'
asbag54
(g75
g56
NtRp236
(dp237
g59
(dp238
sg68
g223
sg61
(lp239
g54
(g55
g56
NtRp240
(dp241
g59
(dp242
g67
I5
ssg68
g236
sg61
(lp243
g54
(g63
g56
NtRp244
(dp245
g59
(dp246
g67
I4
ssg68
Nsg61
(lp247
g54
(g70
g56
NtRp248
(dp249
g59
(dp250
sg68
g244
sg61
(lp251
g54
(g75
g56
NtRp252
(dp253
g59
(dp254
g79
g80
ssg68
g248
sg61
(lp255
S'session_id_admin'
p256
asbag54
(g75
g56
NtRp257
(dp258
g59
(dp259
g86
g87
ssg68
g248
sg61
(lp260
S':'
asbag54
(g75
g56
NtRp261
(dp262
g59
(dp263
sg68
g248
sg61
(lp264
g54
(g55
g56
NtRp265
(dp266
g59
(dp267
g67
I4
ssg68
g261
sg61
(lp268
g54
(g63
g56
NtRp269
(dp270
g59
(dp271
g67
I3
ssg68
Nsg61
(lp272
g54
(g70
g56
NtRp273
(dp274
g59
(dp275
sg68
g269
sg61
(lp276
g54
(g75
g56
NtRp277
(dp278
g59
(dp279
g79
g80
ssg68
g273
sg61
(lp280
S'comment'
p281
asbag54
(g75
g56
NtRp282
(dp283
g59
(dp284
g86
g87
ssg68
g273
sg61
(lp285
S':'
asbag54
(g75
g56
NtRp286
(dp287
g59
(dp288
sg68
g273
sg61
(lp289
g54
(g55
g56
NtRp290
(dp291
g59
(dp292
g67
I3
ssg68
g286
sg61
(lp293
S''
asbasbasbag54
(g70
g56
NtRp294
(dp295
g59
(dp296
sg68
g269
sg61
(lp297
g54
(g75
g56
NtRp298
(dp299
g59
(dp300
g79
g80
ssg68
g294
sg61
(lp301
S'domain'
p302
asbag54
(g75
g56
NtRp303
(dp304
g59
(dp305
g86
g87
ssg68
g294
sg61
(lp306
S':'
asbag54
(g75
g56
NtRp307
(dp308
g59
(dp309
sg68
g294
sg61
(lp310
g54
(g55
g56
NtRp311
(dp312
g59
(dp313
g67
I3
ssg68
g307
sg61
(lp314
S''
asbasbasbag54
(g70
g56
NtRp315
(dp316
g59
(dp317
sg68
g269
sg61
(lp318
g54
(g75
g56
NtRp319
(dp320
g59
(dp321
g79
g80
ssg68
g315
sg61
(lp322
S'expires'
p323
asbag54
(g75
g56
NtRp324
(dp325
g59
(dp326
g86
g87
ssg68
g315
sg61
(lp327
S':'
asbag54
(g75
g56
NtRp328
(dp329
g59
(dp330
sg68
g315
sg61
(lp331
g54
(g55
g56
NtRp332
(dp333
g59
(dp334
g67
I3
ssg68
g328
sg61
(lp335
S''
asbasbasbag54
(g70
g56
NtRp336
(dp337
g59
(dp338
sg68
g269
sg61
(lp339
g54
(g75
g56
NtRp340
(dp341
g59
(dp342
g79
g80
ssg68
g336
sg61
(lp343
S'httponly'
p344
asbag54
(g75
g56
NtRp345
(dp346
g59
(dp347
g86
g87
ssg68
g336
sg61
(lp348
S':'
asbag54
(g75
g56
NtRp349
(dp350
g59
(dp351
sg68
g336
sg61
(lp352
g54
(g55
g56
NtRp353
(dp354
g59
(dp355
g67
I3
ssg68
g349
sg61
(lp356
S''
asbasbasbag54
(g70
g56
NtRp357
(dp358
g59
(dp359
sg68
g269
sg61
(lp360
g54
(g75
g56
NtRp361
(dp362
g59
(dp363
g79
g80
ssg68
g357
sg61
(lp364
S'max-age'
p365
asbag54
(g75
g56
NtRp366
(dp367
g59
(dp368
g86
g87
ssg68
g357
sg61
(lp369
S':'
asbag54
(g75
g56
NtRp370
(dp371
g59
(dp372
sg68
g357
sg61
(lp373
g54
(g55
g56
NtRp374
(dp375
g59
(dp376
g67
I3
ssg68
g370
sg61
(lp377
S''
asbasbasbag54
(g70
g56
NtRp378
(dp379
g59
(dp380
sg68
g269
sg61
(lp381
g54
(g75
g56
NtRp382
(dp383
g59
(dp384
g79
g80
ssg68
g378
sg61
(lp385
S'path'
p386
asbag54
(g75
g56
NtRp387
(dp388
g59
(dp389
g86
g87
ssg68
g378
sg61
(lp390
S':'
asbag54
(g75
g56
NtRp391
(dp392
g59
(dp393
sg68
g378
sg61
(lp394
g54
(g55
g56
NtRp395
(dp396
g59
(dp397
g67
I3
ssg68
g391
sg61
(lp398
S''
asbasbasbag54
(g70
g56
NtRp399
(dp400
g59
(dp401
sg68
g269
sg61
(lp402
g54
(g75
g56
NtRp403
(dp404
g59
(dp405
g79
g80
ssg68
g399
sg61
(lp406
S'secure'
p407
asbag54
(g75
g56
NtRp408
(dp409
g59
(dp410
g86
g87
ssg68
g399
sg61
(lp411
S':'
asbag54
(g75
g56
NtRp412
(dp413
g59
(dp414
sg68
g399
sg61
(lp415
g54
(g55
g56
NtRp416
(dp417
g59
(dp418
g67
I3
ssg68
g412
sg61
(lp419
S''
asbasbasbag54
(g70
g56
NtRp420
(dp421
g59
(dp422
sg68
g269
sg61
(lp423
g54
(g75
g56
NtRp424
(dp425
g59
(dp426
g79
g80
ssg68
g420
sg61
(lp427
S'version'
p428
asbag54
(g75
g56
NtRp429
(dp430
g59
(dp431
g86
g87
ssg68
g420
sg61
(lp432
S':'
asbag54
(g75
g56
NtRp433
(dp434
g59
(dp435
sg68
g420
sg61
(lp436
g54
(g55
g56
NtRp437
(dp438
g59
(dp439
g67
I3
ssg68
g433
sg61
(lp440
S''
asbasbasbasbasbasbasbag54
(g70
g56
NtRp441
(dp442
g59
(dp443
sg68
g244
sg61
(lp444
g54
(g75
g56
NtRp445
(dp446
g59
(dp447
g79
g80
ssg68
g441
sg61
(lp448
S'session_id_blabla'
p449
asbag54
(g75
g56
NtRp450
(dp451
g59
(dp452
g86
g87
ssg68
g441
sg61
(lp453
S':'
asbag54
(g75
g56
NtRp454
(dp455
g59
(dp456
sg68
g441
sg61
(lp457
g54
(g55
g56
NtRp458
(dp459
g59
(dp460
g67
I4
ssg68
g454
sg61
(lp461
g54
(g63
g56
NtRp462
(dp463
g59
(dp464
g67
I3
ssg68
Nsg61
(lp465
g54
(g70
g56
NtRp466
(dp467
g59
(dp468
sg68
g462
sg61
(lp469
g54
(g75
g56
NtRp470
(dp471
g59
(dp472
g79
g80
ssg68
g466
sg61
(lp473
g281
asbag54
(g75
g56
NtRp474
(dp475
g59
(dp476
g86
g87
ssg68
g466
sg61
(lp477
S':'
asbag54
(g75
g56
NtRp478
(dp479
g59
(dp480
sg68
g466
sg61
(lp481
g54
(g55
g56
NtRp482
(dp483
g59
(dp484
g67
I3
ssg68
g478
sg61
(lp485
S''
asbasbasbag54
(g70
g56
NtRp486
(dp487
g59
(dp488
sg68
g462
sg61
(lp489
g54
(g75
g56
NtRp490
(dp491
g59
(dp492
g79
g80
ssg68
g486
sg61
(lp493
g302
asbag54
(g75
g56
NtRp494
(dp495
g59
(dp496
g86
g87
ssg68
g486
sg61
(lp497
S':'
asbag54
(g75
g56
NtRp498
(dp499
g59
(dp500
sg68
g486
sg61
(lp501
g54
(g55
g56
NtRp502
(dp503
g59
(dp504
g67
I3
ssg68
g498
sg61
(lp505
S''
asbasbasbag54
(g70
g56
NtRp506
(dp507
g59
(dp508
sg68
g462
sg61
(lp509
g54
(g75
g56
NtRp510
(dp511
g59
(dp512
g79
g80
ssg68
g506
sg61
(lp513
g323
asbag54
(g75
g56
NtRp514
(dp515
g59
(dp516
g86
g87
ssg68
g506
sg61
(lp517
S':'
asbag54
(g75
g56
NtRp518
(dp519
g59
(dp520
sg68
g506
sg61
(lp521
g54
(g55
g56
NtRp522
(dp523
g59
(dp524
g67
I3
ssg68
g518
sg61
(lp525
S''
asbasbasbag54
(g70
g56
NtRp526
(dp527
g59
(dp528
sg68
g462
sg61
(lp529
g54
(g75
g56
NtRp530
(dp531
g59
(dp532
g79
g80
ssg68
g526
sg61
(lp533
g344
asbag54
(g75
g56
NtRp534
(dp535
g59
(dp536
g86
g87
ssg68
g526
sg61
(lp537
S':'
asbag54
(g75
g56
NtRp538
(dp539
g59
(dp540
sg68
g526
sg61
(lp541
g54
(g55
g56
NtRp542
(dp543
g59
(dp544
g67
I3
ssg68
g538
sg61
(lp545
S''
asbasbasbag54
(g70
g56
NtRp546
(dp547
g59
(dp548
sg68
g462
sg61
(lp549
g54
(g75
g56
NtRp550
(dp551
g59
(dp552
g79
g80
ssg68
g546
sg61
(lp553
g365
asbag54
(g75
g56
NtRp554
(dp555
g59
(dp556
g86
g87
ssg68
g546
sg61
(lp557
S':'
asbag54
(g75
g56
NtRp558
(dp559
g59
(dp560
sg68
g546
sg61
(lp561
g54
(g55
g56
NtRp562
(dp563
g59
(dp564
g67
I3
ssg68
g558
sg61
(lp565
S''
asbasbasbag54
(g70
g56
NtRp566
(dp567
g59
(dp568
sg68
g462
sg61
(lp569
g54
(g75
g56
NtRp570
(dp571
g59
(dp572
g79
g80
ssg68
g566
sg61
(lp573
g386
asbag54
(g75
g56
NtRp574
(dp575
g59
(dp576
g86
g87
ssg68
g566
sg61
(lp577
S':'
asbag54
(g75
g56
NtRp578
(dp579
g59
(dp580
sg68
g566
sg61
(lp581
g54
(g55
g56
NtRp582
(dp583
g59
(dp584
g67
I3
ssg68
g578
sg61
(lp585
S''
asbasbasbag54
(g70
g56
NtRp586
(dp587
g59
(dp588
sg68
g462
sg61
(lp589
g54
(g75
g56
NtRp590
(dp591
g59
(dp592
g79
g80
ssg68
g586
sg61
(lp593
g407
asbag54
(g75
g56
NtRp594
(dp595
g59
(dp596
g86
g87
ssg68
g586
sg61
(lp597
S':'
asbag54
(g75
g56
NtRp598
(dp599
g59
(dp600
sg68
g586
sg61
(lp601
g54
(g55
g56
NtRp602
(dp603
g59
(dp604
g67
I3
ssg68
g598
sg61
(lp605
S''
asbasbasbag54
(g70
g56
NtRp606
(dp607
g59
(dp608
sg68
g462
sg61
(lp609
g54
(g75
g56
NtRp610
(dp611
g59
(dp612
g79
g80
ssg68
g606
sg61
(lp613
g428
asbag54
(g75
g56
NtRp614
(dp615
g59
(dp616
g86
g87
ssg68
g606
sg61
(lp617
S':'
asbag54
(g75
g56
NtRp618
(dp619
g59
(dp620
sg68
g606
sg61
(lp621
g54
(g55
g56
NtRp622
(dp623
g59
(dp624
g67
I3
ssg68
g618
sg61
(lp625
S''
asbasbasbasbasbasbasbag54
(g70
g56
NtRp626
(dp627
g59
(dp628
sg68
g244
sg61
(lp629
g54
(g75
g56
NtRp630
(dp631
g59
(dp632
g79
g80
ssg68
g626
sg61
(lp633
S'session_id_globaleaks'
p634
asbag54
(g75
g56
NtRp635
(dp636
g59
(dp637
g86
g87
ssg68
g626
sg61
(lp638
S':'
asbag54
(g75
g56
NtRp639
(dp640
g59
(dp641
sg68
g626
sg61
(lp642
g54
(g55
g56
NtRp643
(dp644
g59
(dp645
g67
I4
ssg68
g639
sg61
(lp646
g54
(g63
g56
NtRp647
(dp648
g59
(dp649
g67
I3
ssg68
Nsg61
(lp650
g54
(g70
g56
NtRp651
(dp652
g59
(dp653
sg68
g647
sg61
(lp654
g54
(g75
g56
NtRp655
(dp656
g59
(dp657
g79
g80
ssg68
g651
sg61
(lp658
g281
asbag54
(g75
g56
NtRp659
(dp660
g59
(dp661
g86
g87
ssg68
g651
sg61
(lp662
S':'
asbag54
(g75
g56
NtRp663
(dp664
g59
(dp665
sg68
g651
sg61
(lp666
g54
(g55
g56
NtRp667
(dp668
g59
(dp669
g67
I3
ssg68
g663
sg61
(lp670
S''
asbasbasbag54
(g70
g56
NtRp671
(dp672
g59
(dp673
sg68
g647
sg61
(lp674
g54
(g75
g56
NtRp675
(dp676
g59
(dp677
g79
g80
ssg68
g671
sg61
(lp678
g302
asbag54
(g75
g56
NtRp679
(dp680
g59
(dp681
g86
g87
ssg68
g671
sg61
(lp682
S':'
asbag54
(g75
g56
NtRp683
(dp684
g59
(dp685
sg68
g671
sg61
(lp686
g54
(g55
g56
NtRp687
(dp688
g59
(dp689
g67
I3
ssg68
g683
sg61
(lp690
S''
asbasbasbag54
(g70
g56
NtRp691
(dp692
g59
(dp693
sg68
g647
sg61
(lp694
g54
(g75
g56
NtRp695
(dp696
g59
(dp697
g79
g80
ssg68
g691
sg61
(lp698
g323
asbag54
(g75
g56
NtRp699
(dp700
g59
(dp701
g86
g87
ssg68
g691
sg61
(lp702
S':'
asbag54
(g75
g56
NtRp703
(dp704
g59
(dp705
sg68
g691
sg61
(lp706
g54
(g55
g56
NtRp707
(dp708
g59
(dp709
g67
I3
ssg68
g703
sg61
(lp710
S''
asbasbasbag54
(g70
g56
NtRp711
(dp712
g59
(dp713
sg68
g647
sg61
(lp714
g54
(g75
g56
NtRp715
(dp716
g59
(dp717
g79
g80
ssg68
g711
sg61
(lp718
g344
asbag54
(g75
g56
NtRp719
(dp720
g59
(dp721
g86
g87
ssg68
g711
sg61
(lp722
S':'
asbag54
(g75
g56
NtRp723
(dp724
g59
(dp725
sg68
g711
sg61
(lp726
g54
(g55
g56
NtRp727
(dp728
g59
(dp729
g67
I3
ssg68
g723
sg61
(lp730
S''
asbasbasbag54
(g70
g56
NtRp731
(dp732
g59
(dp733
sg68
g647
sg61
(lp734
g54
(g75
g56
NtRp735
(dp736
g59
(dp737
g79
g80
ssg68
g731
sg61
(lp738
g365
asbag54
(g75
g56
NtRp739
(dp740
g59
(dp741
g86
g87
ssg68
g731
sg61
(lp742
S':'
asbag54
(g75
g56
NtRp743
(dp744
g59
(dp745
sg68
g731
sg61
(lp746
g54
(g55
g56
NtRp747
(dp748
g59
(dp749
g67
I3
ssg68
g743
sg61
(lp750
S''
asbasbasbag54
(g70
g56
NtRp751
(dp752
g59
(dp753
sg68
g647
sg61
(lp754
g54
(g75
g56
NtRp755
(dp756
g59
(dp757
g79
g80
ssg68
g751
sg61
(lp758
g386
asbag54
(g75
g56
NtRp759
(dp760
g59
(dp761
g86
g87
ssg68
g751
sg61
(lp762
S':'
asbag54
(g75
g56
NtRp763
(dp764
g59
(dp765
sg68
g751
sg61
(lp766
g54
(g55
g56
NtRp767
(dp768
g59
(dp769
g67
I3
ssg68
g763
sg61
(lp770
S''
asbasbasbag54
(g70
g56
NtRp771
(dp772
g59
(dp773
sg68
g647
sg61
(lp774
g54
(g75
g56
NtRp775
(dp776
g59
(dp777
g79
g80
ssg68
g771
sg61
(lp778
g407
asbag54
(g75
g56
NtRp779
(dp780
g59
(dp781
g86
g87
ssg68
g771
sg61
(lp782
S':'
asbag54
(g75
g56
NtRp783
(dp784
g59
(dp785
sg68
g771
sg61
(lp786
g54
(g55
g56
NtRp787
(dp788
g59
(dp789
g67
I3
ssg68
g783
sg61
(lp790
S''
asbasbasbag54
(g70
g56
NtRp791
(dp792
g59
(dp793
sg68
g647
sg61
(lp794
g54
(g75
g56
NtRp795
(dp796
g59
(dp797
g79
g80
ssg68
g791
sg61
(lp798
g428
asbag54
(g75
g56
NtRp799
(dp800
g59
(dp801
g86
g87
ssg68
g791
sg61
(lp802
S':'
asbag54
(g75
g56
NtRp803
(dp804
g59
(dp805
sg68
g791
sg61
(lp806
g54
(g55
g56
NtRp807
(dp808
g59
(dp809
g67
I3
ssg68
g803
sg61
(lp810
S''
asbasbasbasbasbasbasbag54
(g70
g56
NtRp811
(dp812
g59
(dp813
sg68
g244
sg61
(lp814
g54
(g75
g56
NtRp815
(dp816
g59
(dp817
g79
g80
ssg68
g811
sg61
(lp818
S'session_id_init'
p819
asbag54
(g75
g56
NtRp820
(dp821
g59
(dp822
g86
g87
ssg68
g811
sg61
(lp823
S':'
asbag54
(g75
g56
NtRp824
(dp825
g59
(dp826
sg68
g811
sg61
(lp827
g54
(g55
g56
NtRp828
(dp829
g59
(dp830
g67
I4
ssg68
g824
sg61
(lp831
g54
(g63
g56
NtRp832
(dp833
g59
(dp834
g67
I3
ssg68
Nsg61
(lp835
g54
(g70
g56
NtRp836
(dp837
g59
(dp838
sg68
g832
sg61
(lp839
g54
(g75
g56
NtRp840
(dp841
g59
(dp842
g79
g80
ssg68
g836
sg61
(lp843
g281
asbag54
(g75
g56
NtRp844
(dp845
g59
(dp846
g86
g87
ssg68
g836
sg61
(lp847
S':'
asbag54
(g75
g56
NtRp848
(dp849
g59
(dp850
sg68
g836
sg61
(lp851
g54
(g55
g56
NtRp852
(dp853
g59
(dp854
g67
I3
ssg68
g848
sg61
(lp855
S''
asbasbasbag54
(g70
g56
NtRp856
(dp857
g59
(dp858
sg68
g832
sg61
(lp859
g54
(g75
g56
NtRp860
(dp861
g59
(dp862
g79
g80
ssg68
g856
sg61
(lp863
g302
asbag54
(g75
g56
NtRp864
(dp865
g59
(dp866
g86
g87
ssg68
g856
sg61
(lp867
S':'
asbag54
(g75
g56
NtRp868
(dp869
g59
(dp870
sg68
g856
sg61
(lp871
g54
(g55
g56
NtRp872
(dp873
g59
(dp874
g67
I3
ssg68
g868
sg61
(lp875
S''
asbasbasbag54
(g70
g56
NtRp876
(dp877
g59
(dp878
sg68
g832
sg61
(lp879
g54
(g75
g56
NtRp880
(dp881
g59
(dp882
g79
g80
ssg68
g876
sg61
(lp883
g323
asbag54
(g75
g56
NtRp884
(dp885
g59
(dp886
g86
g87
ssg68
g876
sg61
(lp887
S':'
asbag54
(g75
g56
NtRp888
(dp889
g59
(dp890
sg68
g876
sg61
(lp891
g54
(g55
g56
NtRp892
(dp893
g59
(dp894
g67
I3
ssg68
g888
sg61
(lp895
S''
asbasbasbag54
(g70
g56
NtRp896
(dp897
g59
(dp898
sg68
g832
sg61
(lp899
g54
(g75
g56
NtRp900
(dp901
g59
(dp902
g79
g80
ssg68
g896
sg61
(lp903
g344
asbag54
(g75
g56
NtRp904
(dp905
g59
(dp906
g86
g87
ssg68
g896
sg61
(lp907
S':'
asbag54
(g75
g56
NtRp908
(dp909
g59
(dp910
sg68
g896
sg61
(lp911
g54
(g55
g56
NtRp912
(dp913
g59
(dp914
g67
I3
ssg68
g908
sg61
(lp915
S''
asbasbasbag54
(g70
g56
NtRp916
(dp917
g59
(dp918
sg68
g832
sg61
(lp919
g54
(g75
g56
NtRp920
(dp921
g59
(dp922
g79
g80
ssg68
g916
sg61
(lp923
g365
asbag54
(g75
g56
NtRp924
(dp925
g59
(dp926
g86
g87
ssg68
g916
sg61
(lp927
S':'
asbag54
(g75
g56
NtRp928
(dp929
g59
(dp930
sg68
g916
sg61
(lp931
g54
(g55
g56
NtRp932
(dp933
g59
(dp934
g67
I3
ssg68
g928
sg61
(lp935
S''
asbasbasbag54
(g70
g56
NtRp936
(dp937
g59
(dp938
sg68
g832
sg61
(lp939
g54
(g75
g56
NtRp940
(dp941
g59
(dp942
g79
g80
ssg68
g936
sg61
(lp943
g386
asbag54
(g75
g56
NtRp944
(dp945
g59
(dp946
g86
g87
ssg68
g936
sg61
(lp947
S':'
asbag54
(g75
g56
NtRp948
(dp949
g59
(dp950
sg68
g936
sg61
(lp951
g54
(g55
g56
NtRp952
(dp953
g59
(dp954
g67
I3
ssg68
g948
sg61
(lp955
S''
asbasbasbag54
(g70
g56
NtRp956
(dp957
g59
(dp958
sg68
g832
sg61
(lp959
g54
(g75
g56
NtRp960
(dp961
g59
(dp962
g79
g80
ssg68
g956
sg61
(lp963
g407
asbag54
(g75
g56
NtRp964
(dp965
g59
(dp966
g86
g87
ssg68
g956
sg61
(lp967
S':'
asbag54
(g75
g56
NtRp968
(dp969
g59
(dp970
sg68
g956
sg61
(lp971
g54
(g55
g56
NtRp972
(dp973
g59
(dp974
g67
I3
ssg68
g968
sg61
(lp975
S''
asbasbasbag54
(g70
g56
NtRp976
(dp977
g59
(dp978
sg68
g832
sg61
(lp979
g54
(g75
g56
NtRp980
(dp981
g59
(dp982
g79
g80
ssg68
g976
sg61
(lp983
g428
asbag54
(g75
g56
NtRp984
(dp985
g59
(dp986
g86
g87
ssg68
g976
sg61
(lp987
S':'
asbag54
(g75
g56
NtRp988
(dp989
g59
(dp990
sg68
g976
sg61
(lp991
g54
(g55
g56
NtRp992
(dp993
g59
(dp994
g67
I3
ssg68
g988
sg61
(lp995
S''
asbasbasbasbasbasbasbasbasbasbasbag54
(g70
g56
NtRp996
(dp997
g59
(dp998
sg68
g64
sg61
(lp999
g54
(g75
g56
NtRp1000
(dp1001
g59
(dp1002
g79
g80
ssg68
g996
sg61
(lp1003
S'env'
p1004
asbag54
(g75
g56
NtRp1005
(dp1006
g59
(dp1007
g86
g87
ssg68
g996
sg61
(lp1008
S':'
asbag54
(g75
g56
NtRp1009
(dp1010
g59
(dp1011
sg68
g996
sg61
(lp1012
g54
(g55
g56
NtRp1013
(dp1014
g59
(dp1015
g67
I5
ssg68
g1009
sg61
(lp1016
g54
(g63
g56
NtRp1017
(dp1018
g59
(dp1019
g67
I4
ssg68
Nsg61
(lp1020
g54
(g70
g56
NtRp1021
(dp1022
g59
(dp1023
sg68
g1017
sg61
(lp1024
g54
(g75
g56
NtRp1025
(dp1026
g59
(dp1027
g79
g80
ssg68
g1021
sg61
(lp1028
S'app_folders'
p1029
asbag54
(g75
g56
NtRp1030
(dp1031
g59
(dp1032
g86
g87
ssg68
g1021
sg61
(lp1033
S':'
asbag54
(g75
g56
NtRp1034
(dp1035
g59
(dp1036
sg68
g1021
sg61
(lp1037
g54
(g55
g56
NtRp1038
(dp1039
g59
(dp1040
g67
I4
ssg68
g1034
sg61
(lp1041
S"set(['/Users/hellais/Documents/code/mygit/globaleaks/webapp/applications/init/', '/Users/hellais/Documents/code/mygit/globaleaks/webapp/applications/admin/'])"
p1042
asbasbasbag54
(g70
g56
NtRp1043
(dp1044
g59
(dp1045
sg68
g1017
sg61
(lp1046
g54
(g75
g56
NtRp1047
(dp1048
g59
(dp1049
g79
g80
ssg68
g1043
sg61
(lp1050
S'applications_parent'
p1051
asbag54
(g75
g56
NtRp1052
(dp1053
g59
(dp1054
g86
g87
ssg68
g1043
sg61
(lp1055
S':'
asbag54
(g75
g56
NtRp1056
(dp1057
g59
(dp1058
sg68
g1043
sg61
(lp1059
g54
(g55
g56
NtRp1060
(dp1061
g59
(dp1062
g67
I4
ssg68
g1056
sg61
(lp1063
S'/Users/hellais/Documents/code/mygit/globaleaks/webapp'
p1064
asbasbasbag54
(g70
g56
NtRp1065
(dp1066
g59
(dp1067
sg68
g1017
sg61
(lp1068
g54
(g75
g56
NtRp1069
(dp1070
g59
(dp1071
g79
g80
ssg68
g1065
sg61
(lp1072
S'cmd_args'
p1073
asbag54
(g75
g56
NtRp1074
(dp1075
g59
(dp1076
g86
g87
ssg68
g1065
sg61
(lp1077
S':'
asbag54
(g75
g56
NtRp1078
(dp1079
g59
(dp1080
sg68
g1065
sg61
(lp1081
g54
(g55
g56
NtRp1082
(dp1083
g59
(dp1084
g67
I4
ssg68
g1078
sg61
(lp1085
g54
(g63
g56
NtRp1086
(dp1087
g59
(dp1088
g67
I3
ssg68
Nsg61
(lp1089
sbasbasbasbag54
(g70
g56
NtRp1090
(dp1091
g59
(dp1092
sg68
g1017
sg61
(lp1093
g54
(g75
g56
NtRp1094
(dp1095
g59
(dp1096
g79
g80
ssg68
g1090
sg61
(lp1097
S'cmd_options'
p1098
asbag54
(g75
g56
NtRp1099
(dp1100
g59
(dp1101
g86
g87
ssg68
g1090
sg61
(lp1102
S':'
asbag54
(g75
g56
NtRp1103
(dp1104
g59
(dp1105
sg68
g1090
sg61
(lp1106
g54
(g55
g56
NtRp1107
(dp1108
g59
(dp1109
g67
I4
ssg68
g1103
sg61
(lp1110
S"<Values at 0x1015f1320: {'verbose': False, 'ip': '127.0.0.1', 'shutdown_timeout': 5, 'taskbar': False, 'port': 8000, 'maxthreads': None, 'softcron': False, 'server_name': 'Jeanne.local', 'bpython': False, 'nogui': False, 'nocron': False, 'extcron': False, 'debuglevel': 30, 'test': None, 'folder': '/Users/hellais/Documents/code/mygit/globaleaks/webapp', 'config': '', 'import_models': False, 'winservice': '', 'shell': None, 'run': '', 'log_filename': 'httpserver.log', 'args': [''], 'profiler_filename': None, 'ssl_private_key': '', 'password': 'antani', 'request_queue_size': 5, 'ssl_certificate': '', 'cronjob': False, 'plain': False, 'quiet': False, 'interfaces': None, 'minthreads': None, 'timeout': 10, 'numthreads': None, 'nobanner': False, 'pid_filename': 'httpserver.pid'}>"
p1111
asbasbasbag54
(g70
g56
NtRp1112
(dp1113
g59
(dp1114
sg68
g1017
sg61
(lp1115
g54
(g75
g56
NtRp1116
(dp1117
g59
(dp1118
g79
g80
ssg68
g1112
sg61
(lp1119
S'content_length'
p1120
asbag54
(g75
g56
NtRp1121
(dp1122
g59
(dp1123
g86
g87
ssg68
g1112
sg61
(lp1124
S':'
asbag54
(g75
g56
NtRp1125
(dp1126
g59
(dp1127
sg68
g1112
sg61
(lp1128
g54
(g55
g56
NtRp1129
(dp1130
g59
(dp1131
g67
I4
ssg68
g1125
sg61
(lp1132
S'22'
p1133
asbasbasbag54
(g70
g56
NtRp1134
(dp1135
g59
(dp1136
sg68
g1017
sg61
(lp1137
g54
(g75
g56
NtRp1138
(dp1139
g59
(dp1140
g79
g80
ssg68
g1134
sg61
(lp1141
S'content_type'
p1142
asbag54
(g75
g56
NtRp1143
(dp1144
g59
(dp1145
g86
g87
ssg68
g1134
sg61
(lp1146
S':'
asbag54
(g75
g56
NtRp1147
(dp1148
g59
(dp1149
sg68
g1134
sg61
(lp1150
g54
(g55
g56
NtRp1151
(dp1152
g59
(dp1153
g67
I4
ssg68
g1147
sg61
(lp1154
S'application/x-www-form-urlencoded; charset=UTF-8'
p1155
asbasbasbag54
(g70
g56
NtRp1156
(dp1157
g59
(dp1158
sg68
g1017
sg61
(lp1159
g54
(g75
g56
NtRp1160
(dp1161
g59
(dp1162
g79
g80
ssg68
g1156
sg61
(lp1163
S'db_sessions'
p1164
asbag54
(g75
g56
NtRp1165
(dp1166
g59
(dp1167
g86
g87
ssg68
g1156
sg61
(lp1168
S':'
asbag54
(g75
g56
NtRp1169
(dp1170
g59
(dp1171
sg68
g1156
sg61
(lp1172
g54
(g55
g56
NtRp1173
(dp1174
g59
(dp1175
g67
I4
ssg68
g1169
sg61
(lp1176
S'set([])'
p1177
asbasbasbag54
(g70
g56
NtRp1178
(dp1179
g59
(dp1180
sg68
g1017
sg61
(lp1181
g54
(g75
g56
NtRp1182
(dp1183
g59
(dp1184
g79
g80
ssg68
g1178
sg61
(lp1185
S'debugging'
p1186
asbag54
(g75
g56
NtRp1187
(dp1188
g59
(dp1189
g86
g87
ssg68
g1178
sg61
(lp1190
S':'
asbag54
(g75
g56
NtRp1191
(dp1192
g59
(dp1193
sg68
g1178
sg61
(lp1194
g54
(g55
g56
NtRp1195
(dp1196
g59
(dp1197
g67
I4
ssg68
g1191
sg61
(lp1198
S'False'
p1199
asbasbasbag54
(g70
g56
NtRp1200
(dp1201
g59
(dp1202
sg68
g1017
sg61
(lp1203
g54
(g75
g56
NtRp1204
(dp1205
g59
(dp1206
g79
g80
ssg68
g1200
sg61
(lp1207
S'gluon_parent'
p1208
asbag54
(g75
g56
NtRp1209
(dp1210
g59
(dp1211
g86
g87
ssg68
g1200
sg61
(lp1212
S':'
asbag54
(g75
g56
NtRp1213
(dp1214
g59
(dp1215
sg68
g1200
sg61
(lp1216
g54
(g55
g56
NtRp1217
(dp1218
g59
(dp1219
g67
I4
ssg68
g1213
sg61
(lp1220
S'/Users/hellais/Documents/code/mygit/globaleaks/webapp'
p1221
asbasbasbag54
(g70
g56
NtRp1222
(dp1223
g59
(dp1224
sg68
g1017
sg61
(lp1225
g54
(g75
g56
NtRp1226
(dp1227
g59
(dp1228
g79
g80
ssg68
g1222
sg61
(lp1229
S'http_accept'
p1230
asbag54
(g75
g56
NtRp1231
(dp1232
g59
(dp1233
g86
g87
ssg68
g1222
sg61
(lp1234
S':'
asbag54
(g75
g56
NtRp1235
(dp1236
g59
(dp1237
sg68
g1222
sg61
(lp1238
g54
(g55
g56
NtRp1239
(dp1240
g59
(dp1241
g67
I4
ssg68
g1235
sg61
(lp1242
S'*/*'
p1243
asbasbasbag54
(g70
g56
NtRp1244
(dp1245
g59
(dp1246
sg68
g1017
sg61
(lp1247
g54
(g75
g56
NtRp1248
(dp1249
g59
(dp1250
g79
g80
ssg68
g1244
sg61
(lp1251
S'http_accept_charset'
p1252
asbag54
(g75
g56
NtRp1253
(dp1254
g59
(dp1255
g86
g87
ssg68
g1244
sg61
(lp1256
S':'
asbag54
(g75
g56
NtRp1257
(dp1258
g59
(dp1259
sg68
g1244
sg61
(lp1260
g54
(g55
g56
NtRp1261
(dp1262
g59
(dp1263
g67
I4
ssg68
g1257
sg61
(lp1264
S'ISO-8859-1,utf-8;q=0.7,*;q=0.7'
p1265
asbasbasbag54
(g70
g56
NtRp1266
(dp1267
g59
(dp1268
sg68
g1017
sg61
(lp1269
g54
(g75
g56
NtRp1270
(dp1271
g59
(dp1272
g79
g80
ssg68
g1266
sg61
(lp1273
S'http_accept_encoding'
p1274
asbag54
(g75
g56
NtRp1275
(dp1276
g59
(dp1277
g86
g87
ssg68
g1266
sg61
(lp1278
S':'
asbag54
(g75
g56
NtRp1279
(dp1280
g59
(dp1281
sg68
g1266
sg61
(lp1282
g54
(g55
g56
NtRp1283
(dp1284
g59
(dp1285
g67
I4
ssg68
g1279
sg61
(lp1286
S'gzip, deflate'
p1287
asbasbasbag54
(g70
g56
NtRp1288
(dp1289
g59
(dp1290
sg68
g1017
sg61
(lp1291
g54
(g75
g56
NtRp1292
(dp1293
g59
(dp1294
g79
g80
ssg68
g1288
sg61
(lp1295
S'http_accept_language'
p1296
asbag54
(g75
g56
NtRp1297
(dp1298
g59
(dp1299
g86
g87
ssg68
g1288
sg61
(lp1300
S':'
asbag54
(g75
g56
NtRp1301
(dp1302
g59
(dp1303
sg68
g1288
sg61
(lp1304
g54
(g55
g56
NtRp1305
(dp1306
g59
(dp1307
g67
I4
ssg68
g1301
sg61
(lp1308
S'en-us,en;q=0.5'
p1309
asbasbasbag54
(g70
g56
NtRp1310
(dp1311
g59
(dp1312
sg68
g1017
sg61
(lp1313
g54
(g75
g56
NtRp1314
(dp1315
g59
(dp1316
g79
g80
ssg68
g1310
sg61
(lp1317
S'http_cache_control'
p1318
asbag54
(g75
g56
NtRp1319
(dp1320
g59
(dp1321
g86
g87
ssg68
g1310
sg61
(lp1322
S':'
asbag54
(g75
g56
NtRp1323
(dp1324
g59
(dp1325
sg68
g1310
sg61
(lp1326
g54
(g55
g56
NtRp1327
(dp1328
g59
(dp1329
g67
I4
ssg68
g1323
sg61
(lp1330
S'no-cache'
p1331
asbasbasbag54
(g70
g56
NtRp1332
(dp1333
g59
(dp1334
sg68
g1017
sg61
(lp1335
g54
(g75
g56
NtRp1336
(dp1337
g59
(dp1338
g79
g80
ssg68
g1332
sg61
(lp1339
S'http_connection'
p1340
asbag54
(g75
g56
NtRp1341
(dp1342
g59
(dp1343
g86
g87
ssg68
g1332
sg61
(lp1344
S':'
asbag54
(g75
g56
NtRp1345
(dp1346
g59
(dp1347
sg68
g1332
sg61
(lp1348
g54
(g55
g56
NtRp1349
(dp1350
g59
(dp1351
g67
I4
ssg68
g1345
sg61
(lp1352
S'keep-alive'
p1353
asbasbasbag54
(g70
g56
NtRp1354
(dp1355
g59
(dp1356
sg68
g1017
sg61
(lp1357
g54
(g75
g56
NtRp1358
(dp1359
g59
(dp1360
g79
g80
ssg68
g1354
sg61
(lp1361
S'http_content_length'
p1362
asbag54
(g75
g56
NtRp1363
(dp1364
g59
(dp1365
g86
g87
ssg68
g1354
sg61
(lp1366
S':'
asbag54
(g75
g56
NtRp1367
(dp1368
g59
(dp1369
sg68
g1354
sg61
(lp1370
g54
(g55
g56
NtRp1371
(dp1372
g59
(dp1373
g67
I4
ssg68
g1367
sg61
(lp1374
g1133
asbasbasbag54
(g70
g56
NtRp1375
(dp1376
g59
(dp1377
sg68
g1017
sg61
(lp1378
g54
(g75
g56
NtRp1379
(dp1380
g59
(dp1381
g79
g80
ssg68
g1375
sg61
(lp1382
S'http_content_type'
p1383
asbag54
(g75
g56
NtRp1384
(dp1385
g59
(dp1386
g86
g87
ssg68
g1375
sg61
(lp1387
S':'
asbag54
(g75
g56
NtRp1388
(dp1389
g59
(dp1390
sg68
g1375
sg61
(lp1391
g54
(g55
g56
NtRp1392
(dp1393
g59
(dp1394
g67
I4
ssg68
g1388
sg61
(lp1395
g1155
asbasbasbag54
(g70
g56
NtRp1396
(dp1397
g59
(dp1398
sg68
g1017
sg61
(lp1399
g54
(g75
g56
NtRp1400
(dp1401
g59
(dp1402
g79
g80
ssg68
g1396
sg61
(lp1403
S'http_cookie'
p1404
asbag54
(g75
g56
NtRp1405
(dp1406
g59
(dp1407
g86
g87
ssg68
g1396
sg61
(lp1408
S':'
asbag54
(g75
g56
NtRp1409
(dp1410
g59
(dp1411
sg68
g1396
sg61
(lp1412
g54
(g55
g56
NtRp1413
(dp1414
g59
(dp1415
g67
I4
ssg68
g1409
sg61
(lp1416
S'session_id_admin=127.0.0.1-67122ce4-50b2-4acf-b28e-7a14feeff4d9; session_id_globaleaks=127.0.0.1-c6d5b9b3-1ec7-41c1-8d72-04c21b7a6b11; session_id_blabla=127.0.0.1-c445384e-a3ea-4484-8fe2-52f3295bbb7c; session_id_init=127.0.0.1-a8551263-bc3c-430c-abb2-8711fac671c1'
p1417
asbasbasbag54
(g70
g56
NtRp1418
(dp1419
g59
(dp1420
sg68
g1017
sg61
(lp1421
g54
(g75
g56
NtRp1422
(dp1423
g59
(dp1424
g79
g80
ssg68
g1418
sg61
(lp1425
S'http_host'
p1426
asbag54
(g75
g56
NtRp1427
(dp1428
g59
(dp1429
g86
g87
ssg68
g1418
sg61
(lp1430
S':'
asbag54
(g75
g56
NtRp1431
(dp1432
g59
(dp1433
sg68
g1418
sg61
(lp1434
g54
(g55
g56
NtRp1435
(dp1436
g59
(dp1437
g67
I4
ssg68
g1431
sg61
(lp1438
S'127.0.0.1:8000'
p1439
asbasbasbag54
(g70
g56
NtRp1440
(dp1441
g59
(dp1442
sg68
g1017
sg61
(lp1443
g54
(g75
g56
NtRp1444
(dp1445
g59
(dp1446
g79
g80
ssg68
g1440
sg61
(lp1447
S'http_pragma'
p1448
asbag54
(g75
g56
NtRp1449
(dp1450
g59
(dp1451
g86
g87
ssg68
g1440
sg61
(lp1452
S':'
asbag54
(g75
g56
NtRp1453
(dp1454
g59
(dp1455
sg68
g1440
sg61
(lp1456
g54
(g55
g56
NtRp1457
(dp1458
g59
(dp1459
g67
I4
ssg68
g1453
sg61
(lp1460
S'no-cache'
p1461
asbasbasbag54
(g70
g56
NtRp1462
(dp1463
g59
(dp1464
sg68
g1017
sg61
(lp1465
g54
(g75
g56
NtRp1466
(dp1467
g59
(dp1468
g79
g80
ssg68
g1462
sg61
(lp1469
S'http_referer'
p1470
asbag54
(g75
g56
NtRp1471
(dp1472
g59
(dp1473
g86
g87
ssg68
g1462
sg61
(lp1474
S':'
asbag54
(g75
g56
NtRp1475
(dp1476
g59
(dp1477
sg68
g1462
sg61
(lp1478
g54
(g55
g56
NtRp1479
(dp1480
g59
(dp1481
g67
I4
ssg68
g1475
sg61
(lp1482
S'http://127.0.0.1:8000/admin/shell/index/init'
p1483
asbasbasbag54
(g70
g56
NtRp1484
(dp1485
g59
(dp1486
sg68
g1017
sg61
(lp1487
g54
(g75
g56
NtRp1488
(dp1489
g59
(dp1490
g79
g80
ssg68
g1484
sg61
(lp1491
S'http_user_agent'
p1492
asbag54
(g75
g56
NtRp1493
(dp1494
g59
(dp1495
g86
g87
ssg68
g1484
sg61
(lp1496
S':'
asbag54
(g75
g56
NtRp1497
(dp1498
g59
(dp1499
sg68
g1484
sg61
(lp1500
g54
(g55
g56
NtRp1501
(dp1502
g59
(dp1503
g67
I4
ssg68
g1497
sg61
(lp1504
S'Mozilla/5.0 (Macintosh; Intel Mac OS X 10.6; rv:5.0.1) Gecko/20100101 Firefox/5.0.1'
p1505
asbasbasbag54
(g70
g56
NtRp1506
(dp1507
g59
(dp1508
sg68
g1017
sg61
(lp1509
g54
(g75
g56
NtRp1510
(dp1511
g59
(dp1512
g79
g80
ssg68
g1506
sg61
(lp1513
S'http_x_requested_with'
p1514
asbag54
(g75
g56
NtRp1515
(dp1516
g59
(dp1517
g86
g87
ssg68
g1506
sg61
(lp1518
S':'
asbag54
(g75
g56
NtRp1519
(dp1520
g59
(dp1521
sg68
g1506
sg61
(lp1522
g54
(g55
g56
NtRp1523
(dp1524
g59
(dp1525
g67
I4
ssg68
g1519
sg61
(lp1526
S'XMLHttpRequest'
p1527
asbasbasbag54
(g70
g56
NtRp1528
(dp1529
g59
(dp1530
sg68
g1017
sg61
(lp1531
g54
(g75
g56
NtRp1532
(dp1533
g59
(dp1534
g79
g80
ssg68
g1528
sg61
(lp1535
S'is_jython'
p1536
asbag54
(g75
g56
NtRp1537
(dp1538
g59
(dp1539
g86
g87
ssg68
g1528
sg61
(lp1540
S':'
asbag54
(g75
g56
NtRp1541
(dp1542
g59
(dp1543
sg68
g1528
sg61
(lp1544
g54
(g55
g56
NtRp1545
(dp1546
g59
(dp1547
g67
I4
ssg68
g1541
sg61
(lp1548
g1199
asbasbasbag54
(g70
g56
NtRp1549
(dp1550
g59
(dp1551
sg68
g1017
sg61
(lp1552
g54
(g75
g56
NtRp1553
(dp1554
g59
(dp1555
g79
g80
ssg68
g1549
sg61
(lp1556
S'path_info'
p1557
asbag54
(g75
g56
NtRp1558
(dp1559
g59
(dp1560
g86
g87
ssg68
g1549
sg61
(lp1561
S':'
asbag54
(g75
g56
NtRp1562
(dp1563
g59
(dp1564
sg68
g1549
sg61
(lp1565
g54
(g55
g56
NtRp1566
(dp1567
g59
(dp1568
g67
I4
ssg68
g1562
sg61
(lp1569
S'/admin/shell/callback/init'
p1570
asbasbasbag54
(g70
g56
NtRp1571
(dp1572
g59
(dp1573
sg68
g1017
sg61
(lp1574
g54
(g75
g56
NtRp1575
(dp1576
g59
(dp1577
g79
g80
ssg68
g1571
sg61
(lp1578
S'query_string'
p1579
asbag54
(g75
g56
NtRp1580
(dp1581
g59
(dp1582
g86
g87
ssg68
g1571
sg61
(lp1583
S':'
asbag54
(g75
g56
NtRp1584
(dp1585
g59
(dp1586
sg68
g1571
sg61
(lp1587
g54
(g55
g56
NtRp1588
(dp1589
g59
(dp1590
g67
I4
ssg68
g1584
sg61
(lp1591
S''
asbasbasbag54
(g70
g56
NtRp1592
(dp1593
g59
(dp1594
sg68
g1017
sg61
(lp1595
g54
(g75
g56
NtRp1596
(dp1597
g59
(dp1598
g79
g80
ssg68
g1592
sg61
(lp1599
S'remote_addr'
p1600
asbag54
(g75
g56
NtRp1601
(dp1602
g59
(dp1603
g86
g87
ssg68
g1592
sg61
(lp1604
S':'
asbag54
(g75
g56
NtRp1605
(dp1606
g59
(dp1607
sg68
g1592
sg61
(lp1608
g54
(g55
g56
NtRp1609
(dp1610
g59
(dp1611
g67
I4
ssg68
g1605
sg61
(lp1612
g200
asbasbasbag54
(g70
g56
NtRp1613
(dp1614
g59
(dp1615
sg68
g1017
sg61
(lp1616
g54
(g75
g56
NtRp1617
(dp1618
g59
(dp1619
g79
g80
ssg68
g1613
sg61
(lp1620
S'remote_port'
p1621
asbag54
(g75
g56
NtRp1622
(dp1623
g59
(dp1624
g86
g87
ssg68
g1613
sg61
(lp1625
S':'
asbag54
(g75
g56
NtRp1626
(dp1627
g59
(dp1628
sg68
g1613
sg61
(lp1629
g54
(g55
g56
NtRp1630
(dp1631
g59
(dp1632
g67
I4
ssg68
g1626
sg61
(lp1633
S'54847'
p1634
asbasbasbag54
(g70
g56
NtRp1635
(dp1636
g59
(dp1637
sg68
g1017
sg61
(lp1638
g54
(g75
g56
NtRp1639
(dp1640
g59
(dp1641
g79
g80
ssg68
g1635
sg61
(lp1642
S'request_method'
p1643
asbag54
(g75
g56
NtRp1644
(dp1645
g59
(dp1646
g86
g87
ssg68
g1635
sg61
(lp1647
S':'
asbag54
(g75
g56
NtRp1648
(dp1649
g59
(dp1650
sg68
g1635
sg61
(lp1651
g54
(g55
g56
NtRp1652
(dp1653
g59
(dp1654
g67
I4
ssg68
g1648
sg61
(lp1655
S'POST'
p1656
asbasbasbag54
(g70
g56
NtRp1657
(dp1658
g59
(dp1659
sg68
g1017
sg61
(lp1660
g54
(g75
g56
NtRp1661
(dp1662
g59
(dp1663
g79
g80
ssg68
g1657
sg61
(lp1664
S'script_name'
p1665
asbag54
(g75
g56
NtRp1666
(dp1667
g59
(dp1668
g86
g87
ssg68
g1657
sg61
(lp1669
S':'
asbag54
(g75
g56
NtRp1670
(dp1671
g59
(dp1672
sg68
g1657
sg61
(lp1673
g54
(g55
g56
NtRp1674
(dp1675
g59
(dp1676
g67
I4
ssg68
g1670
sg61
(lp1677
S''
asbasbasbag54
(g70
g56
NtRp1678
(dp1679
g59
(dp1680
sg68
g1017
sg61
(lp1681
g54
(g75
g56
NtRp1682
(dp1683
g59
(dp1684
g79
g80
ssg68
g1678
sg61
(lp1685
S'server_name'
p1686
asbag54
(g75
g56
NtRp1687
(dp1688
g59
(dp1689
g86
g87
ssg68
g1678
sg61
(lp1690
S':'
asbag54
(g75
g56
NtRp1691
(dp1692
g59
(dp1693
sg68
g1678
sg61
(lp1694
g54
(g55
g56
NtRp1695
(dp1696
g59
(dp1697
g67
I4
ssg68
g1691
sg61
(lp1698
S'Jeanne.local'
p1699
asbasbasbag54
(g70
g56
NtRp1700
(dp1701
g59
(dp1702
sg68
g1017
sg61
(lp1703
g54
(g75
g56
NtRp1704
(dp1705
g59
(dp1706
g79
g80
ssg68
g1700
sg61
(lp1707
S'server_port'
p1708
asbag54
(g75
g56
NtRp1709
(dp1710
g59
(dp1711
g86
g87
ssg68
g1700
sg61
(lp1712
S':'
asbag54
(g75
g56
NtRp1713
(dp1714
g59
(dp1715
sg68
g1700
sg61
(lp1716
g54
(g55
g56
NtRp1717
(dp1718
g59
(dp1719
g67
I4
ssg68
g1713
sg61
(lp1720
S'8000'
p1721
asbasbasbag54
(g70
g56
NtRp1722
(dp1723
g59
(dp1724
sg68
g1017
sg61
(lp1725
g54
(g75
g56
NtRp1726
(dp1727
g59
(dp1728
g79
g80
ssg68
g1722
sg61
(lp1729
S'server_protocol'
p1730
asbag54
(g75
g56
NtRp1731
(dp1732
g59
(dp1733
g86
g87
ssg68
g1722
sg61
(lp1734
S':'
asbag54
(g75
g56
NtRp1735
(dp1736
g59
(dp1737
sg68
g1722
sg61
(lp1738
g54
(g55
g56
NtRp1739
(dp1740
g59
(dp1741
g67
I4
ssg68
g1735
sg61
(lp1742
S'HTTP/1.1'
p1743
asbasbasbag54
(g70
g56
NtRp1744
(dp1745
g59
(dp1746
sg68
g1017
sg61
(lp1747
g54
(g75
g56
NtRp1748
(dp1749
g59
(dp1750
g79
g80
ssg68
g1744
sg61
(lp1751
S'server_software'
p1752
asbag54
(g75
g56
NtRp1753
(dp1754
g59
(dp1755
g86
g87
ssg68
g1744
sg61
(lp1756
S':'
asbag54
(g75
g56
NtRp1757
(dp1758
g59
(dp1759
sg68
g1744
sg61
(lp1760
g54
(g55
g56
NtRp1761
(dp1762
g59
(dp1763
g67
I4
ssg68
g1757
sg61
(lp1764
S'Rocket 1.2.2'
p1765
asbasbasbag54
(g70
g56
NtRp1766
(dp1767
g59
(dp1768
sg68
g1017
sg61
(lp1769
g54
(g75
g56
NtRp1770
(dp1771
g59
(dp1772
g79
g80
ssg68
g1766
sg61
(lp1773
S'web2py_crontype'
p1774
asbag54
(g75
g56
NtRp1775
(dp1776
g59
(dp1777
g86
g87
ssg68
g1766
sg61
(lp1778
S':'
asbag54
(g75
g56
NtRp1779
(dp1780
g59
(dp1781
sg68
g1766
sg61
(lp1782
g54
(g55
g56
NtRp1783
(dp1784
g59
(dp1785
g67
I4
ssg68
g1779
sg61
(lp1786
S'hard'
p1787
asbasbasbag54
(g70
g56
NtRp1788
(dp1789
g59
(dp1790
sg68
g1017
sg61
(lp1791
g54
(g75
g56
NtRp1792
(dp1793
g59
(dp1794
g79
g80
ssg68
g1788
sg61
(lp1795
S'web2py_path'
p1796
asbag54
(g75
g56
NtRp1797
(dp1798
g59
(dp1799
g86
g87
ssg68
g1788
sg61
(lp1800
S':'
asbag54
(g75
g56
NtRp1801
(dp1802
g59
(dp1803
sg68
g1788
sg61
(lp1804
g54
(g55
g56
NtRp1805
(dp1806
g59
(dp1807
g67
I4
ssg68
g1801
sg61
(lp1808
g1064
asbasbasbag54
(g70
g56
NtRp1809
(dp1810
g59
(dp1811
sg68
g1017
sg61
(lp1812
g54
(g75
g56
NtRp1813
(dp1814
g59
(dp1815
g79
g80
ssg68
g1809
sg61
(lp1816
S'web2py_version'
p1817
asbag54
(g75
g56
NtRp1818
(dp1819
g59
(dp1820
g86
g87
ssg68
g1809
sg61
(lp1821
S':'
asbag54
(g75
g56
NtRp1822
(dp1823
g59
(dp1824
sg68
g1809
sg61
(lp1825
g54
(g55
g56
NtRp1826
(dp1827
g59
(dp1828
g67
I4
ssg68
g1822
sg61
(lp1829
S'Version 1.98.2 (2011-08-04 00:47:09)\n'
p1830
asbasbasbag54
(g70
g56
NtRp1831
(dp1832
g59
(dp1833
sg68
g1017
sg61
(lp1834
g54
(g75
g56
NtRp1835
(dp1836
g59
(dp1837
g79
g80
ssg68
g1831
sg61
(lp1838
S'wsgi_errors'
p1839
asbag54
(g75
g56
NtRp1840
(dp1841
g59
(dp1842
g86
g87
ssg68
g1831
sg61
(lp1843
S':'
asbag54
(g75
g56
NtRp1844
(dp1845
g59
(dp1846
sg68
g1831
sg61
(lp1847
g54
(g55
g56
NtRp1848
(dp1849
g59
(dp1850
g67
I4
ssg68
g1844
sg61
(lp1851
S"<open file '<stderr>', mode 'w' at 0x100287270>"
p1852
asbasbasbag54
(g70
g56
NtRp1853
(dp1854
g59
(dp1855
sg68
g1017
sg61
(lp1856
g54
(g75
g56
NtRp1857
(dp1858
g59
(dp1859
g79
g80
ssg68
g1853
sg61
(lp1860
S'wsgi_file_wrapper'
p1861
asbag54
(g75
g56
NtRp1862
(dp1863
g59
(dp1864
g86
g87
ssg68
g1853
sg61
(lp1865
S':'
asbag54
(g75
g56
NtRp1866
(dp1867
g59
(dp1868
sg68
g1853
sg61
(lp1869
g54
(g55
g56
NtRp1870
(dp1871
g59
(dp1872
g67
I4
ssg68
g1866
sg61
(lp1873
S'<class gluon.rocket.FileWrapper at 0x101668e20>'
p1874
asbasbasbag54
(g70
g56
NtRp1875
(dp1876
g59
(dp1877
sg68
g1017
sg61
(lp1878
g54
(g75
g56
NtRp1879
(dp1880
g59
(dp1881
g79
g80
ssg68
g1875
sg61
(lp1882
S'wsgi_input'
p1883
asbag54
(g75
g56
NtRp1884
(dp1885
g59
(dp1886
g86
g87
ssg68
g1875
sg61
(lp1887
S':'
asbag54
(g75
g56
NtRp1888
(dp1889
g59
(dp1890
sg68
g1875
sg61
(lp1891
g54
(g55
g56
NtRp1892
(dp1893
g59
(dp1894
g67
I4
ssg68
g1888
sg61
(lp1895
S'<socket._fileobject object at 0x101ddecd0>'
p1896
asbasbasbag54
(g70
g56
NtRp1897
(dp1898
g59
(dp1899
sg68
g1017
sg61
(lp1900
g54
(g75
g56
NtRp1901
(dp1902
g59
(dp1903
g79
g80
ssg68
g1897
sg61
(lp1904
S'wsgi_multiprocess'
p1905
asbag54
(g75
g56
NtRp1906
(dp1907
g59
(dp1908
g86
g87
ssg68
g1897
sg61
(lp1909
S':'
asbag54
(g75
g56
NtRp1910
(dp1911
g59
(dp1912
sg68
g1897
sg61
(lp1913
g54
(g55
g56
NtRp1914
(dp1915
g59
(dp1916
g67
I4
ssg68
g1910
sg61
(lp1917
g1199
asbasbasbag54
(g70
g56
NtRp1918
(dp1919
g59
(dp1920
sg68
g1017
sg61
(lp1921
g54
(g75
g56
NtRp1922
(dp1923
g59
(dp1924
g79
g80
ssg68
g1918
sg61
(lp1925
S'wsgi_multithread'
p1926
asbag54
(g75
g56
NtRp1927
(dp1928
g59
(dp1929
g86
g87
ssg68
g1918
sg61
(lp1930
S':'
asbag54
(g75
g56
NtRp1931
(dp1932
g59
(dp1933
sg68
g1918
sg61
(lp1934
g54
(g55
g56
NtRp1935
(dp1936
g59
(dp1937
g67
I4
ssg68
g1931
sg61
(lp1938
g97
asbasbasbag54
(g70
g56
NtRp1939
(dp1940
g59
(dp1941
sg68
g1017
sg61
(lp1942
g54
(g75
g56
NtRp1943
(dp1944
g59
(dp1945
g79
g80
ssg68
g1939
sg61
(lp1946
S'wsgi_run_once'
p1947
asbag54
(g75
g56
NtRp1948
(dp1949
g59
(dp1950
g86
g87
ssg68
g1939
sg61
(lp1951
S':'
asbag54
(g75
g56
NtRp1952
(dp1953
g59
(dp1954
sg68
g1939
sg61
(lp1955
g54
(g55
g56
NtRp1956
(dp1957
g59
(dp1958
g67
I4
ssg68
g1952
sg61
(lp1959
g1199
asbasbasbag54
(g70
g56
NtRp1960
(dp1961
g59
(dp1962
sg68
g1017
sg61
(lp1963
g54
(g75
g56
NtRp1964
(dp1965
g59
(dp1966
g79
g80
ssg68
g1960
sg61
(lp1967
S'wsgi_url_scheme'
p1968
asbag54
(g75
g56
NtRp1969
(dp1970
g59
(dp1971
g86
g87
ssg68
g1960
sg61
(lp1972
S':'
asbag54
(g75
g56
NtRp1973
(dp1974
g59
(dp1975
sg68
g1960
sg61
(lp1976
g54
(g55
g56
NtRp1977
(dp1978
g59
(dp1979
g67
I4
ssg68
g1973
sg61
(lp1980
S'http'
p1981
asbasbasbag54
(g70
g56
NtRp1982
(dp1983
g59
(dp1984
sg68
g1017
sg61
(lp1985
g54
(g75
g56
NtRp1986
(dp1987
g59
(dp1988
g79
g80
ssg68
g1982
sg61
(lp1989
S'wsgi_version'
p1990
asbag54
(g75
g56
NtRp1991
(dp1992
g59
(dp1993
g86
g87
ssg68
g1982
sg61
(lp1994
S':'
asbag54
(g75
g56
NtRp1995
(dp1996
g59
(dp1997
sg68
g1982
sg61
(lp1998
g54
(g55
g56
NtRp1999
(dp2000
g59
(dp2001
g67
I4
ssg68
g1995
sg61
(lp2002
g54
(g63
g56
NtRp2003
(dp2004
g59
(dp2005
g67
I3
ssg68
Nsg61
(lp2006
g54
(g70
g56
NtRp2007
(dp2008
g59
(dp2009
sg68
g2003
sg61
(lp2010
g54
(g75
g56
NtRp2011
(dp2012
g59
(dp2013
sg68
g2007
sg61
(lp2014
g54
(g55
g56
NtRp2015
(dp2016
g59
(dp2017
g67
I3
ssg68
g2011
sg61
(lp2018
S'1'
asbasbasbag54
(g70
g56
NtRp2019
(dp2020
g59
(dp2021
sg68
g2003
sg61
(lp2022
g54
(g75
g56
NtRp2023
(dp2024
g59
(dp2025
sg68
g2019
sg61
(lp2026
g54
(g55
g56
NtRp2027
(dp2028
g59
(dp2029
g67
I3
ssg68
g2023
sg61
(lp2030
S'0'
asbasbasbasbasbasbasbasbasbasbasbag54
(g70
g56
NtRp2031
(dp2032
g59
(dp2033
sg68
g64
sg61
(lp2034
g54
(g75
g56
NtRp2035
(dp2036
g59
(dp2037
g79
g80
ssg68
g2031
sg61
(lp2038
S'extension'
p2039
asbag54
(g75
g56
NtRp2040
(dp2041
g59
(dp2042
g86
g87
ssg68
g2031
sg61
(lp2043
S':'
asbag54
(g75
g56
NtRp2044
(dp2045
g59
(dp2046
sg68
g2031
sg61
(lp2047
g54
(g55
g56
NtRp2048
(dp2049
g59
(dp2050
g67
I5
ssg68
g2044
sg61
(lp2051
S'html'
p2052
asbasbasbag54
(g70
g56
NtRp2053
(dp2054
g59
(dp2055
sg68
g64
sg61
(lp2056
g54
(g75
g56
NtRp2057
(dp2058
g59
(dp2059
g79
g80
ssg68
g2053
sg61
(lp2060
S'folder'
p2061
asbag54
(g75
g56
NtRp2062
(dp2063
g59
(dp2064
g86
g87
ssg68
g2053
sg61
(lp2065
S':'
asbag54
(g75
g56
NtRp2066
(dp2067
g59
(dp2068
sg68
g2053
sg61
(lp2069
g54
(g55
g56
NtRp2070
(dp2071
g59
(dp2072
g67
I5
ssg68
g2066
sg61
(lp2073
S'/Users/hellais/Documents/code/mygit/globaleaks/webapp/applications/admin/'
p2074
asbasbasbag54
(g70
g56
NtRp2075
(dp2076
g59
(dp2077
sg68
g64
sg61
(lp2078
g54
(g75
g56
NtRp2079
(dp2080
g59
(dp2081
g79
g80
ssg68
g2075
sg61
(lp2082
S'function'
p2083
asbag54
(g75
g56
NtRp2084
(dp2085
g59
(dp2086
g86
g87
ssg68
g2075
sg61
(lp2087
S':'
asbag54
(g75
g56
NtRp2088
(dp2089
g59
(dp2090
sg68
g2075
sg61
(lp2091
g54
(g55
g56
NtRp2092
(dp2093
g59
(dp2094
g67
I5
ssg68
g2088
sg61
(lp2095
S'callback'
p2096
asbasbasbag54
(g70
g56
NtRp2097
(dp2098
g59
(dp2099
sg68
g64
sg61
(lp2100
g54
(g75
g56
NtRp2101
(dp2102
g59
(dp2103
g79
g80
ssg68
g2097
sg61
(lp2104
S'get_vars'
p2105
asbag54
(g75
g56
NtRp2106
(dp2107
g59
(dp2108
g86
g87
ssg68
g2097
sg61
(lp2109
S':'
asbag54
(g75
g56
NtRp2110
(dp2111
g59
(dp2112
sg68
g2097
sg61
(lp2113
g54
(g55
g56
NtRp2114
(dp2115
g59
(dp2116
g67
I5
ssg68
g2110
sg61
(lp2117
g54
(g63
g56
NtRp2118
(dp2119
g59
(dp2120
g67
I4
ssg68
Nsg61
(lp2121
sbasbasbasbag54
(g70
g56
NtRp2122
(dp2123
g59
(dp2124
sg68
g64
sg61
(lp2125
g54
(g75
g56
NtRp2126
(dp2127
g59
(dp2128
g79
g80
ssg68
g2122
sg61
(lp2129
S'is_https'
p2130
asbag54
(g75
g56
NtRp2131
(dp2132
g59
(dp2133
g86
g87
ssg68
g2122
sg61
(lp2134
S':'
asbag54
(g75
g56
NtRp2135
(dp2136
g59
(dp2137
sg68
g2122
sg61
(lp2138
g54
(g55
g56
NtRp2139
(dp2140
g59
(dp2141
g67
I5
ssg68
g2135
sg61
(lp2142
g1199
asbasbasbag54
(g70
g56
NtRp2143
(dp2144
g59
(dp2145
sg68
g64
sg61
(lp2146
g54
(g75
g56
NtRp2147
(dp2148
g59
(dp2149
g79
g80
ssg68
g2143
sg61
(lp2150
S'is_local'
p2151
asbag54
(g75
g56
NtRp2152
(dp2153
g59
(dp2154
g86
g87
ssg68
g2143
sg61
(lp2155
S':'
asbag54
(g75
g56
NtRp2156
(dp2157
g59
(dp2158
sg68
g2143
sg61
(lp2159
g54
(g55
g56
NtRp2160
(dp2161
g59
(dp2162
g67
I5
ssg68
g2156
sg61
(lp2163
g97
asbasbasbag54
(g70
g56
NtRp2164
(dp2165
g59
(dp2166
sg68
g64
sg61
(lp2167
g54
(g75
g56
NtRp2168
(dp2169
g59
(dp2170
g79
g80
ssg68
g2164
sg61
(lp2171
S'is_restful'
p2172
asbag54
(g75
g56
NtRp2173
(dp2174
g59
(dp2175
g86
g87
ssg68
g2164
sg61
(lp2176
S':'
asbag54
(g75
g56
NtRp2177
(dp2178
g59
(dp2179
sg68
g2164
sg61
(lp2180
g54
(g55
g56
NtRp2181
(dp2182
g59
(dp2183
g67
I5
ssg68
g2177
sg61
(lp2184
g1199
asbasbasbag54
(g70
g56
NtRp2185
(dp2186
g59
(dp2187
sg68
g64
sg61
(lp2188
g54
(g75
g56
NtRp2189
(dp2190
g59
(dp2191
g79
g80
ssg68
g2185
sg61
(lp2192
S'now'
p2193
asbag54
(g75
g56
NtRp2194
(dp2195
g59
(dp2196
g86
g87
ssg68
g2185
sg61
(lp2197
S':'
asbag54
(g75
g56
NtRp2198
(dp2199
g59
(dp2200
sg68
g2185
sg61
(lp2201
g54
(g55
g56
NtRp2202
(dp2203
g59
(dp2204
g67
I5
ssg68
g2198
sg61
(lp2205
S'datetime.datetime(2011, 8, 28, 0, 9, 46, 610396)'
p2206
asbasbasbag54
(g70
g56
NtRp2207
(dp2208
g59
(dp2209
sg68
g64
sg61
(lp2210
g54
(g75
g56
NtRp2211
(dp2212
g59
(dp2213
g79
g80
ssg68
g2207
sg61
(lp2214
S'post_vars'
p2215
asbag54
(g75
g56
NtRp2216
(dp2217
g59
(dp2218
g86
g87
ssg68
g2207
sg61
(lp2219
S':'
asbag54
(g75
g56
NtRp2220
(dp2221
g59
(dp2222
sg68
g2207
sg61
(lp2223
g54
(g55
g56
NtRp2224
(dp2225
g59
(dp2226
g67
I5
ssg68
g2220
sg61
(lp2227
g54
(g63
g56
NtRp2228
(dp2229
g59
(dp2230
g67
I4
ssg68
Nsg61
(lp2231
g54
(g70
g56
NtRp2232
(dp2233
g59
(dp2234
sg68
g2228
sg61
(lp2235
g54
(g75
g56
NtRp2236
(dp2237
g59
(dp2238
g79
g80
ssg68
g2232
sg61
(lp2239
S'statement'
p2240
asbag54
(g75
g56
NtRp2241
(dp2242
g59
(dp2243
g86
g87
ssg68
g2232
sg61
(lp2244
S':'
asbag54
(g75
g56
NtRp2245
(dp2246
g59
(dp2247
sg68
g2232
sg61
(lp2248
g54
(g55
g56
NtRp2249
(dp2250
g59
(dp2251
g67
I4
ssg68
g2245
sg61
(lp2252
S'print 123\n'
p2253
asbasbasbasbasbasbasbag54
(g70
g56
NtRp2254
(dp2255
g59
(dp2256
sg68
g64
sg61
(lp2257
g54
(g75
g56
NtRp2258
(dp2259
g59
(dp2260
g79
g80
ssg68
g2254
sg61
(lp2261
S'raw_args'
p2262
asbag54
(g75
g56
NtRp2263
(dp2264
g59
(dp2265
g86
g87
ssg68
g2254
sg61
(lp2266
S':'
asbag54
(g75
g56
NtRp2267
(dp2268
g59
(dp2269
sg68
g2254
sg61
(lp2270
g54
(g55
g56
NtRp2271
(dp2272
g59
(dp2273
g67
I5
ssg68
g2267
sg61
(lp2274
g156
asbasbasbag54
(g70
g56
NtRp2275
(dp2276
g59
(dp2277
sg68
g64
sg61
(lp2278
g54
(g75
g56
NtRp2279
(dp2280
g59
(dp2281
g79
g80
ssg68
g2275
sg61
(lp2282
S'url'
p2283
asbag54
(g75
g56
NtRp2284
(dp2285
g59
(dp2286
g86
g87
ssg68
g2275
sg61
(lp2287
S':'
asbag54
(g75
g56
NtRp2288
(dp2289
g59
(dp2290
sg68
g2275
sg61
(lp2291
g54
(g55
g56
NtRp2292
(dp2293
g59
(dp2294
g67
I5
ssg68
g2288
sg61
(lp2295
S'/admin/shell/callback/init'
p2296
asbasbasbag54
(g70
g56
NtRp2297
(dp2298
g59
(dp2299
sg68
g64
sg61
(lp2300
g54
(g75
g56
NtRp2301
(dp2302
g59
(dp2303
g79
g80
ssg68
g2297
sg61
(lp2304
S'uuid'
p2305
asbag54
(g75
g56
NtRp2306
(dp2307
g59
(dp2308
g86
g87
ssg68
g2297
sg61
(lp2309
S':'
asbag54
(g75
g56
NtRp2310
(dp2311
g59
(dp2312
sg68
g2297
sg61
(lp2313
g54
(g55
g56
NtRp2314
(dp2315
g59
(dp2316
g67
I5
ssg68
g2310
sg61
(lp2317
S'admin/127.0.0.1.2011-08-28.00-09-46.3d418e0a-b2c8-422e-bf40-0b2632c26626'
p2318
asbasbasbag54
(g70
g56
NtRp2319
(dp2320
g59
(dp2321
sg68
g64
sg61
(lp2322
g54
(g75
g56
NtRp2323
(dp2324
g59
(dp2325
g79
g80
ssg68
g2319
sg61
(lp2326
S'vars'
p2327
asbag54
(g75
g56
NtRp2328
(dp2329
g59
(dp2330
g86
g87
ssg68
g2319
sg61
(lp2331
S':'
asbag54
(g75
g56
NtRp2332
(dp2333
g59
(dp2334
sg68
g2319
sg61
(lp2335
g54
(g55
g56
NtRp2336
(dp2337
g59
(dp2338
g67
I5
ssg68
g2332
sg61
(lp2339
g54
(g63
g56
NtRp2340
(dp2341
g59
(dp2342
g67
I4
ssg68
Nsg61
(lp2343
g54
(g70
g56
NtRp2344
(dp2345
g59
(dp2346
sg68
g2340
sg61
(lp2347
g54
(g75
g56
NtRp2348
(dp2349
g59
(dp2350
g79
g80
ssg68
g2344
sg61
(lp2351
g2240
asbag54
(g75
g56
NtRp2352
(dp2353
g59
(dp2354
g86
g87
ssg68
g2344
sg61
(lp2355
S':'
asbag54
(g75
g56
NtRp2356
(dp2357
g59
(dp2358
sg68
g2344
sg61
(lp2359
g54
(g55
g56
NtRp2360
(dp2361
g59
(dp2362
g67
I4
ssg68
g2356
sg61
(lp2363
g2253
asbasbasbasbasbasbasbag54
(g70
g56
NtRp2364
(dp2365
g59
(dp2366
sg68
g64
sg61
(lp2367
g54
(g75
g56
NtRp2368
(dp2369
g59
(dp2370
g79
g80
ssg68
g2364
sg61
(lp2371
S'wsgi'
p2372
asbag54
(g75
g56
NtRp2373
(dp2374
g59
(dp2375
g86
g87
ssg68
g2364
sg61
(lp2376
S':'
asbag54
(g75
g56
NtRp2377
(dp2378
g59
(dp2379
sg68
g2364
sg61
(lp2380
g54
(g55
g56
NtRp2381
(dp2382
g59
(dp2383
g67
I5
ssg68
g2377
sg61
(lp2384
g54
(g63
g56
NtRp2385
(dp2386
g59
(dp2387
g67
I4
ssg68
Nsg61
(lp2388
g54
(g70
g56
NtRp2389
(dp2390
g59
(dp2391
sg68
g2385
sg61
(lp2392
g54
(g75
g56
NtRp2393
(dp2394
g59
(dp2395
g79
g80
ssg68
g2389
sg61
(lp2396
S'environ'
p2397
asbag54
(g75
g56
NtRp2398
(dp2399
g59
(dp2400
g86
g87
ssg68
g2389
sg61
(lp2401
S':'
asbag54
(g75
g56
NtRp2402
(dp2403
g59
(dp2404
sg68
g2389
sg61
(lp2405
g54
(g55
g56
NtRp2406
(dp2407
g59
(dp2408
g67
I4
ssg68
g2402
sg61
(lp2409
g54
(g63
g56
NtRp2410
(dp2411
g59
(dp2412
g67
I3
ssg68
Nsg61
(lp2413
g54
(g70
g56
NtRp2414
(dp2415
g59
(dp2416
sg68
g2410
sg61
(lp2417
g54
(g75
g56
NtRp2418
(dp2419
g59
(dp2420
g79
g80
ssg68
g2414
sg61
(lp2421
S'CONTENT_LENGTH'
p2422
asbag54
(g75
g56
NtRp2423
(dp2424
g59
(dp2425
g86
g87
ssg68
g2414
sg61
(lp2426
S':'
asbag54
(g75
g56
NtRp2427
(dp2428
g59
(dp2429
sg68
g2414
sg61
(lp2430
g54
(g55
g56
NtRp2431
(dp2432
g59
(dp2433
g67
I3
ssg68
g2427
sg61
(lp2434
g1133
asbasbasbag54
(g70
g56
NtRp2435
(dp2436
g59
(dp2437
sg68
g2410
sg61
(lp2438
g54
(g75
g56
NtRp2439
(dp2440
g59
(dp2441
g79
g80
ssg68
g2435
sg61
(lp2442
S'CONTENT_TYPE'
p2443
asbag54
(g75
g56
NtRp2444
(dp2445
g59
(dp2446
g86
g87
ssg68
g2435
sg61
(lp2447
S':'
asbag54
(g75
g56
NtRp2448
(dp2449
g59
(dp2450
sg68
g2435
sg61
(lp2451
g54
(g55
g56
NtRp2452
(dp2453
g59
(dp2454
g67
I3
ssg68
g2448
sg61
(lp2455
g1155
asbasbasbag54
(g70
g56
NtRp2456
(dp2457
g59
(dp2458
sg68
g2410
sg61
(lp2459
g54
(g75
g56
NtRp2460
(dp2461
g59
(dp2462
g79
g80
ssg68
g2456
sg61
(lp2463
S'HTTP_ACCEPT'
p2464
asbag54
(g75
g56
NtRp2465
(dp2466
g59
(dp2467
g86
g87
ssg68
g2456
sg61
(lp2468
S':'
asbag54
(g75
g56
NtRp2469
(dp2470
g59
(dp2471
sg68
g2456
sg61
(lp2472
g54
(g55
g56
NtRp2473
(dp2474
g59
(dp2475
g67
I3
ssg68
g2469
sg61
(lp2476
g1243
asbasbasbag54
(g70
g56
NtRp2477
(dp2478
g59
(dp2479
sg68
g2410
sg61
(lp2480
g54
(g75
g56
NtRp2481
(dp2482
g59
(dp2483
g79
g80
ssg68
g2477
sg61
(lp2484
S'HTTP_ACCEPT_CHARSET'
p2485
asbag54
(g75
g56
NtRp2486
(dp2487
g59
(dp2488
g86
g87
ssg68
g2477
sg61
(lp2489
S':'
asbag54
(g75
g56
NtRp2490
(dp2491
g59
(dp2492
sg68
g2477
sg61
(lp2493
g54
(g55
g56
NtRp2494
(dp2495
g59
(dp2496
g67
I3
ssg68
g2490
sg61
(lp2497
g1265
asbasbasbag54
(g70
g56
NtRp2498
(dp2499
g59
(dp2500
sg68
g2410
sg61
(lp2501
g54
(g75
g56
NtRp2502
(dp2503
g59
(dp2504
g79
g80
ssg68
g2498
sg61
(lp2505
S'HTTP_ACCEPT_ENCODING'
p2506
asbag54
(g75
g56
NtRp2507
(dp2508
g59
(dp2509
g86
g87
ssg68
g2498
sg61
(lp2510
S':'
asbag54
(g75
g56
NtRp2511
(dp2512
g59
(dp2513
sg68
g2498
sg61
(lp2514
g54
(g55
g56
NtRp2515
(dp2516
g59
(dp2517
g67
I3
ssg68
g2511
sg61
(lp2518
g1287
asbasbasbag54
(g70
g56
NtRp2519
(dp2520
g59
(dp2521
sg68
g2410
sg61
(lp2522
g54
(g75
g56
NtRp2523
(dp2524
g59
(dp2525
g79
g80
ssg68
g2519
sg61
(lp2526
S'HTTP_ACCEPT_LANGUAGE'
p2527
asbag54
(g75
g56
NtRp2528
(dp2529
g59
(dp2530
g86
g87
ssg68
g2519
sg61
(lp2531
S':'
asbag54
(g75
g56
NtRp2532
(dp2533
g59
(dp2534
sg68
g2519
sg61
(lp2535
g54
(g55
g56
NtRp2536
(dp2537
g59
(dp2538
g67
I3
ssg68
g2532
sg61
(lp2539
g1309
asbasbasbag54
(g70
g56
NtRp2540
(dp2541
g59
(dp2542
sg68
g2410
sg61
(lp2543
g54
(g75
g56
NtRp2544
(dp2545
g59
(dp2546
g79
g80
ssg68
g2540
sg61
(lp2547
S'HTTP_CACHE_CONTROL'
p2548
asbag54
(g75
g56
NtRp2549
(dp2550
g59
(dp2551
g86
g87
ssg68
g2540
sg61
(lp2552
S':'
asbag54
(g75
g56
NtRp2553
(dp2554
g59
(dp2555
sg68
g2540
sg61
(lp2556
g54
(g55
g56
NtRp2557
(dp2558
g59
(dp2559
g67
I3
ssg68
g2553
sg61
(lp2560
g1331
asbasbasbag54
(g70
g56
NtRp2561
(dp2562
g59
(dp2563
sg68
g2410
sg61
(lp2564
g54
(g75
g56
NtRp2565
(dp2566
g59
(dp2567
g79
g80
ssg68
g2561
sg61
(lp2568
S'HTTP_CONNECTION'
p2569
asbag54
(g75
g56
NtRp2570
(dp2571
g59
(dp2572
g86
g87
ssg68
g2561
sg61
(lp2573
S':'
asbag54
(g75
g56
NtRp2574
(dp2575
g59
(dp2576
sg68
g2561
sg61
(lp2577
g54
(g55
g56
NtRp2578
(dp2579
g59
(dp2580
g67
I3
ssg68
g2574
sg61
(lp2581
g1353
asbasbasbag54
(g70
g56
NtRp2582
(dp2583
g59
(dp2584
sg68
g2410
sg61
(lp2585
g54
(g75
g56
NtRp2586
(dp2587
g59
(dp2588
g79
g80
ssg68
g2582
sg61
(lp2589
S'HTTP_CONTENT_LENGTH'
p2590
asbag54
(g75
g56
NtRp2591
(dp2592
g59
(dp2593
g86
g87
ssg68
g2582
sg61
(lp2594
S':'
asbag54
(g75
g56
NtRp2595
(dp2596
g59
(dp2597
sg68
g2582
sg61
(lp2598
g54
(g55
g56
NtRp2599
(dp2600
g59
(dp2601
g67
I3
ssg68
g2595
sg61
(lp2602
g1133
asbasbasbag54
(g70
g56
NtRp2603
(dp2604
g59
(dp2605
sg68
g2410
sg61
(lp2606
g54
(g75
g56
NtRp2607
(dp2608
g59
(dp2609
g79
g80
ssg68
g2603
sg61
(lp2610
S'HTTP_CONTENT_TYPE'
p2611
asbag54
(g75
g56
NtRp2612
(dp2613
g59
(dp2614
g86
g87
ssg68
g2603
sg61
(lp2615
S':'
asbag54
(g75
g56
NtRp2616
(dp2617
g59
(dp2618
sg68
g2603
sg61
(lp2619
g54
(g55
g56
NtRp2620
(dp2621
g59
(dp2622
g67
I3
ssg68
g2616
sg61
(lp2623
g1155
asbasbasbag54
(g70
g56
NtRp2624
(dp2625
g59
(dp2626
sg68
g2410
sg61
(lp2627
g54
(g75
g56
NtRp2628
(dp2629
g59
(dp2630
g79
g80
ssg68
g2624
sg61
(lp2631
S'HTTP_COOKIE'
p2632
asbag54
(g75
g56
NtRp2633
(dp2634
g59
(dp2635
g86
g87
ssg68
g2624
sg61
(lp2636
S':'
asbag54
(g75
g56
NtRp2637
(dp2638
g59
(dp2639
sg68
g2624
sg61
(lp2640
g54
(g55
g56
NtRp2641
(dp2642
g59
(dp2643
g67
I3
ssg68
g2637
sg61
(lp2644
g1417
asbasbasbag54
(g70
g56
NtRp2645
(dp2646
g59
(dp2647
sg68
g2410
sg61
(lp2648
g54
(g75
g56
NtRp2649
(dp2650
g59
(dp2651
g79
g80
ssg68
g2645
sg61
(lp2652
S'HTTP_HOST'
p2653
asbag54
(g75
g56
NtRp2654
(dp2655
g59
(dp2656
g86
g87
ssg68
g2645
sg61
(lp2657
S':'
asbag54
(g75
g56
NtRp2658
(dp2659
g59
(dp2660
sg68
g2645
sg61
(lp2661
g54
(g55
g56
NtRp2662
(dp2663
g59
(dp2664
g67
I3
ssg68
g2658
sg61
(lp2665
g1439
asbasbasbag54
(g70
g56
NtRp2666
(dp2667
g59
(dp2668
sg68
g2410
sg61
(lp2669
g54
(g75
g56
NtRp2670
(dp2671
g59
(dp2672
g79
g80
ssg68
g2666
sg61
(lp2673
S'HTTP_PRAGMA'
p2674
asbag54
(g75
g56
NtRp2675
(dp2676
g59
(dp2677
g86
g87
ssg68
g2666
sg61
(lp2678
S':'
asbag54
(g75
g56
NtRp2679
(dp2680
g59
(dp2681
sg68
g2666
sg61
(lp2682
g54
(g55
g56
NtRp2683
(dp2684
g59
(dp2685
g67
I3
ssg68
g2679
sg61
(lp2686
g1461
asbasbasbag54
(g70
g56
NtRp2687
(dp2688
g59
(dp2689
sg68
g2410
sg61
(lp2690
g54
(g75
g56
NtRp2691
(dp2692
g59
(dp2693
g79
g80
ssg68
g2687
sg61
(lp2694
S'HTTP_REFERER'
p2695
asbag54
(g75
g56
NtRp2696
(dp2697
g59
(dp2698
g86
g87
ssg68
g2687
sg61
(lp2699
S':'
asbag54
(g75
g56
NtRp2700
(dp2701
g59
(dp2702
sg68
g2687
sg61
(lp2703
g54
(g55
g56
NtRp2704
(dp2705
g59
(dp2706
g67
I3
ssg68
g2700
sg61
(lp2707
g1483
asbasbasbag54
(g70
g56
NtRp2708
(dp2709
g59
(dp2710
sg68
g2410
sg61
(lp2711
g54
(g75
g56
NtRp2712
(dp2713
g59
(dp2714
g79
g80
ssg68
g2708
sg61
(lp2715
S'HTTP_USER_AGENT'
p2716
asbag54
(g75
g56
NtRp2717
(dp2718
g59
(dp2719
g86
g87
ssg68
g2708
sg61
(lp2720
S':'
asbag54
(g75
g56
NtRp2721
(dp2722
g59
(dp2723
sg68
g2708
sg61
(lp2724
g54
(g55
g56
NtRp2725
(dp2726
g59
(dp2727
g67
I3
ssg68
g2721
sg61
(lp2728
g1505
asbasbasbag54
(g70
g56
NtRp2729
(dp2730
g59
(dp2731
sg68
g2410
sg61
(lp2732
g54
(g75
g56
NtRp2733
(dp2734
g59
(dp2735
g79
g80
ssg68
g2729
sg61
(lp2736
S'HTTP_X_REQUESTED_WITH'
p2737
asbag54
(g75
g56
NtRp2738
(dp2739
g59
(dp2740
g86
g87
ssg68
g2729
sg61
(lp2741
S':'
asbag54
(g75
g56
NtRp2742
(dp2743
g59
(dp2744
sg68
g2729
sg61
(lp2745
g54
(g55
g56
NtRp2746
(dp2747
g59
(dp2748
g67
I3
ssg68
g2742
sg61
(lp2749
g1527
asbasbasbag54
(g70
g56
NtRp2750
(dp2751
g59
(dp2752
sg68
g2410
sg61
(lp2753
g54
(g75
g56
NtRp2754
(dp2755
g59
(dp2756
g79
g80
ssg68
g2750
sg61
(lp2757
S'PATH_INFO'
p2758
asbag54
(g75
g56
NtRp2759
(dp2760
g59
(dp2761
g86
g87
ssg68
g2750
sg61
(lp2762
S':'
asbag54
(g75
g56
NtRp2763
(dp2764
g59
(dp2765
sg68
g2750
sg61
(lp2766
g54
(g55
g56
NtRp2767
(dp2768
g59
(dp2769
g67
I3
ssg68
g2763
sg61
(lp2770
g1570
asbasbasbag54
(g70
g56
NtRp2771
(dp2772
g59
(dp2773
sg68
g2410
sg61
(lp2774
g54
(g75
g56
NtRp2775
(dp2776
g59
(dp2777
g79
g80
ssg68
g2771
sg61
(lp2778
S'QUERY_STRING'
p2779
asbag54
(g75
g56
NtRp2780
(dp2781
g59
(dp2782
g86
g87
ssg68
g2771
sg61
(lp2783
S':'
asbag54
(g75
g56
NtRp2784
(dp2785
g59
(dp2786
sg68
g2771
sg61
(lp2787
g54
(g55
g56
NtRp2788
(dp2789
g59
(dp2790
g67
I3
ssg68
g2784
sg61
(lp2791
S''
asbasbasbag54
(g70
g56
NtRp2792
(dp2793
g59
(dp2794
sg68
g2410
sg61
(lp2795
g54
(g75
g56
NtRp2796
(dp2797
g59
(dp2798
g79
g80
ssg68
g2792
sg61
(lp2799
S'REMOTE_ADDR'
p2800
asbag54
(g75
g56
NtRp2801
(dp2802
g59
(dp2803
g86
g87
ssg68
g2792
sg61
(lp2804
S':'
asbag54
(g75
g56
NtRp2805
(dp2806
g59
(dp2807
sg68
g2792
sg61
(lp2808
g54
(g55
g56
NtRp2809
(dp2810
g59
(dp2811
g67
I3
ssg68
g2805
sg61
(lp2812
g200
asbasbasbag54
(g70
g56
NtRp2813
(dp2814
g59
(dp2815
sg68
g2410
sg61
(lp2816
g54
(g75
g56
NtRp2817
(dp2818
g59
(dp2819
g79
g80
ssg68
g2813
sg61
(lp2820
S'REMOTE_PORT'
p2821
asbag54
(g75
g56
NtRp2822
(dp2823
g59
(dp2824
g86
g87
ssg68
g2813
sg61
(lp2825
S':'
asbag54
(g75
g56
NtRp2826
(dp2827
g59
(dp2828
sg68
g2813
sg61
(lp2829
g54
(g55
g56
NtRp2830
(dp2831
g59
(dp2832
g67
I3
ssg68
g2826
sg61
(lp2833
g1634
asbasbasbag54
(g70
g56
NtRp2834
(dp2835
g59
(dp2836
sg68
g2410
sg61
(lp2837
g54
(g75
g56
NtRp2838
(dp2839
g59
(dp2840
g79
g80
ssg68
g2834
sg61
(lp2841
S'REQUEST_METHOD'
p2842
asbag54
(g75
g56
NtRp2843
(dp2844
g59
(dp2845
g86
g87
ssg68
g2834
sg61
(lp2846
S':'
asbag54
(g75
g56
NtRp2847
(dp2848
g59
(dp2849
sg68
g2834
sg61
(lp2850
g54
(g55
g56
NtRp2851
(dp2852
g59
(dp2853
g67
I3
ssg68
g2847
sg61
(lp2854
g1656
asbasbasbag54
(g70
g56
NtRp2855
(dp2856
g59
(dp2857
sg68
g2410
sg61
(lp2858
g54
(g75
g56
NtRp2859
(dp2860
g59
(dp2861
g79
g80
ssg68
g2855
sg61
(lp2862
S'SCRIPT_NAME'
p2863
asbag54
(g75
g56
NtRp2864
(dp2865
g59
(dp2866
g86
g87
ssg68
g2855
sg61
(lp2867
S':'
asbag54
(g75
g56
NtRp2868
(dp2869
g59
(dp2870
sg68
g2855
sg61
(lp2871
g54
(g55
g56
NtRp2872
(dp2873
g59
(dp2874
g67
I3
ssg68
g2868
sg61
(lp2875
S''
asbasbasbag54
(g70
g56
NtRp2876
(dp2877
g59
(dp2878
sg68
g2410
sg61
(lp2879
g54
(g75
g56
NtRp2880
(dp2881
g59
(dp2882
g79
g80
ssg68
g2876
sg61
(lp2883
S'SERVER_NAME'
p2884
asbag54
(g75
g56
NtRp2885
(dp2886
g59
(dp2887
g86
g87
ssg68
g2876
sg61
(lp2888
S':'
asbag54
(g75
g56
NtRp2889
(dp2890
g59
(dp2891
sg68
g2876
sg61
(lp2892
g54
(g55
g56
NtRp2893
(dp2894
g59
(dp2895
g67
I3
ssg68
g2889
sg61
(lp2896
g1699
asbasbasbag54
(g70
g56
NtRp2897
(dp2898
g59
(dp2899
sg68
g2410
sg61
(lp2900
g54
(g75
g56
NtRp2901
(dp2902
g59
(dp2903
g79
g80
ssg68
g2897
sg61
(lp2904
S'SERVER_PORT'
p2905
asbag54
(g75
g56
NtRp2906
(dp2907
g59
(dp2908
g86
g87
ssg68
g2897
sg61
(lp2909
S':'
asbag54
(g75
g56
NtRp2910
(dp2911
g59
(dp2912
sg68
g2897
sg61
(lp2913
g54
(g55
g56
NtRp2914
(dp2915
g59
(dp2916
g67
I3
ssg68
g2910
sg61
(lp2917
g1721
asbasbasbag54
(g70
g56
NtRp2918
(dp2919
g59
(dp2920
sg68
g2410
sg61
(lp2921
g54
(g75
g56
NtRp2922
(dp2923
g59
(dp2924
g79
g80
ssg68
g2918
sg61
(lp2925
S'SERVER_PROTOCOL'
p2926
asbag54
(g75
g56
NtRp2927
(dp2928
g59
(dp2929
g86
g87
ssg68
g2918
sg61
(lp2930
S':'
asbag54
(g75
g56
NtRp2931
(dp2932
g59
(dp2933
sg68
g2918
sg61
(lp2934
g54
(g55
g56
NtRp2935
(dp2936
g59
(dp2937
g67
I3
ssg68
g2931
sg61
(lp2938
g1743
asbasbasbag54
(g70
g56
NtRp2939
(dp2940
g59
(dp2941
sg68
g2410
sg61
(lp2942
g54
(g75
g56
NtRp2943
(dp2944
g59
(dp2945
g79
g80
ssg68
g2939
sg61
(lp2946
S'SERVER_SOFTWARE'
p2947
asbag54
(g75
g56
NtRp2948
(dp2949
g59
(dp2950
g86
g87
ssg68
g2939
sg61
(lp2951
S':'
asbag54
(g75
g56
NtRp2952
(dp2953
g59
(dp2954
sg68
g2939
sg61
(lp2955
g54
(g55
g56
NtRp2956
(dp2957
g59
(dp2958
g67
I3
ssg68
g2952
sg61
(lp2959
g1765
asbasbasbag54
(g70
g56
NtRp2960
(dp2961
g59
(dp2962
sg68
g2410
sg61
(lp2963
g54
(g75
g56
NtRp2964
(dp2965
g59
(dp2966
g79
g80
ssg68
g2960
sg61
(lp2967
S'wsgi.errors'
p2968
asbag54
(g75
g56
NtRp2969
(dp2970
g59
(dp2971
g86
g87
ssg68
g2960
sg61
(lp2972
S':'
asbag54
(g75
g56
NtRp2973
(dp2974
g59
(dp2975
sg68
g2960
sg61
(lp2976
g54
(g55
g56
NtRp2977
(dp2978
g59
(dp2979
g67
I3
ssg68
g2973
sg61
(lp2980
S"<open file '<stderr>', mode 'w' at 0x100287270>"
p2981
asbasbasbag54
(g70
g56
NtRp2982
(dp2983
g59
(dp2984
sg68
g2410
sg61
(lp2985
g54
(g75
g56
NtRp2986
(dp2987
g59
(dp2988
g79
g80
ssg68
g2982
sg61
(lp2989
S'wsgi.file_wrapper'
p2990
asbag54
(g75
g56
NtRp2991
(dp2992
g59
(dp2993
g86
g87
ssg68
g2982
sg61
(lp2994
S':'
asbag54
(g75
g56
NtRp2995
(dp2996
g59
(dp2997
sg68
g2982
sg61
(lp2998
g54
(g55
g56
NtRp2999
(dp3000
g59
(dp3001
g67
I3
ssg68
g2995
sg61
(lp3002
S'<class gluon.rocket.FileWrapper at 0x101668e20>'
p3003
asbasbasbag54
(g70
g56
NtRp3004
(dp3005
g59
(dp3006
sg68
g2410
sg61
(lp3007
g54
(g75
g56
NtRp3008
(dp3009
g59
(dp3010
g79
g80
ssg68
g3004
sg61
(lp3011
S'wsgi.input'
p3012
asbag54
(g75
g56
NtRp3013
(dp3014
g59
(dp3015
g86
g87
ssg68
g3004
sg61
(lp3016
S':'
asbag54
(g75
g56
NtRp3017
(dp3018
g59
(dp3019
sg68
g3004
sg61
(lp3020
g54
(g55
g56
NtRp3021
(dp3022
g59
(dp3023
g67
I3
ssg68
g3017
sg61
(lp3024
S"<closed file '<fdopen>', mode 'w+b' at 0x1021ea810>"
p3025
asbasbasbag54
(g70
g56
NtRp3026
(dp3027
g59
(dp3028
sg68
g2410
sg61
(lp3029
g54
(g75
g56
NtRp3030
(dp3031
g59
(dp3032
g79
g80
ssg68
g3026
sg61
(lp3033
S'wsgi.multiprocess'
p3034
asbag54
(g75
g56
NtRp3035
(dp3036
g59
(dp3037
g86
g87
ssg68
g3026
sg61
(lp3038
S':'
asbag54
(g75
g56
NtRp3039
(dp3040
g59
(dp3041
sg68
g3026
sg61
(lp3042
g54
(g55
g56
NtRp3043
(dp3044
g59
(dp3045
g67
I3
ssg68
g3039
sg61
(lp3046
g1199
asbasbasbag54
(g70
g56
NtRp3047
(dp3048
g59
(dp3049
sg68
g2410
sg61
(lp3050
g54
(g75
g56
NtRp3051
(dp3052
g59
(dp3053
g79
g80
ssg68
g3047
sg61
(lp3054
S'wsgi.multithread'
p3055
asbag54
(g75
g56
NtRp3056
(dp3057
g59
(dp3058
g86
g87
ssg68
g3047
sg61
(lp3059
S':'
asbag54
(g75
g56
NtRp3060
(dp3061
g59
(dp3062
sg68
g3047
sg61
(lp3063
g54
(g55
g56
NtRp3064
(dp3065
g59
(dp3066
g67
I3
ssg68
g3060
sg61
(lp3067
g97
asbasbasbag54
(g70
g56
NtRp3068
(dp3069
g59
(dp3070
sg68
g2410
sg61
(lp3071
g54
(g75
g56
NtRp3072
(dp3073
g59
(dp3074
g79
g80
ssg68
g3068
sg61
(lp3075
S'wsgi.run_once'
p3076
asbag54
(g75
g56
NtRp3077
(dp3078
g59
(dp3079
g86
g87
ssg68
g3068
sg61
(lp3080
S':'
asbag54
(g75
g56
NtRp3081
(dp3082
g59
(dp3083
sg68
g3068
sg61
(lp3084
g54
(g55
g56
NtRp3085
(dp3086
g59
(dp3087
g67
I3
ssg68
g3081
sg61
(lp3088
g1199
asbasbasbag54
(g70
g56
NtRp3089
(dp3090
g59
(dp3091
sg68
g2410
sg61
(lp3092
g54
(g75
g56
NtRp3093
(dp3094
g59
(dp3095
g79
g80
ssg68
g3089
sg61
(lp3096
S'wsgi.url_scheme'
p3097
asbag54
(g75
g56
NtRp3098
(dp3099
g59
(dp3100
g86
g87
ssg68
g3089
sg61
(lp3101
S':'
asbag54
(g75
g56
NtRp3102
(dp3103
g59
(dp3104
sg68
g3089
sg61
(lp3105
g54
(g55
g56
NtRp3106
(dp3107
g59
(dp3108
g67
I3
ssg68
g3102
sg61
(lp3109
g1981
asbasbasbag54
(g70
g56
NtRp3110
(dp3111
g59
(dp3112
sg68
g2410
sg61
(lp3113
g54
(g75
g56
NtRp3114
(dp3115
g59
(dp3116
g79
g80
ssg68
g3110
sg61
(lp3117
S'wsgi.version'
p3118
asbag54
(g75
g56
NtRp3119
(dp3120
g59
(dp3121
g86
g87
ssg68
g3110
sg61
(lp3122
S':'
asbag54
(g75
g56
NtRp3123
(dp3124
g59
(dp3125
sg68
g3110
sg61
(lp3126
g54
(g55
g56
NtRp3127
(dp3128
g59
(dp3129
g67
I3
ssg68
g3123
sg61
(lp3130
S'1'
asbasbasbasbasbasbasbasbasbasbasbasbasbsS'frames'
p3131
(lp3132
(dp3133
S'file'
p3134
S'/opt/local/Library/Frameworks/Python.framework/Versions/2.7/lib/python2.7/gluon/main.py'
p3135
sS'dump'
p3136
(dp3137
S'global serve_controller'
p3138
S'<function serve_controller>'
p3139
sS'session'
p3140
S"<Storage {'commands:init': ['print 123\\n'], 'his...thorized': True, 'last_time': 1314482986.621207}>"
p3141
sS'request'
p3142
S"<Storage {'body': <closed file '<fdopen>', mode ...t_vars': <Storage {'statement': 'print 123\\n'}>}>"
p3143
sS'response'
p3144
S"<Storage {'body': <cStringIO.StringO object at 0... at 0x101defb18>, 'view': 'shell/callback.html'}>"
p3145
ssS'lnum'
p3146
I485
sS'lines'
p3147
(dp3148
I480
S''
sI481
S'                # ##################################################'
p3149
sI482
S'                # run controller'
p3150
sI483
S'                # ##################################################'
p3151
sI484
S''
sI485
S'                serve_controller(request, response, session)'
p3152
sI486
S''
sI487
S'            except HTTP, http_response:'
p3153
sI488
S'                if static_file:'
p3154
sI489
S'                    return http_response.to(responder)'
p3155
ssS'call'
p3156
S"(environ={'CONTENT_LENGTH': '22', 'CONTENT_TYPE': 'application/x-www-form-urlencoded; charset=UTF-8', 'HTTP_ACCEPT': '*/*', 'HTTP_ACCEPT_CHARSET': 'ISO-8859-1,utf-8;q=0.7,*;q=0.7', 'HTTP_ACCEPT_ENCODING': 'gzip, deflate', 'HTTP_ACCEPT_LANGUAGE': 'en-us,en;q=0.5', 'HTTP_CACHE_CONTROL': 'no-cache', 'HTTP_CONNECTION': 'keep-alive', 'HTTP_CONTENT_LENGTH': '22', 'HTTP_CONTENT_TYPE': 'application/x-www-form-urlencoded; charset=UTF-8', ...}, responder=<function responder2>)"
p3157
sS'func'
p3158
S'wsgibase'
p3159
sa(dp3160
g3134
S'/opt/local/Library/Frameworks/Python.framework/Versions/2.7/lib/python2.7/gluon/main.py'
p3161
sg3136
(dp3162
S'global run_controller_in'
p3163
S'<function run_controller_in>'
p3164
sS'request.controller'
p3165
S"'shell'"
p3166
sS'request'
p3167
S"<Storage {'body': <closed file '<fdopen>', mode ...t_vars': <Storage {'statement': 'print 123\\n'}>}>"
p3168
sS'environment'
p3169
S"{'A': <class 'gluon.html.A'>, 'ALLOW_TOGGLE': 'true', 'B': <class 'gluon.html.B'>, 'BEAUTIFY': <class 'gluon.html.BEAUTIFY'>, 'BODY': <class 'gluon.html.BODY'>, 'BR': <class 'gluon.html.BR'>, 'BUTTON': <class 'gluon.html.BUTTON'>, 'CAT': <class 'gluon.html.CAT'>, 'CENTER': <class 'gluon.html.CENTER'>, 'CHECK_VERSION': True, ...}"
p3170
sS'request.function'
p3171
S"'callback'"
p3172
sS'page'
p3173
S'undefined'
p3174
ssg3146
I203
sg3147
(dp3175
I198
S'    # process models, controller and view (if required)'
p3176
sI199
S'    # ##################################################'
p3177
sI200
S''
sI201
S'    run_models_in(environment)'
p3178
sI202
S'    response._view_environment = copy.copy(environment)'
p3179
sI203
S'    page = run_controller_in(request.controller, request.function, environment)'
p3180
sI204
S'    if isinstance(page, dict):'
p3181
sI205
S'        response._vars = page'
p3182
sI206
S'        for key in page:'
p3183
sI207
S'            response._view_environment[key] = page[key]'
p3184
ssg3156
S"(request=<Storage {'body': <closed file '<fdopen>', mode ...t_vars': <Storage {'statement': 'print 123\\n'}>}>, response=<Storage {'body': <cStringIO.StringO object at 0... at 0x101defb18>, 'view': 'shell/callback.html'}>, session=<Storage {'commands:init': ['print 123\\n'], 'his...thorized': True, 'last_time': 1314482986.621207}>)"
p3185
sg3158
S'serve_controller'
p3186
sa(dp3187
g3134
S'/opt/local/Library/Frameworks/Python.framework/Versions/2.7/lib/python2.7/gluon/compileapp.py'
p3188
sg3136
(dp3189
S'environment'
p3190
S"{'A': <class 'gluon.html.A'>, 'ALLOW_TOGGLE': 'true', 'B': <class 'gluon.html.B'>, 'BEAUTIFY': <class 'gluon.html.BEAUTIFY'>, 'BODY': <class 'gluon.html.BODY'>, 'BR': <class 'gluon.html.BR'>, 'BUTTON': <class 'gluon.html.BUTTON'>, 'CAT': <class 'gluon.html.CAT'>, 'CENTER': <class 'gluon.html.CENTER'>, 'CHECK_VERSION': True, ...}"
p3191
sS'code'
p3192
S'"import sys\\nimport cStringIO\\nimport gluon.contrib...done\'\\n\\nresponse._vars=response._caller(callback)\\n"'
p3193
sS'global restricted'
p3194
S'<function restricted>'
p3195
sS'filename'
p3196
S"'/Users/hellais/Documents/code/mygit/globaleaks/webapp/applications/admin/controllers/shell.py'"
p3197
ssg3146
I452
sg3147
(dp3198
I448
S'        code = "%s\\nresponse._vars=response._caller(%s)\\n" % (code, function)'
p3199
sI449
S'        if is_gae:'
p3200
sI450
S"            layer = filename + ':' + function"
p3201
sI451
S'            code = getcfs(layer, filename,  lambda: compile2(code,layer))'
p3202
sI452
S'        restricted(code, environment, filename)'
p3203
sI453
S"    response = environment['response']"
p3204
sI454
S'    vars=response._vars'
p3205
sI455
S'    if response.postprocessing:'
p3206
sI456
S'        for p in response.postprocessing:'
p3207
sI447
S'                       web2py_error=badf)'
p3208
ssg3156
S"(controller='shell', function='callback', environment={'A': <class 'gluon.html.A'>, 'ALLOW_TOGGLE': 'true', 'B': <class 'gluon.html.B'>, 'BEAUTIFY': <class 'gluon.html.BEAUTIFY'>, 'BODY': <class 'gluon.html.BODY'>, 'BR': <class 'gluon.html.BR'>, 'BUTTON': <class 'gluon.html.BUTTON'>, 'CAT': <class 'gluon.html.CAT'>, 'CENTER': <class 'gluon.html.CENTER'>, 'CHECK_VERSION': True, ...})"
p3209
sg3158
S'run_controller_in'
p3210
sa(dp3211
g3134
S'/opt/local/Library/Frameworks/Python.framework/Versions/2.7/lib/python2.7/gluon/restricted.py'
p3212
sg3136
(dp3213
S'environment'
p3214
S"{'A': <class 'gluon.html.A'>, 'ALLOW_TOGGLE': 'true', 'B': <class 'gluon.html.B'>, 'BEAUTIFY': <class 'gluon.html.BEAUTIFY'>, 'BODY': <class 'gluon.html.BODY'>, 'BR': <class 'gluon.html.BR'>, 'BUTTON': <class 'gluon.html.BUTTON'>, 'CAT': <class 'gluon.html.CAT'>, 'CENTER': <class 'gluon.html.CENTER'>, 'CHECK_VERSION': True, ...}"
p3215
sS'ccode'
p3216
S'<code object <module> at 0x101cf1b30, file "/Use...applications/admin/controllers/shell.py", line 1>'
p3217
ssg3146
I192
sg3147
(dp3218
I192
S'        exec ccode in environment'
p3219
sI193
S'    except HTTP:'
p3220
sI194
S'        raise'
p3221
sI195
S'    except Exception, error:'
p3222
sI196
S'        # XXX Show exception in Wing IDE if running in debugger'
p3223
sI187
S'    try:'
p3224
sI188
S'        if type(code) == types.CodeType:'
p3225
sI189
S'            ccode = code'
p3226
sI190
S'        else:'
p3227
sI191
S'            ccode = compile2(code,layer)'
p3228
ssg3156
S'(code="import sys\\nimport cStringIO\\nimport gluon.contrib...done\'\\n\\nresponse._vars=response._caller(callback)\\n", environment={\'A\': <class \'gluon.html.A\'>, \'ALLOW_TOGGLE\': \'true\', \'B\': <class \'gluon.html.B\'>, \'BEAUTIFY\': <class \'gluon.html.BEAUTIFY\'>, \'BODY\': <class \'gluon.html.BODY\'>, \'BR\': <class \'gluon.html.BR\'>, \'BUTTON\': <class \'gluon.html.BUTTON\'>, \'CAT\': <class \'gluon.html.CAT\'>, \'CENTER\': <class \'gluon.html.CENTER\'>, \'CHECK_VERSION\': True, ...}, layer=\'/Users/hellais/Documents/code/mygit/globaleaks/webapp/applications/admin/controllers/shell.py\')'
p3229
sg3158
S'restricted'
p3230
sa(dp3231
g3134
S'/Users/hellais/Documents/code/mygit/globaleaks/webapp/applications/admin/controllers/shell.py'
p3232
sg3136
(dp3233
sg3146
I47
sg3147
(dp3234
I36
S"    k = len(session['commands:'+app]) - 1"
p3235
sI37
S'    #output = PRE(output)'
p3236
sI38
S"    #return TABLE(TR('In[%i]:'%k,PRE(command)),TR('Out[%i]:'%k,output))"
p3237
sI39
S"    return 'In [%i] : %s%s\\n' % (k + 1, command, output)"
p3238
sI40
S''
sI41
S'def reset():'
p3239
sI42
S"    app = request.args(0) or 'admin'"
p3240
sI43
S"    session['commands:'+app] = []"
p3241
sI44
S"    session['history:'+app] = gluon.contrib.shell.History()"
p3242
sI45
S"    return 'done'"
p3243
ssg3156
S'()'
p3244
sg3158
S'<module>'
p3245
sa(dp3246
g3134
S'/opt/local/Library/Frameworks/Python.framework/Versions/2.7/lib/python2.7/gluon/globals.py'
p3247
sg3136
(dp3248
S'self'
p3249
g3174
sS'f'
S'<function callback>'
p3250
ssg3146
I145
sg3147
(dp3251
I140
S'        self.meta = Storage()      # used by web2py_ajax.html'
p3252
sI141
S'        self.menu = []             # used by the default view layout'
p3253
sI142
S'        self.files = []            # used by web2py_ajax.html'
p3254
sI143
S'        self.generic_patterns = [] # patterns to allow generic views'
p3255
sI144
S'        self._vars = None'
p3256
sI145
S'        self._caller = lambda f: f()'
p3257
sI146
S'        self._view_environment = None'
p3258
sI147
S'        self._custom_commit = None'
p3259
sI148
S'        self._custom_rollback = None'
p3260
sI149
S''
ssg3156
S'(f=<function callback>)'
p3261
sg3158
S'<lambda>'
p3262
sa(dp3263
g3134
S'/Users/hellais/Documents/code/mygit/globaleaks/webapp/applications/admin/controllers/shell.py'
p3264
sg3136
(dp3265
S'app'
p3266
S"'init'"
p3267
sS'environ'
p3268
g3174
sS'builtinTrue'
p3269
g97
sS'global env'
p3270
S'<function env>'
p3271
ssg3146
I34
sg3147
(dp3272
I32
S"            return ''"
p3273
sI33
S"    session['commands:'+app].append(command)"
p3274
sI34
S'    environ=env(app,True)'
p3275
sI35
S'    output = gluon.contrib.shell.run(history,command,environ)'
p3276
sI36
S"    k = len(session['commands:'+app]) - 1"
p3277
sI37
S'    #output = PRE(output)'
p3278
sI38
S"    #return TABLE(TR('In[%i]:'%k,PRE(command)),TR('Out[%i]:'%k,output))"
p3279
sI29
S'        try:'
p3280
sI30
S"            command=session['commands:'+app][int(command[1:])]"
p3281
sI31
S'        except ValueError:'
p3282
ssg3156
S'()'
p3283
sg3158
S'callback'
p3284
sa(dp3285
g3134
S'/opt/local/Library/Frameworks/Python.framework/Versions/2.7/lib/python2.7/gluon/shell.py'
p3286
sg3136
(dp3287
S'global sys'
p3288
S"<module 'sys' (built-in)>"
p3289
sS'sys.exit'
p3290
S'<built-in function exit>'
p3291
ssg3146
I133
sg3147
(dp3292
I128
S'    if import_models:'
p3293
sI129
S'        try:'
p3294
sI130
S'            run_models_in(environment)'
p3295
sI131
S'        except RestrictedError, e:'
p3296
sI132
S"            sys.stderr.write(e.traceback+'\\n')"
p3297
sI133
S'            sys.exit(1)'
p3298
sI134
S''
sI135
S"    environment['__name__'] = '__main__'"
p3299
sI136
S'    return environment'
p3300
sI137
S''
ssg3156
S"(a='init', import_models=True, c=None, f=None, dir='', extra_request={})"
p3301
sg3158
g1004
sasS'pyver'
p3302
S'Python 2.7.1: /opt/local/Library/Frameworks/Python.framework/Versions/2.7/Resources/Python.app/Contents/MacOS/Python'
p3303
sS'session'
p3304
g54
(g55
g56
NtRp3305
(dp3306
g59
(dp3307
sg61
(lp3308
g54
(g63
g56
NtRp3309
(dp3310
g59
(dp3311
g67
I5
ssg68
Nsg61
(lp3312
g54
(g70
g56
NtRp3313
(dp3314
g59
(dp3315
sg68
g3309
sg61
(lp3316
g54
(g75
g56
NtRp3317
(dp3318
g59
(dp3319
g79
g80
ssg68
g3313
sg61
(lp3320
S'authorized'
p3321
asbag54
(g75
g56
NtRp3322
(dp3323
g59
(dp3324
g86
g87
ssg68
g3313
sg61
(lp3325
S':'
asbag54
(g75
g56
NtRp3326
(dp3327
g59
(dp3328
sg68
g3313
sg61
(lp3329
g54
(g55
g56
NtRp3330
(dp3331
g59
(dp3332
g67
I5
ssg68
g3326
sg61
(lp3333
g97
asbasbasbag54
(g70
g56
NtRp3334
(dp3335
g59
(dp3336
sg68
g3309
sg61
(lp3337
g54
(g75
g56
NtRp3338
(dp3339
g59
(dp3340
g79
g80
ssg68
g3334
sg61
(lp3341
S'check_version'
p3342
asbag54
(g75
g56
NtRp3343
(dp3344
g59
(dp3345
g86
g87
ssg68
g3334
sg61
(lp3346
S':'
asbag54
(g75
g56
NtRp3347
(dp3348
g59
(dp3349
sg68
g3334
sg61
(lp3350
g54
(g55
g56
NtRp3351
(dp3352
g59
(dp3353
g67
I5
ssg68
g3347
sg61
(lp3354
g97
asbasbasbag54
(g70
g56
NtRp3355
(dp3356
g59
(dp3357
sg68
g3309
sg61
(lp3358
g54
(g75
g56
NtRp3359
(dp3360
g59
(dp3361
g79
g80
ssg68
g3355
sg61
(lp3362
S'commands:init'
p3363
asbag54
(g75
g56
NtRp3364
(dp3365
g59
(dp3366
g86
g87
ssg68
g3355
sg61
(lp3367
S':'
asbag54
(g75
g56
NtRp3368
(dp3369
g59
(dp3370
sg68
g3355
sg61
(lp3371
g54
(g55
g56
NtRp3372
(dp3373
g59
(dp3374
g67
I5
ssg68
g3368
sg61
(lp3375
g54
(g63
g56
NtRp3376
(dp3377
g59
(dp3378
g67
I4
ssg68
Nsg61
(lp3379
g54
(g70
g56
NtRp3380
(dp3381
g59
(dp3382
sg68
g3376
sg61
(lp3383
g54
(g75
g56
NtRp3384
(dp3385
g59
(dp3386
sg68
g3380
sg61
(lp3387
g54
(g55
g56
NtRp3388
(dp3389
g59
(dp3390
g67
I4
ssg68
g3384
sg61
(lp3391
g2253
asbasbasbasbasbasbasbag54
(g70
g56
NtRp3392
(dp3393
g59
(dp3394
sg68
g3309
sg61
(lp3395
g54
(g75
g56
NtRp3396
(dp3397
g59
(dp3398
g79
g80
ssg68
g3392
sg61
(lp3399
S'history:init'
p3400
asbag54
(g75
g56
NtRp3401
(dp3402
g59
(dp3403
g86
g87
ssg68
g3392
sg61
(lp3404
S':'
asbag54
(g75
g56
NtRp3405
(dp3406
g59
(dp3407
sg68
g3392
sg61
(lp3408
g54
(g55
g56
NtRp3409
(dp3410
g59
(dp3411
g67
I5
ssg68
g3405
sg61
(lp3412
S'<gluon.contrib.shell.History instance at 0x101eada28>'
p3413
asbasbasbag54
(g70
g56
NtRp3414
(dp3415
g59
(dp3416
sg68
g3309
sg61
(lp3417
g54
(g75
g56
NtRp3418
(dp3419
g59
(dp3420
g79
g80
ssg68
g3414
sg61
(lp3421
S'last_time'
p3422
asbag54
(g75
g56
NtRp3423
(dp3424
g59
(dp3425
g86
g87
ssg68
g3414
sg61
(lp3426
S':'
asbag54
(g75
g56
NtRp3427
(dp3428
g59
(dp3429
sg68
g3414
sg61
(lp3430
g54
(g55
g56
NtRp3431
(dp3432
g59
(dp3433
g67
I5
ssg68
g3427
sg61
(lp3434
S'1314482986.621207'
p3435
asbasbasbasbasbsS'etype'
p3436
S"<type 'exceptions.SystemExit'>"
p3437
sS'date'
p3438
S'Sun Aug 28 00:09:46 2011'
p3439
sS'response'
p3440
g54
(g55
g56
NtRp3441
(dp3442
g59
(dp3443
sg61
(lp3444
g54
(g63
g56
NtRp3445
(dp3446
g59
(dp3447
g67
I5
ssg68
Nsg61
(lp3448
g54
(g70
g56
NtRp3449
(dp3450
g59
(dp3451
sg68
g3445
sg61
(lp3452
g54
(g75
g56
NtRp3453
(dp3454
g59
(dp3455
g79
g80
ssg68
g3449
sg61
(lp3456
g165
asbag54
(g75
g56
NtRp3457
(dp3458
g59
(dp3459
g86
g87
ssg68
g3449
sg61
(lp3460
S':'
asbag54
(g75
g56
NtRp3461
(dp3462
g59
(dp3463
sg68
g3449
sg61
(lp3464
g54
(g55
g56
NtRp3465
(dp3466
g59
(dp3467
g67
I5
ssg68
g3461
sg61
(lp3468
S'<cStringIO.StringO object at 0x101cba538>'
p3469
asbasbasbag54
(g70
g56
NtRp3470
(dp3471
g59
(dp3472
sg68
g3445
sg61
(lp3473
g54
(g75
g56
NtRp3474
(dp3475
g59
(dp3476
g79
g80
ssg68
g3470
sg61
(lp3477
g231
asbag54
(g75
g56
NtRp3478
(dp3479
g59
(dp3480
g86
g87
ssg68
g3470
sg61
(lp3481
S':'
asbag54
(g75
g56
NtRp3482
(dp3483
g59
(dp3484
sg68
g3470
sg61
(lp3485
g54
(g55
g56
NtRp3486
(dp3487
g59
(dp3488
g67
I5
ssg68
g3482
sg61
(lp3489
g54
(g63
g56
NtRp3490
(dp3491
g59
(dp3492
g67
I4
ssg68
Nsg61
(lp3493
g54
(g70
g56
NtRp3494
(dp3495
g59
(dp3496
sg68
g3490
sg61
(lp3497
g54
(g75
g56
NtRp3498
(dp3499
g59
(dp3500
g79
g80
ssg68
g3494
sg61
(lp3501
S'session_id_admin'
p3502
asbag54
(g75
g56
NtRp3503
(dp3504
g59
(dp3505
g86
g87
ssg68
g3494
sg61
(lp3506
S':'
asbag54
(g75
g56
NtRp3507
(dp3508
g59
(dp3509
sg68
g3494
sg61
(lp3510
g54
(g55
g56
NtRp3511
(dp3512
g59
(dp3513
g67
I4
ssg68
g3507
sg61
(lp3514
g54
(g63
g56
NtRp3515
(dp3516
g59
(dp3517
g67
I3
ssg68
Nsg61
(lp3518
g54
(g70
g56
NtRp3519
(dp3520
g59
(dp3521
sg68
g3515
sg61
(lp3522
g54
(g75
g56
NtRp3523
(dp3524
g59
(dp3525
g79
g80
ssg68
g3519
sg61
(lp3526
g281
asbag54
(g75
g56
NtRp3527
(dp3528
g59
(dp3529
g86
g87
ssg68
g3519
sg61
(lp3530
S':'
asbag54
(g75
g56
NtRp3531
(dp3532
g59
(dp3533
sg68
g3519
sg61
(lp3534
g54
(g55
g56
NtRp3535
(dp3536
g59
(dp3537
g67
I3
ssg68
g3531
sg61
(lp3538
S''
asbasbasbag54
(g70
g56
NtRp3539
(dp3540
g59
(dp3541
sg68
g3515
sg61
(lp3542
g54
(g75
g56
NtRp3543
(dp3544
g59
(dp3545
g79
g80
ssg68
g3539
sg61
(lp3546
g302
asbag54
(g75
g56
NtRp3547
(dp3548
g59
(dp3549
g86
g87
ssg68
g3539
sg61
(lp3550
S':'
asbag54
(g75
g56
NtRp3551
(dp3552
g59
(dp3553
sg68
g3539
sg61
(lp3554
g54
(g55
g56
NtRp3555
(dp3556
g59
(dp3557
g67
I3
ssg68
g3551
sg61
(lp3558
S''
asbasbasbag54
(g70
g56
NtRp3559
(dp3560
g59
(dp3561
sg68
g3515
sg61
(lp3562
g54
(g75
g56
NtRp3563
(dp3564
g59
(dp3565
g79
g80
ssg68
g3559
sg61
(lp3566
g323
asbag54
(g75
g56
NtRp3567
(dp3568
g59
(dp3569
g86
g87
ssg68
g3559
sg61
(lp3570
S':'
asbag54
(g75
g56
NtRp3571
(dp3572
g59
(dp3573
sg68
g3559
sg61
(lp3574
g54
(g55
g56
NtRp3575
(dp3576
g59
(dp3577
g67
I3
ssg68
g3571
sg61
(lp3578
S''
asbasbasbag54
(g70
g56
NtRp3579
(dp3580
g59
(dp3581
sg68
g3515
sg61
(lp3582
g54
(g75
g56
NtRp3583
(dp3584
g59
(dp3585
g79
g80
ssg68
g3579
sg61
(lp3586
g344
asbag54
(g75
g56
NtRp3587
(dp3588
g59
(dp3589
g86
g87
ssg68
g3579
sg61
(lp3590
S':'
asbag54
(g75
g56
NtRp3591
(dp3592
g59
(dp3593
sg68
g3579
sg61
(lp3594
g54
(g55
g56
NtRp3595
(dp3596
g59
(dp3597
g67
I3
ssg68
g3591
sg61
(lp3598
S''
asbasbasbag54
(g70
g56
NtRp3599
(dp3600
g59
(dp3601
sg68
g3515
sg61
(lp3602
g54
(g75
g56
NtRp3603
(dp3604
g59
(dp3605
g79
g80
ssg68
g3599
sg61
(lp3606
g365
asbag54
(g75
g56
NtRp3607
(dp3608
g59
(dp3609
g86
g87
ssg68
g3599
sg61
(lp3610
S':'
asbag54
(g75
g56
NtRp3611
(dp3612
g59
(dp3613
sg68
g3599
sg61
(lp3614
g54
(g55
g56
NtRp3615
(dp3616
g59
(dp3617
g67
I3
ssg68
g3611
sg61
(lp3618
S''
asbasbasbag54
(g70
g56
NtRp3619
(dp3620
g59
(dp3621
sg68
g3515
sg61
(lp3622
g54
(g75
g56
NtRp3623
(dp3624
g59
(dp3625
g79
g80
ssg68
g3619
sg61
(lp3626
g386
asbag54
(g75
g56
NtRp3627
(dp3628
g59
(dp3629
g86
g87
ssg68
g3619
sg61
(lp3630
S':'
asbag54
(g75
g56
NtRp3631
(dp3632
g59
(dp3633
sg68
g3619
sg61
(lp3634
g54
(g55
g56
NtRp3635
(dp3636
g59
(dp3637
g67
I3
ssg68
g3631
sg61
(lp3638
S'/'
asbasbasbag54
(g70
g56
NtRp3639
(dp3640
g59
(dp3641
sg68
g3515
sg61
(lp3642
g54
(g75
g56
NtRp3643
(dp3644
g59
(dp3645
g79
g80
ssg68
g3639
sg61
(lp3646
g407
asbag54
(g75
g56
NtRp3647
(dp3648
g59
(dp3649
g86
g87
ssg68
g3639
sg61
(lp3650
S':'
asbag54
(g75
g56
NtRp3651
(dp3652
g59
(dp3653
sg68
g3639
sg61
(lp3654
g54
(g55
g56
NtRp3655
(dp3656
g59
(dp3657
g67
I3
ssg68
g3651
sg61
(lp3658
S''
asbasbasbag54
(g70
g56
NtRp3659
(dp3660
g59
(dp3661
sg68
g3515
sg61
(lp3662
g54
(g75
g56
NtRp3663
(dp3664
g59
(dp3665
g79
g80
ssg68
g3659
sg61
(lp3666
g428
asbag54
(g75
g56
NtRp3667
(dp3668
g59
(dp3669
g86
g87
ssg68
g3659
sg61
(lp3670
S':'
asbag54
(g75
g56
NtRp3671
(dp3672
g59
(dp3673
sg68
g3659
sg61
(lp3674
g54
(g55
g56
NtRp3675
(dp3676
g59
(dp3677
g67
I3
ssg68
g3671
sg61
(lp3678
S''
asbasbasbasbasbasbasbasbasbasbasbag54
(g70
g56
NtRp3679
(dp3680
g59
(dp3681
sg68
g3445
sg61
(lp3682
g54
(g75
g56
NtRp3683
(dp3684
g59
(dp3685
g79
g80
ssg68
g3679
sg61
(lp3686
S'files'
p3687
asbag54
(g75
g56
NtRp3688
(dp3689
g59
(dp3690
g86
g87
ssg68
g3679
sg61
(lp3691
S':'
asbag54
(g75
g56
NtRp3692
(dp3693
g59
(dp3694
sg68
g3679
sg61
(lp3695
g54
(g55
g56
NtRp3696
(dp3697
g59
(dp3698
g67
I5
ssg68
g3692
sg61
(lp3699
g54
(g63
g56
NtRp3700
(dp3701
g59
(dp3702
g67
I4
ssg68
Nsg61
(lp3703
g54
(g70
g56
NtRp3704
(dp3705
g59
(dp3706
sg68
g3700
sg61
(lp3707
g54
(g75
g56
NtRp3708
(dp3709
g59
(dp3710
sg68
g3704
sg61
(lp3711
g54
(g55
g56
NtRp3712
(dp3713
g59
(dp3714
g67
I4
ssg68
g3708
sg61
(lp3715
S'/admin/static/plugin_multiselect/jquery.dimensions.js'
p3716
asbasbasbag54
(g70
g56
NtRp3717
(dp3718
g59
(dp3719
sg68
g3700
sg61
(lp3720
g54
(g75
g56
NtRp3721
(dp3722
g59
(dp3723
sg68
g3717
sg61
(lp3724
g54
(g55
g56
NtRp3725
(dp3726
g59
(dp3727
g67
I4
ssg68
g3721
sg61
(lp3728
S'/admin/static/plugin_multiselect/jquery.multiselect.js'
p3729
asbasbasbag54
(g70
g56
NtRp3730
(dp3731
g59
(dp3732
sg68
g3700
sg61
(lp3733
g54
(g75
g56
NtRp3734
(dp3735
g59
(dp3736
sg68
g3730
sg61
(lp3737
g54
(g55
g56
NtRp3738
(dp3739
g59
(dp3740
g67
I4
ssg68
g3734
sg61
(lp3741
S'/admin/static/plugin_multiselect/jquery.multiselect.css'
p3742
asbasbasbag54
(g70
g56
NtRp3743
(dp3744
g59
(dp3745
sg68
g3700
sg61
(lp3746
g54
(g75
g56
NtRp3747
(dp3748
g59
(dp3749
sg68
g3743
sg61
(lp3750
g54
(g55
g56
NtRp3751
(dp3752
g59
(dp3753
g67
I4
ssg68
g3747
sg61
(lp3754
S'/admin/static/plugin_multiselect/start.js'
p3755
asbasbasbasbasbasbasbag54
(g70
g56
NtRp3756
(dp3757
g59
(dp3758
sg68
g3445
sg61
(lp3759
g54
(g75
g56
NtRp3760
(dp3761
g59
(dp3762
g79
g80
ssg68
g3756
sg61
(lp3763
S'flash'
p3764
asbag54
(g75
g56
NtRp3765
(dp3766
g59
(dp3767
g86
g87
ssg68
g3756
sg61
(lp3768
S':'
asbag54
(g75
g56
NtRp3769
(dp3770
g59
(dp3771
sg68
g3756
sg61
(lp3772
g54
(g55
g56
NtRp3773
(dp3774
g59
(dp3775
g67
I5
ssg68
g3769
sg61
(lp3776
S''
asbasbasbag54
(g70
g56
NtRp3777
(dp3778
g59
(dp3779
sg68
g3445
sg61
(lp3780
g54
(g75
g56
NtRp3781
(dp3782
g59
(dp3783
g79
g80
ssg68
g3777
sg61
(lp3784
S'generic_patterns'
p3785
asbag54
(g75
g56
NtRp3786
(dp3787
g59
(dp3788
g86
g87
ssg68
g3777
sg61
(lp3789
S':'
asbag54
(g75
g56
NtRp3790
(dp3791
g59
(dp3792
sg68
g3777
sg61
(lp3793
g54
(g55
g56
NtRp3794
(dp3795
g59
(dp3796
g67
I5
ssg68
g3790
sg61
(lp3797
g54
(g63
g56
NtRp3798
(dp3799
g59
(dp3800
g67
I4
ssg68
Nsg61
(lp3801
sbasbasbasbag54
(g70
g56
NtRp3802
(dp3803
g59
(dp3804
sg68
g3445
sg61
(lp3805
g54
(g75
g56
NtRp3806
(dp3807
g59
(dp3808
g79
g80
ssg68
g3802
sg61
(lp3809
S'headers'
p3810
asbag54
(g75
g56
NtRp3811
(dp3812
g59
(dp3813
g86
g87
ssg68
g3802
sg61
(lp3814
S':'
asbag54
(g75
g56
NtRp3815
(dp3816
g59
(dp3817
sg68
g3802
sg61
(lp3818
g54
(g55
g56
NtRp3819
(dp3820
g59
(dp3821
g67
I5
ssg68
g3815
sg61
(lp3822
g54
(g63
g56
NtRp3823
(dp3824
g59
(dp3825
g67
I4
ssg68
Nsg61
(lp3826
g54
(g70
g56
NtRp3827
(dp3828
g59
(dp3829
sg68
g3823
sg61
(lp3830
g54
(g75
g56
NtRp3831
(dp3832
g59
(dp3833
g79
g80
ssg68
g3827
sg61
(lp3834
S'Cache-Control'
p3835
asbag54
(g75
g56
NtRp3836
(dp3837
g59
(dp3838
g86
g87
ssg68
g3827
sg61
(lp3839
S':'
asbag54
(g75
g56
NtRp3840
(dp3841
g59
(dp3842
sg68
g3827
sg61
(lp3843
g54
(g55
g56
NtRp3844
(dp3845
g59
(dp3846
g67
I4
ssg68
g3840
sg61
(lp3847
S'no-store, no-cache, must-revalidate, post-check=0, pre-check=0'
p3848
asbasbasbag54
(g70
g56
NtRp3849
(dp3850
g59
(dp3851
sg68
g3823
sg61
(lp3852
g54
(g75
g56
NtRp3853
(dp3854
g59
(dp3855
g79
g80
ssg68
g3849
sg61
(lp3856
S'Content-Type'
p3857
asbag54
(g75
g56
NtRp3858
(dp3859
g59
(dp3860
g86
g87
ssg68
g3849
sg61
(lp3861
S':'
asbag54
(g75
g56
NtRp3862
(dp3863
g59
(dp3864
sg68
g3849
sg61
(lp3865
g54
(g55
g56
NtRp3866
(dp3867
g59
(dp3868
g67
I4
ssg68
g3862
sg61
(lp3869
S'text/html; charset=utf-8'
p3870
asbasbasbag54
(g70
g56
NtRp3871
(dp3872
g59
(dp3873
sg68
g3823
sg61
(lp3874
g54
(g75
g56
NtRp3875
(dp3876
g59
(dp3877
g79
g80
ssg68
g3871
sg61
(lp3878
S'Expires'
p3879
asbag54
(g75
g56
NtRp3880
(dp3881
g59
(dp3882
g86
g87
ssg68
g3871
sg61
(lp3883
S':'
asbag54
(g75
g56
NtRp3884
(dp3885
g59
(dp3886
sg68
g3871
sg61
(lp3887
g54
(g55
g56
NtRp3888
(dp3889
g59
(dp3890
g67
I4
ssg68
g3884
sg61
(lp3891
S'Sat, 27 Aug 2011 22:09:46 GMT'
p3892
asbasbasbag54
(g70
g56
NtRp3893
(dp3894
g59
(dp3895
sg68
g3823
sg61
(lp3896
g54
(g75
g56
NtRp3897
(dp3898
g59
(dp3899
g79
g80
ssg68
g3893
sg61
(lp3900
S'Pragma'
p3901
asbag54
(g75
g56
NtRp3902
(dp3903
g59
(dp3904
g86
g87
ssg68
g3893
sg61
(lp3905
S':'
asbag54
(g75
g56
NtRp3906
(dp3907
g59
(dp3908
sg68
g3893
sg61
(lp3909
g54
(g55
g56
NtRp3910
(dp3911
g59
(dp3912
g67
I4
ssg68
g3906
sg61
(lp3913
S'no-cache'
p3914
asbasbasbag54
(g70
g56
NtRp3915
(dp3916
g59
(dp3917
sg68
g3823
sg61
(lp3918
g54
(g75
g56
NtRp3919
(dp3920
g59
(dp3921
g79
g80
ssg68
g3915
sg61
(lp3922
S'X-Powered-By'
p3923
asbag54
(g75
g56
NtRp3924
(dp3925
g59
(dp3926
g86
g87
ssg68
g3915
sg61
(lp3927
S':'
asbag54
(g75
g56
NtRp3928
(dp3929
g59
(dp3930
sg68
g3915
sg61
(lp3931
g54
(g55
g56
NtRp3932
(dp3933
g59
(dp3934
g67
I4
ssg68
g3928
sg61
(lp3935
S'web2py'
p3936
asbasbasbasbasbasbasbag54
(g70
g56
NtRp3937
(dp3938
g59
(dp3939
sg68
g3445
sg61
(lp3940
g54
(g75
g56
NtRp3941
(dp3942
g59
(dp3943
g79
g80
ssg68
g3937
sg61
(lp3944
S'menu'
p3945
asbag54
(g75
g56
NtRp3946
(dp3947
g59
(dp3948
g86
g87
ssg68
g3937
sg61
(lp3949
S':'
asbag54
(g75
g56
NtRp3950
(dp3951
g59
(dp3952
sg68
g3937
sg61
(lp3953
g54
(g55
g56
NtRp3954
(dp3955
g59
(dp3956
g67
I5
ssg68
g3950
sg61
(lp3957
g54
(g63
g56
NtRp3958
(dp3959
g59
(dp3960
g67
I4
ssg68
Nsg61
(lp3961
g54
(g70
g56
NtRp3962
(dp3963
g59
(dp3964
sg68
g3958
sg61
(lp3965
g54
(g75
g56
NtRp3966
(dp3967
g59
(dp3968
sg68
g3962
sg61
(lp3969
g54
(g55
g56
NtRp3970
(dp3971
g59
(dp3972
g67
I4
ssg68
g3966
sg61
(lp3973
g54
(g63
g56
NtRp3974
(dp3975
g59
(dp3976
g67
I3
ssg68
Nsg61
(lp3977
g54
(g70
g56
NtRp3978
(dp3979
g59
(dp3980
sg68
g3974
sg61
(lp3981
g54
(g75
g56
NtRp3982
(dp3983
g59
(dp3984
sg68
g3978
sg61
(lp3985
g54
(g55
g56
NtRp3986
(dp3987
g59
(dp3988
g67
I3
ssg68
g3982
sg61
(lp3989
cgluon.languages
lazyT_unpickle
p3990
(S't\x04\x00\x00\x00site'
tRp3991
asbasbasbag54
(g70
g56
NtRp3992
(dp3993
g59
(dp3994
sg68
g3974
sg61
(lp3995
g54
(g75
g56
NtRp3996
(dp3997
g59
(dp3998
sg68
g3992
sg61
(lp3999
g54
(g55
g56
NtRp4000
(dp4001
g59
(dp4002
g67
I3
ssg68
g3996
sg61
(lp4003
g1199
asbasbasbag54
(g70
g56
NtRp4004
(dp4005
g59
(dp4006
sg68
g3974
sg61
(lp4007
g54
(g75
g56
NtRp4008
(dp4009
g59
(dp4010
sg68
g4004
sg61
(lp4011
g54
(g55
g56
NtRp4012
(dp4013
g59
(dp4014
g67
I3
ssg68
g4008
sg61
(lp4015
S'/admin/default/site'
p4016
asbasbasbasbasbasbasbag54
(g70
g56
NtRp4017
(dp4018
g59
(dp4019
sg68
g3958
sg61
(lp4020
g54
(g75
g56
NtRp4021
(dp4022
g59
(dp4023
sg68
g4017
sg61
(lp4024
g54
(g55
g56
NtRp4025
(dp4026
g59
(dp4027
g67
I4
ssg68
g4021
sg61
(lp4028
g54
(g63
g56
NtRp4029
(dp4030
g59
(dp4031
g67
I3
ssg68
Nsg61
(lp4032
g54
(g70
g56
NtRp4033
(dp4034
g59
(dp4035
sg68
g4029
sg61
(lp4036
g54
(g75
g56
NtRp4037
(dp4038
g59
(dp4039
sg68
g4033
sg61
(lp4040
g54
(g55
g56
NtRp4041
(dp4042
g59
(dp4043
g67
I3
ssg68
g4037
sg61
(lp4044
g3990
(S't\x04\x00\x00\x00edit'
tRp4045
asbasbasbag54
(g70
g56
NtRp4046
(dp4047
g59
(dp4048
sg68
g4029
sg61
(lp4049
g54
(g75
g56
NtRp4050
(dp4051
g59
(dp4052
sg68
g4046
sg61
(lp4053
g54
(g55
g56
NtRp4054
(dp4055
g59
(dp4056
g67
I3
ssg68
g4050
sg61
(lp4057
g1199
asbasbasbag54
(g70
g56
NtRp4058
(dp4059
g59
(dp4060
sg68
g4029
sg61
(lp4061
g54
(g75
g56
NtRp4062
(dp4063
g59
(dp4064
sg68
g4058
sg61
(lp4065
g54
(g55
g56
NtRp4066
(dp4067
g59
(dp4068
g67
I3
ssg68
g4062
sg61
(lp4069
S'/admin/default/design/init'
p4070
asbasbasbasbasbasbasbag54
(g70
g56
NtRp4071
(dp4072
g59
(dp4073
sg68
g3958
sg61
(lp4074
g54
(g75
g56
NtRp4075
(dp4076
g59
(dp4077
sg68
g4071
sg61
(lp4078
g54
(g55
g56
NtRp4079
(dp4080
g59
(dp4081
g67
I4
ssg68
g4075
sg61
(lp4082
g54
(g63
g56
NtRp4083
(dp4084
g59
(dp4085
g67
I3
ssg68
Nsg61
(lp4086
g54
(g70
g56
NtRp4087
(dp4088
g59
(dp4089
sg68
g4083
sg61
(lp4090
g54
(g75
g56
NtRp4091
(dp4092
g59
(dp4093
sg68
g4087
sg61
(lp4094
g54
(g55
g56
NtRp4095
(dp4096
g59
(dp4097
g67
I3
ssg68
g4091
sg61
(lp4098
g3990
(S't\x05\x00\x00\x00about'
tRp4099
asbasbasbag54
(g70
g56
NtRp4100
(dp4101
g59
(dp4102
sg68
g4083
sg61
(lp4103
g54
(g75
g56
NtRp4104
(dp4105
g59
(dp4106
sg68
g4100
sg61
(lp4107
g54
(g55
g56
NtRp4108
(dp4109
g59
(dp4110
g67
I3
ssg68
g4104
sg61
(lp4111
g1199
asbasbasbag54
(g70
g56
NtRp4112
(dp4113
g59
(dp4114
sg68
g4083
sg61
(lp4115
g54
(g75
g56
NtRp4116
(dp4117
g59
(dp4118
sg68
g4112
sg61
(lp4119
g54
(g55
g56
NtRp4120
(dp4121
g59
(dp4122
g67
I3
ssg68
g4116
sg61
(lp4123
S'/admin/default/about/init'
p4124
asbasbasbasbasbasbasbag54
(g70
g56
NtRp4125
(dp4126
g59
(dp4127
sg68
g3958
sg61
(lp4128
g54
(g75
g56
NtRp4129
(dp4130
g59
(dp4131
sg68
g4125
sg61
(lp4132
g54
(g55
g56
NtRp4133
(dp4134
g59
(dp4135
g67
I4
ssg68
g4129
sg61
(lp4136
g54
(g63
g56
NtRp4137
(dp4138
g59
(dp4139
g67
I3
ssg68
Nsg61
(lp4140
g54
(g70
g56
NtRp4141
(dp4142
g59
(dp4143
sg68
g4137
sg61
(lp4144
g54
(g75
g56
NtRp4145
(dp4146
g59
(dp4147
sg68
g4141
sg61
(lp4148
g54
(g55
g56
NtRp4149
(dp4150
g59
(dp4151
g67
I3
ssg68
g4145
sg61
(lp4152
g3990
(S't\x06\x00\x00\x00errors'
tRp4153
asbasbasbag54
(g70
g56
NtRp4154
(dp4155
g59
(dp4156
sg68
g4137
sg61
(lp4157
g54
(g75
g56
NtRp4158
(dp4159
g59
(dp4160
sg68
g4154
sg61
(lp4161
g54
(g55
g56
NtRp4162
(dp4163
g59
(dp4164
g67
I3
ssg68
g4158
sg61
(lp4165
g1199
asbasbasbag54
(g70
g56
NtRp4166
(dp4167
g59
(dp4168
sg68
g4137
sg61
(lp4169
g54
(g75
g56
NtRp4170
(dp4171
g59
(dp4172
sg68
g4166
sg61
(lp4173
g54
(g55
g56
NtRp4174
(dp4175
g59
(dp4176
g67
I3
ssg68
g4170
sg61
(lp4177
S'/admin/default/errors/init'
p4178
asbasbasbasbasbasbasbag54
(g70
g56
NtRp4179
(dp4180
g59
(dp4181
sg68
g3958
sg61
(lp4182
g54
(g75
g56
NtRp4183
(dp4184
g59
(dp4185
sg68
g4179
sg61
(lp4186
g54
(g55
g56
NtRp4187
(dp4188
g59
(dp4189
g67
I4
ssg68
g4183
sg61
(lp4190
g54
(g63
g56
NtRp4191
(dp4192
g59
(dp4193
g67
I3
ssg68
Nsg61
(lp4194
g54
(g70
g56
NtRp4195
(dp4196
g59
(dp4197
sg68
g4191
sg61
(lp4198
g54
(g75
g56
NtRp4199
(dp4200
g59
(dp4201
sg68
g4195
sg61
(lp4202
g54
(g55
g56
NtRp4203
(dp4204
g59
(dp4205
g67
I3
ssg68
g4199
sg61
(lp4206
g3990
(S't\n\x00\x00\x00versioning'
tRp4207
asbasbasbag54
(g70
g56
NtRp4208
(dp4209
g59
(dp4210
sg68
g4191
sg61
(lp4211
g54
(g75
g56
NtRp4212
(dp4213
g59
(dp4214
sg68
g4208
sg61
(lp4215
g54
(g55
g56
NtRp4216
(dp4217
g59
(dp4218
g67
I3
ssg68
g4212
sg61
(lp4219
g1199
asbasbasbag54
(g70
g56
NtRp4220
(dp4221
g59
(dp4222
sg68
g4191
sg61
(lp4223
g54
(g75
g56
NtRp4224
(dp4225
g59
(dp4226
sg68
g4220
sg61
(lp4227
g54
(g55
g56
NtRp4228
(dp4229
g59
(dp4230
g67
I3
ssg68
g4224
sg61
(lp4231
S'/admin/mercurial/commit/init'
p4232
asbasbasbasbasbasbasbag54
(g70
g56
NtRp4233
(dp4234
g59
(dp4235
sg68
g3958
sg61
(lp4236
g54
(g75
g56
NtRp4237
(dp4238
g59
(dp4239
sg68
g4233
sg61
(lp4240
g54
(g55
g56
NtRp4241
(dp4242
g59
(dp4243
g67
I4
ssg68
g4237
sg61
(lp4244
g54
(g63
g56
NtRp4245
(dp4246
g59
(dp4247
g67
I3
ssg68
Nsg61
(lp4248
g54
(g70
g56
NtRp4249
(dp4250
g59
(dp4251
sg68
g4245
sg61
(lp4252
g54
(g75
g56
NtRp4253
(dp4254
g59
(dp4255
sg68
g4249
sg61
(lp4256
g54
(g55
g56
NtRp4257
(dp4258
g59
(dp4259
g67
I3
ssg68
g4253
sg61
(lp4260
g3990
(S't\x06\x00\x00\x00logout'
tRp4261
asbasbasbag54
(g70
g56
NtRp4262
(dp4263
g59
(dp4264
sg68
g4245
sg61
(lp4265
g54
(g75
g56
NtRp4266
(dp4267
g59
(dp4268
sg68
g4262
sg61
(lp4269
g54
(g55
g56
NtRp4270
(dp4271
g59
(dp4272
g67
I3
ssg68
g4266
sg61
(lp4273
g1199
asbasbasbag54
(g70
g56
NtRp4274
(dp4275
g59
(dp4276
sg68
g4245
sg61
(lp4277
g54
(g75
g56
NtRp4278
(dp4279
g59
(dp4280
sg68
g4274
sg61
(lp4281
g54
(g55
g56
NtRp4282
(dp4283
g59
(dp4284
g67
I3
ssg68
g4278
sg61
(lp4285
S'/admin/default/logout'
p4286
asbasbasbasbasbasbasbag54
(g70
g56
NtRp4287
(dp4288
g59
(dp4289
sg68
g3958
sg61
(lp4290
g54
(g75
g56
NtRp4291
(dp4292
g59
(dp4293
sg68
g4287
sg61
(lp4294
g54
(g55
g56
NtRp4295
(dp4296
g59
(dp4297
g67
I4
ssg68
g4291
sg61
(lp4298
g54
(g63
g56
NtRp4299
(dp4300
g59
(dp4301
g67
I3
ssg68
Nsg61
(lp4302
g54
(g70
g56
NtRp4303
(dp4304
g59
(dp4305
sg68
g4299
sg61
(lp4306
g54
(g75
g56
NtRp4307
(dp4308
g59
(dp4309
sg68
g4303
sg61
(lp4310
g54
(g55
g56
NtRp4311
(dp4312
g59
(dp4313
g67
I3
ssg68
g4307
sg61
(lp4314
g3990
(S't\x04\x00\x00\x00help'
tRp4315
asbasbasbag54
(g70
g56
NtRp4316
(dp4317
g59
(dp4318
sg68
g4299
sg61
(lp4319
g54
(g75
g56
NtRp4320
(dp4321
g59
(dp4322
sg68
g4316
sg61
(lp4323
g54
(g55
g56
NtRp4324
(dp4325
g59
(dp4326
g67
I3
ssg68
g4320
sg61
(lp4327
g1199
asbasbasbag54
(g70
g56
NtRp4328
(dp4329
g59
(dp4330
sg68
g4299
sg61
(lp4331
g54
(g75
g56
NtRp4332
(dp4333
g59
(dp4334
sg68
g4328
sg61
(lp4335
g54
(g55
g56
NtRp4336
(dp4337
g59
(dp4338
g67
I3
ssg68
g4332
sg61
(lp4339
S'/examples/default/index'
p4340
asbasbasbasbasbasbasbasbasbasbasbag54
(g70
g56
NtRp4341
(dp4342
g59
(dp4343
sg68
g3445
sg61
(lp4344
g54
(g75
g56
NtRp4345
(dp4346
g59
(dp4347
g79
g80
ssg68
g4341
sg61
(lp4348
S'meta'
p4349
asbag54
(g75
g56
NtRp4350
(dp4351
g59
(dp4352
g86
g87
ssg68
g4341
sg61
(lp4353
S':'
asbag54
(g75
g56
NtRp4354
(dp4355
g59
(dp4356
sg68
g4341
sg61
(lp4357
g54
(g55
g56
NtRp4358
(dp4359
g59
(dp4360
g67
I5
ssg68
g4354
sg61
(lp4361
g54
(g63
g56
NtRp4362
(dp4363
g59
(dp4364
g67
I4
ssg68
Nsg61
(lp4365
sbasbasbasbag54
(g70
g56
NtRp4366
(dp4367
g59
(dp4368
sg68
g3445
sg61
(lp4369
g54
(g75
g56
NtRp4370
(dp4371
g59
(dp4372
g79
g80
ssg68
g4366
sg61
(lp4373
S'postprocessing'
p4374
asbag54
(g75
g56
NtRp4375
(dp4376
g59
(dp4377
g86
g87
ssg68
g4366
sg61
(lp4378
S':'
asbag54
(g75
g56
NtRp4379
(dp4380
g59
(dp4381
sg68
g4366
sg61
(lp4382
g54
(g55
g56
NtRp4383
(dp4384
g59
(dp4385
g67
I5
ssg68
g4379
sg61
(lp4386
g54
(g63
g56
NtRp4387
(dp4388
g59
(dp4389
g67
I4
ssg68
Nsg61
(lp4390
sbasbasbasbag54
(g70
g56
NtRp4391
(dp4392
g59
(dp4393
sg68
g3445
sg61
(lp4394
g54
(g75
g56
NtRp4395
(dp4396
g59
(dp4397
g79
g80
ssg68
g4391
sg61
(lp4398
S'session_file'
p4399
asbag54
(g75
g56
NtRp4400
(dp4401
g59
(dp4402
g86
g87
ssg68
g4391
sg61
(lp4403
S':'
asbag54
(g75
g56
NtRp4404
(dp4405
g59
(dp4406
sg68
g4391
sg61
(lp4407
g54
(g55
g56
NtRp4408
(dp4409
g59
(dp4410
g67
I5
ssg68
g4404
sg61
(lp4411
S"<open file '/Users/hellais/Documents/code/mygit/globaleaks/webapp/applications/admin/sessions/127.0.0.1-67122ce4-50b2-4acf-b28e-7a14feeff4d9', mode 'rb+' at 0x102db5db0>"
p4412
asbasbasbag54
(g70
g56
NtRp4413
(dp4414
g59
(dp4415
sg68
g3445
sg61
(lp4416
g54
(g75
g56
NtRp4417
(dp4418
g59
(dp4419
g79
g80
ssg68
g4413
sg61
(lp4420
S'session_filename'
p4421
asbag54
(g75
g56
NtRp4422
(dp4423
g59
(dp4424
g86
g87
ssg68
g4413
sg61
(lp4425
S':'
asbag54
(g75
g56
NtRp4426
(dp4427
g59
(dp4428
sg68
g4413
sg61
(lp4429
g54
(g55
g56
NtRp4430
(dp4431
g59
(dp4432
g67
I5
ssg68
g4426
sg61
(lp4433
S'/Users/hellais/Documents/code/mygit/globaleaks/webapp/applications/admin/sessions/127.0.0.1-67122ce4-50b2-4acf-b28e-7a14feeff4d9'
p4434
asbasbasbag54
(g70
g56
NtRp4435
(dp4436
g59
(dp4437
sg68
g3445
sg61
(lp4438
g54
(g75
g56
NtRp4439
(dp4440
g59
(dp4441
g79
g80
ssg68
g4435
sg61
(lp4442
S'session_id'
p4443
asbag54
(g75
g56
NtRp4444
(dp4445
g59
(dp4446
g86
g87
ssg68
g4435
sg61
(lp4447
S':'
asbag54
(g75
g56
NtRp4448
(dp4449
g59
(dp4450
sg68
g4435
sg61
(lp4451
g54
(g55
g56
NtRp4452
(dp4453
g59
(dp4454
g67
I5
ssg68
g4448
sg61
(lp4455
S'127.0.0.1-67122ce4-50b2-4acf-b28e-7a14feeff4d9'
p4456
asbasbasbag54
(g70
g56
NtRp4457
(dp4458
g59
(dp4459
sg68
g3445
sg61
(lp4460
g54
(g75
g56
NtRp4461
(dp4462
g59
(dp4463
g79
g80
ssg68
g4457
sg61
(lp4464
S'session_id_name'
p4465
asbag54
(g75
g56
NtRp4466
(dp4467
g59
(dp4468
g86
g87
ssg68
g4457
sg61
(lp4469
S':'
asbag54
(g75
g56
NtRp4470
(dp4471
g59
(dp4472
sg68
g4457
sg61
(lp4473
g54
(g55
g56
NtRp4474
(dp4475
g59
(dp4476
g67
I5
ssg68
g4470
sg61
(lp4477
g3502
asbasbasbag54
(g70
g56
NtRp4478
(dp4479
g59
(dp4480
sg68
g3445
sg61
(lp4481
g54
(g75
g56
NtRp4482
(dp4483
g59
(dp4484
g79
g80
ssg68
g4478
sg61
(lp4485
S'session_locked'
p4486
asbag54
(g75
g56
NtRp4487
(dp4488
g59
(dp4489
g86
g87
ssg68
g4478
sg61
(lp4490
S':'
asbag54
(g75
g56
NtRp4491
(dp4492
g59
(dp4493
sg68
g4478
sg61
(lp4494
g54
(g55
g56
NtRp4495
(dp4496
g59
(dp4497
g67
I5
ssg68
g4491
sg61
(lp4498
g97
asbasbasbag54
(g70
g56
NtRp4499
(dp4500
g59
(dp4501
sg68
g3445
sg61
(lp4502
g54
(g75
g56
NtRp4503
(dp4504
g59
(dp4505
g79
g80
ssg68
g4499
sg61
(lp4506
S'session_new'
p4507
asbag54
(g75
g56
NtRp4508
(dp4509
g59
(dp4510
g86
g87
ssg68
g4499
sg61
(lp4511
S':'
asbag54
(g75
g56
NtRp4512
(dp4513
g59
(dp4514
sg68
g4499
sg61
(lp4515
g54
(g55
g56
NtRp4516
(dp4517
g59
(dp4518
g67
I5
ssg68
g4512
sg61
(lp4519
g1199
asbasbasbag54
(g70
g56
NtRp4520
(dp4521
g59
(dp4522
sg68
g3445
sg61
(lp4523
g54
(g75
g56
NtRp4524
(dp4525
g59
(dp4526
g79
g80
ssg68
g4520
sg61
(lp4527
S'status'
p4528
asbag54
(g75
g56
NtRp4529
(dp4530
g59
(dp4531
g86
g87
ssg68
g4520
sg61
(lp4532
S':'
asbag54
(g75
g56
NtRp4533
(dp4534
g59
(dp4535
sg68
g4520
sg61
(lp4536
g54
(g55
g56
NtRp4537
(dp4538
g59
(dp4539
g67
I5
ssg68
g4533
sg61
(lp4540
S'200'
p4541
asbasbasbag54
(g70
g56
NtRp4542
(dp4543
g59
(dp4544
sg68
g3445
sg61
(lp4545
g54
(g75
g56
NtRp4546
(dp4547
g59
(dp4548
g79
g80
ssg68
g4542
sg61
(lp4549
S'subtitle'
p4550
asbag54
(g75
g56
NtRp4551
(dp4552
g59
(dp4553
g86
g87
ssg68
g4542
sg61
(lp4554
S':'
asbag54
(g75
g56
NtRp4555
(dp4556
g59
(dp4557
sg68
g4542
sg61
(lp4558
g54
(g55
g56
NtRp4559
(dp4560
g59
(dp4561
g67
I5
ssg68
g4555
sg61
(lp4562
S'admin'
p4563
asbasbasbag54
(g70
g56
NtRp4564
(dp4565
g59
(dp4566
sg68
g3445
sg61
(lp4567
g54
(g75
g56
NtRp4568
(dp4569
g59
(dp4570
g79
g80
ssg68
g4564
sg61
(lp4571
S'title'
p4572
asbag54
(g75
g56
NtRp4573
(dp4574
g59
(dp4575
g86
g87
ssg68
g4564
sg61
(lp4576
S':'
asbag54
(g75
g56
NtRp4577
(dp4578
g59
(dp4579
sg68
g4564
sg61
(lp4580
g54
(g55
g56
NtRp4581
(dp4582
g59
(dp4583
g67
I5
ssg68
g4577
sg61
(lp4584
S'callback init'
p4585
asbasbasbag54
(g70
g56
NtRp4586
(dp4587
g59
(dp4588
sg68
g3445
sg61
(lp4589
g54
(g75
g56
NtRp4590
(dp4591
g59
(dp4592
g79
g80
ssg68
g4586
sg61
(lp4593
g2305
asbag54
(g75
g56
NtRp4594
(dp4595
g59
(dp4596
g86
g87
ssg68
g4586
sg61
(lp4597
S':'
asbag54
(g75
g56
NtRp4598
(dp4599
g59
(dp4600
sg68
g4586
sg61
(lp4601
g54
(g55
g56
NtRp4602
(dp4603
g59
(dp4604
g67
I5
ssg68
g4598
sg61
(lp4605
g2318
asbasbasbag54
(g70
g56
NtRp4606
(dp4607
g59
(dp4608
sg68
g3445
sg61
(lp4609
g54
(g75
g56
NtRp4610
(dp4611
g59
(dp4612
g79
g80
ssg68
g4606
sg61
(lp4613
S'view'
p4614
asbag54
(g75
g56
NtRp4615
(dp4616
g59
(dp4617
g86
g87
ssg68
g4606
sg61
(lp4618
S':'
asbag54
(g75
g56
NtRp4619
(dp4620
g59
(dp4621
sg68
g4606
sg61
(lp4622
g54
(g55
g56
NtRp4623
(dp4624
g59
(dp4625
g67
I5
ssg68
g4619
sg61
(lp4626
S'shell/callback.html'
p4627
asbasbasbasbasbsS'locals'
p4628
(dp4629
S'a'
S"'init'"
p4630
sS'extra_request'
p4631
g17
sS'c'
S'None'
p4632
sS'e'
S'RestrictedError()'
p4633
sS'f'
S'None'
p4634
sS'check_credentials'
p4635
S'<function check_credentials>'
p4636
sg53
S"<Storage {'is_local': False, 'function': 'index'...8, 0, 9, 46, 625000), 'post_vars': <Storage {}>}>"
p4637
sg3440
S"<Storage {'status': 200, 'body': <cStringIO.Stri...050>, 'files': [], 'view': 'default/index.html'}>"
p4638
sS'environment'
p4639
S"{'A': <class 'gluon.html.A'>, 'B': <class 'gluon.html.B'>, 'BEAUTIFY': <class 'gluon.html.BEAUTIFY'>, 'BODY': <class 'gluon.html.BODY'>, 'BR': <class 'gluon.html.BR'>, 'BUTTON': <class 'gluon.html.BUTTON'>, 'CAT': <class 'gluon.html.CAT'>, 'CENTER': <class 'gluon.html.CENTER'>, 'CLEANUP': <class 'gluon.validators.CLEANUP'>, 'CODE': <class 'gluon.html.CODE'>, ...}"
p4640
sg3304
S'<Storage {}>'
p4641
sS'import_models'
p4642
g97
sS'dir'
p4643
S"''"
p4644
sssS'traceback'
p4645
S'Traceback (most recent call last):\n  File "/opt/local/Library/Frameworks/Python.framework/Versions/2.7/lib/python2.7/gluon/main.py", line 485, in wsgibase\n    serve_controller(request, response, session)\n  File "/opt/local/Library/Frameworks/Python.framework/Versions/2.7/lib/python2.7/gluon/main.py", line 203, in serve_controller\n    page = run_controller_in(request.controller, request.function, environment)\n  File "/opt/local/Library/Frameworks/Python.framework/Versions/2.7/lib/python2.7/gluon/compileapp.py", line 452, in run_controller_in\n    restricted(code, environment, filename)\n  File "/opt/local/Library/Frameworks/Python.framework/Versions/2.7/lib/python2.7/gluon/restricted.py", line 192, in restricted\n    exec ccode in environment\n  File "/Users/hellais/Documents/code/mygit/globaleaks/webapp/applications/admin/controllers/shell.py", line 47, in <module>\n  File "/opt/local/Library/Frameworks/Python.framework/Versions/2.7/lib/python2.7/gluon/globals.py", line 145, in <lambda>\n    self._caller = lambda f: f()\n  File "/Users/hellais/Documents/code/mygit/globaleaks/webapp/applications/admin/controllers/shell.py", line 34, in callback\n    environ=env(app,True)\n  File "/opt/local/Library/Frameworks/Python.framework/Versions/2.7/lib/python2.7/gluon/shell.py", line 133, in env\n    sys.exit(1)\nSystemExit: 1\n'
p4646
s.