(dp1
S'auth_type'
p2
(dp3
S'type'
p4
S'string'
p5
sS'sortable'
p6
I4
sS'sql'
p7
S'CHAR(512)'
p8
ssS'name'
p9
(dp10
g4
g5
sg6
I2
sg7
S'CHAR(512)'
p11
ssS'tid'
p12
(dp13
S'type'
p14
S'string'
p15
sS'sortable'
p16
I3
sS'sql'
p17
S'CHAR(512) UNIQUE'
p18
ssS'type'
p19
(dp20
g4
g5
sg6
I3
sg7
S'CHAR(512)'
p21
ssS'id'
p22
(dp23
g4
S'id'
p24
sg6
I1
sg7
S'INTEGER PRIMARY KEY AUTOINCREMENT'
p25
ssS'details'
p26
(dp27
g4
g5
sg6
I5
sg7
S'CHAR(512)'
p28
ss.