(dp1
S'output'
p2
S''
sS'layer'
p3
S'/Users/hellais/Documents/code/mygit/globaleaks/webapp/applications/init/controllers/default.py'
p4
sS'code'
p5
S'# -*- coding: utf-8 -*-\n### required - do no delete\ndef user(): return dict(form=auth())\ndef download(): return response.download(request,db)\ndef call():\n    session.forget()\n    return service()\n### end requires\ndef index():\n    return dict(message=T("Hello World, I am GlobaLeaks!"))\n\ndef submission():\n    form_content = (Field(\'Title\', requires=IS_NOT_EMPTY()),\n                    Field(\'Description\', \'text\', requires=IS_NOT_EMPTY()),\n                    Field(\'Tags\'),Field(\'material\', \'upload\', uploadfolder="uploads/"),\n                    Field(\'dislaimer\', \'boolean\', requires=IS_EQUAL_TO("on", error_message="Please read the disclaimer")))\n   \n    form = SQLFORM.factory(*form_content)\n    \n    if form.accepts(request.vars, session):\n        l = request.vars\n        leak_id = gl.create_leak(l.Title, l.Description, None, None,\n                {"Al Jazeera":10 , "CNN":20, "Leaker":0}, l.Tags)\n        \n        #response.flash = \'form accepted\'\n        leak = Leak(leak_id)\n\n        #FIXME do this better...\n        tulips = []\n        for tulip in leak.tulips:\n            if tulip.target=="Leaker":\n                leaker_tulip = tulip.url\n            else:\n                tulips.append((tulip.url, tulip.target))\n            \n        return dict(leak_id=leak_id, tulip=leaker_tulip, form=None, tulips=tulips)\n    elif form.errors:\n        response.flash = \'form has errors\'\n    else:\n        response.flash = \'please fill the form\'        \n    \n    return dict(form=form, leak_id=None, tulip=None, tulips=None)\n\ndef tulip():\n    tulip_url = request.args[0]\n    t = Tulip(url=tulip_url)\n    leak = t.get_leak()\n    \n    form = SQLFORM.factory(Field(\'Comment\', \'text\', requires=IS_NOT_EMPTY()))\n       \n    if form.accepts(request.vars, session):\n        response.flash = \'ok!\'\n        c = response.vars\n        print response.vars\n        print dir(t)\n\n        return dict(dead=True,\n                leak_title=leak.title,\n                leak_tags=leak.tags,\n                leak_desc=leak.desc,\n                leak_material=leak.material,\n                comment="asdads", \n                name=t.target, \n                comment_form=form)\n\n    elif form.errors:\n        response.flash = \'form has errors\'\n    else:\n        response.flash = \'please fill the form\'    \n\n    if(int(t.downloads_counter) >= int(t.allowed_downloads)):\n                tulip_downloads=t.downloads_counter,\n                tulip_allowed_downloads=t.allowed_downloads)\n\n    t.downloads_counter = int(t.downloads_counter) + 1\n   \n    return dict(dead=False,\n                leak_title=leak.title,\n                leak_tags=leak.tags,\n                leak_desc=leak.desc,\n                leak_material=leak.material,\n                tulip_downloads=t.downloads_counter,\n                tulip_allowed_downloads=t.allowed_downloads,\n                comment_form=form,\n                comment=None)\n\ndef error():\n    return dict()\n\nresponse._vars=response._caller(index)\n'
p6
sS'snapshot'
p7
(dp8
S'exception'
p9
(dp10
S'__getslice__'
p11
S"<method-wrapper '__getslice__' of exceptions.SyntaxError object>"
p12
sS'text'
p13
S"'                tulip_allowed_downloads=t.allowed_downloads)\\n'"
p14
sS'__str__'
p15
S"<method-wrapper '__str__' of exceptions.SyntaxError object>"
p16
sS'__reduce__'
p17
S'<built-in method __reduce__ of exceptions.SyntaxError object>'
p18
sS'__dict__'
p19
S'{}'
p20
sS'__sizeof__'
p21
S'<built-in method __sizeof__ of exceptions.SyntaxError object>'
p22
sS'__init__'
p23
S"<method-wrapper '__init__' of exceptions.SyntaxError object>"
p24
sS'__setattr__'
p25
S"<method-wrapper '__setattr__' of exceptions.SyntaxError object>"
p26
sS'__reduce_ex__'
p27
S'<built-in method __reduce_ex__ of exceptions.SyntaxError object>'
p28
sS'__new__'
p29
S'<built-in method __new__ of type object>'
p30
sS'__format__'
p31
S'<built-in method __format__ of exceptions.SyntaxError object>'
p32
sS'__class__'
p33
S"<type 'exceptions.SyntaxError'>"
p34
sS'filename'
p35
S"'/Users/hellais/Documents/code/mygit/globaleaks/webapp/applications/init/controllers/default.py'"
p36
sS'lineno'
p37
S'73'
p38
sS'msg'
p39
S"'invalid syntax'"
p40
sS'__doc__'
p41
S"'Invalid syntax.'"
p42
sS'__getitem__'
p43
S"<method-wrapper '__getitem__' of exceptions.SyntaxError object>"
p44
sS'__setstate__'
p45
S'<built-in method __setstate__ of exceptions.SyntaxError object>'
p46
sS'__getattribute__'
p47
S"<method-wrapper '__getattribute__' of exceptions.SyntaxError object>"
p48
sS'print_file_and_line'
p49
S'None'
p50
sS'args'
p51
S"('invalid syntax', ('/Users/hellais/Documents/code/mygit/globaleaks/webapp/applications/init/controllers/default.py', 73, 60, '                tulip_allowed_downloads=t.allowed_downloads)\\n'))"
p52
sS'__subclasshook__'
p53
S'<built-in method __subclasshook__ of type object>'
p54
sS'offset'
p55
S'60'
p56
sS'__unicode__'
p57
S'<built-in method __unicode__ of exceptions.SyntaxError object>'
p58
sS'__delattr__'
p59
S"<method-wrapper '__delattr__' of exceptions.SyntaxError object>"
p60
sS'__repr__'
p61
S"<method-wrapper '__repr__' of exceptions.SyntaxError object>"
p62
sS'__hash__'
p63
S"<method-wrapper '__hash__' of exceptions.SyntaxError object>"
p64
ssS'evalue'
p65
S'invalid syntax (default.py, line 73)'
p66
sS'request'
p67
ccopy_reg
_reconstructor
p68
(cgluon.html
BEAUTIFY
p69
c__builtin__
object
p70
NtRp71
(dp72
S'attributes'
p73
(dp74
sS'components'
p75
(lp76
g68
(cgluon.html
TABLE
p77
g70
NtRp78
(dp79
g73
(dp80
S'level'
p81
I5
ssS'parent'
p82
Nsg75
(lp83
g68
(cgluon.html
TR
p84
g70
NtRp85
(dp86
g73
(dp87
sg82
g78
sg75
(lp88
g68
(cgluon.html
TD
p89
g70
NtRp90
(dp91
g73
(dp92
S'_style'
p93
S'font-weight:bold;'
p94
ssg82
g85
sg75
(lp95
S'ajax'
p96
asbag68
(g89
g70
NtRp97
(dp98
g73
(dp99
S'_valign'
p100
S'top'
p101
ssg82
g85
sg75
(lp102
S':'
asbag68
(g89
g70
NtRp103
(dp104
g73
(dp105
sg82
g85
sg75
(lp106
g68
(g69
g70
NtRp107
(dp108
g73
(dp109
g81
I5
ssg82
g103
sg75
(lp110
S'False'
p111
asbasbasbag68
(g84
g70
NtRp112
(dp113
g73
(dp114
sg82
g78
sg75
(lp115
g68
(g89
g70
NtRp116
(dp117
g73
(dp118
g93
g94
ssg82
g112
sg75
(lp119
S'application'
p120
asbag68
(g89
g70
NtRp121
(dp122
g73
(dp123
g100
g101
ssg82
g112
sg75
(lp124
S':'
asbag68
(g89
g70
NtRp125
(dp126
g73
(dp127
sg82
g112
sg75
(lp128
g68
(g69
g70
NtRp129
(dp130
g73
(dp131
g81
I5
ssg82
g125
sg75
(lp132
S'init'
p133
asbasbasbag68
(g84
g70
NtRp134
(dp135
g73
(dp136
sg82
g78
sg75
(lp137
g68
(g89
g70
NtRp138
(dp139
g73
(dp140
g93
g94
ssg82
g134
sg75
(lp141
g51
asbag68
(g89
g70
NtRp142
(dp143
g73
(dp144
g100
g101
ssg82
g134
sg75
(lp145
S':'
asbag68
(g89
g70
NtRp146
(dp147
g73
(dp148
sg82
g134
sg75
(lp149
g68
(g69
g70
NtRp150
(dp151
g73
(dp152
g81
I5
ssg82
g146
sg75
(lp153
g68
(g77
g70
NtRp154
(dp155
g73
(dp156
g81
I4
ssg82
Nsg75
(lp157
sbasbasbasbag68
(g84
g70
NtRp158
(dp159
g73
(dp160
sg82
g78
sg75
(lp161
g68
(g89
g70
NtRp162
(dp163
g73
(dp164
g93
g94
ssg82
g158
sg75
(lp165
S'body'
p166
asbag68
(g89
g70
NtRp167
(dp168
g73
(dp169
g100
g101
ssg82
g158
sg75
(lp170
S':'
asbag68
(g89
g70
NtRp171
(dp172
g73
(dp173
sg82
g158
sg75
(lp174
g68
(g69
g70
NtRp175
(dp176
g73
(dp177
g81
I5
ssg82
g171
sg75
(lp178
S'<cStringIO.StringO object at 0x1021d1030>'
p179
asbasbasbag68
(g84
g70
NtRp180
(dp181
g73
(dp182
sg82
g78
sg75
(lp183
g68
(g89
g70
NtRp184
(dp185
g73
(dp186
g93
g94
ssg82
g180
sg75
(lp187
S'client'
p188
asbag68
(g89
g70
NtRp189
(dp190
g73
(dp191
g100
g101
ssg82
g180
sg75
(lp192
S':'
asbag68
(g89
g70
NtRp193
(dp194
g73
(dp195
sg82
g180
sg75
(lp196
g68
(g69
g70
NtRp197
(dp198
g73
(dp199
g81
I5
ssg82
g193
sg75
(lp200
S'127.0.0.1'
p201
asbasbasbag68
(g84
g70
NtRp202
(dp203
g73
(dp204
sg82
g78
sg75
(lp205
g68
(g89
g70
NtRp206
(dp207
g73
(dp208
g93
g94
ssg82
g202
sg75
(lp209
S'controller'
p210
asbag68
(g89
g70
NtRp211
(dp212
g73
(dp213
g100
g101
ssg82
g202
sg75
(lp214
S':'
asbag68
(g89
g70
NtRp215
(dp216
g73
(dp217
sg82
g202
sg75
(lp218
g68
(g69
g70
NtRp219
(dp220
g73
(dp221
g81
I5
ssg82
g215
sg75
(lp222
S'default'
p223
asbasbasbag68
(g84
g70
NtRp224
(dp225
g73
(dp226
sg82
g78
sg75
(lp227
g68
(g89
g70
NtRp228
(dp229
g73
(dp230
g93
g94
ssg82
g224
sg75
(lp231
S'cookies'
p232
asbag68
(g89
g70
NtRp233
(dp234
g73
(dp235
g100
g101
ssg82
g224
sg75
(lp236
S':'
asbag68
(g89
g70
NtRp237
(dp238
g73
(dp239
sg82
g224
sg75
(lp240
g68
(g69
g70
NtRp241
(dp242
g73
(dp243
g81
I5
ssg82
g237
sg75
(lp244
g68
(g77
g70
NtRp245
(dp246
g73
(dp247
g81
I4
ssg82
Nsg75
(lp248
g68
(g84
g70
NtRp249
(dp250
g73
(dp251
sg82
g245
sg75
(lp252
g68
(g89
g70
NtRp253
(dp254
g73
(dp255
g93
g94
ssg82
g249
sg75
(lp256
S'session_id_admin'
p257
asbag68
(g89
g70
NtRp258
(dp259
g73
(dp260
g100
g101
ssg82
g249
sg75
(lp261
S':'
asbag68
(g89
g70
NtRp262
(dp263
g73
(dp264
sg82
g249
sg75
(lp265
g68
(g69
g70
NtRp266
(dp267
g73
(dp268
g81
I4
ssg82
g262
sg75
(lp269
g68
(g77
g70
NtRp270
(dp271
g73
(dp272
g81
I3
ssg82
Nsg75
(lp273
g68
(g84
g70
NtRp274
(dp275
g73
(dp276
sg82
g270
sg75
(lp277
g68
(g89
g70
NtRp278
(dp279
g73
(dp280
g93
g94
ssg82
g274
sg75
(lp281
S'comment'
p282
asbag68
(g89
g70
NtRp283
(dp284
g73
(dp285
g100
g101
ssg82
g274
sg75
(lp286
S':'
asbag68
(g89
g70
NtRp287
(dp288
g73
(dp289
sg82
g274
sg75
(lp290
g68
(g69
g70
NtRp291
(dp292
g73
(dp293
g81
I3
ssg82
g287
sg75
(lp294
S''
asbasbasbag68
(g84
g70
NtRp295
(dp296
g73
(dp297
sg82
g270
sg75
(lp298
g68
(g89
g70
NtRp299
(dp300
g73
(dp301
g93
g94
ssg82
g295
sg75
(lp302
S'domain'
p303
asbag68
(g89
g70
NtRp304
(dp305
g73
(dp306
g100
g101
ssg82
g295
sg75
(lp307
S':'
asbag68
(g89
g70
NtRp308
(dp309
g73
(dp310
sg82
g295
sg75
(lp311
g68
(g69
g70
NtRp312
(dp313
g73
(dp314
g81
I3
ssg82
g308
sg75
(lp315
S''
asbasbasbag68
(g84
g70
NtRp316
(dp317
g73
(dp318
sg82
g270
sg75
(lp319
g68
(g89
g70
NtRp320
(dp321
g73
(dp322
g93
g94
ssg82
g316
sg75
(lp323
S'expires'
p324
asbag68
(g89
g70
NtRp325
(dp326
g73
(dp327
g100
g101
ssg82
g316
sg75
(lp328
S':'
asbag68
(g89
g70
NtRp329
(dp330
g73
(dp331
sg82
g316
sg75
(lp332
g68
(g69
g70
NtRp333
(dp334
g73
(dp335
g81
I3
ssg82
g329
sg75
(lp336
S''
asbasbasbag68
(g84
g70
NtRp337
(dp338
g73
(dp339
sg82
g270
sg75
(lp340
g68
(g89
g70
NtRp341
(dp342
g73
(dp343
g93
g94
ssg82
g337
sg75
(lp344
S'httponly'
p345
asbag68
(g89
g70
NtRp346
(dp347
g73
(dp348
g100
g101
ssg82
g337
sg75
(lp349
S':'
asbag68
(g89
g70
NtRp350
(dp351
g73
(dp352
sg82
g337
sg75
(lp353
g68
(g69
g70
NtRp354
(dp355
g73
(dp356
g81
I3
ssg82
g350
sg75
(lp357
S''
asbasbasbag68
(g84
g70
NtRp358
(dp359
g73
(dp360
sg82
g270
sg75
(lp361
g68
(g89
g70
NtRp362
(dp363
g73
(dp364
g93
g94
ssg82
g358
sg75
(lp365
S'max-age'
p366
asbag68
(g89
g70
NtRp367
(dp368
g73
(dp369
g100
g101
ssg82
g358
sg75
(lp370
S':'
asbag68
(g89
g70
NtRp371
(dp372
g73
(dp373
sg82
g358
sg75
(lp374
g68
(g69
g70
NtRp375
(dp376
g73
(dp377
g81
I3
ssg82
g371
sg75
(lp378
S''
asbasbasbag68
(g84
g70
NtRp379
(dp380
g73
(dp381
sg82
g270
sg75
(lp382
g68
(g89
g70
NtRp383
(dp384
g73
(dp385
g93
g94
ssg82
g379
sg75
(lp386
S'path'
p387
asbag68
(g89
g70
NtRp388
(dp389
g73
(dp390
g100
g101
ssg82
g379
sg75
(lp391
S':'
asbag68
(g89
g70
NtRp392
(dp393
g73
(dp394
sg82
g379
sg75
(lp395
g68
(g69
g70
NtRp396
(dp397
g73
(dp398
g81
I3
ssg82
g392
sg75
(lp399
S''
asbasbasbag68
(g84
g70
NtRp400
(dp401
g73
(dp402
sg82
g270
sg75
(lp403
g68
(g89
g70
NtRp404
(dp405
g73
(dp406
g93
g94
ssg82
g400
sg75
(lp407
S'secure'
p408
asbag68
(g89
g70
NtRp409
(dp410
g73
(dp411
g100
g101
ssg82
g400
sg75
(lp412
S':'
asbag68
(g89
g70
NtRp413
(dp414
g73
(dp415
sg82
g400
sg75
(lp416
g68
(g69
g70
NtRp417
(dp418
g73
(dp419
g81
I3
ssg82
g413
sg75
(lp420
S''
asbasbasbag68
(g84
g70
NtRp421
(dp422
g73
(dp423
sg82
g270
sg75
(lp424
g68
(g89
g70
NtRp425
(dp426
g73
(dp427
g93
g94
ssg82
g421
sg75
(lp428
S'version'
p429
asbag68
(g89
g70
NtRp430
(dp431
g73
(dp432
g100
g101
ssg82
g421
sg75
(lp433
S':'
asbag68
(g89
g70
NtRp434
(dp435
g73
(dp436
sg82
g421
sg75
(lp437
g68
(g69
g70
NtRp438
(dp439
g73
(dp440
g81
I3
ssg82
g434
sg75
(lp441
S''
asbasbasbasbasbasbasbag68
(g84
g70
NtRp442
(dp443
g73
(dp444
sg82
g245
sg75
(lp445
g68
(g89
g70
NtRp446
(dp447
g73
(dp448
g93
g94
ssg82
g442
sg75
(lp449
S'session_id_globaleaks'
p450
asbag68
(g89
g70
NtRp451
(dp452
g73
(dp453
g100
g101
ssg82
g442
sg75
(lp454
S':'
asbag68
(g89
g70
NtRp455
(dp456
g73
(dp457
sg82
g442
sg75
(lp458
g68
(g69
g70
NtRp459
(dp460
g73
(dp461
g81
I4
ssg82
g455
sg75
(lp462
g68
(g77
g70
NtRp463
(dp464
g73
(dp465
g81
I3
ssg82
Nsg75
(lp466
g68
(g84
g70
NtRp467
(dp468
g73
(dp469
sg82
g463
sg75
(lp470
g68
(g89
g70
NtRp471
(dp472
g73
(dp473
g93
g94
ssg82
g467
sg75
(lp474
g282
asbag68
(g89
g70
NtRp475
(dp476
g73
(dp477
g100
g101
ssg82
g467
sg75
(lp478
S':'
asbag68
(g89
g70
NtRp479
(dp480
g73
(dp481
sg82
g467
sg75
(lp482
g68
(g69
g70
NtRp483
(dp484
g73
(dp485
g81
I3
ssg82
g479
sg75
(lp486
S''
asbasbasbag68
(g84
g70
NtRp487
(dp488
g73
(dp489
sg82
g463
sg75
(lp490
g68
(g89
g70
NtRp491
(dp492
g73
(dp493
g93
g94
ssg82
g487
sg75
(lp494
g303
asbag68
(g89
g70
NtRp495
(dp496
g73
(dp497
g100
g101
ssg82
g487
sg75
(lp498
S':'
asbag68
(g89
g70
NtRp499
(dp500
g73
(dp501
sg82
g487
sg75
(lp502
g68
(g69
g70
NtRp503
(dp504
g73
(dp505
g81
I3
ssg82
g499
sg75
(lp506
S''
asbasbasbag68
(g84
g70
NtRp507
(dp508
g73
(dp509
sg82
g463
sg75
(lp510
g68
(g89
g70
NtRp511
(dp512
g73
(dp513
g93
g94
ssg82
g507
sg75
(lp514
g324
asbag68
(g89
g70
NtRp515
(dp516
g73
(dp517
g100
g101
ssg82
g507
sg75
(lp518
S':'
asbag68
(g89
g70
NtRp519
(dp520
g73
(dp521
sg82
g507
sg75
(lp522
g68
(g69
g70
NtRp523
(dp524
g73
(dp525
g81
I3
ssg82
g519
sg75
(lp526
S''
asbasbasbag68
(g84
g70
NtRp527
(dp528
g73
(dp529
sg82
g463
sg75
(lp530
g68
(g89
g70
NtRp531
(dp532
g73
(dp533
g93
g94
ssg82
g527
sg75
(lp534
g345
asbag68
(g89
g70
NtRp535
(dp536
g73
(dp537
g100
g101
ssg82
g527
sg75
(lp538
S':'
asbag68
(g89
g70
NtRp539
(dp540
g73
(dp541
sg82
g527
sg75
(lp542
g68
(g69
g70
NtRp543
(dp544
g73
(dp545
g81
I3
ssg82
g539
sg75
(lp546
S''
asbasbasbag68
(g84
g70
NtRp547
(dp548
g73
(dp549
sg82
g463
sg75
(lp550
g68
(g89
g70
NtRp551
(dp552
g73
(dp553
g93
g94
ssg82
g547
sg75
(lp554
g366
asbag68
(g89
g70
NtRp555
(dp556
g73
(dp557
g100
g101
ssg82
g547
sg75
(lp558
S':'
asbag68
(g89
g70
NtRp559
(dp560
g73
(dp561
sg82
g547
sg75
(lp562
g68
(g69
g70
NtRp563
(dp564
g73
(dp565
g81
I3
ssg82
g559
sg75
(lp566
S''
asbasbasbag68
(g84
g70
NtRp567
(dp568
g73
(dp569
sg82
g463
sg75
(lp570
g68
(g89
g70
NtRp571
(dp572
g73
(dp573
g93
g94
ssg82
g567
sg75
(lp574
g387
asbag68
(g89
g70
NtRp575
(dp576
g73
(dp577
g100
g101
ssg82
g567
sg75
(lp578
S':'
asbag68
(g89
g70
NtRp579
(dp580
g73
(dp581
sg82
g567
sg75
(lp582
g68
(g69
g70
NtRp583
(dp584
g73
(dp585
g81
I3
ssg82
g579
sg75
(lp586
S''
asbasbasbag68
(g84
g70
NtRp587
(dp588
g73
(dp589
sg82
g463
sg75
(lp590
g68
(g89
g70
NtRp591
(dp592
g73
(dp593
g93
g94
ssg82
g587
sg75
(lp594
g408
asbag68
(g89
g70
NtRp595
(dp596
g73
(dp597
g100
g101
ssg82
g587
sg75
(lp598
S':'
asbag68
(g89
g70
NtRp599
(dp600
g73
(dp601
sg82
g587
sg75
(lp602
g68
(g69
g70
NtRp603
(dp604
g73
(dp605
g81
I3
ssg82
g599
sg75
(lp606
S''
asbasbasbag68
(g84
g70
NtRp607
(dp608
g73
(dp609
sg82
g463
sg75
(lp610
g68
(g89
g70
NtRp611
(dp612
g73
(dp613
g93
g94
ssg82
g607
sg75
(lp614
g429
asbag68
(g89
g70
NtRp615
(dp616
g73
(dp617
g100
g101
ssg82
g607
sg75
(lp618
S':'
asbag68
(g89
g70
NtRp619
(dp620
g73
(dp621
sg82
g607
sg75
(lp622
g68
(g69
g70
NtRp623
(dp624
g73
(dp625
g81
I3
ssg82
g619
sg75
(lp626
S''
asbasbasbasbasbasbasbag68
(g84
g70
NtRp627
(dp628
g73
(dp629
sg82
g245
sg75
(lp630
g68
(g89
g70
NtRp631
(dp632
g73
(dp633
g93
g94
ssg82
g627
sg75
(lp634
S'session_id_init'
p635
asbag68
(g89
g70
NtRp636
(dp637
g73
(dp638
g100
g101
ssg82
g627
sg75
(lp639
S':'
asbag68
(g89
g70
NtRp640
(dp641
g73
(dp642
sg82
g627
sg75
(lp643
g68
(g69
g70
NtRp644
(dp645
g73
(dp646
g81
I4
ssg82
g640
sg75
(lp647
g68
(g77
g70
NtRp648
(dp649
g73
(dp650
g81
I3
ssg82
Nsg75
(lp651
g68
(g84
g70
NtRp652
(dp653
g73
(dp654
sg82
g648
sg75
(lp655
g68
(g89
g70
NtRp656
(dp657
g73
(dp658
g93
g94
ssg82
g652
sg75
(lp659
g282
asbag68
(g89
g70
NtRp660
(dp661
g73
(dp662
g100
g101
ssg82
g652
sg75
(lp663
S':'
asbag68
(g89
g70
NtRp664
(dp665
g73
(dp666
sg82
g652
sg75
(lp667
g68
(g69
g70
NtRp668
(dp669
g73
(dp670
g81
I3
ssg82
g664
sg75
(lp671
S''
asbasbasbag68
(g84
g70
NtRp672
(dp673
g73
(dp674
sg82
g648
sg75
(lp675
g68
(g89
g70
NtRp676
(dp677
g73
(dp678
g93
g94
ssg82
g672
sg75
(lp679
g303
asbag68
(g89
g70
NtRp680
(dp681
g73
(dp682
g100
g101
ssg82
g672
sg75
(lp683
S':'
asbag68
(g89
g70
NtRp684
(dp685
g73
(dp686
sg82
g672
sg75
(lp687
g68
(g69
g70
NtRp688
(dp689
g73
(dp690
g81
I3
ssg82
g684
sg75
(lp691
S''
asbasbasbag68
(g84
g70
NtRp692
(dp693
g73
(dp694
sg82
g648
sg75
(lp695
g68
(g89
g70
NtRp696
(dp697
g73
(dp698
g93
g94
ssg82
g692
sg75
(lp699
g324
asbag68
(g89
g70
NtRp700
(dp701
g73
(dp702
g100
g101
ssg82
g692
sg75
(lp703
S':'
asbag68
(g89
g70
NtRp704
(dp705
g73
(dp706
sg82
g692
sg75
(lp707
g68
(g69
g70
NtRp708
(dp709
g73
(dp710
g81
I3
ssg82
g704
sg75
(lp711
S''
asbasbasbag68
(g84
g70
NtRp712
(dp713
g73
(dp714
sg82
g648
sg75
(lp715
g68
(g89
g70
NtRp716
(dp717
g73
(dp718
g93
g94
ssg82
g712
sg75
(lp719
g345
asbag68
(g89
g70
NtRp720
(dp721
g73
(dp722
g100
g101
ssg82
g712
sg75
(lp723
S':'
asbag68
(g89
g70
NtRp724
(dp725
g73
(dp726
sg82
g712
sg75
(lp727
g68
(g69
g70
NtRp728
(dp729
g73
(dp730
g81
I3
ssg82
g724
sg75
(lp731
S''
asbasbasbag68
(g84
g70
NtRp732
(dp733
g73
(dp734
sg82
g648
sg75
(lp735
g68
(g89
g70
NtRp736
(dp737
g73
(dp738
g93
g94
ssg82
g732
sg75
(lp739
g366
asbag68
(g89
g70
NtRp740
(dp741
g73
(dp742
g100
g101
ssg82
g732
sg75
(lp743
S':'
asbag68
(g89
g70
NtRp744
(dp745
g73
(dp746
sg82
g732
sg75
(lp747
g68
(g69
g70
NtRp748
(dp749
g73
(dp750
g81
I3
ssg82
g744
sg75
(lp751
S''
asbasbasbag68
(g84
g70
NtRp752
(dp753
g73
(dp754
sg82
g648
sg75
(lp755
g68
(g89
g70
NtRp756
(dp757
g73
(dp758
g93
g94
ssg82
g752
sg75
(lp759
g387
asbag68
(g89
g70
NtRp760
(dp761
g73
(dp762
g100
g101
ssg82
g752
sg75
(lp763
S':'
asbag68
(g89
g70
NtRp764
(dp765
g73
(dp766
sg82
g752
sg75
(lp767
g68
(g69
g70
NtRp768
(dp769
g73
(dp770
g81
I3
ssg82
g764
sg75
(lp771
S''
asbasbasbag68
(g84
g70
NtRp772
(dp773
g73
(dp774
sg82
g648
sg75
(lp775
g68
(g89
g70
NtRp776
(dp777
g73
(dp778
g93
g94
ssg82
g772
sg75
(lp779
g408
asbag68
(g89
g70
NtRp780
(dp781
g73
(dp782
g100
g101
ssg82
g772
sg75
(lp783
S':'
asbag68
(g89
g70
NtRp784
(dp785
g73
(dp786
sg82
g772
sg75
(lp787
g68
(g69
g70
NtRp788
(dp789
g73
(dp790
g81
I3
ssg82
g784
sg75
(lp791
S''
asbasbasbag68
(g84
g70
NtRp792
(dp793
g73
(dp794
sg82
g648
sg75
(lp795
g68
(g89
g70
NtRp796
(dp797
g73
(dp798
g93
g94
ssg82
g792
sg75
(lp799
g429
asbag68
(g89
g70
NtRp800
(dp801
g73
(dp802
g100
g101
ssg82
g792
sg75
(lp803
S':'
asbag68
(g89
g70
NtRp804
(dp805
g73
(dp806
sg82
g792
sg75
(lp807
g68
(g69
g70
NtRp808
(dp809
g73
(dp810
g81
I3
ssg82
g804
sg75
(lp811
S''
asbasbasbasbasbasbasbag68
(g84
g70
NtRp812
(dp813
g73
(dp814
sg82
g245
sg75
(lp815
g68
(g89
g70
NtRp816
(dp817
g73
(dp818
g93
g94
ssg82
g812
sg75
(lp819
S'session_id_solofluff'
p820
asbag68
(g89
g70
NtRp821
(dp822
g73
(dp823
g100
g101
ssg82
g812
sg75
(lp824
S':'
asbag68
(g89
g70
NtRp825
(dp826
g73
(dp827
sg82
g812
sg75
(lp828
g68
(g69
g70
NtRp829
(dp830
g73
(dp831
g81
I4
ssg82
g825
sg75
(lp832
g68
(g77
g70
NtRp833
(dp834
g73
(dp835
g81
I3
ssg82
Nsg75
(lp836
g68
(g84
g70
NtRp837
(dp838
g73
(dp839
sg82
g833
sg75
(lp840
g68
(g89
g70
NtRp841
(dp842
g73
(dp843
g93
g94
ssg82
g837
sg75
(lp844
g282
asbag68
(g89
g70
NtRp845
(dp846
g73
(dp847
g100
g101
ssg82
g837
sg75
(lp848
S':'
asbag68
(g89
g70
NtRp849
(dp850
g73
(dp851
sg82
g837
sg75
(lp852
g68
(g69
g70
NtRp853
(dp854
g73
(dp855
g81
I3
ssg82
g849
sg75
(lp856
S''
asbasbasbag68
(g84
g70
NtRp857
(dp858
g73
(dp859
sg82
g833
sg75
(lp860
g68
(g89
g70
NtRp861
(dp862
g73
(dp863
g93
g94
ssg82
g857
sg75
(lp864
g303
asbag68
(g89
g70
NtRp865
(dp866
g73
(dp867
g100
g101
ssg82
g857
sg75
(lp868
S':'
asbag68
(g89
g70
NtRp869
(dp870
g73
(dp871
sg82
g857
sg75
(lp872
g68
(g69
g70
NtRp873
(dp874
g73
(dp875
g81
I3
ssg82
g869
sg75
(lp876
S''
asbasbasbag68
(g84
g70
NtRp877
(dp878
g73
(dp879
sg82
g833
sg75
(lp880
g68
(g89
g70
NtRp881
(dp882
g73
(dp883
g93
g94
ssg82
g877
sg75
(lp884
g324
asbag68
(g89
g70
NtRp885
(dp886
g73
(dp887
g100
g101
ssg82
g877
sg75
(lp888
S':'
asbag68
(g89
g70
NtRp889
(dp890
g73
(dp891
sg82
g877
sg75
(lp892
g68
(g69
g70
NtRp893
(dp894
g73
(dp895
g81
I3
ssg82
g889
sg75
(lp896
S''
asbasbasbag68
(g84
g70
NtRp897
(dp898
g73
(dp899
sg82
g833
sg75
(lp900
g68
(g89
g70
NtRp901
(dp902
g73
(dp903
g93
g94
ssg82
g897
sg75
(lp904
g345
asbag68
(g89
g70
NtRp905
(dp906
g73
(dp907
g100
g101
ssg82
g897
sg75
(lp908
S':'
asbag68
(g89
g70
NtRp909
(dp910
g73
(dp911
sg82
g897
sg75
(lp912
g68
(g69
g70
NtRp913
(dp914
g73
(dp915
g81
I3
ssg82
g909
sg75
(lp916
S''
asbasbasbag68
(g84
g70
NtRp917
(dp918
g73
(dp919
sg82
g833
sg75
(lp920
g68
(g89
g70
NtRp921
(dp922
g73
(dp923
g93
g94
ssg82
g917
sg75
(lp924
g366
asbag68
(g89
g70
NtRp925
(dp926
g73
(dp927
g100
g101
ssg82
g917
sg75
(lp928
S':'
asbag68
(g89
g70
NtRp929
(dp930
g73
(dp931
sg82
g917
sg75
(lp932
g68
(g69
g70
NtRp933
(dp934
g73
(dp935
g81
I3
ssg82
g929
sg75
(lp936
S''
asbasbasbag68
(g84
g70
NtRp937
(dp938
g73
(dp939
sg82
g833
sg75
(lp940
g68
(g89
g70
NtRp941
(dp942
g73
(dp943
g93
g94
ssg82
g937
sg75
(lp944
g387
asbag68
(g89
g70
NtRp945
(dp946
g73
(dp947
g100
g101
ssg82
g937
sg75
(lp948
S':'
asbag68
(g89
g70
NtRp949
(dp950
g73
(dp951
sg82
g937
sg75
(lp952
g68
(g69
g70
NtRp953
(dp954
g73
(dp955
g81
I3
ssg82
g949
sg75
(lp956
S''
asbasbasbag68
(g84
g70
NtRp957
(dp958
g73
(dp959
sg82
g833
sg75
(lp960
g68
(g89
g70
NtRp961
(dp962
g73
(dp963
g93
g94
ssg82
g957
sg75
(lp964
g408
asbag68
(g89
g70
NtRp965
(dp966
g73
(dp967
g100
g101
ssg82
g957
sg75
(lp968
S':'
asbag68
(g89
g70
NtRp969
(dp970
g73
(dp971
sg82
g957
sg75
(lp972
g68
(g69
g70
NtRp973
(dp974
g73
(dp975
g81
I3
ssg82
g969
sg75
(lp976
S''
asbasbasbag68
(g84
g70
NtRp977
(dp978
g73
(dp979
sg82
g833
sg75
(lp980
g68
(g89
g70
NtRp981
(dp982
g73
(dp983
g93
g94
ssg82
g977
sg75
(lp984
g429
asbag68
(g89
g70
NtRp985
(dp986
g73
(dp987
g100
g101
ssg82
g977
sg75
(lp988
S':'
asbag68
(g89
g70
NtRp989
(dp990
g73
(dp991
sg82
g977
sg75
(lp992
g68
(g69
g70
NtRp993
(dp994
g73
(dp995
g81
I3
ssg82
g989
sg75
(lp996
S''
asbasbasbasbasbasbasbag68
(g84
g70
NtRp997
(dp998
g73
(dp999
sg82
g245
sg75
(lp1000
g68
(g89
g70
NtRp1001
(dp1002
g73
(dp1003
g93
g94
ssg82
g997
sg75
(lp1004
S'session_id_welcome'
p1005
asbag68
(g89
g70
NtRp1006
(dp1007
g73
(dp1008
g100
g101
ssg82
g997
sg75
(lp1009
S':'
asbag68
(g89
g70
NtRp1010
(dp1011
g73
(dp1012
sg82
g997
sg75
(lp1013
g68
(g69
g70
NtRp1014
(dp1015
g73
(dp1016
g81
I4
ssg82
g1010
sg75
(lp1017
g68
(g77
g70
NtRp1018
(dp1019
g73
(dp1020
g81
I3
ssg82
Nsg75
(lp1021
g68
(g84
g70
NtRp1022
(dp1023
g73
(dp1024
sg82
g1018
sg75
(lp1025
g68
(g89
g70
NtRp1026
(dp1027
g73
(dp1028
g93
g94
ssg82
g1022
sg75
(lp1029
g282
asbag68
(g89
g70
NtRp1030
(dp1031
g73
(dp1032
g100
g101
ssg82
g1022
sg75
(lp1033
S':'
asbag68
(g89
g70
NtRp1034
(dp1035
g73
(dp1036
sg82
g1022
sg75
(lp1037
g68
(g69
g70
NtRp1038
(dp1039
g73
(dp1040
g81
I3
ssg82
g1034
sg75
(lp1041
S''
asbasbasbag68
(g84
g70
NtRp1042
(dp1043
g73
(dp1044
sg82
g1018
sg75
(lp1045
g68
(g89
g70
NtRp1046
(dp1047
g73
(dp1048
g93
g94
ssg82
g1042
sg75
(lp1049
g303
asbag68
(g89
g70
NtRp1050
(dp1051
g73
(dp1052
g100
g101
ssg82
g1042
sg75
(lp1053
S':'
asbag68
(g89
g70
NtRp1054
(dp1055
g73
(dp1056
sg82
g1042
sg75
(lp1057
g68
(g69
g70
NtRp1058
(dp1059
g73
(dp1060
g81
I3
ssg82
g1054
sg75
(lp1061
S''
asbasbasbag68
(g84
g70
NtRp1062
(dp1063
g73
(dp1064
sg82
g1018
sg75
(lp1065
g68
(g89
g70
NtRp1066
(dp1067
g73
(dp1068
g93
g94
ssg82
g1062
sg75
(lp1069
g324
asbag68
(g89
g70
NtRp1070
(dp1071
g73
(dp1072
g100
g101
ssg82
g1062
sg75
(lp1073
S':'
asbag68
(g89
g70
NtRp1074
(dp1075
g73
(dp1076
sg82
g1062
sg75
(lp1077
g68
(g69
g70
NtRp1078
(dp1079
g73
(dp1080
g81
I3
ssg82
g1074
sg75
(lp1081
S''
asbasbasbag68
(g84
g70
NtRp1082
(dp1083
g73
(dp1084
sg82
g1018
sg75
(lp1085
g68
(g89
g70
NtRp1086
(dp1087
g73
(dp1088
g93
g94
ssg82
g1082
sg75
(lp1089
g345
asbag68
(g89
g70
NtRp1090
(dp1091
g73
(dp1092
g100
g101
ssg82
g1082
sg75
(lp1093
S':'
asbag68
(g89
g70
NtRp1094
(dp1095
g73
(dp1096
sg82
g1082
sg75
(lp1097
g68
(g69
g70
NtRp1098
(dp1099
g73
(dp1100
g81
I3
ssg82
g1094
sg75
(lp1101
S''
asbasbasbag68
(g84
g70
NtRp1102
(dp1103
g73
(dp1104
sg82
g1018
sg75
(lp1105
g68
(g89
g70
NtRp1106
(dp1107
g73
(dp1108
g93
g94
ssg82
g1102
sg75
(lp1109
g366
asbag68
(g89
g70
NtRp1110
(dp1111
g73
(dp1112
g100
g101
ssg82
g1102
sg75
(lp1113
S':'
asbag68
(g89
g70
NtRp1114
(dp1115
g73
(dp1116
sg82
g1102
sg75
(lp1117
g68
(g69
g70
NtRp1118
(dp1119
g73
(dp1120
g81
I3
ssg82
g1114
sg75
(lp1121
S''
asbasbasbag68
(g84
g70
NtRp1122
(dp1123
g73
(dp1124
sg82
g1018
sg75
(lp1125
g68
(g89
g70
NtRp1126
(dp1127
g73
(dp1128
g93
g94
ssg82
g1122
sg75
(lp1129
g387
asbag68
(g89
g70
NtRp1130
(dp1131
g73
(dp1132
g100
g101
ssg82
g1122
sg75
(lp1133
S':'
asbag68
(g89
g70
NtRp1134
(dp1135
g73
(dp1136
sg82
g1122
sg75
(lp1137
g68
(g69
g70
NtRp1138
(dp1139
g73
(dp1140
g81
I3
ssg82
g1134
sg75
(lp1141
S''
asbasbasbag68
(g84
g70
NtRp1142
(dp1143
g73
(dp1144
sg82
g1018
sg75
(lp1145
g68
(g89
g70
NtRp1146
(dp1147
g73
(dp1148
g93
g94
ssg82
g1142
sg75
(lp1149
g408
asbag68
(g89
g70
NtRp1150
(dp1151
g73
(dp1152
g100
g101
ssg82
g1142
sg75
(lp1153
S':'
asbag68
(g89
g70
NtRp1154
(dp1155
g73
(dp1156
sg82
g1142
sg75
(lp1157
g68
(g69
g70
NtRp1158
(dp1159
g73
(dp1160
g81
I3
ssg82
g1154
sg75
(lp1161
S''
asbasbasbag68
(g84
g70
NtRp1162
(dp1163
g73
(dp1164
sg82
g1018
sg75
(lp1165
g68
(g89
g70
NtRp1166
(dp1167
g73
(dp1168
g93
g94
ssg82
g1162
sg75
(lp1169
g429
asbag68
(g89
g70
NtRp1170
(dp1171
g73
(dp1172
g100
g101
ssg82
g1162
sg75
(lp1173
S':'
asbag68
(g89
g70
NtRp1174
(dp1175
g73
(dp1176
sg82
g1162
sg75
(lp1177
g68
(g69
g70
NtRp1178
(dp1179
g73
(dp1180
g81
I3
ssg82
g1174
sg75
(lp1181
S''
asbasbasbasbasbasbasbasbasbasbasbag68
(g84
g70
NtRp1182
(dp1183
g73
(dp1184
sg82
g78
sg75
(lp1185
g68
(g89
g70
NtRp1186
(dp1187
g73
(dp1188
g93
g94
ssg82
g1182
sg75
(lp1189
S'env'
p1190
asbag68
(g89
g70
NtRp1191
(dp1192
g73
(dp1193
g100
g101
ssg82
g1182
sg75
(lp1194
S':'
asbag68
(g89
g70
NtRp1195
(dp1196
g73
(dp1197
sg82
g1182
sg75
(lp1198
g68
(g69
g70
NtRp1199
(dp1200
g73
(dp1201
g81
I5
ssg82
g1195
sg75
(lp1202
g68
(g77
g70
NtRp1203
(dp1204
g73
(dp1205
g81
I4
ssg82
Nsg75
(lp1206
g68
(g84
g70
NtRp1207
(dp1208
g73
(dp1209
sg82
g1203
sg75
(lp1210
g68
(g89
g70
NtRp1211
(dp1212
g73
(dp1213
g93
g94
ssg82
g1207
sg75
(lp1214
S'app_folders'
p1215
asbag68
(g89
g70
NtRp1216
(dp1217
g73
(dp1218
g100
g101
ssg82
g1207
sg75
(lp1219
S':'
asbag68
(g89
g70
NtRp1220
(dp1221
g73
(dp1222
sg82
g1207
sg75
(lp1223
g68
(g69
g70
NtRp1224
(dp1225
g73
(dp1226
g81
I4
ssg82
g1220
sg75
(lp1227
S"set(['/Users/hellais/Documents/code/mygit/globaleaks/webapp/applications/init/', '/Users/hellais/Documents/code/mygit/globaleaks/webapp/applications/admin/'])"
p1228
asbasbasbag68
(g84
g70
NtRp1229
(dp1230
g73
(dp1231
sg82
g1203
sg75
(lp1232
g68
(g89
g70
NtRp1233
(dp1234
g73
(dp1235
g93
g94
ssg82
g1229
sg75
(lp1236
S'applications_parent'
p1237
asbag68
(g89
g70
NtRp1238
(dp1239
g73
(dp1240
g100
g101
ssg82
g1229
sg75
(lp1241
S':'
asbag68
(g89
g70
NtRp1242
(dp1243
g73
(dp1244
sg82
g1229
sg75
(lp1245
g68
(g69
g70
NtRp1246
(dp1247
g73
(dp1248
g81
I4
ssg82
g1242
sg75
(lp1249
S'/Users/hellais/Documents/code/mygit/globaleaks/webapp'
p1250
asbasbasbag68
(g84
g70
NtRp1251
(dp1252
g73
(dp1253
sg82
g1203
sg75
(lp1254
g68
(g89
g70
NtRp1255
(dp1256
g73
(dp1257
g93
g94
ssg82
g1251
sg75
(lp1258
S'cmd_args'
p1259
asbag68
(g89
g70
NtRp1260
(dp1261
g73
(dp1262
g100
g101
ssg82
g1251
sg75
(lp1263
S':'
asbag68
(g89
g70
NtRp1264
(dp1265
g73
(dp1266
sg82
g1251
sg75
(lp1267
g68
(g69
g70
NtRp1268
(dp1269
g73
(dp1270
g81
I4
ssg82
g1264
sg75
(lp1271
g68
(g77
g70
NtRp1272
(dp1273
g73
(dp1274
g81
I3
ssg82
Nsg75
(lp1275
sbasbasbasbag68
(g84
g70
NtRp1276
(dp1277
g73
(dp1278
sg82
g1203
sg75
(lp1279
g68
(g89
g70
NtRp1280
(dp1281
g73
(dp1282
g93
g94
ssg82
g1276
sg75
(lp1283
S'cmd_options'
p1284
asbag68
(g89
g70
NtRp1285
(dp1286
g73
(dp1287
g100
g101
ssg82
g1276
sg75
(lp1288
S':'
asbag68
(g89
g70
NtRp1289
(dp1290
g73
(dp1291
sg82
g1276
sg75
(lp1292
g68
(g69
g70
NtRp1293
(dp1294
g73
(dp1295
g81
I4
ssg82
g1289
sg75
(lp1296
S"<Values at 0x1015c1320: {'verbose': False, 'ip': '127.0.0.1', 'shutdown_timeout': 5, 'taskbar': False, 'port': 8000, 'maxthreads': None, 'softcron': False, 'server_name': 'Jeanne.local', 'bpython': False, 'nogui': False, 'nocron': False, 'extcron': False, 'debuglevel': 30, 'test': None, 'folder': '/Users/hellais/Documents/code/mygit/globaleaks/webapp', 'config': '', 'import_models': False, 'winservice': '', 'shell': None, 'run': '', 'log_filename': 'httpserver.log', 'args': [''], 'profiler_filename': None, 'ssl_private_key': '', 'password': 'asd', 'request_queue_size': 5, 'ssl_certificate': '', 'cronjob': False, 'plain': False, 'quiet': False, 'interfaces': None, 'minthreads': None, 'timeout': 10, 'numthreads': None, 'nobanner': False, 'pid_filename': 'httpserver.pid'}>"
p1297
asbasbasbag68
(g84
g70
NtRp1298
(dp1299
g73
(dp1300
sg82
g1203
sg75
(lp1301
g68
(g89
g70
NtRp1302
(dp1303
g73
(dp1304
g93
g94
ssg82
g1298
sg75
(lp1305
S'db_sessions'
p1306
asbag68
(g89
g70
NtRp1307
(dp1308
g73
(dp1309
g100
g101
ssg82
g1298
sg75
(lp1310
S':'
asbag68
(g89
g70
NtRp1311
(dp1312
g73
(dp1313
sg82
g1298
sg75
(lp1314
g68
(g69
g70
NtRp1315
(dp1316
g73
(dp1317
g81
I4
ssg82
g1311
sg75
(lp1318
S'set([])'
p1319
asbasbasbag68
(g84
g70
NtRp1320
(dp1321
g73
(dp1322
sg82
g1203
sg75
(lp1323
g68
(g89
g70
NtRp1324
(dp1325
g73
(dp1326
g93
g94
ssg82
g1320
sg75
(lp1327
S'debugging'
p1328
asbag68
(g89
g70
NtRp1329
(dp1330
g73
(dp1331
g100
g101
ssg82
g1320
sg75
(lp1332
S':'
asbag68
(g89
g70
NtRp1333
(dp1334
g73
(dp1335
sg82
g1320
sg75
(lp1336
g68
(g69
g70
NtRp1337
(dp1338
g73
(dp1339
g81
I4
ssg82
g1333
sg75
(lp1340
g111
asbasbasbag68
(g84
g70
NtRp1341
(dp1342
g73
(dp1343
sg82
g1203
sg75
(lp1344
g68
(g89
g70
NtRp1345
(dp1346
g73
(dp1347
g93
g94
ssg82
g1341
sg75
(lp1348
S'gluon_parent'
p1349
asbag68
(g89
g70
NtRp1350
(dp1351
g73
(dp1352
g100
g101
ssg82
g1341
sg75
(lp1353
S':'
asbag68
(g89
g70
NtRp1354
(dp1355
g73
(dp1356
sg82
g1341
sg75
(lp1357
g68
(g69
g70
NtRp1358
(dp1359
g73
(dp1360
g81
I4
ssg82
g1354
sg75
(lp1361
S'/Users/hellais/Documents/code/mygit/globaleaks/webapp'
p1362
asbasbasbag68
(g84
g70
NtRp1363
(dp1364
g73
(dp1365
sg82
g1203
sg75
(lp1366
g68
(g89
g70
NtRp1367
(dp1368
g73
(dp1369
g93
g94
ssg82
g1363
sg75
(lp1370
S'http_accept'
p1371
asbag68
(g89
g70
NtRp1372
(dp1373
g73
(dp1374
g100
g101
ssg82
g1363
sg75
(lp1375
S':'
asbag68
(g89
g70
NtRp1376
(dp1377
g73
(dp1378
sg82
g1363
sg75
(lp1379
g68
(g69
g70
NtRp1380
(dp1381
g73
(dp1382
g81
I4
ssg82
g1376
sg75
(lp1383
S'text/html,application/xhtml+xml,application/xml;q=0.9,*/*;q=0.8'
p1384
asbasbasbag68
(g84
g70
NtRp1385
(dp1386
g73
(dp1387
sg82
g1203
sg75
(lp1388
g68
(g89
g70
NtRp1389
(dp1390
g73
(dp1391
g93
g94
ssg82
g1385
sg75
(lp1392
S'http_accept_charset'
p1393
asbag68
(g89
g70
NtRp1394
(dp1395
g73
(dp1396
g100
g101
ssg82
g1385
sg75
(lp1397
S':'
asbag68
(g89
g70
NtRp1398
(dp1399
g73
(dp1400
sg82
g1385
sg75
(lp1401
g68
(g69
g70
NtRp1402
(dp1403
g73
(dp1404
g81
I4
ssg82
g1398
sg75
(lp1405
S'UTF-8,*;q=0.5'
p1406
asbasbasbag68
(g84
g70
NtRp1407
(dp1408
g73
(dp1409
sg82
g1203
sg75
(lp1410
g68
(g89
g70
NtRp1411
(dp1412
g73
(dp1413
g93
g94
ssg82
g1407
sg75
(lp1414
S'http_accept_encoding'
p1415
asbag68
(g89
g70
NtRp1416
(dp1417
g73
(dp1418
g100
g101
ssg82
g1407
sg75
(lp1419
S':'
asbag68
(g89
g70
NtRp1420
(dp1421
g73
(dp1422
sg82
g1407
sg75
(lp1423
g68
(g69
g70
NtRp1424
(dp1425
g73
(dp1426
g81
I4
ssg82
g1420
sg75
(lp1427
S'gzip,deflate,sdch'
p1428
asbasbasbag68
(g84
g70
NtRp1429
(dp1430
g73
(dp1431
sg82
g1203
sg75
(lp1432
g68
(g89
g70
NtRp1433
(dp1434
g73
(dp1435
g93
g94
ssg82
g1429
sg75
(lp1436
S'http_accept_language'
p1437
asbag68
(g89
g70
NtRp1438
(dp1439
g73
(dp1440
g100
g101
ssg82
g1429
sg75
(lp1441
S':'
asbag68
(g89
g70
NtRp1442
(dp1443
g73
(dp1444
sg82
g1429
sg75
(lp1445
g68
(g69
g70
NtRp1446
(dp1447
g73
(dp1448
g81
I4
ssg82
g1442
sg75
(lp1449
S'en-US,en;q=0.8'
p1450
asbasbasbag68
(g84
g70
NtRp1451
(dp1452
g73
(dp1453
sg82
g1203
sg75
(lp1454
g68
(g89
g70
NtRp1455
(dp1456
g73
(dp1457
g93
g94
ssg82
g1451
sg75
(lp1458
S'http_connection'
p1459
asbag68
(g89
g70
NtRp1460
(dp1461
g73
(dp1462
g100
g101
ssg82
g1451
sg75
(lp1463
S':'
asbag68
(g89
g70
NtRp1464
(dp1465
g73
(dp1466
sg82
g1451
sg75
(lp1467
g68
(g69
g70
NtRp1468
(dp1469
g73
(dp1470
g81
I4
ssg82
g1464
sg75
(lp1471
S'keep-alive'
p1472
asbasbasbag68
(g84
g70
NtRp1473
(dp1474
g73
(dp1475
sg82
g1203
sg75
(lp1476
g68
(g89
g70
NtRp1477
(dp1478
g73
(dp1479
g93
g94
ssg82
g1473
sg75
(lp1480
S'http_cookie'
p1481
asbag68
(g89
g70
NtRp1482
(dp1483
g73
(dp1484
g100
g101
ssg82
g1473
sg75
(lp1485
S':'
asbag68
(g89
g70
NtRp1486
(dp1487
g73
(dp1488
sg82
g1473
sg75
(lp1489
g68
(g69
g70
NtRp1490
(dp1491
g73
(dp1492
g81
I4
ssg82
g1486
sg75
(lp1493
S'session_id_welcome=127.0.0.1-8a52e05d-a326-4c3a-95b8-e8c3b6dcb2a9; session_id_solofluff=127.0.0.1-ed03ccfa-5724-4cae-bfc2-ec2f3e495896; session_id_globaleaks=127.0.0.1-e0f59622-1fd5-40c4-846d-6a86f85864b8; session_id_init=127.0.0.1-144deeb4-6d5c-4579-bdd3-3d9d5085abd2; session_id_admin=127.0.0.1-8bc5c5d1-0d9f-4344-b867-e59ee1865949'
p1494
asbasbasbag68
(g84
g70
NtRp1495
(dp1496
g73
(dp1497
sg82
g1203
sg75
(lp1498
g68
(g89
g70
NtRp1499
(dp1500
g73
(dp1501
g93
g94
ssg82
g1495
sg75
(lp1502
S'http_host'
p1503
asbag68
(g89
g70
NtRp1504
(dp1505
g73
(dp1506
g100
g101
ssg82
g1495
sg75
(lp1507
S':'
asbag68
(g89
g70
NtRp1508
(dp1509
g73
(dp1510
sg82
g1495
sg75
(lp1511
g68
(g69
g70
NtRp1512
(dp1513
g73
(dp1514
g81
I4
ssg82
g1508
sg75
(lp1515
S'127.0.0.1:8000'
p1516
asbasbasbag68
(g84
g70
NtRp1517
(dp1518
g73
(dp1519
sg82
g1203
sg75
(lp1520
g68
(g89
g70
NtRp1521
(dp1522
g73
(dp1523
g93
g94
ssg82
g1517
sg75
(lp1524
S'http_user_agent'
p1525
asbag68
(g89
g70
NtRp1526
(dp1527
g73
(dp1528
g100
g101
ssg82
g1517
sg75
(lp1529
S':'
asbag68
(g89
g70
NtRp1530
(dp1531
g73
(dp1532
sg82
g1517
sg75
(lp1533
g68
(g69
g70
NtRp1534
(dp1535
g73
(dp1536
g81
I4
ssg82
g1530
sg75
(lp1537
S'Mozilla/5.0 (Macintosh; Intel Mac OS X 10_6_7) AppleWebKit/535.1 (KHTML, like Gecko) Chrome/13.0.782.215 Safari/535.1'
p1538
asbasbasbag68
(g84
g70
NtRp1539
(dp1540
g73
(dp1541
sg82
g1203
sg75
(lp1542
g68
(g89
g70
NtRp1543
(dp1544
g73
(dp1545
g93
g94
ssg82
g1539
sg75
(lp1546
S'is_jython'
p1547
asbag68
(g89
g70
NtRp1548
(dp1549
g73
(dp1550
g100
g101
ssg82
g1539
sg75
(lp1551
S':'
asbag68
(g89
g70
NtRp1552
(dp1553
g73
(dp1554
sg82
g1539
sg75
(lp1555
g68
(g69
g70
NtRp1556
(dp1557
g73
(dp1558
g81
I4
ssg82
g1552
sg75
(lp1559
g111
asbasbasbag68
(g84
g70
NtRp1560
(dp1561
g73
(dp1562
sg82
g1203
sg75
(lp1563
g68
(g89
g70
NtRp1564
(dp1565
g73
(dp1566
g93
g94
ssg82
g1560
sg75
(lp1567
S'path_info'
p1568
asbag68
(g89
g70
NtRp1569
(dp1570
g73
(dp1571
g100
g101
ssg82
g1560
sg75
(lp1572
S':'
asbag68
(g89
g70
NtRp1573
(dp1574
g73
(dp1575
sg82
g1560
sg75
(lp1576
g68
(g69
g70
NtRp1577
(dp1578
g73
(dp1579
g81
I4
ssg82
g1573
sg75
(lp1580
S'/'
asbasbasbag68
(g84
g70
NtRp1581
(dp1582
g73
(dp1583
sg82
g1203
sg75
(lp1584
g68
(g89
g70
NtRp1585
(dp1586
g73
(dp1587
g93
g94
ssg82
g1581
sg75
(lp1588
S'query_string'
p1589
asbag68
(g89
g70
NtRp1590
(dp1591
g73
(dp1592
g100
g101
ssg82
g1581
sg75
(lp1593
S':'
asbag68
(g89
g70
NtRp1594
(dp1595
g73
(dp1596
sg82
g1581
sg75
(lp1597
g68
(g69
g70
NtRp1598
(dp1599
g73
(dp1600
g81
I4
ssg82
g1594
sg75
(lp1601
S''
asbasbasbag68
(g84
g70
NtRp1602
(dp1603
g73
(dp1604
sg82
g1203
sg75
(lp1605
g68
(g89
g70
NtRp1606
(dp1607
g73
(dp1608
g93
g94
ssg82
g1602
sg75
(lp1609
S'remote_addr'
p1610
asbag68
(g89
g70
NtRp1611
(dp1612
g73
(dp1613
g100
g101
ssg82
g1602
sg75
(lp1614
S':'
asbag68
(g89
g70
NtRp1615
(dp1616
g73
(dp1617
sg82
g1602
sg75
(lp1618
g68
(g69
g70
NtRp1619
(dp1620
g73
(dp1621
g81
I4
ssg82
g1615
sg75
(lp1622
g201
asbasbasbag68
(g84
g70
NtRp1623
(dp1624
g73
(dp1625
sg82
g1203
sg75
(lp1626
g68
(g89
g70
NtRp1627
(dp1628
g73
(dp1629
g93
g94
ssg82
g1623
sg75
(lp1630
S'remote_port'
p1631
asbag68
(g89
g70
NtRp1632
(dp1633
g73
(dp1634
g100
g101
ssg82
g1623
sg75
(lp1635
S':'
asbag68
(g89
g70
NtRp1636
(dp1637
g73
(dp1638
sg82
g1623
sg75
(lp1639
g68
(g69
g70
NtRp1640
(dp1641
g73
(dp1642
g81
I4
ssg82
g1636
sg75
(lp1643
S'58274'
p1644
asbasbasbag68
(g84
g70
NtRp1645
(dp1646
g73
(dp1647
sg82
g1203
sg75
(lp1648
g68
(g89
g70
NtRp1649
(dp1650
g73
(dp1651
g93
g94
ssg82
g1645
sg75
(lp1652
S'request_method'
p1653
asbag68
(g89
g70
NtRp1654
(dp1655
g73
(dp1656
g100
g101
ssg82
g1645
sg75
(lp1657
S':'
asbag68
(g89
g70
NtRp1658
(dp1659
g73
(dp1660
sg82
g1645
sg75
(lp1661
g68
(g69
g70
NtRp1662
(dp1663
g73
(dp1664
g81
I4
ssg82
g1658
sg75
(lp1665
S'GET'
p1666
asbasbasbag68
(g84
g70
NtRp1667
(dp1668
g73
(dp1669
sg82
g1203
sg75
(lp1670
g68
(g89
g70
NtRp1671
(dp1672
g73
(dp1673
g93
g94
ssg82
g1667
sg75
(lp1674
S'script_name'
p1675
asbag68
(g89
g70
NtRp1676
(dp1677
g73
(dp1678
g100
g101
ssg82
g1667
sg75
(lp1679
S':'
asbag68
(g89
g70
NtRp1680
(dp1681
g73
(dp1682
sg82
g1667
sg75
(lp1683
g68
(g69
g70
NtRp1684
(dp1685
g73
(dp1686
g81
I4
ssg82
g1680
sg75
(lp1687
S''
asbasbasbag68
(g84
g70
NtRp1688
(dp1689
g73
(dp1690
sg82
g1203
sg75
(lp1691
g68
(g89
g70
NtRp1692
(dp1693
g73
(dp1694
g93
g94
ssg82
g1688
sg75
(lp1695
S'server_name'
p1696
asbag68
(g89
g70
NtRp1697
(dp1698
g73
(dp1699
g100
g101
ssg82
g1688
sg75
(lp1700
S':'
asbag68
(g89
g70
NtRp1701
(dp1702
g73
(dp1703
sg82
g1688
sg75
(lp1704
g68
(g69
g70
NtRp1705
(dp1706
g73
(dp1707
g81
I4
ssg82
g1701
sg75
(lp1708
S'Jeanne.local'
p1709
asbasbasbag68
(g84
g70
NtRp1710
(dp1711
g73
(dp1712
sg82
g1203
sg75
(lp1713
g68
(g89
g70
NtRp1714
(dp1715
g73
(dp1716
g93
g94
ssg82
g1710
sg75
(lp1717
S'server_port'
p1718
asbag68
(g89
g70
NtRp1719
(dp1720
g73
(dp1721
g100
g101
ssg82
g1710
sg75
(lp1722
S':'
asbag68
(g89
g70
NtRp1723
(dp1724
g73
(dp1725
sg82
g1710
sg75
(lp1726
g68
(g69
g70
NtRp1727
(dp1728
g73
(dp1729
g81
I4
ssg82
g1723
sg75
(lp1730
S'8000'
p1731
asbasbasbag68
(g84
g70
NtRp1732
(dp1733
g73
(dp1734
sg82
g1203
sg75
(lp1735
g68
(g89
g70
NtRp1736
(dp1737
g73
(dp1738
g93
g94
ssg82
g1732
sg75
(lp1739
S'server_protocol'
p1740
asbag68
(g89
g70
NtRp1741
(dp1742
g73
(dp1743
g100
g101
ssg82
g1732
sg75
(lp1744
S':'
asbag68
(g89
g70
NtRp1745
(dp1746
g73
(dp1747
sg82
g1732
sg75
(lp1748
g68
(g69
g70
NtRp1749
(dp1750
g73
(dp1751
g81
I4
ssg82
g1745
sg75
(lp1752
S'HTTP/1.1'
p1753
asbasbasbag68
(g84
g70
NtRp1754
(dp1755
g73
(dp1756
sg82
g1203
sg75
(lp1757
g68
(g89
g70
NtRp1758
(dp1759
g73
(dp1760
g93
g94
ssg82
g1754
sg75
(lp1761
S'server_software'
p1762
asbag68
(g89
g70
NtRp1763
(dp1764
g73
(dp1765
g100
g101
ssg82
g1754
sg75
(lp1766
S':'
asbag68
(g89
g70
NtRp1767
(dp1768
g73
(dp1769
sg82
g1754
sg75
(lp1770
g68
(g69
g70
NtRp1771
(dp1772
g73
(dp1773
g81
I4
ssg82
g1767
sg75
(lp1774
S'Rocket 1.2.2'
p1775
asbasbasbag68
(g84
g70
NtRp1776
(dp1777
g73
(dp1778
sg82
g1203
sg75
(lp1779
g68
(g89
g70
NtRp1780
(dp1781
g73
(dp1782
g93
g94
ssg82
g1776
sg75
(lp1783
S'web2py_crontype'
p1784
asbag68
(g89
g70
NtRp1785
(dp1786
g73
(dp1787
g100
g101
ssg82
g1776
sg75
(lp1788
S':'
asbag68
(g89
g70
NtRp1789
(dp1790
g73
(dp1791
sg82
g1776
sg75
(lp1792
g68
(g69
g70
NtRp1793
(dp1794
g73
(dp1795
g81
I4
ssg82
g1789
sg75
(lp1796
S'hard'
p1797
asbasbasbag68
(g84
g70
NtRp1798
(dp1799
g73
(dp1800
sg82
g1203
sg75
(lp1801
g68
(g89
g70
NtRp1802
(dp1803
g73
(dp1804
g93
g94
ssg82
g1798
sg75
(lp1805
S'web2py_path'
p1806
asbag68
(g89
g70
NtRp1807
(dp1808
g73
(dp1809
g100
g101
ssg82
g1798
sg75
(lp1810
S':'
asbag68
(g89
g70
NtRp1811
(dp1812
g73
(dp1813
sg82
g1798
sg75
(lp1814
g68
(g69
g70
NtRp1815
(dp1816
g73
(dp1817
g81
I4
ssg82
g1811
sg75
(lp1818
g1250
asbasbasbag68
(g84
g70
NtRp1819
(dp1820
g73
(dp1821
sg82
g1203
sg75
(lp1822
g68
(g89
g70
NtRp1823
(dp1824
g73
(dp1825
g93
g94
ssg82
g1819
sg75
(lp1826
S'web2py_version'
p1827
asbag68
(g89
g70
NtRp1828
(dp1829
g73
(dp1830
g100
g101
ssg82
g1819
sg75
(lp1831
S':'
asbag68
(g89
g70
NtRp1832
(dp1833
g73
(dp1834
sg82
g1819
sg75
(lp1835
g68
(g69
g70
NtRp1836
(dp1837
g73
(dp1838
g81
I4
ssg82
g1832
sg75
(lp1839
S'Version 1.98.2 (2011-08-04 00:47:09)\n'
p1840
asbasbasbag68
(g84
g70
NtRp1841
(dp1842
g73
(dp1843
sg82
g1203
sg75
(lp1844
g68
(g89
g70
NtRp1845
(dp1846
g73
(dp1847
g93
g94
ssg82
g1841
sg75
(lp1848
S'wsgi_errors'
p1849
asbag68
(g89
g70
NtRp1850
(dp1851
g73
(dp1852
g100
g101
ssg82
g1841
sg75
(lp1853
S':'
asbag68
(g89
g70
NtRp1854
(dp1855
g73
(dp1856
sg82
g1841
sg75
(lp1857
g68
(g69
g70
NtRp1858
(dp1859
g73
(dp1860
g81
I4
ssg82
g1854
sg75
(lp1861
S"<open file '<stderr>', mode 'w' at 0x100287270>"
p1862
asbasbasbag68
(g84
g70
NtRp1863
(dp1864
g73
(dp1865
sg82
g1203
sg75
(lp1866
g68
(g89
g70
NtRp1867
(dp1868
g73
(dp1869
g93
g94
ssg82
g1863
sg75
(lp1870
S'wsgi_file_wrapper'
p1871
asbag68
(g89
g70
NtRp1872
(dp1873
g73
(dp1874
g100
g101
ssg82
g1863
sg75
(lp1875
S':'
asbag68
(g89
g70
NtRp1876
(dp1877
g73
(dp1878
sg82
g1863
sg75
(lp1879
g68
(g69
g70
NtRp1880
(dp1881
g73
(dp1882
g81
I4
ssg82
g1876
sg75
(lp1883
S'<class gluon.rocket.FileWrapper at 0x101667e88>'
p1884
asbasbasbag68
(g84
g70
NtRp1885
(dp1886
g73
(dp1887
sg82
g1203
sg75
(lp1888
g68
(g89
g70
NtRp1889
(dp1890
g73
(dp1891
g93
g94
ssg82
g1885
sg75
(lp1892
S'wsgi_input'
p1893
asbag68
(g89
g70
NtRp1894
(dp1895
g73
(dp1896
g100
g101
ssg82
g1885
sg75
(lp1897
S':'
asbag68
(g89
g70
NtRp1898
(dp1899
g73
(dp1900
sg82
g1885
sg75
(lp1901
g68
(g69
g70
NtRp1902
(dp1903
g73
(dp1904
g81
I4
ssg82
g1898
sg75
(lp1905
S'<socket._fileobject object at 0x101eea850>'
p1906
asbasbasbag68
(g84
g70
NtRp1907
(dp1908
g73
(dp1909
sg82
g1203
sg75
(lp1910
g68
(g89
g70
NtRp1911
(dp1912
g73
(dp1913
g93
g94
ssg82
g1907
sg75
(lp1914
S'wsgi_multiprocess'
p1915
asbag68
(g89
g70
NtRp1916
(dp1917
g73
(dp1918
g100
g101
ssg82
g1907
sg75
(lp1919
S':'
asbag68
(g89
g70
NtRp1920
(dp1921
g73
(dp1922
sg82
g1907
sg75
(lp1923
g68
(g69
g70
NtRp1924
(dp1925
g73
(dp1926
g81
I4
ssg82
g1920
sg75
(lp1927
g111
asbasbasbag68
(g84
g70
NtRp1928
(dp1929
g73
(dp1930
sg82
g1203
sg75
(lp1931
g68
(g89
g70
NtRp1932
(dp1933
g73
(dp1934
g93
g94
ssg82
g1928
sg75
(lp1935
S'wsgi_multithread'
p1936
asbag68
(g89
g70
NtRp1937
(dp1938
g73
(dp1939
g100
g101
ssg82
g1928
sg75
(lp1940
S':'
asbag68
(g89
g70
NtRp1941
(dp1942
g73
(dp1943
sg82
g1928
sg75
(lp1944
g68
(g69
g70
NtRp1945
(dp1946
g73
(dp1947
g81
I4
ssg82
g1941
sg75
(lp1948
S'True'
p1949
asbasbasbag68
(g84
g70
NtRp1950
(dp1951
g73
(dp1952
sg82
g1203
sg75
(lp1953
g68
(g89
g70
NtRp1954
(dp1955
g73
(dp1956
g93
g94
ssg82
g1950
sg75
(lp1957
S'wsgi_run_once'
p1958
asbag68
(g89
g70
NtRp1959
(dp1960
g73
(dp1961
g100
g101
ssg82
g1950
sg75
(lp1962
S':'
asbag68
(g89
g70
NtRp1963
(dp1964
g73
(dp1965
sg82
g1950
sg75
(lp1966
g68
(g69
g70
NtRp1967
(dp1968
g73
(dp1969
g81
I4
ssg82
g1963
sg75
(lp1970
g111
asbasbasbag68
(g84
g70
NtRp1971
(dp1972
g73
(dp1973
sg82
g1203
sg75
(lp1974
g68
(g89
g70
NtRp1975
(dp1976
g73
(dp1977
g93
g94
ssg82
g1971
sg75
(lp1978
S'wsgi_url_scheme'
p1979
asbag68
(g89
g70
NtRp1980
(dp1981
g73
(dp1982
g100
g101
ssg82
g1971
sg75
(lp1983
S':'
asbag68
(g89
g70
NtRp1984
(dp1985
g73
(dp1986
sg82
g1971
sg75
(lp1987
g68
(g69
g70
NtRp1988
(dp1989
g73
(dp1990
g81
I4
ssg82
g1984
sg75
(lp1991
S'http'
p1992
asbasbasbag68
(g84
g70
NtRp1993
(dp1994
g73
(dp1995
sg82
g1203
sg75
(lp1996
g68
(g89
g70
NtRp1997
(dp1998
g73
(dp1999
g93
g94
ssg82
g1993
sg75
(lp2000
S'wsgi_version'
p2001
asbag68
(g89
g70
NtRp2002
(dp2003
g73
(dp2004
g100
g101
ssg82
g1993
sg75
(lp2005
S':'
asbag68
(g89
g70
NtRp2006
(dp2007
g73
(dp2008
sg82
g1993
sg75
(lp2009
g68
(g69
g70
NtRp2010
(dp2011
g73
(dp2012
g81
I4
ssg82
g2006
sg75
(lp2013
g68
(g77
g70
NtRp2014
(dp2015
g73
(dp2016
g81
I3
ssg82
Nsg75
(lp2017
g68
(g84
g70
NtRp2018
(dp2019
g73
(dp2020
sg82
g2014
sg75
(lp2021
g68
(g89
g70
NtRp2022
(dp2023
g73
(dp2024
sg82
g2018
sg75
(lp2025
g68
(g69
g70
NtRp2026
(dp2027
g73
(dp2028
g81
I3
ssg82
g2022
sg75
(lp2029
S'1'
asbasbasbag68
(g84
g70
NtRp2030
(dp2031
g73
(dp2032
sg82
g2014
sg75
(lp2033
g68
(g89
g70
NtRp2034
(dp2035
g73
(dp2036
sg82
g2030
sg75
(lp2037
g68
(g69
g70
NtRp2038
(dp2039
g73
(dp2040
g81
I3
ssg82
g2034
sg75
(lp2041
S'0'
asbasbasbasbasbasbasbasbasbasbasbag68
(g84
g70
NtRp2042
(dp2043
g73
(dp2044
sg82
g78
sg75
(lp2045
g68
(g89
g70
NtRp2046
(dp2047
g73
(dp2048
g93
g94
ssg82
g2042
sg75
(lp2049
S'extension'
p2050
asbag68
(g89
g70
NtRp2051
(dp2052
g73
(dp2053
g100
g101
ssg82
g2042
sg75
(lp2054
S':'
asbag68
(g89
g70
NtRp2055
(dp2056
g73
(dp2057
sg82
g2042
sg75
(lp2058
g68
(g69
g70
NtRp2059
(dp2060
g73
(dp2061
g81
I5
ssg82
g2055
sg75
(lp2062
S'html'
p2063
asbasbasbag68
(g84
g70
NtRp2064
(dp2065
g73
(dp2066
sg82
g78
sg75
(lp2067
g68
(g89
g70
NtRp2068
(dp2069
g73
(dp2070
g93
g94
ssg82
g2064
sg75
(lp2071
S'folder'
p2072
asbag68
(g89
g70
NtRp2073
(dp2074
g73
(dp2075
g100
g101
ssg82
g2064
sg75
(lp2076
S':'
asbag68
(g89
g70
NtRp2077
(dp2078
g73
(dp2079
sg82
g2064
sg75
(lp2080
g68
(g69
g70
NtRp2081
(dp2082
g73
(dp2083
g81
I5
ssg82
g2077
sg75
(lp2084
S'/Users/hellais/Documents/code/mygit/globaleaks/webapp/applications/init/'
p2085
asbasbasbag68
(g84
g70
NtRp2086
(dp2087
g73
(dp2088
sg82
g78
sg75
(lp2089
g68
(g89
g70
NtRp2090
(dp2091
g73
(dp2092
g93
g94
ssg82
g2086
sg75
(lp2093
S'function'
p2094
asbag68
(g89
g70
NtRp2095
(dp2096
g73
(dp2097
g100
g101
ssg82
g2086
sg75
(lp2098
S':'
asbag68
(g89
g70
NtRp2099
(dp2100
g73
(dp2101
sg82
g2086
sg75
(lp2102
g68
(g69
g70
NtRp2103
(dp2104
g73
(dp2105
g81
I5
ssg82
g2099
sg75
(lp2106
S'index'
p2107
asbasbasbag68
(g84
g70
NtRp2108
(dp2109
g73
(dp2110
sg82
g78
sg75
(lp2111
g68
(g89
g70
NtRp2112
(dp2113
g73
(dp2114
g93
g94
ssg82
g2108
sg75
(lp2115
S'get_vars'
p2116
asbag68
(g89
g70
NtRp2117
(dp2118
g73
(dp2119
g100
g101
ssg82
g2108
sg75
(lp2120
S':'
asbag68
(g89
g70
NtRp2121
(dp2122
g73
(dp2123
sg82
g2108
sg75
(lp2124
g68
(g69
g70
NtRp2125
(dp2126
g73
(dp2127
g81
I5
ssg82
g2121
sg75
(lp2128
g68
(g77
g70
NtRp2129
(dp2130
g73
(dp2131
g81
I4
ssg82
Nsg75
(lp2132
sbasbasbasbag68
(g84
g70
NtRp2133
(dp2134
g73
(dp2135
sg82
g78
sg75
(lp2136
g68
(g89
g70
NtRp2137
(dp2138
g73
(dp2139
g93
g94
ssg82
g2133
sg75
(lp2140
S'is_https'
p2141
asbag68
(g89
g70
NtRp2142
(dp2143
g73
(dp2144
g100
g101
ssg82
g2133
sg75
(lp2145
S':'
asbag68
(g89
g70
NtRp2146
(dp2147
g73
(dp2148
sg82
g2133
sg75
(lp2149
g68
(g69
g70
NtRp2150
(dp2151
g73
(dp2152
g81
I5
ssg82
g2146
sg75
(lp2153
g111
asbasbasbag68
(g84
g70
NtRp2154
(dp2155
g73
(dp2156
sg82
g78
sg75
(lp2157
g68
(g89
g70
NtRp2158
(dp2159
g73
(dp2160
g93
g94
ssg82
g2154
sg75
(lp2161
S'is_local'
p2162
asbag68
(g89
g70
NtRp2163
(dp2164
g73
(dp2165
g100
g101
ssg82
g2154
sg75
(lp2166
S':'
asbag68
(g89
g70
NtRp2167
(dp2168
g73
(dp2169
sg82
g2154
sg75
(lp2170
g68
(g69
g70
NtRp2171
(dp2172
g73
(dp2173
g81
I5
ssg82
g2167
sg75
(lp2174
g1949
asbasbasbag68
(g84
g70
NtRp2175
(dp2176
g73
(dp2177
sg82
g78
sg75
(lp2178
g68
(g89
g70
NtRp2179
(dp2180
g73
(dp2181
g93
g94
ssg82
g2175
sg75
(lp2182
S'is_restful'
p2183
asbag68
(g89
g70
NtRp2184
(dp2185
g73
(dp2186
g100
g101
ssg82
g2175
sg75
(lp2187
S':'
asbag68
(g89
g70
NtRp2188
(dp2189
g73
(dp2190
sg82
g2175
sg75
(lp2191
g68
(g69
g70
NtRp2192
(dp2193
g73
(dp2194
g81
I5
ssg82
g2188
sg75
(lp2195
g111
asbasbasbag68
(g84
g70
NtRp2196
(dp2197
g73
(dp2198
sg82
g78
sg75
(lp2199
g68
(g89
g70
NtRp2200
(dp2201
g73
(dp2202
g93
g94
ssg82
g2196
sg75
(lp2203
S'now'
p2204
asbag68
(g89
g70
NtRp2205
(dp2206
g73
(dp2207
g100
g101
ssg82
g2196
sg75
(lp2208
S':'
asbag68
(g89
g70
NtRp2209
(dp2210
g73
(dp2211
sg82
g2196
sg75
(lp2212
g68
(g69
g70
NtRp2213
(dp2214
g73
(dp2215
g81
I5
ssg82
g2209
sg75
(lp2216
S'datetime.datetime(2011, 8, 28, 14, 54, 27, 316587)'
p2217
asbasbasbag68
(g84
g70
NtRp2218
(dp2219
g73
(dp2220
sg82
g78
sg75
(lp2221
g68
(g89
g70
NtRp2222
(dp2223
g73
(dp2224
g93
g94
ssg82
g2218
sg75
(lp2225
S'post_vars'
p2226
asbag68
(g89
g70
NtRp2227
(dp2228
g73
(dp2229
g100
g101
ssg82
g2218
sg75
(lp2230
S':'
asbag68
(g89
g70
NtRp2231
(dp2232
g73
(dp2233
sg82
g2218
sg75
(lp2234
g68
(g69
g70
NtRp2235
(dp2236
g73
(dp2237
g81
I5
ssg82
g2231
sg75
(lp2238
g68
(g77
g70
NtRp2239
(dp2240
g73
(dp2241
g81
I4
ssg82
Nsg75
(lp2242
sbasbasbasbag68
(g84
g70
NtRp2243
(dp2244
g73
(dp2245
sg82
g78
sg75
(lp2246
g68
(g89
g70
NtRp2247
(dp2248
g73
(dp2249
g93
g94
ssg82
g2243
sg75
(lp2250
S'url'
p2251
asbag68
(g89
g70
NtRp2252
(dp2253
g73
(dp2254
g100
g101
ssg82
g2243
sg75
(lp2255
S':'
asbag68
(g89
g70
NtRp2256
(dp2257
g73
(dp2258
sg82
g2243
sg75
(lp2259
g68
(g69
g70
NtRp2260
(dp2261
g73
(dp2262
g81
I5
ssg82
g2256
sg75
(lp2263
S'/init/default/index'
p2264
asbasbasbag68
(g84
g70
NtRp2265
(dp2266
g73
(dp2267
sg82
g78
sg75
(lp2268
g68
(g89
g70
NtRp2269
(dp2270
g73
(dp2271
g93
g94
ssg82
g2265
sg75
(lp2272
S'uuid'
p2273
asbag68
(g89
g70
NtRp2274
(dp2275
g73
(dp2276
g100
g101
ssg82
g2265
sg75
(lp2277
S':'
asbag68
(g89
g70
NtRp2278
(dp2279
g73
(dp2280
sg82
g2265
sg75
(lp2281
g68
(g69
g70
NtRp2282
(dp2283
g73
(dp2284
g81
I5
ssg82
g2278
sg75
(lp2285
S'init/127.0.0.1.2011-08-28.14-54-27.9e7989f8-4cef-45f1-a17e-285cf3f0a758'
p2286
asbasbasbag68
(g84
g70
NtRp2287
(dp2288
g73
(dp2289
sg82
g78
sg75
(lp2290
g68
(g89
g70
NtRp2291
(dp2292
g73
(dp2293
g93
g94
ssg82
g2287
sg75
(lp2294
S'vars'
p2295
asbag68
(g89
g70
NtRp2296
(dp2297
g73
(dp2298
g100
g101
ssg82
g2287
sg75
(lp2299
S':'
asbag68
(g89
g70
NtRp2300
(dp2301
g73
(dp2302
sg82
g2287
sg75
(lp2303
g68
(g69
g70
NtRp2304
(dp2305
g73
(dp2306
g81
I5
ssg82
g2300
sg75
(lp2307
g68
(g77
g70
NtRp2308
(dp2309
g73
(dp2310
g81
I4
ssg82
Nsg75
(lp2311
sbasbasbasbag68
(g84
g70
NtRp2312
(dp2313
g73
(dp2314
sg82
g78
sg75
(lp2315
g68
(g89
g70
NtRp2316
(dp2317
g73
(dp2318
g93
g94
ssg82
g2312
sg75
(lp2319
S'wsgi'
p2320
asbag68
(g89
g70
NtRp2321
(dp2322
g73
(dp2323
g100
g101
ssg82
g2312
sg75
(lp2324
S':'
asbag68
(g89
g70
NtRp2325
(dp2326
g73
(dp2327
sg82
g2312
sg75
(lp2328
g68
(g69
g70
NtRp2329
(dp2330
g73
(dp2331
g81
I5
ssg82
g2325
sg75
(lp2332
g68
(g77
g70
NtRp2333
(dp2334
g73
(dp2335
g81
I4
ssg82
Nsg75
(lp2336
g68
(g84
g70
NtRp2337
(dp2338
g73
(dp2339
sg82
g2333
sg75
(lp2340
g68
(g89
g70
NtRp2341
(dp2342
g73
(dp2343
g93
g94
ssg82
g2337
sg75
(lp2344
S'environ'
p2345
asbag68
(g89
g70
NtRp2346
(dp2347
g73
(dp2348
g100
g101
ssg82
g2337
sg75
(lp2349
S':'
asbag68
(g89
g70
NtRp2350
(dp2351
g73
(dp2352
sg82
g2337
sg75
(lp2353
g68
(g69
g70
NtRp2354
(dp2355
g73
(dp2356
g81
I4
ssg82
g2350
sg75
(lp2357
g68
(g77
g70
NtRp2358
(dp2359
g73
(dp2360
g81
I3
ssg82
Nsg75
(lp2361
g68
(g84
g70
NtRp2362
(dp2363
g73
(dp2364
sg82
g2358
sg75
(lp2365
g68
(g89
g70
NtRp2366
(dp2367
g73
(dp2368
g93
g94
ssg82
g2362
sg75
(lp2369
S'HTTP_ACCEPT'
p2370
asbag68
(g89
g70
NtRp2371
(dp2372
g73
(dp2373
g100
g101
ssg82
g2362
sg75
(lp2374
S':'
asbag68
(g89
g70
NtRp2375
(dp2376
g73
(dp2377
sg82
g2362
sg75
(lp2378
g68
(g69
g70
NtRp2379
(dp2380
g73
(dp2381
g81
I3
ssg82
g2375
sg75
(lp2382
g1384
asbasbasbag68
(g84
g70
NtRp2383
(dp2384
g73
(dp2385
sg82
g2358
sg75
(lp2386
g68
(g89
g70
NtRp2387
(dp2388
g73
(dp2389
g93
g94
ssg82
g2383
sg75
(lp2390
S'HTTP_ACCEPT_CHARSET'
p2391
asbag68
(g89
g70
NtRp2392
(dp2393
g73
(dp2394
g100
g101
ssg82
g2383
sg75
(lp2395
S':'
asbag68
(g89
g70
NtRp2396
(dp2397
g73
(dp2398
sg82
g2383
sg75
(lp2399
g68
(g69
g70
NtRp2400
(dp2401
g73
(dp2402
g81
I3
ssg82
g2396
sg75
(lp2403
g1406
asbasbasbag68
(g84
g70
NtRp2404
(dp2405
g73
(dp2406
sg82
g2358
sg75
(lp2407
g68
(g89
g70
NtRp2408
(dp2409
g73
(dp2410
g93
g94
ssg82
g2404
sg75
(lp2411
S'HTTP_ACCEPT_ENCODING'
p2412
asbag68
(g89
g70
NtRp2413
(dp2414
g73
(dp2415
g100
g101
ssg82
g2404
sg75
(lp2416
S':'
asbag68
(g89
g70
NtRp2417
(dp2418
g73
(dp2419
sg82
g2404
sg75
(lp2420
g68
(g69
g70
NtRp2421
(dp2422
g73
(dp2423
g81
I3
ssg82
g2417
sg75
(lp2424
g1428
asbasbasbag68
(g84
g70
NtRp2425
(dp2426
g73
(dp2427
sg82
g2358
sg75
(lp2428
g68
(g89
g70
NtRp2429
(dp2430
g73
(dp2431
g93
g94
ssg82
g2425
sg75
(lp2432
S'HTTP_ACCEPT_LANGUAGE'
p2433
asbag68
(g89
g70
NtRp2434
(dp2435
g73
(dp2436
g100
g101
ssg82
g2425
sg75
(lp2437
S':'
asbag68
(g89
g70
NtRp2438
(dp2439
g73
(dp2440
sg82
g2425
sg75
(lp2441
g68
(g69
g70
NtRp2442
(dp2443
g73
(dp2444
g81
I3
ssg82
g2438
sg75
(lp2445
g1450
asbasbasbag68
(g84
g70
NtRp2446
(dp2447
g73
(dp2448
sg82
g2358
sg75
(lp2449
g68
(g89
g70
NtRp2450
(dp2451
g73
(dp2452
g93
g94
ssg82
g2446
sg75
(lp2453
S'HTTP_CONNECTION'
p2454
asbag68
(g89
g70
NtRp2455
(dp2456
g73
(dp2457
g100
g101
ssg82
g2446
sg75
(lp2458
S':'
asbag68
(g89
g70
NtRp2459
(dp2460
g73
(dp2461
sg82
g2446
sg75
(lp2462
g68
(g69
g70
NtRp2463
(dp2464
g73
(dp2465
g81
I3
ssg82
g2459
sg75
(lp2466
g1472
asbasbasbag68
(g84
g70
NtRp2467
(dp2468
g73
(dp2469
sg82
g2358
sg75
(lp2470
g68
(g89
g70
NtRp2471
(dp2472
g73
(dp2473
g93
g94
ssg82
g2467
sg75
(lp2474
S'HTTP_COOKIE'
p2475
asbag68
(g89
g70
NtRp2476
(dp2477
g73
(dp2478
g100
g101
ssg82
g2467
sg75
(lp2479
S':'
asbag68
(g89
g70
NtRp2480
(dp2481
g73
(dp2482
sg82
g2467
sg75
(lp2483
g68
(g69
g70
NtRp2484
(dp2485
g73
(dp2486
g81
I3
ssg82
g2480
sg75
(lp2487
g1494
asbasbasbag68
(g84
g70
NtRp2488
(dp2489
g73
(dp2490
sg82
g2358
sg75
(lp2491
g68
(g89
g70
NtRp2492
(dp2493
g73
(dp2494
g93
g94
ssg82
g2488
sg75
(lp2495
S'HTTP_HOST'
p2496
asbag68
(g89
g70
NtRp2497
(dp2498
g73
(dp2499
g100
g101
ssg82
g2488
sg75
(lp2500
S':'
asbag68
(g89
g70
NtRp2501
(dp2502
g73
(dp2503
sg82
g2488
sg75
(lp2504
g68
(g69
g70
NtRp2505
(dp2506
g73
(dp2507
g81
I3
ssg82
g2501
sg75
(lp2508
g1516
asbasbasbag68
(g84
g70
NtRp2509
(dp2510
g73
(dp2511
sg82
g2358
sg75
(lp2512
g68
(g89
g70
NtRp2513
(dp2514
g73
(dp2515
g93
g94
ssg82
g2509
sg75
(lp2516
S'HTTP_USER_AGENT'
p2517
asbag68
(g89
g70
NtRp2518
(dp2519
g73
(dp2520
g100
g101
ssg82
g2509
sg75
(lp2521
S':'
asbag68
(g89
g70
NtRp2522
(dp2523
g73
(dp2524
sg82
g2509
sg75
(lp2525
g68
(g69
g70
NtRp2526
(dp2527
g73
(dp2528
g81
I3
ssg82
g2522
sg75
(lp2529
g1538
asbasbasbag68
(g84
g70
NtRp2530
(dp2531
g73
(dp2532
sg82
g2358
sg75
(lp2533
g68
(g89
g70
NtRp2534
(dp2535
g73
(dp2536
g93
g94
ssg82
g2530
sg75
(lp2537
S'PATH_INFO'
p2538
asbag68
(g89
g70
NtRp2539
(dp2540
g73
(dp2541
g100
g101
ssg82
g2530
sg75
(lp2542
S':'
asbag68
(g89
g70
NtRp2543
(dp2544
g73
(dp2545
sg82
g2530
sg75
(lp2546
g68
(g69
g70
NtRp2547
(dp2548
g73
(dp2549
g81
I3
ssg82
g2543
sg75
(lp2550
S'/'
asbasbasbag68
(g84
g70
NtRp2551
(dp2552
g73
(dp2553
sg82
g2358
sg75
(lp2554
g68
(g89
g70
NtRp2555
(dp2556
g73
(dp2557
g93
g94
ssg82
g2551
sg75
(lp2558
S'QUERY_STRING'
p2559
asbag68
(g89
g70
NtRp2560
(dp2561
g73
(dp2562
g100
g101
ssg82
g2551
sg75
(lp2563
S':'
asbag68
(g89
g70
NtRp2564
(dp2565
g73
(dp2566
sg82
g2551
sg75
(lp2567
g68
(g69
g70
NtRp2568
(dp2569
g73
(dp2570
g81
I3
ssg82
g2564
sg75
(lp2571
S''
asbasbasbag68
(g84
g70
NtRp2572
(dp2573
g73
(dp2574
sg82
g2358
sg75
(lp2575
g68
(g89
g70
NtRp2576
(dp2577
g73
(dp2578
g93
g94
ssg82
g2572
sg75
(lp2579
S'REMOTE_ADDR'
p2580
asbag68
(g89
g70
NtRp2581
(dp2582
g73
(dp2583
g100
g101
ssg82
g2572
sg75
(lp2584
S':'
asbag68
(g89
g70
NtRp2585
(dp2586
g73
(dp2587
sg82
g2572
sg75
(lp2588
g68
(g69
g70
NtRp2589
(dp2590
g73
(dp2591
g81
I3
ssg82
g2585
sg75
(lp2592
g201
asbasbasbag68
(g84
g70
NtRp2593
(dp2594
g73
(dp2595
sg82
g2358
sg75
(lp2596
g68
(g89
g70
NtRp2597
(dp2598
g73
(dp2599
g93
g94
ssg82
g2593
sg75
(lp2600
S'REMOTE_PORT'
p2601
asbag68
(g89
g70
NtRp2602
(dp2603
g73
(dp2604
g100
g101
ssg82
g2593
sg75
(lp2605
S':'
asbag68
(g89
g70
NtRp2606
(dp2607
g73
(dp2608
sg82
g2593
sg75
(lp2609
g68
(g69
g70
NtRp2610
(dp2611
g73
(dp2612
g81
I3
ssg82
g2606
sg75
(lp2613
g1644
asbasbasbag68
(g84
g70
NtRp2614
(dp2615
g73
(dp2616
sg82
g2358
sg75
(lp2617
g68
(g89
g70
NtRp2618
(dp2619
g73
(dp2620
g93
g94
ssg82
g2614
sg75
(lp2621
S'REQUEST_METHOD'
p2622
asbag68
(g89
g70
NtRp2623
(dp2624
g73
(dp2625
g100
g101
ssg82
g2614
sg75
(lp2626
S':'
asbag68
(g89
g70
NtRp2627
(dp2628
g73
(dp2629
sg82
g2614
sg75
(lp2630
g68
(g69
g70
NtRp2631
(dp2632
g73
(dp2633
g81
I3
ssg82
g2627
sg75
(lp2634
g1666
asbasbasbag68
(g84
g70
NtRp2635
(dp2636
g73
(dp2637
sg82
g2358
sg75
(lp2638
g68
(g89
g70
NtRp2639
(dp2640
g73
(dp2641
g93
g94
ssg82
g2635
sg75
(lp2642
S'SCRIPT_NAME'
p2643
asbag68
(g89
g70
NtRp2644
(dp2645
g73
(dp2646
g100
g101
ssg82
g2635
sg75
(lp2647
S':'
asbag68
(g89
g70
NtRp2648
(dp2649
g73
(dp2650
sg82
g2635
sg75
(lp2651
g68
(g69
g70
NtRp2652
(dp2653
g73
(dp2654
g81
I3
ssg82
g2648
sg75
(lp2655
S''
asbasbasbag68
(g84
g70
NtRp2656
(dp2657
g73
(dp2658
sg82
g2358
sg75
(lp2659
g68
(g89
g70
NtRp2660
(dp2661
g73
(dp2662
g93
g94
ssg82
g2656
sg75
(lp2663
S'SERVER_NAME'
p2664
asbag68
(g89
g70
NtRp2665
(dp2666
g73
(dp2667
g100
g101
ssg82
g2656
sg75
(lp2668
S':'
asbag68
(g89
g70
NtRp2669
(dp2670
g73
(dp2671
sg82
g2656
sg75
(lp2672
g68
(g69
g70
NtRp2673
(dp2674
g73
(dp2675
g81
I3
ssg82
g2669
sg75
(lp2676
g1709
asbasbasbag68
(g84
g70
NtRp2677
(dp2678
g73
(dp2679
sg82
g2358
sg75
(lp2680
g68
(g89
g70
NtRp2681
(dp2682
g73
(dp2683
g93
g94
ssg82
g2677
sg75
(lp2684
S'SERVER_PORT'
p2685
asbag68
(g89
g70
NtRp2686
(dp2687
g73
(dp2688
g100
g101
ssg82
g2677
sg75
(lp2689
S':'
asbag68
(g89
g70
NtRp2690
(dp2691
g73
(dp2692
sg82
g2677
sg75
(lp2693
g68
(g69
g70
NtRp2694
(dp2695
g73
(dp2696
g81
I3
ssg82
g2690
sg75
(lp2697
g1731
asbasbasbag68
(g84
g70
NtRp2698
(dp2699
g73
(dp2700
sg82
g2358
sg75
(lp2701
g68
(g89
g70
NtRp2702
(dp2703
g73
(dp2704
g93
g94
ssg82
g2698
sg75
(lp2705
S'SERVER_PROTOCOL'
p2706
asbag68
(g89
g70
NtRp2707
(dp2708
g73
(dp2709
g100
g101
ssg82
g2698
sg75
(lp2710
S':'
asbag68
(g89
g70
NtRp2711
(dp2712
g73
(dp2713
sg82
g2698
sg75
(lp2714
g68
(g69
g70
NtRp2715
(dp2716
g73
(dp2717
g81
I3
ssg82
g2711
sg75
(lp2718
g1753
asbasbasbag68
(g84
g70
NtRp2719
(dp2720
g73
(dp2721
sg82
g2358
sg75
(lp2722
g68
(g89
g70
NtRp2723
(dp2724
g73
(dp2725
g93
g94
ssg82
g2719
sg75
(lp2726
S'SERVER_SOFTWARE'
p2727
asbag68
(g89
g70
NtRp2728
(dp2729
g73
(dp2730
g100
g101
ssg82
g2719
sg75
(lp2731
S':'
asbag68
(g89
g70
NtRp2732
(dp2733
g73
(dp2734
sg82
g2719
sg75
(lp2735
g68
(g69
g70
NtRp2736
(dp2737
g73
(dp2738
g81
I3
ssg82
g2732
sg75
(lp2739
g1775
asbasbasbag68
(g84
g70
NtRp2740
(dp2741
g73
(dp2742
sg82
g2358
sg75
(lp2743
g68
(g89
g70
NtRp2744
(dp2745
g73
(dp2746
g93
g94
ssg82
g2740
sg75
(lp2747
S'wsgi.errors'
p2748
asbag68
(g89
g70
NtRp2749
(dp2750
g73
(dp2751
g100
g101
ssg82
g2740
sg75
(lp2752
S':'
asbag68
(g89
g70
NtRp2753
(dp2754
g73
(dp2755
sg82
g2740
sg75
(lp2756
g68
(g69
g70
NtRp2757
(dp2758
g73
(dp2759
g81
I3
ssg82
g2753
sg75
(lp2760
S"<open file '<stderr>', mode 'w' at 0x100287270>"
p2761
asbasbasbag68
(g84
g70
NtRp2762
(dp2763
g73
(dp2764
sg82
g2358
sg75
(lp2765
g68
(g89
g70
NtRp2766
(dp2767
g73
(dp2768
g93
g94
ssg82
g2762
sg75
(lp2769
S'wsgi.file_wrapper'
p2770
asbag68
(g89
g70
NtRp2771
(dp2772
g73
(dp2773
g100
g101
ssg82
g2762
sg75
(lp2774
S':'
asbag68
(g89
g70
NtRp2775
(dp2776
g73
(dp2777
sg82
g2762
sg75
(lp2778
g68
(g69
g70
NtRp2779
(dp2780
g73
(dp2781
g81
I3
ssg82
g2775
sg75
(lp2782
S'<class gluon.rocket.FileWrapper at 0x101667e88>'
p2783
asbasbasbag68
(g84
g70
NtRp2784
(dp2785
g73
(dp2786
sg82
g2358
sg75
(lp2787
g68
(g89
g70
NtRp2788
(dp2789
g73
(dp2790
g93
g94
ssg82
g2784
sg75
(lp2791
S'wsgi.input'
p2792
asbag68
(g89
g70
NtRp2793
(dp2794
g73
(dp2795
g100
g101
ssg82
g2784
sg75
(lp2796
S':'
asbag68
(g89
g70
NtRp2797
(dp2798
g73
(dp2799
sg82
g2784
sg75
(lp2800
g68
(g69
g70
NtRp2801
(dp2802
g73
(dp2803
g81
I3
ssg82
g2797
sg75
(lp2804
S'<cStringIO.StringO object at 0x1021d1030>'
p2805
asbasbasbag68
(g84
g70
NtRp2806
(dp2807
g73
(dp2808
sg82
g2358
sg75
(lp2809
g68
(g89
g70
NtRp2810
(dp2811
g73
(dp2812
g93
g94
ssg82
g2806
sg75
(lp2813
S'wsgi.multiprocess'
p2814
asbag68
(g89
g70
NtRp2815
(dp2816
g73
(dp2817
g100
g101
ssg82
g2806
sg75
(lp2818
S':'
asbag68
(g89
g70
NtRp2819
(dp2820
g73
(dp2821
sg82
g2806
sg75
(lp2822
g68
(g69
g70
NtRp2823
(dp2824
g73
(dp2825
g81
I3
ssg82
g2819
sg75
(lp2826
g111
asbasbasbag68
(g84
g70
NtRp2827
(dp2828
g73
(dp2829
sg82
g2358
sg75
(lp2830
g68
(g89
g70
NtRp2831
(dp2832
g73
(dp2833
g93
g94
ssg82
g2827
sg75
(lp2834
S'wsgi.multithread'
p2835
asbag68
(g89
g70
NtRp2836
(dp2837
g73
(dp2838
g100
g101
ssg82
g2827
sg75
(lp2839
S':'
asbag68
(g89
g70
NtRp2840
(dp2841
g73
(dp2842
sg82
g2827
sg75
(lp2843
g68
(g69
g70
NtRp2844
(dp2845
g73
(dp2846
g81
I3
ssg82
g2840
sg75
(lp2847
g1949
asbasbasbag68
(g84
g70
NtRp2848
(dp2849
g73
(dp2850
sg82
g2358
sg75
(lp2851
g68
(g89
g70
NtRp2852
(dp2853
g73
(dp2854
g93
g94
ssg82
g2848
sg75
(lp2855
S'wsgi.run_once'
p2856
asbag68
(g89
g70
NtRp2857
(dp2858
g73
(dp2859
g100
g101
ssg82
g2848
sg75
(lp2860
S':'
asbag68
(g89
g70
NtRp2861
(dp2862
g73
(dp2863
sg82
g2848
sg75
(lp2864
g68
(g69
g70
NtRp2865
(dp2866
g73
(dp2867
g81
I3
ssg82
g2861
sg75
(lp2868
g111
asbasbasbag68
(g84
g70
NtRp2869
(dp2870
g73
(dp2871
sg82
g2358
sg75
(lp2872
g68
(g89
g70
NtRp2873
(dp2874
g73
(dp2875
g93
g94
ssg82
g2869
sg75
(lp2876
S'wsgi.url_scheme'
p2877
asbag68
(g89
g70
NtRp2878
(dp2879
g73
(dp2880
g100
g101
ssg82
g2869
sg75
(lp2881
S':'
asbag68
(g89
g70
NtRp2882
(dp2883
g73
(dp2884
sg82
g2869
sg75
(lp2885
g68
(g69
g70
NtRp2886
(dp2887
g73
(dp2888
g81
I3
ssg82
g2882
sg75
(lp2889
g1992
asbasbasbag68
(g84
g70
NtRp2890
(dp2891
g73
(dp2892
sg82
g2358
sg75
(lp2893
g68
(g89
g70
NtRp2894
(dp2895
g73
(dp2896
g93
g94
ssg82
g2890
sg75
(lp2897
S'wsgi.version'
p2898
asbag68
(g89
g70
NtRp2899
(dp2900
g73
(dp2901
g100
g101
ssg82
g2890
sg75
(lp2902
S':'
asbag68
(g89
g70
NtRp2903
(dp2904
g73
(dp2905
sg82
g2890
sg75
(lp2906
g68
(g69
g70
NtRp2907
(dp2908
g73
(dp2909
g81
I3
ssg82
g2903
sg75
(lp2910
S'1'
asbasbasbasbasbasbasbasbasbasbasbasbasbsS'frames'
p2911
(lp2912
(dp2913
S'file'
p2914
S'/opt/local/Library/Frameworks/Python.framework/Versions/2.7/lib/python2.7/gluon/restricted.py'
p2915
sS'dump'
p2916
(dp2917
S'code'
p2918
S"'# -*- coding: utf-8 -*-\\n### required - do no del...n dict()\\n\\nresponse._vars=response._caller(index)\\n'"
p2919
sS'layer'
p2920
S"'/Users/hellais/Documents/code/mygit/globaleaks/webapp/applications/init/controllers/default.py'"
p2921
sS'global compile2'
p2922
S'<function compile2>'
p2923
sS'ccode'
p2924
S'undefined'
p2925
ssS'lnum'
p2926
I191
sS'lines'
p2927
(dp2928
I192
S'        exec ccode in environment'
p2929
sI193
S'    except HTTP:'
p2930
sI194
S'        raise'
p2931
sI195
S'    except Exception, error:'
p2932
sI186
S"    environment['__file__'] = layer"
p2933
sI187
S'    try:'
p2934
sI188
S'        if type(code) == types.CodeType:'
p2935
sI189
S'            ccode = code'
p2936
sI190
S'        else:'
p2937
sI191
S'            ccode = compile2(code,layer)'
p2938
ssS'call'
p2939
S"(code='# -*- coding: utf-8 -*-\\n### required - do no del...n dict()\\n\\nresponse._vars=response._caller(index)\\n', environment={'A': <class 'gluon.html.A'>, 'Auth': <class 'gluon.tools.Auth'>, 'B': <class 'gluon.html.B'>, 'BEAUTIFY': <class 'gluon.html.BEAUTIFY'>, 'BODY': <class 'gluon.html.BODY'>, 'BR': <class 'gluon.html.BR'>, 'BUTTON': <class 'gluon.html.BUTTON'>, 'CAT': <class 'gluon.html.CAT'>, 'CENTER': <class 'gluon.html.CENTER'>, 'CLEANUP': <class 'gluon.validators.CLEANUP'>, ...}, layer='/Users/hellais/Documents/code/mygit/globaleaks/webapp/applications/init/controllers/default.py')"
p2940
sS'func'
p2941
S'restricted'
p2942
sa(dp2943
g2914
S'/opt/local/Library/Frameworks/Python.framework/Versions/2.7/lib/python2.7/gluon/restricted.py'
p2944
sg2916
(dp2945
S'builtincompile'
p2946
S'<built-in function compile>'
p2947
sS'code'
p2948
S"'# -*- coding: utf-8 -*-\\n### required - do no del...n dict()\\n\\nresponse._vars=response._caller(index)\\n'"
p2949
sS'code.rstrip'
p2950
S'<built-in method rstrip of str object>'
p2951
sS').replace'
p2952
g2925
sS'layer'
p2953
S"'/Users/hellais/Documents/code/mygit/globaleaks/webapp/applications/init/controllers/default.py'"
p2954
ssg2926
I178
sg2927
(dp2955
I173
S''
sI174
S'def compile2(code,layer):'
p2956
sI175
S'    """'
p2957
sI176
S"    The +'\\n' is necessary else compile fails when code ends in a comment."
p2958
sI177
S'    """'
p2959
sI178
S"    return compile(code.rstrip().replace('\\r\\n','\\n')+'\\n', layer, 'exec')"
p2960
sI179
S''
sI180
S"def restricted(code, environment={}, layer='Unknown'):"
p2961
sI181
S'    """'
p2962
sI182
S'    runs code in environment and returns the output. if an exception occurs'
p2963
ssg2939
S"(code='# -*- coding: utf-8 -*-\\n### required - do no del...n dict()\\n\\nresponse._vars=response._caller(index)\\n', layer='/Users/hellais/Documents/code/mygit/globaleaks/webapp/applications/init/controllers/default.py')"
p2964
sg2941
S'compile2'
p2965
sasS'pyver'
p2966
S'Python 2.7.1: /opt/local/Library/Frameworks/Python.framework/Versions/2.7/Resources/Python.app/Contents/MacOS/Python'
p2967
sS'session'
p2968
g68
(g69
g70
NtRp2969
(dp2970
g73
(dp2971
sg75
(lp2972
g68
(g77
g70
NtRp2973
(dp2974
g73
(dp2975
g81
I5
ssg82
Nsg75
(lp2976
sbasbsS'etype'
p2977
S"<type 'exceptions.SyntaxError'>"
p2978
sS'date'
p2979
S'Sun Aug 28 14:54:27 2011'
p2980
sS'response'
p2981
g68
(g69
g70
NtRp2982
(dp2983
g73
(dp2984
sg75
(lp2985
g68
(g77
g70
NtRp2986
(dp2987
g73
(dp2988
g81
I5
ssg82
Nsg75
(lp2989
g68
(g84
g70
NtRp2990
(dp2991
g73
(dp2992
sg82
g2986
sg75
(lp2993
g68
(g89
g70
NtRp2994
(dp2995
g73
(dp2996
g93
g94
ssg82
g2990
sg75
(lp2997
g166
asbag68
(g89
g70
NtRp2998
(dp2999
g73
(dp3000
g100
g101
ssg82
g2990
sg75
(lp3001
S':'
asbag68
(g89
g70
NtRp3002
(dp3003
g73
(dp3004
sg82
g2990
sg75
(lp3005
g68
(g69
g70
NtRp3006
(dp3007
g73
(dp3008
g81
I5
ssg82
g3002
sg75
(lp3009
S'<cStringIO.StringO object at 0x10375a7d8>'
p3010
asbasbasbag68
(g84
g70
NtRp3011
(dp3012
g73
(dp3013
sg82
g2986
sg75
(lp3014
g68
(g89
g70
NtRp3015
(dp3016
g73
(dp3017
g93
g94
ssg82
g3011
sg75
(lp3018
g232
asbag68
(g89
g70
NtRp3019
(dp3020
g73
(dp3021
g100
g101
ssg82
g3011
sg75
(lp3022
S':'
asbag68
(g89
g70
NtRp3023
(dp3024
g73
(dp3025
sg82
g3011
sg75
(lp3026
g68
(g69
g70
NtRp3027
(dp3028
g73
(dp3029
g81
I5
ssg82
g3023
sg75
(lp3030
g68
(g77
g70
NtRp3031
(dp3032
g73
(dp3033
g81
I4
ssg82
Nsg75
(lp3034
g68
(g84
g70
NtRp3035
(dp3036
g73
(dp3037
sg82
g3031
sg75
(lp3038
g68
(g89
g70
NtRp3039
(dp3040
g73
(dp3041
g93
g94
ssg82
g3035
sg75
(lp3042
S'session_id_init'
p3043
asbag68
(g89
g70
NtRp3044
(dp3045
g73
(dp3046
g100
g101
ssg82
g3035
sg75
(lp3047
S':'
asbag68
(g89
g70
NtRp3048
(dp3049
g73
(dp3050
sg82
g3035
sg75
(lp3051
g68
(g69
g70
NtRp3052
(dp3053
g73
(dp3054
g81
I4
ssg82
g3048
sg75
(lp3055
g68
(g77
g70
NtRp3056
(dp3057
g73
(dp3058
g81
I3
ssg82
Nsg75
(lp3059
g68
(g84
g70
NtRp3060
(dp3061
g73
(dp3062
sg82
g3056
sg75
(lp3063
g68
(g89
g70
NtRp3064
(dp3065
g73
(dp3066
g93
g94
ssg82
g3060
sg75
(lp3067
g282
asbag68
(g89
g70
NtRp3068
(dp3069
g73
(dp3070
g100
g101
ssg82
g3060
sg75
(lp3071
S':'
asbag68
(g89
g70
NtRp3072
(dp3073
g73
(dp3074
sg82
g3060
sg75
(lp3075
g68
(g69
g70
NtRp3076
(dp3077
g73
(dp3078
g81
I3
ssg82
g3072
sg75
(lp3079
S''
asbasbasbag68
(g84
g70
NtRp3080
(dp3081
g73
(dp3082
sg82
g3056
sg75
(lp3083
g68
(g89
g70
NtRp3084
(dp3085
g73
(dp3086
g93
g94
ssg82
g3080
sg75
(lp3087
g303
asbag68
(g89
g70
NtRp3088
(dp3089
g73
(dp3090
g100
g101
ssg82
g3080
sg75
(lp3091
S':'
asbag68
(g89
g70
NtRp3092
(dp3093
g73
(dp3094
sg82
g3080
sg75
(lp3095
g68
(g69
g70
NtRp3096
(dp3097
g73
(dp3098
g81
I3
ssg82
g3092
sg75
(lp3099
S''
asbasbasbag68
(g84
g70
NtRp3100
(dp3101
g73
(dp3102
sg82
g3056
sg75
(lp3103
g68
(g89
g70
NtRp3104
(dp3105
g73
(dp3106
g93
g94
ssg82
g3100
sg75
(lp3107
g324
asbag68
(g89
g70
NtRp3108
(dp3109
g73
(dp3110
g100
g101
ssg82
g3100
sg75
(lp3111
S':'
asbag68
(g89
g70
NtRp3112
(dp3113
g73
(dp3114
sg82
g3100
sg75
(lp3115
g68
(g69
g70
NtRp3116
(dp3117
g73
(dp3118
g81
I3
ssg82
g3112
sg75
(lp3119
S''
asbasbasbag68
(g84
g70
NtRp3120
(dp3121
g73
(dp3122
sg82
g3056
sg75
(lp3123
g68
(g89
g70
NtRp3124
(dp3125
g73
(dp3126
g93
g94
ssg82
g3120
sg75
(lp3127
g345
asbag68
(g89
g70
NtRp3128
(dp3129
g73
(dp3130
g100
g101
ssg82
g3120
sg75
(lp3131
S':'
asbag68
(g89
g70
NtRp3132
(dp3133
g73
(dp3134
sg82
g3120
sg75
(lp3135
g68
(g69
g70
NtRp3136
(dp3137
g73
(dp3138
g81
I3
ssg82
g3132
sg75
(lp3139
S''
asbasbasbag68
(g84
g70
NtRp3140
(dp3141
g73
(dp3142
sg82
g3056
sg75
(lp3143
g68
(g89
g70
NtRp3144
(dp3145
g73
(dp3146
g93
g94
ssg82
g3140
sg75
(lp3147
g366
asbag68
(g89
g70
NtRp3148
(dp3149
g73
(dp3150
g100
g101
ssg82
g3140
sg75
(lp3151
S':'
asbag68
(g89
g70
NtRp3152
(dp3153
g73
(dp3154
sg82
g3140
sg75
(lp3155
g68
(g69
g70
NtRp3156
(dp3157
g73
(dp3158
g81
I3
ssg82
g3152
sg75
(lp3159
S''
asbasbasbag68
(g84
g70
NtRp3160
(dp3161
g73
(dp3162
sg82
g3056
sg75
(lp3163
g68
(g89
g70
NtRp3164
(dp3165
g73
(dp3166
g93
g94
ssg82
g3160
sg75
(lp3167
g387
asbag68
(g89
g70
NtRp3168
(dp3169
g73
(dp3170
g100
g101
ssg82
g3160
sg75
(lp3171
S':'
asbag68
(g89
g70
NtRp3172
(dp3173
g73
(dp3174
sg82
g3160
sg75
(lp3175
g68
(g69
g70
NtRp3176
(dp3177
g73
(dp3178
g81
I3
ssg82
g3172
sg75
(lp3179
S'/'
asbasbasbag68
(g84
g70
NtRp3180
(dp3181
g73
(dp3182
sg82
g3056
sg75
(lp3183
g68
(g89
g70
NtRp3184
(dp3185
g73
(dp3186
g93
g94
ssg82
g3180
sg75
(lp3187
g408
asbag68
(g89
g70
NtRp3188
(dp3189
g73
(dp3190
g100
g101
ssg82
g3180
sg75
(lp3191
S':'
asbag68
(g89
g70
NtRp3192
(dp3193
g73
(dp3194
sg82
g3180
sg75
(lp3195
g68
(g69
g70
NtRp3196
(dp3197
g73
(dp3198
g81
I3
ssg82
g3192
sg75
(lp3199
S''
asbasbasbag68
(g84
g70
NtRp3200
(dp3201
g73
(dp3202
sg82
g3056
sg75
(lp3203
g68
(g89
g70
NtRp3204
(dp3205
g73
(dp3206
g93
g94
ssg82
g3200
sg75
(lp3207
g429
asbag68
(g89
g70
NtRp3208
(dp3209
g73
(dp3210
g100
g101
ssg82
g3200
sg75
(lp3211
S':'
asbag68
(g89
g70
NtRp3212
(dp3213
g73
(dp3214
sg82
g3200
sg75
(lp3215
g68
(g69
g70
NtRp3216
(dp3217
g73
(dp3218
g81
I3
ssg82
g3212
sg75
(lp3219
S''
asbasbasbasbasbasbasbasbasbasbasbag68
(g84
g70
NtRp3220
(dp3221
g73
(dp3222
sg82
g2986
sg75
(lp3223
g68
(g89
g70
NtRp3224
(dp3225
g73
(dp3226
g93
g94
ssg82
g3220
sg75
(lp3227
S'files'
p3228
asbag68
(g89
g70
NtRp3229
(dp3230
g73
(dp3231
g100
g101
ssg82
g3220
sg75
(lp3232
S':'
asbag68
(g89
g70
NtRp3233
(dp3234
g73
(dp3235
sg82
g3220
sg75
(lp3236
g68
(g69
g70
NtRp3237
(dp3238
g73
(dp3239
g81
I5
ssg82
g3233
sg75
(lp3240
g68
(g77
g70
NtRp3241
(dp3242
g73
(dp3243
g81
I4
ssg82
Nsg75
(lp3244
sbasbasbasbag68
(g84
g70
NtRp3245
(dp3246
g73
(dp3247
sg82
g2986
sg75
(lp3248
g68
(g89
g70
NtRp3249
(dp3250
g73
(dp3251
g93
g94
ssg82
g3245
sg75
(lp3252
S'flash'
p3253
asbag68
(g89
g70
NtRp3254
(dp3255
g73
(dp3256
g100
g101
ssg82
g3245
sg75
(lp3257
S':'
asbag68
(g89
g70
NtRp3258
(dp3259
g73
(dp3260
sg82
g3245
sg75
(lp3261
g68
(g69
g70
NtRp3262
(dp3263
g73
(dp3264
g81
I5
ssg82
g3258
sg75
(lp3265
S''
asbasbasbag68
(g84
g70
NtRp3266
(dp3267
g73
(dp3268
sg82
g2986
sg75
(lp3269
g68
(g89
g70
NtRp3270
(dp3271
g73
(dp3272
g93
g94
ssg82
g3266
sg75
(lp3273
S'generic_patterns'
p3274
asbag68
(g89
g70
NtRp3275
(dp3276
g73
(dp3277
g100
g101
ssg82
g3266
sg75
(lp3278
S':'
asbag68
(g89
g70
NtRp3279
(dp3280
g73
(dp3281
sg82
g3266
sg75
(lp3282
g68
(g69
g70
NtRp3283
(dp3284
g73
(dp3285
g81
I5
ssg82
g3279
sg75
(lp3286
g68
(g77
g70
NtRp3287
(dp3288
g73
(dp3289
g81
I4
ssg82
Nsg75
(lp3290
sbasbasbasbag68
(g84
g70
NtRp3291
(dp3292
g73
(dp3293
sg82
g2986
sg75
(lp3294
g68
(g89
g70
NtRp3295
(dp3296
g73
(dp3297
g93
g94
ssg82
g3291
sg75
(lp3298
S'headers'
p3299
asbag68
(g89
g70
NtRp3300
(dp3301
g73
(dp3302
g100
g101
ssg82
g3291
sg75
(lp3303
S':'
asbag68
(g89
g70
NtRp3304
(dp3305
g73
(dp3306
sg82
g3291
sg75
(lp3307
g68
(g69
g70
NtRp3308
(dp3309
g73
(dp3310
g81
I5
ssg82
g3304
sg75
(lp3311
g68
(g77
g70
NtRp3312
(dp3313
g73
(dp3314
g81
I4
ssg82
Nsg75
(lp3315
g68
(g84
g70
NtRp3316
(dp3317
g73
(dp3318
sg82
g3312
sg75
(lp3319
g68
(g89
g70
NtRp3320
(dp3321
g73
(dp3322
g93
g94
ssg82
g3316
sg75
(lp3323
S'Cache-Control'
p3324
asbag68
(g89
g70
NtRp3325
(dp3326
g73
(dp3327
g100
g101
ssg82
g3316
sg75
(lp3328
S':'
asbag68
(g89
g70
NtRp3329
(dp3330
g73
(dp3331
sg82
g3316
sg75
(lp3332
g68
(g69
g70
NtRp3333
(dp3334
g73
(dp3335
g81
I4
ssg82
g3329
sg75
(lp3336
S'no-store, no-cache, must-revalidate, post-check=0, pre-check=0'
p3337
asbasbasbag68
(g84
g70
NtRp3338
(dp3339
g73
(dp3340
sg82
g3312
sg75
(lp3341
g68
(g89
g70
NtRp3342
(dp3343
g73
(dp3344
g93
g94
ssg82
g3338
sg75
(lp3345
S'Content-Type'
p3346
asbag68
(g89
g70
NtRp3347
(dp3348
g73
(dp3349
g100
g101
ssg82
g3338
sg75
(lp3350
S':'
asbag68
(g89
g70
NtRp3351
(dp3352
g73
(dp3353
sg82
g3338
sg75
(lp3354
g68
(g69
g70
NtRp3355
(dp3356
g73
(dp3357
g81
I4
ssg82
g3351
sg75
(lp3358
S'text/html; charset=utf-8'
p3359
asbasbasbag68
(g84
g70
NtRp3360
(dp3361
g73
(dp3362
sg82
g3312
sg75
(lp3363
g68
(g89
g70
NtRp3364
(dp3365
g73
(dp3366
g93
g94
ssg82
g3360
sg75
(lp3367
S'Expires'
p3368
asbag68
(g89
g70
NtRp3369
(dp3370
g73
(dp3371
g100
g101
ssg82
g3360
sg75
(lp3372
S':'
asbag68
(g89
g70
NtRp3373
(dp3374
g73
(dp3375
sg82
g3360
sg75
(lp3376
g68
(g69
g70
NtRp3377
(dp3378
g73
(dp3379
g81
I4
ssg82
g3373
sg75
(lp3380
S'Sun, 28 Aug 2011 12:54:27 GMT'
p3381
asbasbasbag68
(g84
g70
NtRp3382
(dp3383
g73
(dp3384
sg82
g3312
sg75
(lp3385
g68
(g89
g70
NtRp3386
(dp3387
g73
(dp3388
g93
g94
ssg82
g3382
sg75
(lp3389
S'Pragma'
p3390
asbag68
(g89
g70
NtRp3391
(dp3392
g73
(dp3393
g100
g101
ssg82
g3382
sg75
(lp3394
S':'
asbag68
(g89
g70
NtRp3395
(dp3396
g73
(dp3397
sg82
g3382
sg75
(lp3398
g68
(g69
g70
NtRp3399
(dp3400
g73
(dp3401
g81
I4
ssg82
g3395
sg75
(lp3402
S'no-cache'
p3403
asbasbasbag68
(g84
g70
NtRp3404
(dp3405
g73
(dp3406
sg82
g3312
sg75
(lp3407
g68
(g89
g70
NtRp3408
(dp3409
g73
(dp3410
g93
g94
ssg82
g3404
sg75
(lp3411
S'X-Powered-By'
p3412
asbag68
(g89
g70
NtRp3413
(dp3414
g73
(dp3415
g100
g101
ssg82
g3404
sg75
(lp3416
S':'
asbag68
(g89
g70
NtRp3417
(dp3418
g73
(dp3419
sg82
g3404
sg75
(lp3420
g68
(g69
g70
NtRp3421
(dp3422
g73
(dp3423
g81
I4
ssg82
g3417
sg75
(lp3424
S'web2py'
p3425
asbasbasbasbasbasbasbag68
(g84
g70
NtRp3426
(dp3427
g73
(dp3428
sg82
g2986
sg75
(lp3429
g68
(g89
g70
NtRp3430
(dp3431
g73
(dp3432
g93
g94
ssg82
g3426
sg75
(lp3433
S'menu'
p3434
asbag68
(g89
g70
NtRp3435
(dp3436
g73
(dp3437
g100
g101
ssg82
g3426
sg75
(lp3438
S':'
asbag68
(g89
g70
NtRp3439
(dp3440
g73
(dp3441
sg82
g3426
sg75
(lp3442
g68
(g69
g70
NtRp3443
(dp3444
g73
(dp3445
g81
I5
ssg82
g3439
sg75
(lp3446
g68
(g77
g70
NtRp3447
(dp3448
g73
(dp3449
g81
I4
ssg82
Nsg75
(lp3450
g68
(g84
g70
NtRp3451
(dp3452
g73
(dp3453
sg82
g3447
sg75
(lp3454
g68
(g89
g70
NtRp3455
(dp3456
g73
(dp3457
sg82
g3451
sg75
(lp3458
g68
(g69
g70
NtRp3459
(dp3460
g73
(dp3461
g81
I4
ssg82
g3455
sg75
(lp3462
g68
(g77
g70
NtRp3463
(dp3464
g73
(dp3465
g81
I3
ssg82
Nsg75
(lp3466
g68
(g84
g70
NtRp3467
(dp3468
g73
(dp3469
sg82
g3463
sg75
(lp3470
g68
(g89
g70
NtRp3471
(dp3472
g73
(dp3473
sg82
g3467
sg75
(lp3474
g68
(g69
g70
NtRp3475
(dp3476
g73
(dp3477
g81
I3
ssg82
g3471
sg75
(lp3478
cgluon.languages
lazyT_unpickle
p3479
(S't\x05\x00\x00\x00Index'
tRp3480
asbasbasbag68
(g84
g70
NtRp3481
(dp3482
g73
(dp3483
sg82
g3463
sg75
(lp3484
g68
(g89
g70
NtRp3485
(dp3486
g73
(dp3487
sg82
g3481
sg75
(lp3488
g68
(g69
g70
NtRp3489
(dp3490
g73
(dp3491
g81
I3
ssg82
g3485
sg75
(lp3492
g1949
asbasbasbag68
(g84
g70
NtRp3493
(dp3494
g73
(dp3495
sg82
g3463
sg75
(lp3496
g68
(g89
g70
NtRp3497
(dp3498
g73
(dp3499
sg82
g3493
sg75
(lp3500
g68
(g69
g70
NtRp3501
(dp3502
g73
(dp3503
g81
I3
ssg82
g3497
sg75
(lp3504
S'/init/default/index'
p3505
asbasbasbag68
(g84
g70
NtRp3506
(dp3507
g73
(dp3508
sg82
g3463
sg75
(lp3509
g68
(g89
g70
NtRp3510
(dp3511
g73
(dp3512
sg82
g3506
sg75
(lp3513
g68
(g69
g70
NtRp3514
(dp3515
g73
(dp3516
g81
I3
ssg82
g3510
sg75
(lp3517
g68
(g77
g70
NtRp3518
(dp3519
g73
(dp3520
g81
I2
ssg82
Nsg75
(lp3521
sbasbasbasbasbasbasbasbag68
(g84
g70
NtRp3522
(dp3523
g73
(dp3524
sg82
g3447
sg75
(lp3525
g68
(g89
g70
NtRp3526
(dp3527
g73
(dp3528
sg82
g3522
sg75
(lp3529
g68
(g69
g70
NtRp3530
(dp3531
g73
(dp3532
g81
I4
ssg82
g3526
sg75
(lp3533
g68
(g77
g70
NtRp3534
(dp3535
g73
(dp3536
g81
I3
ssg82
Nsg75
(lp3537
g68
(g84
g70
NtRp3538
(dp3539
g73
(dp3540
sg82
g3534
sg75
(lp3541
g68
(g89
g70
NtRp3542
(dp3543
g73
(dp3544
sg82
g3538
sg75
(lp3545
g68
(g69
g70
NtRp3546
(dp3547
g73
(dp3548
g81
I3
ssg82
g3542
sg75
(lp3549
g3479
(S't\n\x00\x00\x00Submission'
tRp3550
asbasbasbag68
(g84
g70
NtRp3551
(dp3552
g73
(dp3553
sg82
g3534
sg75
(lp3554
g68
(g89
g70
NtRp3555
(dp3556
g73
(dp3557
sg82
g3551
sg75
(lp3558
g68
(g69
g70
NtRp3559
(dp3560
g73
(dp3561
g81
I3
ssg82
g3555
sg75
(lp3562
g111
asbasbasbag68
(g84
g70
NtRp3563
(dp3564
g73
(dp3565
sg82
g3534
sg75
(lp3566
g68
(g89
g70
NtRp3567
(dp3568
g73
(dp3569
sg82
g3563
sg75
(lp3570
g68
(g69
g70
NtRp3571
(dp3572
g73
(dp3573
g81
I3
ssg82
g3567
sg75
(lp3574
S'/init/default/submission'
p3575
asbasbasbag68
(g84
g70
NtRp3576
(dp3577
g73
(dp3578
sg82
g3534
sg75
(lp3579
g68
(g89
g70
NtRp3580
(dp3581
g73
(dp3582
sg82
g3576
sg75
(lp3583
g68
(g69
g70
NtRp3584
(dp3585
g73
(dp3586
g81
I3
ssg82
g3580
sg75
(lp3587
g68
(g77
g70
NtRp3588
(dp3589
g73
(dp3590
g81
I2
ssg82
Nsg75
(lp3591
sbasbasbasbasbasbasbasbag68
(g84
g70
NtRp3592
(dp3593
g73
(dp3594
sg82
g3447
sg75
(lp3595
g68
(g89
g70
NtRp3596
(dp3597
g73
(dp3598
sg82
g3592
sg75
(lp3599
g68
(g69
g70
NtRp3600
(dp3601
g73
(dp3602
g81
I4
ssg82
g3596
sg75
(lp3603
g68
(g77
g70
NtRp3604
(dp3605
g73
(dp3606
g81
I3
ssg82
Nsg75
(lp3607
g68
(g84
g70
NtRp3608
(dp3609
g73
(dp3610
sg82
g3604
sg75
(lp3611
g68
(g89
g70
NtRp3612
(dp3613
g73
(dp3614
sg82
g3608
sg75
(lp3615
g68
(g69
g70
NtRp3616
(dp3617
g73
(dp3618
g81
I3
ssg82
g3612
sg75
(lp3619
g3479
(S't\x06\x00\x00\x00Tulips'
tRp3620
asbasbasbag68
(g84
g70
NtRp3621
(dp3622
g73
(dp3623
sg82
g3604
sg75
(lp3624
g68
(g89
g70
NtRp3625
(dp3626
g73
(dp3627
sg82
g3621
sg75
(lp3628
g68
(g69
g70
NtRp3629
(dp3630
g73
(dp3631
g81
I3
ssg82
g3625
sg75
(lp3632
g111
asbasbasbag68
(g84
g70
NtRp3633
(dp3634
g73
(dp3635
sg82
g3604
sg75
(lp3636
g68
(g89
g70
NtRp3637
(dp3638
g73
(dp3639
sg82
g3633
sg75
(lp3640
g68
(g69
g70
NtRp3641
(dp3642
g73
(dp3643
g81
I3
ssg82
g3637
sg75
(lp3644
S'/init/default/tulip'
p3645
asbasbasbag68
(g84
g70
NtRp3646
(dp3647
g73
(dp3648
sg82
g3604
sg75
(lp3649
g68
(g89
g70
NtRp3650
(dp3651
g73
(dp3652
sg82
g3646
sg75
(lp3653
g68
(g69
g70
NtRp3654
(dp3655
g73
(dp3656
g81
I3
ssg82
g3650
sg75
(lp3657
g68
(g77
g70
NtRp3658
(dp3659
g73
(dp3660
g81
I2
ssg82
Nsg75
(lp3661
sbasbasbasbasbasbasbasbasbasbasbasbag68
(g84
g70
NtRp3662
(dp3663
g73
(dp3664
sg82
g2986
sg75
(lp3665
g68
(g89
g70
NtRp3666
(dp3667
g73
(dp3668
g93
g94
ssg82
g3662
sg75
(lp3669
S'meta'
p3670
asbag68
(g89
g70
NtRp3671
(dp3672
g73
(dp3673
g100
g101
ssg82
g3662
sg75
(lp3674
S':'
asbag68
(g89
g70
NtRp3675
(dp3676
g73
(dp3677
sg82
g3662
sg75
(lp3678
g68
(g69
g70
NtRp3679
(dp3680
g73
(dp3681
g81
I5
ssg82
g3675
sg75
(lp3682
g68
(g77
g70
NtRp3683
(dp3684
g73
(dp3685
g81
I4
ssg82
Nsg75
(lp3686
g68
(g84
g70
NtRp3687
(dp3688
g73
(dp3689
sg82
g3683
sg75
(lp3690
g68
(g89
g70
NtRp3691
(dp3692
g73
(dp3693
g93
g94
ssg82
g3687
sg75
(lp3694
S'author'
p3695
asbag68
(g89
g70
NtRp3696
(dp3697
g73
(dp3698
g100
g101
ssg82
g3687
sg75
(lp3699
S':'
asbag68
(g89
g70
NtRp3700
(dp3701
g73
(dp3702
sg82
g3687
sg75
(lp3703
g68
(g69
g70
NtRp3704
(dp3705
g73
(dp3706
g81
I4
ssg82
g3700
sg75
(lp3707
S'RGC <info@globaleaks.org>'
p3708
asbasbasbag68
(g84
g70
NtRp3709
(dp3710
g73
(dp3711
sg82
g3683
sg75
(lp3712
g68
(g89
g70
NtRp3713
(dp3714
g73
(dp3715
g93
g94
ssg82
g3709
sg75
(lp3716
S'description'
p3717
asbag68
(g89
g70
NtRp3718
(dp3719
g73
(dp3720
g100
g101
ssg82
g3709
sg75
(lp3721
S':'
asbag68
(g89
g70
NtRp3722
(dp3723
g73
(dp3724
sg82
g3709
sg75
(lp3725
g68
(g69
g70
NtRp3726
(dp3727
g73
(dp3728
g81
I4
ssg82
g3722
sg75
(lp3729
S''
asbasbasbag68
(g84
g70
NtRp3730
(dp3731
g73
(dp3732
sg82
g3683
sg75
(lp3733
g68
(g89
g70
NtRp3734
(dp3735
g73
(dp3736
g93
g94
ssg82
g3730
sg75
(lp3737
S'keywords'
p3738
asbag68
(g89
g70
NtRp3739
(dp3740
g73
(dp3741
g100
g101
ssg82
g3730
sg75
(lp3742
S':'
asbag68
(g89
g70
NtRp3743
(dp3744
g73
(dp3745
sg82
g3730
sg75
(lp3746
g68
(g69
g70
NtRp3747
(dp3748
g73
(dp3749
g81
I4
ssg82
g3743
sg75
(lp3750
S''
asbasbasbasbasbasbasbag68
(g84
g70
NtRp3751
(dp3752
g73
(dp3753
sg82
g2986
sg75
(lp3754
g68
(g89
g70
NtRp3755
(dp3756
g73
(dp3757
g93
g94
ssg82
g3751
sg75
(lp3758
S'postprocessing'
p3759
asbag68
(g89
g70
NtRp3760
(dp3761
g73
(dp3762
g100
g101
ssg82
g3751
sg75
(lp3763
S':'
asbag68
(g89
g70
NtRp3764
(dp3765
g73
(dp3766
sg82
g3751
sg75
(lp3767
g68
(g69
g70
NtRp3768
(dp3769
g73
(dp3770
g81
I5
ssg82
g3764
sg75
(lp3771
g68
(g77
g70
NtRp3772
(dp3773
g73
(dp3774
g81
I4
ssg82
Nsg75
(lp3775
sbasbasbasbag68
(g84
g70
NtRp3776
(dp3777
g73
(dp3778
sg82
g2986
sg75
(lp3779
g68
(g89
g70
NtRp3780
(dp3781
g73
(dp3782
g93
g94
ssg82
g3776
sg75
(lp3783
S'session_file'
p3784
asbag68
(g89
g70
NtRp3785
(dp3786
g73
(dp3787
g100
g101
ssg82
g3776
sg75
(lp3788
S':'
asbag68
(g89
g70
NtRp3789
(dp3790
g73
(dp3791
sg82
g3776
sg75
(lp3792
g68
(g69
g70
NtRp3793
(dp3794
g73
(dp3795
g81
I5
ssg82
g3789
sg75
(lp3796
S"<open file '/Users/hellais/Documents/code/mygit/globaleaks/webapp/applications/init/sessions/127.0.0.1-144deeb4-6d5c-4579-bdd3-3d9d5085abd2', mode 'rb+' at 0x101d3fed0>"
p3797
asbasbasbag68
(g84
g70
NtRp3798
(dp3799
g73
(dp3800
sg82
g2986
sg75
(lp3801
g68
(g89
g70
NtRp3802
(dp3803
g73
(dp3804
g93
g94
ssg82
g3798
sg75
(lp3805
S'session_filename'
p3806
asbag68
(g89
g70
NtRp3807
(dp3808
g73
(dp3809
g100
g101
ssg82
g3798
sg75
(lp3810
S':'
asbag68
(g89
g70
NtRp3811
(dp3812
g73
(dp3813
sg82
g3798
sg75
(lp3814
g68
(g69
g70
NtRp3815
(dp3816
g73
(dp3817
g81
I5
ssg82
g3811
sg75
(lp3818
S'/Users/hellais/Documents/code/mygit/globaleaks/webapp/applications/init/sessions/127.0.0.1-144deeb4-6d5c-4579-bdd3-3d9d5085abd2'
p3819
asbasbasbag68
(g84
g70
NtRp3820
(dp3821
g73
(dp3822
sg82
g2986
sg75
(lp3823
g68
(g89
g70
NtRp3824
(dp3825
g73
(dp3826
g93
g94
ssg82
g3820
sg75
(lp3827
S'session_id'
p3828
asbag68
(g89
g70
NtRp3829
(dp3830
g73
(dp3831
g100
g101
ssg82
g3820
sg75
(lp3832
S':'
asbag68
(g89
g70
NtRp3833
(dp3834
g73
(dp3835
sg82
g3820
sg75
(lp3836
g68
(g69
g70
NtRp3837
(dp3838
g73
(dp3839
g81
I5
ssg82
g3833
sg75
(lp3840
S'127.0.0.1-144deeb4-6d5c-4579-bdd3-3d9d5085abd2'
p3841
asbasbasbag68
(g84
g70
NtRp3842
(dp3843
g73
(dp3844
sg82
g2986
sg75
(lp3845
g68
(g89
g70
NtRp3846
(dp3847
g73
(dp3848
g93
g94
ssg82
g3842
sg75
(lp3849
S'session_id_name'
p3850
asbag68
(g89
g70
NtRp3851
(dp3852
g73
(dp3853
g100
g101
ssg82
g3842
sg75
(lp3854
S':'
asbag68
(g89
g70
NtRp3855
(dp3856
g73
(dp3857
sg82
g3842
sg75
(lp3858
g68
(g69
g70
NtRp3859
(dp3860
g73
(dp3861
g81
I5
ssg82
g3855
sg75
(lp3862
g3043
asbasbasbag68
(g84
g70
NtRp3863
(dp3864
g73
(dp3865
sg82
g2986
sg75
(lp3866
g68
(g89
g70
NtRp3867
(dp3868
g73
(dp3869
g93
g94
ssg82
g3863
sg75
(lp3870
S'session_locked'
p3871
asbag68
(g89
g70
NtRp3872
(dp3873
g73
(dp3874
g100
g101
ssg82
g3863
sg75
(lp3875
S':'
asbag68
(g89
g70
NtRp3876
(dp3877
g73
(dp3878
sg82
g3863
sg75
(lp3879
g68
(g69
g70
NtRp3880
(dp3881
g73
(dp3882
g81
I5
ssg82
g3876
sg75
(lp3883
g1949
asbasbasbag68
(g84
g70
NtRp3884
(dp3885
g73
(dp3886
sg82
g2986
sg75
(lp3887
g68
(g89
g70
NtRp3888
(dp3889
g73
(dp3890
g93
g94
ssg82
g3884
sg75
(lp3891
S'session_new'
p3892
asbag68
(g89
g70
NtRp3893
(dp3894
g73
(dp3895
g100
g101
ssg82
g3884
sg75
(lp3896
S':'
asbag68
(g89
g70
NtRp3897
(dp3898
g73
(dp3899
sg82
g3884
sg75
(lp3900
g68
(g69
g70
NtRp3901
(dp3902
g73
(dp3903
g81
I5
ssg82
g3897
sg75
(lp3904
g111
asbasbasbag68
(g84
g70
NtRp3905
(dp3906
g73
(dp3907
sg82
g2986
sg75
(lp3908
g68
(g89
g70
NtRp3909
(dp3910
g73
(dp3911
g93
g94
ssg82
g3905
sg75
(lp3912
S'status'
p3913
asbag68
(g89
g70
NtRp3914
(dp3915
g73
(dp3916
g100
g101
ssg82
g3905
sg75
(lp3917
S':'
asbag68
(g89
g70
NtRp3918
(dp3919
g73
(dp3920
sg82
g3905
sg75
(lp3921
g68
(g69
g70
NtRp3922
(dp3923
g73
(dp3924
g81
I5
ssg82
g3918
sg75
(lp3925
S'200'
p3926
asbasbasbag68
(g84
g70
NtRp3927
(dp3928
g73
(dp3929
sg82
g2986
sg75
(lp3930
g68
(g89
g70
NtRp3931
(dp3932
g73
(dp3933
g93
g94
ssg82
g3927
sg75
(lp3934
S'subtitle'
p3935
asbag68
(g89
g70
NtRp3936
(dp3937
g73
(dp3938
g100
g101
ssg82
g3927
sg75
(lp3939
S':'
asbag68
(g89
g70
NtRp3940
(dp3941
g73
(dp3942
sg82
g3927
sg75
(lp3943
g68
(g69
g70
NtRp3944
(dp3945
g73
(dp3946
g81
I5
ssg82
g3940
sg75
(lp3947
S'Open Source Whistleblowing Platform'
p3948
asbasbasbag68
(g84
g70
NtRp3949
(dp3950
g73
(dp3951
sg82
g2986
sg75
(lp3952
g68
(g89
g70
NtRp3953
(dp3954
g73
(dp3955
g93
g94
ssg82
g3949
sg75
(lp3956
S'title'
p3957
asbag68
(g89
g70
NtRp3958
(dp3959
g73
(dp3960
g100
g101
ssg82
g3949
sg75
(lp3961
S':'
asbag68
(g89
g70
NtRp3962
(dp3963
g73
(dp3964
sg82
g3949
sg75
(lp3965
g68
(g69
g70
NtRp3966
(dp3967
g73
(dp3968
g81
I5
ssg82
g3962
sg75
(lp3969
S'GlobaLeaks'
p3970
asbasbasbag68
(g84
g70
NtRp3971
(dp3972
g73
(dp3973
sg82
g2986
sg75
(lp3974
g68
(g89
g70
NtRp3975
(dp3976
g73
(dp3977
g93
g94
ssg82
g3971
sg75
(lp3978
g2273
asbag68
(g89
g70
NtRp3979
(dp3980
g73
(dp3981
g100
g101
ssg82
g3971
sg75
(lp3982
S':'
asbag68
(g89
g70
NtRp3983
(dp3984
g73
(dp3985
sg82
g3971
sg75
(lp3986
g68
(g69
g70
NtRp3987
(dp3988
g73
(dp3989
g81
I5
ssg82
g3983
sg75
(lp3990
g2286
asbasbasbag68
(g84
g70
NtRp3991
(dp3992
g73
(dp3993
sg82
g2986
sg75
(lp3994
g68
(g89
g70
NtRp3995
(dp3996
g73
(dp3997
g93
g94
ssg82
g3991
sg75
(lp3998
S'view'
p3999
asbag68
(g89
g70
NtRp4000
(dp4001
g73
(dp4002
g100
g101
ssg82
g3991
sg75
(lp4003
S':'
asbag68
(g89
g70
NtRp4004
(dp4005
g73
(dp4006
sg82
g3991
sg75
(lp4007
g68
(g69
g70
NtRp4008
(dp4009
g73
(dp4010
g81
I5
ssg82
g4004
sg75
(lp4011
S'default/index.html'
p4012
asbasbasbasbasbsS'locals'
p4013
(dp4014
g3
S"'/Users/hellais/Documents/code/mygit/globaleaks/webapp/applications/init/controllers/default.py'"
p4015
sg5
S"'# -*- coding: utf-8 -*-\\n### required - do no del...n dict()\\n\\nresponse._vars=response._caller(index)\\n'"
p4016
sssS'traceback'
p4017
S'Traceback (most recent call last):\n  File "/opt/local/Library/Frameworks/Python.framework/Versions/2.7/lib/python2.7/gluon/restricted.py", line 191, in restricted\n    ccode = compile2(code,layer)\n  File "/opt/local/Library/Frameworks/Python.framework/Versions/2.7/lib/python2.7/gluon/restricted.py", line 178, in compile2\n    return compile(code.rstrip().replace(\'\\r\\n\',\'\\n\')+\'\\n\', layer, \'exec\')\n  File "/Users/hellais/Documents/code/mygit/globaleaks/webapp/applications/init/controllers/default.py", line 73\n    tulip_allowed_downloads=t.allowed_downloads)\n                                               ^\nSyntaxError: invalid syntax\n'
p4018
s.