(dp1
S'output'
p2
S''
sS'layer'
p3
S'/Users/hellais/Documents/code/mygit/globaleaks/webapp/applications/init/controllers/default.py'
p4
sS'code'
p5
S'# -*- coding: utf-8 -*-\n### required - do no delete\ndef user(): return dict(form=auth())\ndef download(): return response.download(request,db)\ndef call():\n    session.forget()\n    return service()\n### end requires\ndef index():\n    return dict(message=T("Hello World, I am GlobaLeaks!"))\n\ndef submission():\n    form_content = (Field(\'Title\', requires=IS_NOT_EMPTY()),\n                    Field(\'Description\', \'text\', requires=IS_NOT_EMPTY()),\n                    Field(\'Tags\'),Field(\'material\', \'upload\', uploadfolder="uploads/"),\n                    Field(\'dislaimer\', \'boolean\', requires=IS_EQUAL_TO("on", error_message="Please read the disclaimer")))\n   \n    form = SQLFORM.factory(*form_content)\n    \n    if form.accepts(request.vars, session):\n        l = request.vars\n        leak_id = gl.create_leak(l.Title, l.Description, None, None,\n                {"Al Jazeera":10 , "CNN":20, "Leaker":0}, l.Tags)\n        \n        #response.flash = \'form accepted\'\n        leak = Leak(leak_id)\n\n        #FIXME do this better...\n        tulips = []\n        for tulip in leak.tulips:\n            if tulip.target=="Leaker":\n                leaker_tulip = tulip.url\n            else:\n                tulips.append((tulip.url, tulip.target))\n            \n        return dict(leak_id=leak_id, tulip=tulip.url, form=None, tulips=tulips)\n    elif form.errors:\n        response.flash = \'form has errors\'\n    else:\n        response.flash = \'please fill the form\'        \n    \n    return dict(form=form, leak_id=None, tulip=None, tulips=None)\n\ndef tulip():\n    tulip_url = request.args[0]\n    t = Tulip(url=tulip_url)\n    leak = t.get_leak()\n    t.downloads_counter = t.downloads_counter + 1\n    return dict(leak_title=leak.title,\n                leak_tags=leak.tags,\n                leak_desc=leak.desc,\n                leak_material=leak.material,\n                tulip_downloads=t.downloads_counter,\n                tulip_allowed_downloads=t.allowed_downloads)\n\ndef error():\n    return dict()\n\nresponse._vars=response._caller(tulip)\n'
p6
sS'snapshot'
p7
(dp8
S'exception'
p9
(dp10
S'__hash__'
p11
S"<method-wrapper '__hash__' of exceptions.TypeError object>"
p12
sS'__setattr__'
p13
S"<method-wrapper '__setattr__' of exceptions.TypeError object>"
p14
sS'__reduce_ex__'
p15
S'<built-in method __reduce_ex__ of exceptions.TypeError object>'
p16
sS'__getslice__'
p17
S"<method-wrapper '__getslice__' of exceptions.TypeError object>"
p18
sS'__getitem__'
p19
S"<method-wrapper '__getitem__' of exceptions.TypeError object>"
p20
sS'__setstate__'
p21
S'<built-in method __setstate__ of exceptions.TypeError object>'
p22
sS'args'
p23
S'("cannot concatenate \'str\' and \'int\' objects",)'
p24
sS'__reduce__'
p25
S'<built-in method __reduce__ of exceptions.TypeError object>'
p26
sS'__str__'
p27
S"<method-wrapper '__str__' of exceptions.TypeError object>"
p28
sS'__format__'
p29
S'<built-in method __format__ of exceptions.TypeError object>'
p30
sS'__getattribute__'
p31
S"<method-wrapper '__getattribute__' of exceptions.TypeError object>"
p32
sS'__class__'
p33
S"<type 'exceptions.TypeError'>"
p34
sS'__unicode__'
p35
S'<built-in method __unicode__ of exceptions.TypeError object>'
p36
sS'__delattr__'
p37
S"<method-wrapper '__delattr__' of exceptions.TypeError object>"
p38
sS'__subclasshook__'
p39
S'<built-in method __subclasshook__ of type object>'
p40
sS'__repr__'
p41
S"<method-wrapper '__repr__' of exceptions.TypeError object>"
p42
sS'__dict__'
p43
S'{}'
p44
sS'__sizeof__'
p45
S'<built-in method __sizeof__ of exceptions.TypeError object>'
p46
sS'__doc__'
p47
S"'Inappropriate argument type.'"
p48
sS'__init__'
p49
S"<method-wrapper '__init__' of exceptions.TypeError object>"
p50
sS'__new__'
p51
S'<built-in method __new__ of type object>'
p52
ssS'evalue'
p53
S"cannot concatenate 'str' and 'int' objects"
p54
sS'request'
p55
ccopy_reg
_reconstructor
p56
(cgluon.html
BEAUTIFY
p57
c__builtin__
object
p58
NtRp59
(dp60
S'attributes'
p61
(dp62
sS'components'
p63
(lp64
g56
(cgluon.html
TABLE
p65
g58
NtRp66
(dp67
g61
(dp68
S'level'
p69
I5
ssS'parent'
p70
Nsg63
(lp71
g56
(cgluon.html
TR
p72
g58
NtRp73
(dp74
g61
(dp75
sg70
g66
sg63
(lp76
g56
(cgluon.html
TD
p77
g58
NtRp78
(dp79
g61
(dp80
S'_style'
p81
S'font-weight:bold;'
p82
ssg70
g73
sg63
(lp83
S'ajax'
p84
asbag56
(g77
g58
NtRp85
(dp86
g61
(dp87
S'_valign'
p88
S'top'
p89
ssg70
g73
sg63
(lp90
S':'
asbag56
(g77
g58
NtRp91
(dp92
g61
(dp93
sg70
g73
sg63
(lp94
g56
(g57
g58
NtRp95
(dp96
g61
(dp97
g69
I5
ssg70
g91
sg63
(lp98
S'False'
p99
asbasbasbag56
(g72
g58
NtRp100
(dp101
g61
(dp102
sg70
g66
sg63
(lp103
g56
(g77
g58
NtRp104
(dp105
g61
(dp106
g81
g82
ssg70
g100
sg63
(lp107
S'application'
p108
asbag56
(g77
g58
NtRp109
(dp110
g61
(dp111
g88
g89
ssg70
g100
sg63
(lp112
S':'
asbag56
(g77
g58
NtRp113
(dp114
g61
(dp115
sg70
g100
sg63
(lp116
g56
(g57
g58
NtRp117
(dp118
g61
(dp119
g69
I5
ssg70
g113
sg63
(lp120
S'init'
p121
asbasbasbag56
(g72
g58
NtRp122
(dp123
g61
(dp124
sg70
g66
sg63
(lp125
g56
(g77
g58
NtRp126
(dp127
g61
(dp128
g81
g82
ssg70
g122
sg63
(lp129
g23
asbag56
(g77
g58
NtRp130
(dp131
g61
(dp132
g88
g89
ssg70
g122
sg63
(lp133
S':'
asbag56
(g77
g58
NtRp134
(dp135
g61
(dp136
sg70
g122
sg63
(lp137
g56
(g57
g58
NtRp138
(dp139
g61
(dp140
g69
I5
ssg70
g134
sg63
(lp141
g56
(g65
g58
NtRp142
(dp143
g61
(dp144
g69
I4
ssg70
Nsg63
(lp145
g56
(g72
g58
NtRp146
(dp147
g61
(dp148
sg70
g142
sg63
(lp149
g56
(g77
g58
NtRp150
(dp151
g61
(dp152
sg70
g146
sg63
(lp153
g56
(g57
g58
NtRp154
(dp155
g61
(dp156
g69
I4
ssg70
g150
sg63
(lp157
S'cd48f6a321cafd02837cd2b0c90337f847737385f99a1d84833fa80f523f544d'
p158
asbasbasbasbasbasbasbag56
(g72
g58
NtRp159
(dp160
g61
(dp161
sg70
g66
sg63
(lp162
g56
(g77
g58
NtRp163
(dp164
g61
(dp165
g81
g82
ssg70
g159
sg63
(lp166
S'body'
p167
asbag56
(g77
g58
NtRp168
(dp169
g61
(dp170
g88
g89
ssg70
g159
sg63
(lp171
S':'
asbag56
(g77
g58
NtRp172
(dp173
g61
(dp174
sg70
g159
sg63
(lp175
g56
(g57
g58
NtRp176
(dp177
g61
(dp178
g69
I5
ssg70
g172
sg63
(lp179
S'<cStringIO.StringO object at 0x101eadce0>'
p180
asbasbasbag56
(g72
g58
NtRp181
(dp182
g61
(dp183
sg70
g66
sg63
(lp184
g56
(g77
g58
NtRp185
(dp186
g61
(dp187
g81
g82
ssg70
g181
sg63
(lp188
S'client'
p189
asbag56
(g77
g58
NtRp190
(dp191
g61
(dp192
g88
g89
ssg70
g181
sg63
(lp193
S':'
asbag56
(g77
g58
NtRp194
(dp195
g61
(dp196
sg70
g181
sg63
(lp197
g56
(g57
g58
NtRp198
(dp199
g61
(dp200
g69
I5
ssg70
g194
sg63
(lp201
S'127.0.0.1'
p202
asbasbasbag56
(g72
g58
NtRp203
(dp204
g61
(dp205
sg70
g66
sg63
(lp206
g56
(g77
g58
NtRp207
(dp208
g61
(dp209
g81
g82
ssg70
g203
sg63
(lp210
S'controller'
p211
asbag56
(g77
g58
NtRp212
(dp213
g61
(dp214
g88
g89
ssg70
g203
sg63
(lp215
S':'
asbag56
(g77
g58
NtRp216
(dp217
g61
(dp218
sg70
g203
sg63
(lp219
g56
(g57
g58
NtRp220
(dp221
g61
(dp222
g69
I5
ssg70
g216
sg63
(lp223
S'default'
p224
asbasbasbag56
(g72
g58
NtRp225
(dp226
g61
(dp227
sg70
g66
sg63
(lp228
g56
(g77
g58
NtRp229
(dp230
g61
(dp231
g81
g82
ssg70
g225
sg63
(lp232
S'cookies'
p233
asbag56
(g77
g58
NtRp234
(dp235
g61
(dp236
g88
g89
ssg70
g225
sg63
(lp237
S':'
asbag56
(g77
g58
NtRp238
(dp239
g61
(dp240
sg70
g225
sg63
(lp241
g56
(g57
g58
NtRp242
(dp243
g61
(dp244
g69
I5
ssg70
g238
sg63
(lp245
g56
(g65
g58
NtRp246
(dp247
g61
(dp248
g69
I4
ssg70
Nsg63
(lp249
g56
(g72
g58
NtRp250
(dp251
g61
(dp252
sg70
g246
sg63
(lp253
g56
(g77
g58
NtRp254
(dp255
g61
(dp256
g81
g82
ssg70
g250
sg63
(lp257
S'session_id_admin'
p258
asbag56
(g77
g58
NtRp259
(dp260
g61
(dp261
g88
g89
ssg70
g250
sg63
(lp262
S':'
asbag56
(g77
g58
NtRp263
(dp264
g61
(dp265
sg70
g250
sg63
(lp266
g56
(g57
g58
NtRp267
(dp268
g61
(dp269
g69
I4
ssg70
g263
sg63
(lp270
g56
(g65
g58
NtRp271
(dp272
g61
(dp273
g69
I3
ssg70
Nsg63
(lp274
g56
(g72
g58
NtRp275
(dp276
g61
(dp277
sg70
g271
sg63
(lp278
g56
(g77
g58
NtRp279
(dp280
g61
(dp281
g81
g82
ssg70
g275
sg63
(lp282
S'comment'
p283
asbag56
(g77
g58
NtRp284
(dp285
g61
(dp286
g88
g89
ssg70
g275
sg63
(lp287
S':'
asbag56
(g77
g58
NtRp288
(dp289
g61
(dp290
sg70
g275
sg63
(lp291
g56
(g57
g58
NtRp292
(dp293
g61
(dp294
g69
I3
ssg70
g288
sg63
(lp295
S''
asbasbasbag56
(g72
g58
NtRp296
(dp297
g61
(dp298
sg70
g271
sg63
(lp299
g56
(g77
g58
NtRp300
(dp301
g61
(dp302
g81
g82
ssg70
g296
sg63
(lp303
S'domain'
p304
asbag56
(g77
g58
NtRp305
(dp306
g61
(dp307
g88
g89
ssg70
g296
sg63
(lp308
S':'
asbag56
(g77
g58
NtRp309
(dp310
g61
(dp311
sg70
g296
sg63
(lp312
g56
(g57
g58
NtRp313
(dp314
g61
(dp315
g69
I3
ssg70
g309
sg63
(lp316
S''
asbasbasbag56
(g72
g58
NtRp317
(dp318
g61
(dp319
sg70
g271
sg63
(lp320
g56
(g77
g58
NtRp321
(dp322
g61
(dp323
g81
g82
ssg70
g317
sg63
(lp324
S'expires'
p325
asbag56
(g77
g58
NtRp326
(dp327
g61
(dp328
g88
g89
ssg70
g317
sg63
(lp329
S':'
asbag56
(g77
g58
NtRp330
(dp331
g61
(dp332
sg70
g317
sg63
(lp333
g56
(g57
g58
NtRp334
(dp335
g61
(dp336
g69
I3
ssg70
g330
sg63
(lp337
S''
asbasbasbag56
(g72
g58
NtRp338
(dp339
g61
(dp340
sg70
g271
sg63
(lp341
g56
(g77
g58
NtRp342
(dp343
g61
(dp344
g81
g82
ssg70
g338
sg63
(lp345
S'httponly'
p346
asbag56
(g77
g58
NtRp347
(dp348
g61
(dp349
g88
g89
ssg70
g338
sg63
(lp350
S':'
asbag56
(g77
g58
NtRp351
(dp352
g61
(dp353
sg70
g338
sg63
(lp354
g56
(g57
g58
NtRp355
(dp356
g61
(dp357
g69
I3
ssg70
g351
sg63
(lp358
S''
asbasbasbag56
(g72
g58
NtRp359
(dp360
g61
(dp361
sg70
g271
sg63
(lp362
g56
(g77
g58
NtRp363
(dp364
g61
(dp365
g81
g82
ssg70
g359
sg63
(lp366
S'max-age'
p367
asbag56
(g77
g58
NtRp368
(dp369
g61
(dp370
g88
g89
ssg70
g359
sg63
(lp371
S':'
asbag56
(g77
g58
NtRp372
(dp373
g61
(dp374
sg70
g359
sg63
(lp375
g56
(g57
g58
NtRp376
(dp377
g61
(dp378
g69
I3
ssg70
g372
sg63
(lp379
S''
asbasbasbag56
(g72
g58
NtRp380
(dp381
g61
(dp382
sg70
g271
sg63
(lp383
g56
(g77
g58
NtRp384
(dp385
g61
(dp386
g81
g82
ssg70
g380
sg63
(lp387
S'path'
p388
asbag56
(g77
g58
NtRp389
(dp390
g61
(dp391
g88
g89
ssg70
g380
sg63
(lp392
S':'
asbag56
(g77
g58
NtRp393
(dp394
g61
(dp395
sg70
g380
sg63
(lp396
g56
(g57
g58
NtRp397
(dp398
g61
(dp399
g69
I3
ssg70
g393
sg63
(lp400
S''
asbasbasbag56
(g72
g58
NtRp401
(dp402
g61
(dp403
sg70
g271
sg63
(lp404
g56
(g77
g58
NtRp405
(dp406
g61
(dp407
g81
g82
ssg70
g401
sg63
(lp408
S'secure'
p409
asbag56
(g77
g58
NtRp410
(dp411
g61
(dp412
g88
g89
ssg70
g401
sg63
(lp413
S':'
asbag56
(g77
g58
NtRp414
(dp415
g61
(dp416
sg70
g401
sg63
(lp417
g56
(g57
g58
NtRp418
(dp419
g61
(dp420
g69
I3
ssg70
g414
sg63
(lp421
S''
asbasbasbag56
(g72
g58
NtRp422
(dp423
g61
(dp424
sg70
g271
sg63
(lp425
g56
(g77
g58
NtRp426
(dp427
g61
(dp428
g81
g82
ssg70
g422
sg63
(lp429
S'version'
p430
asbag56
(g77
g58
NtRp431
(dp432
g61
(dp433
g88
g89
ssg70
g422
sg63
(lp434
S':'
asbag56
(g77
g58
NtRp435
(dp436
g61
(dp437
sg70
g422
sg63
(lp438
g56
(g57
g58
NtRp439
(dp440
g61
(dp441
g69
I3
ssg70
g435
sg63
(lp442
S''
asbasbasbasbasbasbasbag56
(g72
g58
NtRp443
(dp444
g61
(dp445
sg70
g246
sg63
(lp446
g56
(g77
g58
NtRp447
(dp448
g61
(dp449
g81
g82
ssg70
g443
sg63
(lp450
S'session_id_globaleaks'
p451
asbag56
(g77
g58
NtRp452
(dp453
g61
(dp454
g88
g89
ssg70
g443
sg63
(lp455
S':'
asbag56
(g77
g58
NtRp456
(dp457
g61
(dp458
sg70
g443
sg63
(lp459
g56
(g57
g58
NtRp460
(dp461
g61
(dp462
g69
I4
ssg70
g456
sg63
(lp463
g56
(g65
g58
NtRp464
(dp465
g61
(dp466
g69
I3
ssg70
Nsg63
(lp467
g56
(g72
g58
NtRp468
(dp469
g61
(dp470
sg70
g464
sg63
(lp471
g56
(g77
g58
NtRp472
(dp473
g61
(dp474
g81
g82
ssg70
g468
sg63
(lp475
g283
asbag56
(g77
g58
NtRp476
(dp477
g61
(dp478
g88
g89
ssg70
g468
sg63
(lp479
S':'
asbag56
(g77
g58
NtRp480
(dp481
g61
(dp482
sg70
g468
sg63
(lp483
g56
(g57
g58
NtRp484
(dp485
g61
(dp486
g69
I3
ssg70
g480
sg63
(lp487
S''
asbasbasbag56
(g72
g58
NtRp488
(dp489
g61
(dp490
sg70
g464
sg63
(lp491
g56
(g77
g58
NtRp492
(dp493
g61
(dp494
g81
g82
ssg70
g488
sg63
(lp495
g304
asbag56
(g77
g58
NtRp496
(dp497
g61
(dp498
g88
g89
ssg70
g488
sg63
(lp499
S':'
asbag56
(g77
g58
NtRp500
(dp501
g61
(dp502
sg70
g488
sg63
(lp503
g56
(g57
g58
NtRp504
(dp505
g61
(dp506
g69
I3
ssg70
g500
sg63
(lp507
S''
asbasbasbag56
(g72
g58
NtRp508
(dp509
g61
(dp510
sg70
g464
sg63
(lp511
g56
(g77
g58
NtRp512
(dp513
g61
(dp514
g81
g82
ssg70
g508
sg63
(lp515
g325
asbag56
(g77
g58
NtRp516
(dp517
g61
(dp518
g88
g89
ssg70
g508
sg63
(lp519
S':'
asbag56
(g77
g58
NtRp520
(dp521
g61
(dp522
sg70
g508
sg63
(lp523
g56
(g57
g58
NtRp524
(dp525
g61
(dp526
g69
I3
ssg70
g520
sg63
(lp527
S''
asbasbasbag56
(g72
g58
NtRp528
(dp529
g61
(dp530
sg70
g464
sg63
(lp531
g56
(g77
g58
NtRp532
(dp533
g61
(dp534
g81
g82
ssg70
g528
sg63
(lp535
g346
asbag56
(g77
g58
NtRp536
(dp537
g61
(dp538
g88
g89
ssg70
g528
sg63
(lp539
S':'
asbag56
(g77
g58
NtRp540
(dp541
g61
(dp542
sg70
g528
sg63
(lp543
g56
(g57
g58
NtRp544
(dp545
g61
(dp546
g69
I3
ssg70
g540
sg63
(lp547
S''
asbasbasbag56
(g72
g58
NtRp548
(dp549
g61
(dp550
sg70
g464
sg63
(lp551
g56
(g77
g58
NtRp552
(dp553
g61
(dp554
g81
g82
ssg70
g548
sg63
(lp555
g367
asbag56
(g77
g58
NtRp556
(dp557
g61
(dp558
g88
g89
ssg70
g548
sg63
(lp559
S':'
asbag56
(g77
g58
NtRp560
(dp561
g61
(dp562
sg70
g548
sg63
(lp563
g56
(g57
g58
NtRp564
(dp565
g61
(dp566
g69
I3
ssg70
g560
sg63
(lp567
S''
asbasbasbag56
(g72
g58
NtRp568
(dp569
g61
(dp570
sg70
g464
sg63
(lp571
g56
(g77
g58
NtRp572
(dp573
g61
(dp574
g81
g82
ssg70
g568
sg63
(lp575
g388
asbag56
(g77
g58
NtRp576
(dp577
g61
(dp578
g88
g89
ssg70
g568
sg63
(lp579
S':'
asbag56
(g77
g58
NtRp580
(dp581
g61
(dp582
sg70
g568
sg63
(lp583
g56
(g57
g58
NtRp584
(dp585
g61
(dp586
g69
I3
ssg70
g580
sg63
(lp587
S''
asbasbasbag56
(g72
g58
NtRp588
(dp589
g61
(dp590
sg70
g464
sg63
(lp591
g56
(g77
g58
NtRp592
(dp593
g61
(dp594
g81
g82
ssg70
g588
sg63
(lp595
g409
asbag56
(g77
g58
NtRp596
(dp597
g61
(dp598
g88
g89
ssg70
g588
sg63
(lp599
S':'
asbag56
(g77
g58
NtRp600
(dp601
g61
(dp602
sg70
g588
sg63
(lp603
g56
(g57
g58
NtRp604
(dp605
g61
(dp606
g69
I3
ssg70
g600
sg63
(lp607
S''
asbasbasbag56
(g72
g58
NtRp608
(dp609
g61
(dp610
sg70
g464
sg63
(lp611
g56
(g77
g58
NtRp612
(dp613
g61
(dp614
g81
g82
ssg70
g608
sg63
(lp615
g430
asbag56
(g77
g58
NtRp616
(dp617
g61
(dp618
g88
g89
ssg70
g608
sg63
(lp619
S':'
asbag56
(g77
g58
NtRp620
(dp621
g61
(dp622
sg70
g608
sg63
(lp623
g56
(g57
g58
NtRp624
(dp625
g61
(dp626
g69
I3
ssg70
g620
sg63
(lp627
S''
asbasbasbasbasbasbasbag56
(g72
g58
NtRp628
(dp629
g61
(dp630
sg70
g246
sg63
(lp631
g56
(g77
g58
NtRp632
(dp633
g61
(dp634
g81
g82
ssg70
g628
sg63
(lp635
S'session_id_init'
p636
asbag56
(g77
g58
NtRp637
(dp638
g61
(dp639
g88
g89
ssg70
g628
sg63
(lp640
S':'
asbag56
(g77
g58
NtRp641
(dp642
g61
(dp643
sg70
g628
sg63
(lp644
g56
(g57
g58
NtRp645
(dp646
g61
(dp647
g69
I4
ssg70
g641
sg63
(lp648
g56
(g65
g58
NtRp649
(dp650
g61
(dp651
g69
I3
ssg70
Nsg63
(lp652
g56
(g72
g58
NtRp653
(dp654
g61
(dp655
sg70
g649
sg63
(lp656
g56
(g77
g58
NtRp657
(dp658
g61
(dp659
g81
g82
ssg70
g653
sg63
(lp660
g283
asbag56
(g77
g58
NtRp661
(dp662
g61
(dp663
g88
g89
ssg70
g653
sg63
(lp664
S':'
asbag56
(g77
g58
NtRp665
(dp666
g61
(dp667
sg70
g653
sg63
(lp668
g56
(g57
g58
NtRp669
(dp670
g61
(dp671
g69
I3
ssg70
g665
sg63
(lp672
S''
asbasbasbag56
(g72
g58
NtRp673
(dp674
g61
(dp675
sg70
g649
sg63
(lp676
g56
(g77
g58
NtRp677
(dp678
g61
(dp679
g81
g82
ssg70
g673
sg63
(lp680
g304
asbag56
(g77
g58
NtRp681
(dp682
g61
(dp683
g88
g89
ssg70
g673
sg63
(lp684
S':'
asbag56
(g77
g58
NtRp685
(dp686
g61
(dp687
sg70
g673
sg63
(lp688
g56
(g57
g58
NtRp689
(dp690
g61
(dp691
g69
I3
ssg70
g685
sg63
(lp692
S''
asbasbasbag56
(g72
g58
NtRp693
(dp694
g61
(dp695
sg70
g649
sg63
(lp696
g56
(g77
g58
NtRp697
(dp698
g61
(dp699
g81
g82
ssg70
g693
sg63
(lp700
g325
asbag56
(g77
g58
NtRp701
(dp702
g61
(dp703
g88
g89
ssg70
g693
sg63
(lp704
S':'
asbag56
(g77
g58
NtRp705
(dp706
g61
(dp707
sg70
g693
sg63
(lp708
g56
(g57
g58
NtRp709
(dp710
g61
(dp711
g69
I3
ssg70
g705
sg63
(lp712
S''
asbasbasbag56
(g72
g58
NtRp713
(dp714
g61
(dp715
sg70
g649
sg63
(lp716
g56
(g77
g58
NtRp717
(dp718
g61
(dp719
g81
g82
ssg70
g713
sg63
(lp720
g346
asbag56
(g77
g58
NtRp721
(dp722
g61
(dp723
g88
g89
ssg70
g713
sg63
(lp724
S':'
asbag56
(g77
g58
NtRp725
(dp726
g61
(dp727
sg70
g713
sg63
(lp728
g56
(g57
g58
NtRp729
(dp730
g61
(dp731
g69
I3
ssg70
g725
sg63
(lp732
S''
asbasbasbag56
(g72
g58
NtRp733
(dp734
g61
(dp735
sg70
g649
sg63
(lp736
g56
(g77
g58
NtRp737
(dp738
g61
(dp739
g81
g82
ssg70
g733
sg63
(lp740
g367
asbag56
(g77
g58
NtRp741
(dp742
g61
(dp743
g88
g89
ssg70
g733
sg63
(lp744
S':'
asbag56
(g77
g58
NtRp745
(dp746
g61
(dp747
sg70
g733
sg63
(lp748
g56
(g57
g58
NtRp749
(dp750
g61
(dp751
g69
I3
ssg70
g745
sg63
(lp752
S''
asbasbasbag56
(g72
g58
NtRp753
(dp754
g61
(dp755
sg70
g649
sg63
(lp756
g56
(g77
g58
NtRp757
(dp758
g61
(dp759
g81
g82
ssg70
g753
sg63
(lp760
g388
asbag56
(g77
g58
NtRp761
(dp762
g61
(dp763
g88
g89
ssg70
g753
sg63
(lp764
S':'
asbag56
(g77
g58
NtRp765
(dp766
g61
(dp767
sg70
g753
sg63
(lp768
g56
(g57
g58
NtRp769
(dp770
g61
(dp771
g69
I3
ssg70
g765
sg63
(lp772
S''
asbasbasbag56
(g72
g58
NtRp773
(dp774
g61
(dp775
sg70
g649
sg63
(lp776
g56
(g77
g58
NtRp777
(dp778
g61
(dp779
g81
g82
ssg70
g773
sg63
(lp780
g409
asbag56
(g77
g58
NtRp781
(dp782
g61
(dp783
g88
g89
ssg70
g773
sg63
(lp784
S':'
asbag56
(g77
g58
NtRp785
(dp786
g61
(dp787
sg70
g773
sg63
(lp788
g56
(g57
g58
NtRp789
(dp790
g61
(dp791
g69
I3
ssg70
g785
sg63
(lp792
S''
asbasbasbag56
(g72
g58
NtRp793
(dp794
g61
(dp795
sg70
g649
sg63
(lp796
g56
(g77
g58
NtRp797
(dp798
g61
(dp799
g81
g82
ssg70
g793
sg63
(lp800
g430
asbag56
(g77
g58
NtRp801
(dp802
g61
(dp803
g88
g89
ssg70
g793
sg63
(lp804
S':'
asbag56
(g77
g58
NtRp805
(dp806
g61
(dp807
sg70
g793
sg63
(lp808
g56
(g57
g58
NtRp809
(dp810
g61
(dp811
g69
I3
ssg70
g805
sg63
(lp812
S''
asbasbasbasbasbasbasbag56
(g72
g58
NtRp813
(dp814
g61
(dp815
sg70
g246
sg63
(lp816
g56
(g77
g58
NtRp817
(dp818
g61
(dp819
g81
g82
ssg70
g813
sg63
(lp820
S'session_id_solofluff'
p821
asbag56
(g77
g58
NtRp822
(dp823
g61
(dp824
g88
g89
ssg70
g813
sg63
(lp825
S':'
asbag56
(g77
g58
NtRp826
(dp827
g61
(dp828
sg70
g813
sg63
(lp829
g56
(g57
g58
NtRp830
(dp831
g61
(dp832
g69
I4
ssg70
g826
sg63
(lp833
g56
(g65
g58
NtRp834
(dp835
g61
(dp836
g69
I3
ssg70
Nsg63
(lp837
g56
(g72
g58
NtRp838
(dp839
g61
(dp840
sg70
g834
sg63
(lp841
g56
(g77
g58
NtRp842
(dp843
g61
(dp844
g81
g82
ssg70
g838
sg63
(lp845
g283
asbag56
(g77
g58
NtRp846
(dp847
g61
(dp848
g88
g89
ssg70
g838
sg63
(lp849
S':'
asbag56
(g77
g58
NtRp850
(dp851
g61
(dp852
sg70
g838
sg63
(lp853
g56
(g57
g58
NtRp854
(dp855
g61
(dp856
g69
I3
ssg70
g850
sg63
(lp857
S''
asbasbasbag56
(g72
g58
NtRp858
(dp859
g61
(dp860
sg70
g834
sg63
(lp861
g56
(g77
g58
NtRp862
(dp863
g61
(dp864
g81
g82
ssg70
g858
sg63
(lp865
g304
asbag56
(g77
g58
NtRp866
(dp867
g61
(dp868
g88
g89
ssg70
g858
sg63
(lp869
S':'
asbag56
(g77
g58
NtRp870
(dp871
g61
(dp872
sg70
g858
sg63
(lp873
g56
(g57
g58
NtRp874
(dp875
g61
(dp876
g69
I3
ssg70
g870
sg63
(lp877
S''
asbasbasbag56
(g72
g58
NtRp878
(dp879
g61
(dp880
sg70
g834
sg63
(lp881
g56
(g77
g58
NtRp882
(dp883
g61
(dp884
g81
g82
ssg70
g878
sg63
(lp885
g325
asbag56
(g77
g58
NtRp886
(dp887
g61
(dp888
g88
g89
ssg70
g878
sg63
(lp889
S':'
asbag56
(g77
g58
NtRp890
(dp891
g61
(dp892
sg70
g878
sg63
(lp893
g56
(g57
g58
NtRp894
(dp895
g61
(dp896
g69
I3
ssg70
g890
sg63
(lp897
S''
asbasbasbag56
(g72
g58
NtRp898
(dp899
g61
(dp900
sg70
g834
sg63
(lp901
g56
(g77
g58
NtRp902
(dp903
g61
(dp904
g81
g82
ssg70
g898
sg63
(lp905
g346
asbag56
(g77
g58
NtRp906
(dp907
g61
(dp908
g88
g89
ssg70
g898
sg63
(lp909
S':'
asbag56
(g77
g58
NtRp910
(dp911
g61
(dp912
sg70
g898
sg63
(lp913
g56
(g57
g58
NtRp914
(dp915
g61
(dp916
g69
I3
ssg70
g910
sg63
(lp917
S''
asbasbasbag56
(g72
g58
NtRp918
(dp919
g61
(dp920
sg70
g834
sg63
(lp921
g56
(g77
g58
NtRp922
(dp923
g61
(dp924
g81
g82
ssg70
g918
sg63
(lp925
g367
asbag56
(g77
g58
NtRp926
(dp927
g61
(dp928
g88
g89
ssg70
g918
sg63
(lp929
S':'
asbag56
(g77
g58
NtRp930
(dp931
g61
(dp932
sg70
g918
sg63
(lp933
g56
(g57
g58
NtRp934
(dp935
g61
(dp936
g69
I3
ssg70
g930
sg63
(lp937
S''
asbasbasbag56
(g72
g58
NtRp938
(dp939
g61
(dp940
sg70
g834
sg63
(lp941
g56
(g77
g58
NtRp942
(dp943
g61
(dp944
g81
g82
ssg70
g938
sg63
(lp945
g388
asbag56
(g77
g58
NtRp946
(dp947
g61
(dp948
g88
g89
ssg70
g938
sg63
(lp949
S':'
asbag56
(g77
g58
NtRp950
(dp951
g61
(dp952
sg70
g938
sg63
(lp953
g56
(g57
g58
NtRp954
(dp955
g61
(dp956
g69
I3
ssg70
g950
sg63
(lp957
S''
asbasbasbag56
(g72
g58
NtRp958
(dp959
g61
(dp960
sg70
g834
sg63
(lp961
g56
(g77
g58
NtRp962
(dp963
g61
(dp964
g81
g82
ssg70
g958
sg63
(lp965
g409
asbag56
(g77
g58
NtRp966
(dp967
g61
(dp968
g88
g89
ssg70
g958
sg63
(lp969
S':'
asbag56
(g77
g58
NtRp970
(dp971
g61
(dp972
sg70
g958
sg63
(lp973
g56
(g57
g58
NtRp974
(dp975
g61
(dp976
g69
I3
ssg70
g970
sg63
(lp977
S''
asbasbasbag56
(g72
g58
NtRp978
(dp979
g61
(dp980
sg70
g834
sg63
(lp981
g56
(g77
g58
NtRp982
(dp983
g61
(dp984
g81
g82
ssg70
g978
sg63
(lp985
g430
asbag56
(g77
g58
NtRp986
(dp987
g61
(dp988
g88
g89
ssg70
g978
sg63
(lp989
S':'
asbag56
(g77
g58
NtRp990
(dp991
g61
(dp992
sg70
g978
sg63
(lp993
g56
(g57
g58
NtRp994
(dp995
g61
(dp996
g69
I3
ssg70
g990
sg63
(lp997
S''
asbasbasbasbasbasbasbag56
(g72
g58
NtRp998
(dp999
g61
(dp1000
sg70
g246
sg63
(lp1001
g56
(g77
g58
NtRp1002
(dp1003
g61
(dp1004
g81
g82
ssg70
g998
sg63
(lp1005
S'session_id_welcome'
p1006
asbag56
(g77
g58
NtRp1007
(dp1008
g61
(dp1009
g88
g89
ssg70
g998
sg63
(lp1010
S':'
asbag56
(g77
g58
NtRp1011
(dp1012
g61
(dp1013
sg70
g998
sg63
(lp1014
g56
(g57
g58
NtRp1015
(dp1016
g61
(dp1017
g69
I4
ssg70
g1011
sg63
(lp1018
g56
(g65
g58
NtRp1019
(dp1020
g61
(dp1021
g69
I3
ssg70
Nsg63
(lp1022
g56
(g72
g58
NtRp1023
(dp1024
g61
(dp1025
sg70
g1019
sg63
(lp1026
g56
(g77
g58
NtRp1027
(dp1028
g61
(dp1029
g81
g82
ssg70
g1023
sg63
(lp1030
g283
asbag56
(g77
g58
NtRp1031
(dp1032
g61
(dp1033
g88
g89
ssg70
g1023
sg63
(lp1034
S':'
asbag56
(g77
g58
NtRp1035
(dp1036
g61
(dp1037
sg70
g1023
sg63
(lp1038
g56
(g57
g58
NtRp1039
(dp1040
g61
(dp1041
g69
I3
ssg70
g1035
sg63
(lp1042
S''
asbasbasbag56
(g72
g58
NtRp1043
(dp1044
g61
(dp1045
sg70
g1019
sg63
(lp1046
g56
(g77
g58
NtRp1047
(dp1048
g61
(dp1049
g81
g82
ssg70
g1043
sg63
(lp1050
g304
asbag56
(g77
g58
NtRp1051
(dp1052
g61
(dp1053
g88
g89
ssg70
g1043
sg63
(lp1054
S':'
asbag56
(g77
g58
NtRp1055
(dp1056
g61
(dp1057
sg70
g1043
sg63
(lp1058
g56
(g57
g58
NtRp1059
(dp1060
g61
(dp1061
g69
I3
ssg70
g1055
sg63
(lp1062
S''
asbasbasbag56
(g72
g58
NtRp1063
(dp1064
g61
(dp1065
sg70
g1019
sg63
(lp1066
g56
(g77
g58
NtRp1067
(dp1068
g61
(dp1069
g81
g82
ssg70
g1063
sg63
(lp1070
g325
asbag56
(g77
g58
NtRp1071
(dp1072
g61
(dp1073
g88
g89
ssg70
g1063
sg63
(lp1074
S':'
asbag56
(g77
g58
NtRp1075
(dp1076
g61
(dp1077
sg70
g1063
sg63
(lp1078
g56
(g57
g58
NtRp1079
(dp1080
g61
(dp1081
g69
I3
ssg70
g1075
sg63
(lp1082
S''
asbasbasbag56
(g72
g58
NtRp1083
(dp1084
g61
(dp1085
sg70
g1019
sg63
(lp1086
g56
(g77
g58
NtRp1087
(dp1088
g61
(dp1089
g81
g82
ssg70
g1083
sg63
(lp1090
g346
asbag56
(g77
g58
NtRp1091
(dp1092
g61
(dp1093
g88
g89
ssg70
g1083
sg63
(lp1094
S':'
asbag56
(g77
g58
NtRp1095
(dp1096
g61
(dp1097
sg70
g1083
sg63
(lp1098
g56
(g57
g58
NtRp1099
(dp1100
g61
(dp1101
g69
I3
ssg70
g1095
sg63
(lp1102
S''
asbasbasbag56
(g72
g58
NtRp1103
(dp1104
g61
(dp1105
sg70
g1019
sg63
(lp1106
g56
(g77
g58
NtRp1107
(dp1108
g61
(dp1109
g81
g82
ssg70
g1103
sg63
(lp1110
g367
asbag56
(g77
g58
NtRp1111
(dp1112
g61
(dp1113
g88
g89
ssg70
g1103
sg63
(lp1114
S':'
asbag56
(g77
g58
NtRp1115
(dp1116
g61
(dp1117
sg70
g1103
sg63
(lp1118
g56
(g57
g58
NtRp1119
(dp1120
g61
(dp1121
g69
I3
ssg70
g1115
sg63
(lp1122
S''
asbasbasbag56
(g72
g58
NtRp1123
(dp1124
g61
(dp1125
sg70
g1019
sg63
(lp1126
g56
(g77
g58
NtRp1127
(dp1128
g61
(dp1129
g81
g82
ssg70
g1123
sg63
(lp1130
g388
asbag56
(g77
g58
NtRp1131
(dp1132
g61
(dp1133
g88
g89
ssg70
g1123
sg63
(lp1134
S':'
asbag56
(g77
g58
NtRp1135
(dp1136
g61
(dp1137
sg70
g1123
sg63
(lp1138
g56
(g57
g58
NtRp1139
(dp1140
g61
(dp1141
g69
I3
ssg70
g1135
sg63
(lp1142
S''
asbasbasbag56
(g72
g58
NtRp1143
(dp1144
g61
(dp1145
sg70
g1019
sg63
(lp1146
g56
(g77
g58
NtRp1147
(dp1148
g61
(dp1149
g81
g82
ssg70
g1143
sg63
(lp1150
g409
asbag56
(g77
g58
NtRp1151
(dp1152
g61
(dp1153
g88
g89
ssg70
g1143
sg63
(lp1154
S':'
asbag56
(g77
g58
NtRp1155
(dp1156
g61
(dp1157
sg70
g1143
sg63
(lp1158
g56
(g57
g58
NtRp1159
(dp1160
g61
(dp1161
g69
I3
ssg70
g1155
sg63
(lp1162
S''
asbasbasbag56
(g72
g58
NtRp1163
(dp1164
g61
(dp1165
sg70
g1019
sg63
(lp1166
g56
(g77
g58
NtRp1167
(dp1168
g61
(dp1169
g81
g82
ssg70
g1163
sg63
(lp1170
g430
asbag56
(g77
g58
NtRp1171
(dp1172
g61
(dp1173
g88
g89
ssg70
g1163
sg63
(lp1174
S':'
asbag56
(g77
g58
NtRp1175
(dp1176
g61
(dp1177
sg70
g1163
sg63
(lp1178
g56
(g57
g58
NtRp1179
(dp1180
g61
(dp1181
g69
I3
ssg70
g1175
sg63
(lp1182
S''
asbasbasbasbasbasbasbasbasbasbasbag56
(g72
g58
NtRp1183
(dp1184
g61
(dp1185
sg70
g66
sg63
(lp1186
g56
(g77
g58
NtRp1187
(dp1188
g61
(dp1189
g81
g82
ssg70
g1183
sg63
(lp1190
S'env'
p1191
asbag56
(g77
g58
NtRp1192
(dp1193
g61
(dp1194
g88
g89
ssg70
g1183
sg63
(lp1195
S':'
asbag56
(g77
g58
NtRp1196
(dp1197
g61
(dp1198
sg70
g1183
sg63
(lp1199
g56
(g57
g58
NtRp1200
(dp1201
g61
(dp1202
g69
I5
ssg70
g1196
sg63
(lp1203
g56
(g65
g58
NtRp1204
(dp1205
g61
(dp1206
g69
I4
ssg70
Nsg63
(lp1207
g56
(g72
g58
NtRp1208
(dp1209
g61
(dp1210
sg70
g1204
sg63
(lp1211
g56
(g77
g58
NtRp1212
(dp1213
g61
(dp1214
g81
g82
ssg70
g1208
sg63
(lp1215
S'app_folders'
p1216
asbag56
(g77
g58
NtRp1217
(dp1218
g61
(dp1219
g88
g89
ssg70
g1208
sg63
(lp1220
S':'
asbag56
(g77
g58
NtRp1221
(dp1222
g61
(dp1223
sg70
g1208
sg63
(lp1224
g56
(g57
g58
NtRp1225
(dp1226
g61
(dp1227
g69
I4
ssg70
g1221
sg63
(lp1228
S"set(['/Users/hellais/Documents/code/mygit/globaleaks/webapp/applications/init/', '/Users/hellais/Documents/code/mygit/globaleaks/webapp/applications/admin/'])"
p1229
asbasbasbag56
(g72
g58
NtRp1230
(dp1231
g61
(dp1232
sg70
g1204
sg63
(lp1233
g56
(g77
g58
NtRp1234
(dp1235
g61
(dp1236
g81
g82
ssg70
g1230
sg63
(lp1237
S'applications_parent'
p1238
asbag56
(g77
g58
NtRp1239
(dp1240
g61
(dp1241
g88
g89
ssg70
g1230
sg63
(lp1242
S':'
asbag56
(g77
g58
NtRp1243
(dp1244
g61
(dp1245
sg70
g1230
sg63
(lp1246
g56
(g57
g58
NtRp1247
(dp1248
g61
(dp1249
g69
I4
ssg70
g1243
sg63
(lp1250
S'/Users/hellais/Documents/code/mygit/globaleaks/webapp'
p1251
asbasbasbag56
(g72
g58
NtRp1252
(dp1253
g61
(dp1254
sg70
g1204
sg63
(lp1255
g56
(g77
g58
NtRp1256
(dp1257
g61
(dp1258
g81
g82
ssg70
g1252
sg63
(lp1259
S'cmd_args'
p1260
asbag56
(g77
g58
NtRp1261
(dp1262
g61
(dp1263
g88
g89
ssg70
g1252
sg63
(lp1264
S':'
asbag56
(g77
g58
NtRp1265
(dp1266
g61
(dp1267
sg70
g1252
sg63
(lp1268
g56
(g57
g58
NtRp1269
(dp1270
g61
(dp1271
g69
I4
ssg70
g1265
sg63
(lp1272
g56
(g65
g58
NtRp1273
(dp1274
g61
(dp1275
g69
I3
ssg70
Nsg63
(lp1276
sbasbasbasbag56
(g72
g58
NtRp1277
(dp1278
g61
(dp1279
sg70
g1204
sg63
(lp1280
g56
(g77
g58
NtRp1281
(dp1282
g61
(dp1283
g81
g82
ssg70
g1277
sg63
(lp1284
S'cmd_options'
p1285
asbag56
(g77
g58
NtRp1286
(dp1287
g61
(dp1288
g88
g89
ssg70
g1277
sg63
(lp1289
S':'
asbag56
(g77
g58
NtRp1290
(dp1291
g61
(dp1292
sg70
g1277
sg63
(lp1293
g56
(g57
g58
NtRp1294
(dp1295
g61
(dp1296
g69
I4
ssg70
g1290
sg63
(lp1297
S"<Values at 0x1015c1320: {'verbose': False, 'ip': '127.0.0.1', 'shutdown_timeout': 5, 'taskbar': False, 'port': 8000, 'maxthreads': None, 'softcron': False, 'server_name': 'Jeanne.local', 'bpython': False, 'nogui': False, 'nocron': False, 'extcron': False, 'debuglevel': 30, 'test': None, 'folder': '/Users/hellais/Documents/code/mygit/globaleaks/webapp', 'config': '', 'import_models': False, 'winservice': '', 'shell': None, 'run': '', 'log_filename': 'httpserver.log', 'args': [''], 'profiler_filename': None, 'ssl_private_key': '', 'password': 'asd', 'request_queue_size': 5, 'ssl_certificate': '', 'cronjob': False, 'plain': False, 'quiet': False, 'interfaces': None, 'minthreads': None, 'timeout': 10, 'numthreads': None, 'nobanner': False, 'pid_filename': 'httpserver.pid'}>"
p1298
asbasbasbag56
(g72
g58
NtRp1299
(dp1300
g61
(dp1301
sg70
g1204
sg63
(lp1302
g56
(g77
g58
NtRp1303
(dp1304
g61
(dp1305
g81
g82
ssg70
g1299
sg63
(lp1306
S'db_sessions'
p1307
asbag56
(g77
g58
NtRp1308
(dp1309
g61
(dp1310
g88
g89
ssg70
g1299
sg63
(lp1311
S':'
asbag56
(g77
g58
NtRp1312
(dp1313
g61
(dp1314
sg70
g1299
sg63
(lp1315
g56
(g57
g58
NtRp1316
(dp1317
g61
(dp1318
g69
I4
ssg70
g1312
sg63
(lp1319
S'set([])'
p1320
asbasbasbag56
(g72
g58
NtRp1321
(dp1322
g61
(dp1323
sg70
g1204
sg63
(lp1324
g56
(g77
g58
NtRp1325
(dp1326
g61
(dp1327
g81
g82
ssg70
g1321
sg63
(lp1328
S'debugging'
p1329
asbag56
(g77
g58
NtRp1330
(dp1331
g61
(dp1332
g88
g89
ssg70
g1321
sg63
(lp1333
S':'
asbag56
(g77
g58
NtRp1334
(dp1335
g61
(dp1336
sg70
g1321
sg63
(lp1337
g56
(g57
g58
NtRp1338
(dp1339
g61
(dp1340
g69
I4
ssg70
g1334
sg63
(lp1341
g99
asbasbasbag56
(g72
g58
NtRp1342
(dp1343
g61
(dp1344
sg70
g1204
sg63
(lp1345
g56
(g77
g58
NtRp1346
(dp1347
g61
(dp1348
g81
g82
ssg70
g1342
sg63
(lp1349
S'gluon_parent'
p1350
asbag56
(g77
g58
NtRp1351
(dp1352
g61
(dp1353
g88
g89
ssg70
g1342
sg63
(lp1354
S':'
asbag56
(g77
g58
NtRp1355
(dp1356
g61
(dp1357
sg70
g1342
sg63
(lp1358
g56
(g57
g58
NtRp1359
(dp1360
g61
(dp1361
g69
I4
ssg70
g1355
sg63
(lp1362
S'/Users/hellais/Documents/code/mygit/globaleaks/webapp'
p1363
asbasbasbag56
(g72
g58
NtRp1364
(dp1365
g61
(dp1366
sg70
g1204
sg63
(lp1367
g56
(g77
g58
NtRp1368
(dp1369
g61
(dp1370
g81
g82
ssg70
g1364
sg63
(lp1371
S'http_accept'
p1372
asbag56
(g77
g58
NtRp1373
(dp1374
g61
(dp1375
g88
g89
ssg70
g1364
sg63
(lp1376
S':'
asbag56
(g77
g58
NtRp1377
(dp1378
g61
(dp1379
sg70
g1364
sg63
(lp1380
g56
(g57
g58
NtRp1381
(dp1382
g61
(dp1383
g69
I4
ssg70
g1377
sg63
(lp1384
S'text/html,application/xhtml+xml,application/xml;q=0.9,*/*;q=0.8'
p1385
asbasbasbag56
(g72
g58
NtRp1386
(dp1387
g61
(dp1388
sg70
g1204
sg63
(lp1389
g56
(g77
g58
NtRp1390
(dp1391
g61
(dp1392
g81
g82
ssg70
g1386
sg63
(lp1393
S'http_accept_charset'
p1394
asbag56
(g77
g58
NtRp1395
(dp1396
g61
(dp1397
g88
g89
ssg70
g1386
sg63
(lp1398
S':'
asbag56
(g77
g58
NtRp1399
(dp1400
g61
(dp1401
sg70
g1386
sg63
(lp1402
g56
(g57
g58
NtRp1403
(dp1404
g61
(dp1405
g69
I4
ssg70
g1399
sg63
(lp1406
S'UTF-8,*;q=0.5'
p1407
asbasbasbag56
(g72
g58
NtRp1408
(dp1409
g61
(dp1410
sg70
g1204
sg63
(lp1411
g56
(g77
g58
NtRp1412
(dp1413
g61
(dp1414
g81
g82
ssg70
g1408
sg63
(lp1415
S'http_accept_encoding'
p1416
asbag56
(g77
g58
NtRp1417
(dp1418
g61
(dp1419
g88
g89
ssg70
g1408
sg63
(lp1420
S':'
asbag56
(g77
g58
NtRp1421
(dp1422
g61
(dp1423
sg70
g1408
sg63
(lp1424
g56
(g57
g58
NtRp1425
(dp1426
g61
(dp1427
g69
I4
ssg70
g1421
sg63
(lp1428
S'gzip,deflate,sdch'
p1429
asbasbasbag56
(g72
g58
NtRp1430
(dp1431
g61
(dp1432
sg70
g1204
sg63
(lp1433
g56
(g77
g58
NtRp1434
(dp1435
g61
(dp1436
g81
g82
ssg70
g1430
sg63
(lp1437
S'http_accept_language'
p1438
asbag56
(g77
g58
NtRp1439
(dp1440
g61
(dp1441
g88
g89
ssg70
g1430
sg63
(lp1442
S':'
asbag56
(g77
g58
NtRp1443
(dp1444
g61
(dp1445
sg70
g1430
sg63
(lp1446
g56
(g57
g58
NtRp1447
(dp1448
g61
(dp1449
g69
I4
ssg70
g1443
sg63
(lp1450
S'en-US,en;q=0.8'
p1451
asbasbasbag56
(g72
g58
NtRp1452
(dp1453
g61
(dp1454
sg70
g1204
sg63
(lp1455
g56
(g77
g58
NtRp1456
(dp1457
g61
(dp1458
g81
g82
ssg70
g1452
sg63
(lp1459
S'http_cache_control'
p1460
asbag56
(g77
g58
NtRp1461
(dp1462
g61
(dp1463
g88
g89
ssg70
g1452
sg63
(lp1464
S':'
asbag56
(g77
g58
NtRp1465
(dp1466
g61
(dp1467
sg70
g1452
sg63
(lp1468
g56
(g57
g58
NtRp1469
(dp1470
g61
(dp1471
g69
I4
ssg70
g1465
sg63
(lp1472
S'max-age=0'
p1473
asbasbasbag56
(g72
g58
NtRp1474
(dp1475
g61
(dp1476
sg70
g1204
sg63
(lp1477
g56
(g77
g58
NtRp1478
(dp1479
g61
(dp1480
g81
g82
ssg70
g1474
sg63
(lp1481
S'http_connection'
p1482
asbag56
(g77
g58
NtRp1483
(dp1484
g61
(dp1485
g88
g89
ssg70
g1474
sg63
(lp1486
S':'
asbag56
(g77
g58
NtRp1487
(dp1488
g61
(dp1489
sg70
g1474
sg63
(lp1490
g56
(g57
g58
NtRp1491
(dp1492
g61
(dp1493
g69
I4
ssg70
g1487
sg63
(lp1494
S'keep-alive'
p1495
asbasbasbag56
(g72
g58
NtRp1496
(dp1497
g61
(dp1498
sg70
g1204
sg63
(lp1499
g56
(g77
g58
NtRp1500
(dp1501
g61
(dp1502
g81
g82
ssg70
g1496
sg63
(lp1503
S'http_cookie'
p1504
asbag56
(g77
g58
NtRp1505
(dp1506
g61
(dp1507
g88
g89
ssg70
g1496
sg63
(lp1508
S':'
asbag56
(g77
g58
NtRp1509
(dp1510
g61
(dp1511
sg70
g1496
sg63
(lp1512
g56
(g57
g58
NtRp1513
(dp1514
g61
(dp1515
g69
I4
ssg70
g1509
sg63
(lp1516
S'session_id_welcome=127.0.0.1-8a52e05d-a326-4c3a-95b8-e8c3b6dcb2a9; session_id_solofluff=127.0.0.1-ed03ccfa-5724-4cae-bfc2-ec2f3e495896; session_id_globaleaks=127.0.0.1-e0f59622-1fd5-40c4-846d-6a86f85864b8; session_id_init=127.0.0.1-144deeb4-6d5c-4579-bdd3-3d9d5085abd2; session_id_admin=127.0.0.1-8bc5c5d1-0d9f-4344-b867-e59ee1865949'
p1517
asbasbasbag56
(g72
g58
NtRp1518
(dp1519
g61
(dp1520
sg70
g1204
sg63
(lp1521
g56
(g77
g58
NtRp1522
(dp1523
g61
(dp1524
g81
g82
ssg70
g1518
sg63
(lp1525
S'http_host'
p1526
asbag56
(g77
g58
NtRp1527
(dp1528
g61
(dp1529
g88
g89
ssg70
g1518
sg63
(lp1530
S':'
asbag56
(g77
g58
NtRp1531
(dp1532
g61
(dp1533
sg70
g1518
sg63
(lp1534
g56
(g57
g58
NtRp1535
(dp1536
g61
(dp1537
g69
I4
ssg70
g1531
sg63
(lp1538
S'127.0.0.1:8000'
p1539
asbasbasbag56
(g72
g58
NtRp1540
(dp1541
g61
(dp1542
sg70
g1204
sg63
(lp1543
g56
(g77
g58
NtRp1544
(dp1545
g61
(dp1546
g81
g82
ssg70
g1540
sg63
(lp1547
S'http_referer'
p1548
asbag56
(g77
g58
NtRp1549
(dp1550
g61
(dp1551
g88
g89
ssg70
g1540
sg63
(lp1552
S':'
asbag56
(g77
g58
NtRp1553
(dp1554
g61
(dp1555
sg70
g1540
sg63
(lp1556
g56
(g57
g58
NtRp1557
(dp1558
g61
(dp1559
g69
I4
ssg70
g1553
sg63
(lp1560
S'http://127.0.0.1:8000/init/default/submission'
p1561
asbasbasbag56
(g72
g58
NtRp1562
(dp1563
g61
(dp1564
sg70
g1204
sg63
(lp1565
g56
(g77
g58
NtRp1566
(dp1567
g61
(dp1568
g81
g82
ssg70
g1562
sg63
(lp1569
S'http_user_agent'
p1570
asbag56
(g77
g58
NtRp1571
(dp1572
g61
(dp1573
g88
g89
ssg70
g1562
sg63
(lp1574
S':'
asbag56
(g77
g58
NtRp1575
(dp1576
g61
(dp1577
sg70
g1562
sg63
(lp1578
g56
(g57
g58
NtRp1579
(dp1580
g61
(dp1581
g69
I4
ssg70
g1575
sg63
(lp1582
S'Mozilla/5.0 (Macintosh; Intel Mac OS X 10_6_7) AppleWebKit/535.1 (KHTML, like Gecko) Chrome/13.0.782.215 Safari/535.1'
p1583
asbasbasbag56
(g72
g58
NtRp1584
(dp1585
g61
(dp1586
sg70
g1204
sg63
(lp1587
g56
(g77
g58
NtRp1588
(dp1589
g61
(dp1590
g81
g82
ssg70
g1584
sg63
(lp1591
S'is_jython'
p1592
asbag56
(g77
g58
NtRp1593
(dp1594
g61
(dp1595
g88
g89
ssg70
g1584
sg63
(lp1596
S':'
asbag56
(g77
g58
NtRp1597
(dp1598
g61
(dp1599
sg70
g1584
sg63
(lp1600
g56
(g57
g58
NtRp1601
(dp1602
g61
(dp1603
g69
I4
ssg70
g1597
sg63
(lp1604
g99
asbasbasbag56
(g72
g58
NtRp1605
(dp1606
g61
(dp1607
sg70
g1204
sg63
(lp1608
g56
(g77
g58
NtRp1609
(dp1610
g61
(dp1611
g81
g82
ssg70
g1605
sg63
(lp1612
S'path_info'
p1613
asbag56
(g77
g58
NtRp1614
(dp1615
g61
(dp1616
g88
g89
ssg70
g1605
sg63
(lp1617
S':'
asbag56
(g77
g58
NtRp1618
(dp1619
g61
(dp1620
sg70
g1605
sg63
(lp1621
g56
(g57
g58
NtRp1622
(dp1623
g61
(dp1624
g69
I4
ssg70
g1618
sg63
(lp1625
S'/init/default/tulip/cd48f6a321cafd02837cd2b0c90337f847737385f99a1d84833fa80f523f544d'
p1626
asbasbasbag56
(g72
g58
NtRp1627
(dp1628
g61
(dp1629
sg70
g1204
sg63
(lp1630
g56
(g77
g58
NtRp1631
(dp1632
g61
(dp1633
g81
g82
ssg70
g1627
sg63
(lp1634
S'query_string'
p1635
asbag56
(g77
g58
NtRp1636
(dp1637
g61
(dp1638
g88
g89
ssg70
g1627
sg63
(lp1639
S':'
asbag56
(g77
g58
NtRp1640
(dp1641
g61
(dp1642
sg70
g1627
sg63
(lp1643
g56
(g57
g58
NtRp1644
(dp1645
g61
(dp1646
g69
I4
ssg70
g1640
sg63
(lp1647
S''
asbasbasbag56
(g72
g58
NtRp1648
(dp1649
g61
(dp1650
sg70
g1204
sg63
(lp1651
g56
(g77
g58
NtRp1652
(dp1653
g61
(dp1654
g81
g82
ssg70
g1648
sg63
(lp1655
S'remote_addr'
p1656
asbag56
(g77
g58
NtRp1657
(dp1658
g61
(dp1659
g88
g89
ssg70
g1648
sg63
(lp1660
S':'
asbag56
(g77
g58
NtRp1661
(dp1662
g61
(dp1663
sg70
g1648
sg63
(lp1664
g56
(g57
g58
NtRp1665
(dp1666
g61
(dp1667
g69
I4
ssg70
g1661
sg63
(lp1668
g202
asbasbasbag56
(g72
g58
NtRp1669
(dp1670
g61
(dp1671
sg70
g1204
sg63
(lp1672
g56
(g77
g58
NtRp1673
(dp1674
g61
(dp1675
g81
g82
ssg70
g1669
sg63
(lp1676
S'remote_port'
p1677
asbag56
(g77
g58
NtRp1678
(dp1679
g61
(dp1680
g88
g89
ssg70
g1669
sg63
(lp1681
S':'
asbag56
(g77
g58
NtRp1682
(dp1683
g61
(dp1684
sg70
g1669
sg63
(lp1685
g56
(g57
g58
NtRp1686
(dp1687
g61
(dp1688
g69
I4
ssg70
g1682
sg63
(lp1689
S'56878'
p1690
asbasbasbag56
(g72
g58
NtRp1691
(dp1692
g61
(dp1693
sg70
g1204
sg63
(lp1694
g56
(g77
g58
NtRp1695
(dp1696
g61
(dp1697
g81
g82
ssg70
g1691
sg63
(lp1698
S'request_method'
p1699
asbag56
(g77
g58
NtRp1700
(dp1701
g61
(dp1702
g88
g89
ssg70
g1691
sg63
(lp1703
S':'
asbag56
(g77
g58
NtRp1704
(dp1705
g61
(dp1706
sg70
g1691
sg63
(lp1707
g56
(g57
g58
NtRp1708
(dp1709
g61
(dp1710
g69
I4
ssg70
g1704
sg63
(lp1711
S'GET'
p1712
asbasbasbag56
(g72
g58
NtRp1713
(dp1714
g61
(dp1715
sg70
g1204
sg63
(lp1716
g56
(g77
g58
NtRp1717
(dp1718
g61
(dp1719
g81
g82
ssg70
g1713
sg63
(lp1720
S'script_name'
p1721
asbag56
(g77
g58
NtRp1722
(dp1723
g61
(dp1724
g88
g89
ssg70
g1713
sg63
(lp1725
S':'
asbag56
(g77
g58
NtRp1726
(dp1727
g61
(dp1728
sg70
g1713
sg63
(lp1729
g56
(g57
g58
NtRp1730
(dp1731
g61
(dp1732
g69
I4
ssg70
g1726
sg63
(lp1733
S''
asbasbasbag56
(g72
g58
NtRp1734
(dp1735
g61
(dp1736
sg70
g1204
sg63
(lp1737
g56
(g77
g58
NtRp1738
(dp1739
g61
(dp1740
g81
g82
ssg70
g1734
sg63
(lp1741
S'server_name'
p1742
asbag56
(g77
g58
NtRp1743
(dp1744
g61
(dp1745
g88
g89
ssg70
g1734
sg63
(lp1746
S':'
asbag56
(g77
g58
NtRp1747
(dp1748
g61
(dp1749
sg70
g1734
sg63
(lp1750
g56
(g57
g58
NtRp1751
(dp1752
g61
(dp1753
g69
I4
ssg70
g1747
sg63
(lp1754
S'Jeanne.local'
p1755
asbasbasbag56
(g72
g58
NtRp1756
(dp1757
g61
(dp1758
sg70
g1204
sg63
(lp1759
g56
(g77
g58
NtRp1760
(dp1761
g61
(dp1762
g81
g82
ssg70
g1756
sg63
(lp1763
S'server_port'
p1764
asbag56
(g77
g58
NtRp1765
(dp1766
g61
(dp1767
g88
g89
ssg70
g1756
sg63
(lp1768
S':'
asbag56
(g77
g58
NtRp1769
(dp1770
g61
(dp1771
sg70
g1756
sg63
(lp1772
g56
(g57
g58
NtRp1773
(dp1774
g61
(dp1775
g69
I4
ssg70
g1769
sg63
(lp1776
S'8000'
p1777
asbasbasbag56
(g72
g58
NtRp1778
(dp1779
g61
(dp1780
sg70
g1204
sg63
(lp1781
g56
(g77
g58
NtRp1782
(dp1783
g61
(dp1784
g81
g82
ssg70
g1778
sg63
(lp1785
S'server_protocol'
p1786
asbag56
(g77
g58
NtRp1787
(dp1788
g61
(dp1789
g88
g89
ssg70
g1778
sg63
(lp1790
S':'
asbag56
(g77
g58
NtRp1791
(dp1792
g61
(dp1793
sg70
g1778
sg63
(lp1794
g56
(g57
g58
NtRp1795
(dp1796
g61
(dp1797
g69
I4
ssg70
g1791
sg63
(lp1798
S'HTTP/1.1'
p1799
asbasbasbag56
(g72
g58
NtRp1800
(dp1801
g61
(dp1802
sg70
g1204
sg63
(lp1803
g56
(g77
g58
NtRp1804
(dp1805
g61
(dp1806
g81
g82
ssg70
g1800
sg63
(lp1807
S'server_software'
p1808
asbag56
(g77
g58
NtRp1809
(dp1810
g61
(dp1811
g88
g89
ssg70
g1800
sg63
(lp1812
S':'
asbag56
(g77
g58
NtRp1813
(dp1814
g61
(dp1815
sg70
g1800
sg63
(lp1816
g56
(g57
g58
NtRp1817
(dp1818
g61
(dp1819
g69
I4
ssg70
g1813
sg63
(lp1820
S'Rocket 1.2.2'
p1821
asbasbasbag56
(g72
g58
NtRp1822
(dp1823
g61
(dp1824
sg70
g1204
sg63
(lp1825
g56
(g77
g58
NtRp1826
(dp1827
g61
(dp1828
g81
g82
ssg70
g1822
sg63
(lp1829
S'web2py_crontype'
p1830
asbag56
(g77
g58
NtRp1831
(dp1832
g61
(dp1833
g88
g89
ssg70
g1822
sg63
(lp1834
S':'
asbag56
(g77
g58
NtRp1835
(dp1836
g61
(dp1837
sg70
g1822
sg63
(lp1838
g56
(g57
g58
NtRp1839
(dp1840
g61
(dp1841
g69
I4
ssg70
g1835
sg63
(lp1842
S'hard'
p1843
asbasbasbag56
(g72
g58
NtRp1844
(dp1845
g61
(dp1846
sg70
g1204
sg63
(lp1847
g56
(g77
g58
NtRp1848
(dp1849
g61
(dp1850
g81
g82
ssg70
g1844
sg63
(lp1851
S'web2py_path'
p1852
asbag56
(g77
g58
NtRp1853
(dp1854
g61
(dp1855
g88
g89
ssg70
g1844
sg63
(lp1856
S':'
asbag56
(g77
g58
NtRp1857
(dp1858
g61
(dp1859
sg70
g1844
sg63
(lp1860
g56
(g57
g58
NtRp1861
(dp1862
g61
(dp1863
g69
I4
ssg70
g1857
sg63
(lp1864
g1251
asbasbasbag56
(g72
g58
NtRp1865
(dp1866
g61
(dp1867
sg70
g1204
sg63
(lp1868
g56
(g77
g58
NtRp1869
(dp1870
g61
(dp1871
g81
g82
ssg70
g1865
sg63
(lp1872
S'web2py_version'
p1873
asbag56
(g77
g58
NtRp1874
(dp1875
g61
(dp1876
g88
g89
ssg70
g1865
sg63
(lp1877
S':'
asbag56
(g77
g58
NtRp1878
(dp1879
g61
(dp1880
sg70
g1865
sg63
(lp1881
g56
(g57
g58
NtRp1882
(dp1883
g61
(dp1884
g69
I4
ssg70
g1878
sg63
(lp1885
S'Version 1.98.2 (2011-08-04 00:47:09)\n'
p1886
asbasbasbag56
(g72
g58
NtRp1887
(dp1888
g61
(dp1889
sg70
g1204
sg63
(lp1890
g56
(g77
g58
NtRp1891
(dp1892
g61
(dp1893
g81
g82
ssg70
g1887
sg63
(lp1894
S'wsgi_errors'
p1895
asbag56
(g77
g58
NtRp1896
(dp1897
g61
(dp1898
g88
g89
ssg70
g1887
sg63
(lp1899
S':'
asbag56
(g77
g58
NtRp1900
(dp1901
g61
(dp1902
sg70
g1887
sg63
(lp1903
g56
(g57
g58
NtRp1904
(dp1905
g61
(dp1906
g69
I4
ssg70
g1900
sg63
(lp1907
S"<open file '<stderr>', mode 'w' at 0x100287270>"
p1908
asbasbasbag56
(g72
g58
NtRp1909
(dp1910
g61
(dp1911
sg70
g1204
sg63
(lp1912
g56
(g77
g58
NtRp1913
(dp1914
g61
(dp1915
g81
g82
ssg70
g1909
sg63
(lp1916
S'wsgi_file_wrapper'
p1917
asbag56
(g77
g58
NtRp1918
(dp1919
g61
(dp1920
g88
g89
ssg70
g1909
sg63
(lp1921
S':'
asbag56
(g77
g58
NtRp1922
(dp1923
g61
(dp1924
sg70
g1909
sg63
(lp1925
g56
(g57
g58
NtRp1926
(dp1927
g61
(dp1928
g69
I4
ssg70
g1922
sg63
(lp1929
S'<class gluon.rocket.FileWrapper at 0x101667e88>'
p1930
asbasbasbag56
(g72
g58
NtRp1931
(dp1932
g61
(dp1933
sg70
g1204
sg63
(lp1934
g56
(g77
g58
NtRp1935
(dp1936
g61
(dp1937
g81
g82
ssg70
g1931
sg63
(lp1938
S'wsgi_input'
p1939
asbag56
(g77
g58
NtRp1940
(dp1941
g61
(dp1942
g88
g89
ssg70
g1931
sg63
(lp1943
S':'
asbag56
(g77
g58
NtRp1944
(dp1945
g61
(dp1946
sg70
g1931
sg63
(lp1947
g56
(g57
g58
NtRp1948
(dp1949
g61
(dp1950
g69
I4
ssg70
g1944
sg63
(lp1951
S'<socket._fileobject object at 0x101d94c50>'
p1952
asbasbasbag56
(g72
g58
NtRp1953
(dp1954
g61
(dp1955
sg70
g1204
sg63
(lp1956
g56
(g77
g58
NtRp1957
(dp1958
g61
(dp1959
g81
g82
ssg70
g1953
sg63
(lp1960
S'wsgi_multiprocess'
p1961
asbag56
(g77
g58
NtRp1962
(dp1963
g61
(dp1964
g88
g89
ssg70
g1953
sg63
(lp1965
S':'
asbag56
(g77
g58
NtRp1966
(dp1967
g61
(dp1968
sg70
g1953
sg63
(lp1969
g56
(g57
g58
NtRp1970
(dp1971
g61
(dp1972
g69
I4
ssg70
g1966
sg63
(lp1973
g99
asbasbasbag56
(g72
g58
NtRp1974
(dp1975
g61
(dp1976
sg70
g1204
sg63
(lp1977
g56
(g77
g58
NtRp1978
(dp1979
g61
(dp1980
g81
g82
ssg70
g1974
sg63
(lp1981
S'wsgi_multithread'
p1982
asbag56
(g77
g58
NtRp1983
(dp1984
g61
(dp1985
g88
g89
ssg70
g1974
sg63
(lp1986
S':'
asbag56
(g77
g58
NtRp1987
(dp1988
g61
(dp1989
sg70
g1974
sg63
(lp1990
g56
(g57
g58
NtRp1991
(dp1992
g61
(dp1993
g69
I4
ssg70
g1987
sg63
(lp1994
S'True'
p1995
asbasbasbag56
(g72
g58
NtRp1996
(dp1997
g61
(dp1998
sg70
g1204
sg63
(lp1999
g56
(g77
g58
NtRp2000
(dp2001
g61
(dp2002
g81
g82
ssg70
g1996
sg63
(lp2003
S'wsgi_run_once'
p2004
asbag56
(g77
g58
NtRp2005
(dp2006
g61
(dp2007
g88
g89
ssg70
g1996
sg63
(lp2008
S':'
asbag56
(g77
g58
NtRp2009
(dp2010
g61
(dp2011
sg70
g1996
sg63
(lp2012
g56
(g57
g58
NtRp2013
(dp2014
g61
(dp2015
g69
I4
ssg70
g2009
sg63
(lp2016
g99
asbasbasbag56
(g72
g58
NtRp2017
(dp2018
g61
(dp2019
sg70
g1204
sg63
(lp2020
g56
(g77
g58
NtRp2021
(dp2022
g61
(dp2023
g81
g82
ssg70
g2017
sg63
(lp2024
S'wsgi_url_scheme'
p2025
asbag56
(g77
g58
NtRp2026
(dp2027
g61
(dp2028
g88
g89
ssg70
g2017
sg63
(lp2029
S':'
asbag56
(g77
g58
NtRp2030
(dp2031
g61
(dp2032
sg70
g2017
sg63
(lp2033
g56
(g57
g58
NtRp2034
(dp2035
g61
(dp2036
g69
I4
ssg70
g2030
sg63
(lp2037
S'http'
p2038
asbasbasbag56
(g72
g58
NtRp2039
(dp2040
g61
(dp2041
sg70
g1204
sg63
(lp2042
g56
(g77
g58
NtRp2043
(dp2044
g61
(dp2045
g81
g82
ssg70
g2039
sg63
(lp2046
S'wsgi_version'
p2047
asbag56
(g77
g58
NtRp2048
(dp2049
g61
(dp2050
g88
g89
ssg70
g2039
sg63
(lp2051
S':'
asbag56
(g77
g58
NtRp2052
(dp2053
g61
(dp2054
sg70
g2039
sg63
(lp2055
g56
(g57
g58
NtRp2056
(dp2057
g61
(dp2058
g69
I4
ssg70
g2052
sg63
(lp2059
g56
(g65
g58
NtRp2060
(dp2061
g61
(dp2062
g69
I3
ssg70
Nsg63
(lp2063
g56
(g72
g58
NtRp2064
(dp2065
g61
(dp2066
sg70
g2060
sg63
(lp2067
g56
(g77
g58
NtRp2068
(dp2069
g61
(dp2070
sg70
g2064
sg63
(lp2071
g56
(g57
g58
NtRp2072
(dp2073
g61
(dp2074
g69
I3
ssg70
g2068
sg63
(lp2075
S'1'
asbasbasbag56
(g72
g58
NtRp2076
(dp2077
g61
(dp2078
sg70
g2060
sg63
(lp2079
g56
(g77
g58
NtRp2080
(dp2081
g61
(dp2082
sg70
g2076
sg63
(lp2083
g56
(g57
g58
NtRp2084
(dp2085
g61
(dp2086
g69
I3
ssg70
g2080
sg63
(lp2087
S'0'
asbasbasbasbasbasbasbasbasbasbasbag56
(g72
g58
NtRp2088
(dp2089
g61
(dp2090
sg70
g66
sg63
(lp2091
g56
(g77
g58
NtRp2092
(dp2093
g61
(dp2094
g81
g82
ssg70
g2088
sg63
(lp2095
S'extension'
p2096
asbag56
(g77
g58
NtRp2097
(dp2098
g61
(dp2099
g88
g89
ssg70
g2088
sg63
(lp2100
S':'
asbag56
(g77
g58
NtRp2101
(dp2102
g61
(dp2103
sg70
g2088
sg63
(lp2104
g56
(g57
g58
NtRp2105
(dp2106
g61
(dp2107
g69
I5
ssg70
g2101
sg63
(lp2108
S'html'
p2109
asbasbasbag56
(g72
g58
NtRp2110
(dp2111
g61
(dp2112
sg70
g66
sg63
(lp2113
g56
(g77
g58
NtRp2114
(dp2115
g61
(dp2116
g81
g82
ssg70
g2110
sg63
(lp2117
S'folder'
p2118
asbag56
(g77
g58
NtRp2119
(dp2120
g61
(dp2121
g88
g89
ssg70
g2110
sg63
(lp2122
S':'
asbag56
(g77
g58
NtRp2123
(dp2124
g61
(dp2125
sg70
g2110
sg63
(lp2126
g56
(g57
g58
NtRp2127
(dp2128
g61
(dp2129
g69
I5
ssg70
g2123
sg63
(lp2130
S'/Users/hellais/Documents/code/mygit/globaleaks/webapp/applications/init/'
p2131
asbasbasbag56
(g72
g58
NtRp2132
(dp2133
g61
(dp2134
sg70
g66
sg63
(lp2135
g56
(g77
g58
NtRp2136
(dp2137
g61
(dp2138
g81
g82
ssg70
g2132
sg63
(lp2139
S'function'
p2140
asbag56
(g77
g58
NtRp2141
(dp2142
g61
(dp2143
g88
g89
ssg70
g2132
sg63
(lp2144
S':'
asbag56
(g77
g58
NtRp2145
(dp2146
g61
(dp2147
sg70
g2132
sg63
(lp2148
g56
(g57
g58
NtRp2149
(dp2150
g61
(dp2151
g69
I5
ssg70
g2145
sg63
(lp2152
S'tulip'
p2153
asbasbasbag56
(g72
g58
NtRp2154
(dp2155
g61
(dp2156
sg70
g66
sg63
(lp2157
g56
(g77
g58
NtRp2158
(dp2159
g61
(dp2160
g81
g82
ssg70
g2154
sg63
(lp2161
S'get_vars'
p2162
asbag56
(g77
g58
NtRp2163
(dp2164
g61
(dp2165
g88
g89
ssg70
g2154
sg63
(lp2166
S':'
asbag56
(g77
g58
NtRp2167
(dp2168
g61
(dp2169
sg70
g2154
sg63
(lp2170
g56
(g57
g58
NtRp2171
(dp2172
g61
(dp2173
g69
I5
ssg70
g2167
sg63
(lp2174
g56
(g65
g58
NtRp2175
(dp2176
g61
(dp2177
g69
I4
ssg70
Nsg63
(lp2178
sbasbasbasbag56
(g72
g58
NtRp2179
(dp2180
g61
(dp2181
sg70
g66
sg63
(lp2182
g56
(g77
g58
NtRp2183
(dp2184
g61
(dp2185
g81
g82
ssg70
g2179
sg63
(lp2186
S'is_https'
p2187
asbag56
(g77
g58
NtRp2188
(dp2189
g61
(dp2190
g88
g89
ssg70
g2179
sg63
(lp2191
S':'
asbag56
(g77
g58
NtRp2192
(dp2193
g61
(dp2194
sg70
g2179
sg63
(lp2195
g56
(g57
g58
NtRp2196
(dp2197
g61
(dp2198
g69
I5
ssg70
g2192
sg63
(lp2199
g99
asbasbasbag56
(g72
g58
NtRp2200
(dp2201
g61
(dp2202
sg70
g66
sg63
(lp2203
g56
(g77
g58
NtRp2204
(dp2205
g61
(dp2206
g81
g82
ssg70
g2200
sg63
(lp2207
S'is_local'
p2208
asbag56
(g77
g58
NtRp2209
(dp2210
g61
(dp2211
g88
g89
ssg70
g2200
sg63
(lp2212
S':'
asbag56
(g77
g58
NtRp2213
(dp2214
g61
(dp2215
sg70
g2200
sg63
(lp2216
g56
(g57
g58
NtRp2217
(dp2218
g61
(dp2219
g69
I5
ssg70
g2213
sg63
(lp2220
g1995
asbasbasbag56
(g72
g58
NtRp2221
(dp2222
g61
(dp2223
sg70
g66
sg63
(lp2224
g56
(g77
g58
NtRp2225
(dp2226
g61
(dp2227
g81
g82
ssg70
g2221
sg63
(lp2228
S'is_restful'
p2229
asbag56
(g77
g58
NtRp2230
(dp2231
g61
(dp2232
g88
g89
ssg70
g2221
sg63
(lp2233
S':'
asbag56
(g77
g58
NtRp2234
(dp2235
g61
(dp2236
sg70
g2221
sg63
(lp2237
g56
(g57
g58
NtRp2238
(dp2239
g61
(dp2240
g69
I5
ssg70
g2234
sg63
(lp2241
g99
asbasbasbag56
(g72
g58
NtRp2242
(dp2243
g61
(dp2244
sg70
g66
sg63
(lp2245
g56
(g77
g58
NtRp2246
(dp2247
g61
(dp2248
g81
g82
ssg70
g2242
sg63
(lp2249
S'now'
p2250
asbag56
(g77
g58
NtRp2251
(dp2252
g61
(dp2253
g88
g89
ssg70
g2242
sg63
(lp2254
S':'
asbag56
(g77
g58
NtRp2255
(dp2256
g61
(dp2257
sg70
g2242
sg63
(lp2258
g56
(g57
g58
NtRp2259
(dp2260
g61
(dp2261
g69
I5
ssg70
g2255
sg63
(lp2262
S'datetime.datetime(2011, 8, 28, 11, 39, 36, 558208)'
p2263
asbasbasbag56
(g72
g58
NtRp2264
(dp2265
g61
(dp2266
sg70
g66
sg63
(lp2267
g56
(g77
g58
NtRp2268
(dp2269
g61
(dp2270
g81
g82
ssg70
g2264
sg63
(lp2271
S'post_vars'
p2272
asbag56
(g77
g58
NtRp2273
(dp2274
g61
(dp2275
g88
g89
ssg70
g2264
sg63
(lp2276
S':'
asbag56
(g77
g58
NtRp2277
(dp2278
g61
(dp2279
sg70
g2264
sg63
(lp2280
g56
(g57
g58
NtRp2281
(dp2282
g61
(dp2283
g69
I5
ssg70
g2277
sg63
(lp2284
g56
(g65
g58
NtRp2285
(dp2286
g61
(dp2287
g69
I4
ssg70
Nsg63
(lp2288
sbasbasbasbag56
(g72
g58
NtRp2289
(dp2290
g61
(dp2291
sg70
g66
sg63
(lp2292
g56
(g77
g58
NtRp2293
(dp2294
g61
(dp2295
g81
g82
ssg70
g2289
sg63
(lp2296
S'raw_args'
p2297
asbag56
(g77
g58
NtRp2298
(dp2299
g61
(dp2300
g88
g89
ssg70
g2289
sg63
(lp2301
S':'
asbag56
(g77
g58
NtRp2302
(dp2303
g61
(dp2304
sg70
g2289
sg63
(lp2305
g56
(g57
g58
NtRp2306
(dp2307
g61
(dp2308
g69
I5
ssg70
g2302
sg63
(lp2309
g158
asbasbasbag56
(g72
g58
NtRp2310
(dp2311
g61
(dp2312
sg70
g66
sg63
(lp2313
g56
(g77
g58
NtRp2314
(dp2315
g61
(dp2316
g81
g82
ssg70
g2310
sg63
(lp2317
S'url'
p2318
asbag56
(g77
g58
NtRp2319
(dp2320
g61
(dp2321
g88
g89
ssg70
g2310
sg63
(lp2322
S':'
asbag56
(g77
g58
NtRp2323
(dp2324
g61
(dp2325
sg70
g2310
sg63
(lp2326
g56
(g57
g58
NtRp2327
(dp2328
g61
(dp2329
g69
I5
ssg70
g2323
sg63
(lp2330
S'/init/default/tulip/cd48f6a321cafd02837cd2b0c90337f847737385f99a1d84833fa80f523f544d'
p2331
asbasbasbag56
(g72
g58
NtRp2332
(dp2333
g61
(dp2334
sg70
g66
sg63
(lp2335
g56
(g77
g58
NtRp2336
(dp2337
g61
(dp2338
g81
g82
ssg70
g2332
sg63
(lp2339
S'uuid'
p2340
asbag56
(g77
g58
NtRp2341
(dp2342
g61
(dp2343
g88
g89
ssg70
g2332
sg63
(lp2344
S':'
asbag56
(g77
g58
NtRp2345
(dp2346
g61
(dp2347
sg70
g2332
sg63
(lp2348
g56
(g57
g58
NtRp2349
(dp2350
g61
(dp2351
g69
I5
ssg70
g2345
sg63
(lp2352
S'init/127.0.0.1.2011-08-28.11-39-36.48b25227-a5bf-4581-a308-7e0a9df4c888'
p2353
asbasbasbag56
(g72
g58
NtRp2354
(dp2355
g61
(dp2356
sg70
g66
sg63
(lp2357
g56
(g77
g58
NtRp2358
(dp2359
g61
(dp2360
g81
g82
ssg70
g2354
sg63
(lp2361
S'vars'
p2362
asbag56
(g77
g58
NtRp2363
(dp2364
g61
(dp2365
g88
g89
ssg70
g2354
sg63
(lp2366
S':'
asbag56
(g77
g58
NtRp2367
(dp2368
g61
(dp2369
sg70
g2354
sg63
(lp2370
g56
(g57
g58
NtRp2371
(dp2372
g61
(dp2373
g69
I5
ssg70
g2367
sg63
(lp2374
g56
(g65
g58
NtRp2375
(dp2376
g61
(dp2377
g69
I4
ssg70
Nsg63
(lp2378
sbasbasbasbag56
(g72
g58
NtRp2379
(dp2380
g61
(dp2381
sg70
g66
sg63
(lp2382
g56
(g77
g58
NtRp2383
(dp2384
g61
(dp2385
g81
g82
ssg70
g2379
sg63
(lp2386
S'wsgi'
p2387
asbag56
(g77
g58
NtRp2388
(dp2389
g61
(dp2390
g88
g89
ssg70
g2379
sg63
(lp2391
S':'
asbag56
(g77
g58
NtRp2392
(dp2393
g61
(dp2394
sg70
g2379
sg63
(lp2395
g56
(g57
g58
NtRp2396
(dp2397
g61
(dp2398
g69
I5
ssg70
g2392
sg63
(lp2399
g56
(g65
g58
NtRp2400
(dp2401
g61
(dp2402
g69
I4
ssg70
Nsg63
(lp2403
g56
(g72
g58
NtRp2404
(dp2405
g61
(dp2406
sg70
g2400
sg63
(lp2407
g56
(g77
g58
NtRp2408
(dp2409
g61
(dp2410
g81
g82
ssg70
g2404
sg63
(lp2411
S'environ'
p2412
asbag56
(g77
g58
NtRp2413
(dp2414
g61
(dp2415
g88
g89
ssg70
g2404
sg63
(lp2416
S':'
asbag56
(g77
g58
NtRp2417
(dp2418
g61
(dp2419
sg70
g2404
sg63
(lp2420
g56
(g57
g58
NtRp2421
(dp2422
g61
(dp2423
g69
I4
ssg70
g2417
sg63
(lp2424
g56
(g65
g58
NtRp2425
(dp2426
g61
(dp2427
g69
I3
ssg70
Nsg63
(lp2428
g56
(g72
g58
NtRp2429
(dp2430
g61
(dp2431
sg70
g2425
sg63
(lp2432
g56
(g77
g58
NtRp2433
(dp2434
g61
(dp2435
g81
g82
ssg70
g2429
sg63
(lp2436
S'HTTP_ACCEPT'
p2437
asbag56
(g77
g58
NtRp2438
(dp2439
g61
(dp2440
g88
g89
ssg70
g2429
sg63
(lp2441
S':'
asbag56
(g77
g58
NtRp2442
(dp2443
g61
(dp2444
sg70
g2429
sg63
(lp2445
g56
(g57
g58
NtRp2446
(dp2447
g61
(dp2448
g69
I3
ssg70
g2442
sg63
(lp2449
g1385
asbasbasbag56
(g72
g58
NtRp2450
(dp2451
g61
(dp2452
sg70
g2425
sg63
(lp2453
g56
(g77
g58
NtRp2454
(dp2455
g61
(dp2456
g81
g82
ssg70
g2450
sg63
(lp2457
S'HTTP_ACCEPT_CHARSET'
p2458
asbag56
(g77
g58
NtRp2459
(dp2460
g61
(dp2461
g88
g89
ssg70
g2450
sg63
(lp2462
S':'
asbag56
(g77
g58
NtRp2463
(dp2464
g61
(dp2465
sg70
g2450
sg63
(lp2466
g56
(g57
g58
NtRp2467
(dp2468
g61
(dp2469
g69
I3
ssg70
g2463
sg63
(lp2470
g1407
asbasbasbag56
(g72
g58
NtRp2471
(dp2472
g61
(dp2473
sg70
g2425
sg63
(lp2474
g56
(g77
g58
NtRp2475
(dp2476
g61
(dp2477
g81
g82
ssg70
g2471
sg63
(lp2478
S'HTTP_ACCEPT_ENCODING'
p2479
asbag56
(g77
g58
NtRp2480
(dp2481
g61
(dp2482
g88
g89
ssg70
g2471
sg63
(lp2483
S':'
asbag56
(g77
g58
NtRp2484
(dp2485
g61
(dp2486
sg70
g2471
sg63
(lp2487
g56
(g57
g58
NtRp2488
(dp2489
g61
(dp2490
g69
I3
ssg70
g2484
sg63
(lp2491
g1429
asbasbasbag56
(g72
g58
NtRp2492
(dp2493
g61
(dp2494
sg70
g2425
sg63
(lp2495
g56
(g77
g58
NtRp2496
(dp2497
g61
(dp2498
g81
g82
ssg70
g2492
sg63
(lp2499
S'HTTP_ACCEPT_LANGUAGE'
p2500
asbag56
(g77
g58
NtRp2501
(dp2502
g61
(dp2503
g88
g89
ssg70
g2492
sg63
(lp2504
S':'
asbag56
(g77
g58
NtRp2505
(dp2506
g61
(dp2507
sg70
g2492
sg63
(lp2508
g56
(g57
g58
NtRp2509
(dp2510
g61
(dp2511
g69
I3
ssg70
g2505
sg63
(lp2512
g1451
asbasbasbag56
(g72
g58
NtRp2513
(dp2514
g61
(dp2515
sg70
g2425
sg63
(lp2516
g56
(g77
g58
NtRp2517
(dp2518
g61
(dp2519
g81
g82
ssg70
g2513
sg63
(lp2520
S'HTTP_CACHE_CONTROL'
p2521
asbag56
(g77
g58
NtRp2522
(dp2523
g61
(dp2524
g88
g89
ssg70
g2513
sg63
(lp2525
S':'
asbag56
(g77
g58
NtRp2526
(dp2527
g61
(dp2528
sg70
g2513
sg63
(lp2529
g56
(g57
g58
NtRp2530
(dp2531
g61
(dp2532
g69
I3
ssg70
g2526
sg63
(lp2533
g1473
asbasbasbag56
(g72
g58
NtRp2534
(dp2535
g61
(dp2536
sg70
g2425
sg63
(lp2537
g56
(g77
g58
NtRp2538
(dp2539
g61
(dp2540
g81
g82
ssg70
g2534
sg63
(lp2541
S'HTTP_CONNECTION'
p2542
asbag56
(g77
g58
NtRp2543
(dp2544
g61
(dp2545
g88
g89
ssg70
g2534
sg63
(lp2546
S':'
asbag56
(g77
g58
NtRp2547
(dp2548
g61
(dp2549
sg70
g2534
sg63
(lp2550
g56
(g57
g58
NtRp2551
(dp2552
g61
(dp2553
g69
I3
ssg70
g2547
sg63
(lp2554
g1495
asbasbasbag56
(g72
g58
NtRp2555
(dp2556
g61
(dp2557
sg70
g2425
sg63
(lp2558
g56
(g77
g58
NtRp2559
(dp2560
g61
(dp2561
g81
g82
ssg70
g2555
sg63
(lp2562
S'HTTP_COOKIE'
p2563
asbag56
(g77
g58
NtRp2564
(dp2565
g61
(dp2566
g88
g89
ssg70
g2555
sg63
(lp2567
S':'
asbag56
(g77
g58
NtRp2568
(dp2569
g61
(dp2570
sg70
g2555
sg63
(lp2571
g56
(g57
g58
NtRp2572
(dp2573
g61
(dp2574
g69
I3
ssg70
g2568
sg63
(lp2575
g1517
asbasbasbag56
(g72
g58
NtRp2576
(dp2577
g61
(dp2578
sg70
g2425
sg63
(lp2579
g56
(g77
g58
NtRp2580
(dp2581
g61
(dp2582
g81
g82
ssg70
g2576
sg63
(lp2583
S'HTTP_HOST'
p2584
asbag56
(g77
g58
NtRp2585
(dp2586
g61
(dp2587
g88
g89
ssg70
g2576
sg63
(lp2588
S':'
asbag56
(g77
g58
NtRp2589
(dp2590
g61
(dp2591
sg70
g2576
sg63
(lp2592
g56
(g57
g58
NtRp2593
(dp2594
g61
(dp2595
g69
I3
ssg70
g2589
sg63
(lp2596
g1539
asbasbasbag56
(g72
g58
NtRp2597
(dp2598
g61
(dp2599
sg70
g2425
sg63
(lp2600
g56
(g77
g58
NtRp2601
(dp2602
g61
(dp2603
g81
g82
ssg70
g2597
sg63
(lp2604
S'HTTP_REFERER'
p2605
asbag56
(g77
g58
NtRp2606
(dp2607
g61
(dp2608
g88
g89
ssg70
g2597
sg63
(lp2609
S':'
asbag56
(g77
g58
NtRp2610
(dp2611
g61
(dp2612
sg70
g2597
sg63
(lp2613
g56
(g57
g58
NtRp2614
(dp2615
g61
(dp2616
g69
I3
ssg70
g2610
sg63
(lp2617
g1561
asbasbasbag56
(g72
g58
NtRp2618
(dp2619
g61
(dp2620
sg70
g2425
sg63
(lp2621
g56
(g77
g58
NtRp2622
(dp2623
g61
(dp2624
g81
g82
ssg70
g2618
sg63
(lp2625
S'HTTP_USER_AGENT'
p2626
asbag56
(g77
g58
NtRp2627
(dp2628
g61
(dp2629
g88
g89
ssg70
g2618
sg63
(lp2630
S':'
asbag56
(g77
g58
NtRp2631
(dp2632
g61
(dp2633
sg70
g2618
sg63
(lp2634
g56
(g57
g58
NtRp2635
(dp2636
g61
(dp2637
g69
I3
ssg70
g2631
sg63
(lp2638
g1583
asbasbasbag56
(g72
g58
NtRp2639
(dp2640
g61
(dp2641
sg70
g2425
sg63
(lp2642
g56
(g77
g58
NtRp2643
(dp2644
g61
(dp2645
g81
g82
ssg70
g2639
sg63
(lp2646
S'PATH_INFO'
p2647
asbag56
(g77
g58
NtRp2648
(dp2649
g61
(dp2650
g88
g89
ssg70
g2639
sg63
(lp2651
S':'
asbag56
(g77
g58
NtRp2652
(dp2653
g61
(dp2654
sg70
g2639
sg63
(lp2655
g56
(g57
g58
NtRp2656
(dp2657
g61
(dp2658
g69
I3
ssg70
g2652
sg63
(lp2659
g1626
asbasbasbag56
(g72
g58
NtRp2660
(dp2661
g61
(dp2662
sg70
g2425
sg63
(lp2663
g56
(g77
g58
NtRp2664
(dp2665
g61
(dp2666
g81
g82
ssg70
g2660
sg63
(lp2667
S'QUERY_STRING'
p2668
asbag56
(g77
g58
NtRp2669
(dp2670
g61
(dp2671
g88
g89
ssg70
g2660
sg63
(lp2672
S':'
asbag56
(g77
g58
NtRp2673
(dp2674
g61
(dp2675
sg70
g2660
sg63
(lp2676
g56
(g57
g58
NtRp2677
(dp2678
g61
(dp2679
g69
I3
ssg70
g2673
sg63
(lp2680
S''
asbasbasbag56
(g72
g58
NtRp2681
(dp2682
g61
(dp2683
sg70
g2425
sg63
(lp2684
g56
(g77
g58
NtRp2685
(dp2686
g61
(dp2687
g81
g82
ssg70
g2681
sg63
(lp2688
S'REMOTE_ADDR'
p2689
asbag56
(g77
g58
NtRp2690
(dp2691
g61
(dp2692
g88
g89
ssg70
g2681
sg63
(lp2693
S':'
asbag56
(g77
g58
NtRp2694
(dp2695
g61
(dp2696
sg70
g2681
sg63
(lp2697
g56
(g57
g58
NtRp2698
(dp2699
g61
(dp2700
g69
I3
ssg70
g2694
sg63
(lp2701
g202
asbasbasbag56
(g72
g58
NtRp2702
(dp2703
g61
(dp2704
sg70
g2425
sg63
(lp2705
g56
(g77
g58
NtRp2706
(dp2707
g61
(dp2708
g81
g82
ssg70
g2702
sg63
(lp2709
S'REMOTE_PORT'
p2710
asbag56
(g77
g58
NtRp2711
(dp2712
g61
(dp2713
g88
g89
ssg70
g2702
sg63
(lp2714
S':'
asbag56
(g77
g58
NtRp2715
(dp2716
g61
(dp2717
sg70
g2702
sg63
(lp2718
g56
(g57
g58
NtRp2719
(dp2720
g61
(dp2721
g69
I3
ssg70
g2715
sg63
(lp2722
g1690
asbasbasbag56
(g72
g58
NtRp2723
(dp2724
g61
(dp2725
sg70
g2425
sg63
(lp2726
g56
(g77
g58
NtRp2727
(dp2728
g61
(dp2729
g81
g82
ssg70
g2723
sg63
(lp2730
S'REQUEST_METHOD'
p2731
asbag56
(g77
g58
NtRp2732
(dp2733
g61
(dp2734
g88
g89
ssg70
g2723
sg63
(lp2735
S':'
asbag56
(g77
g58
NtRp2736
(dp2737
g61
(dp2738
sg70
g2723
sg63
(lp2739
g56
(g57
g58
NtRp2740
(dp2741
g61
(dp2742
g69
I3
ssg70
g2736
sg63
(lp2743
g1712
asbasbasbag56
(g72
g58
NtRp2744
(dp2745
g61
(dp2746
sg70
g2425
sg63
(lp2747
g56
(g77
g58
NtRp2748
(dp2749
g61
(dp2750
g81
g82
ssg70
g2744
sg63
(lp2751
S'SCRIPT_NAME'
p2752
asbag56
(g77
g58
NtRp2753
(dp2754
g61
(dp2755
g88
g89
ssg70
g2744
sg63
(lp2756
S':'
asbag56
(g77
g58
NtRp2757
(dp2758
g61
(dp2759
sg70
g2744
sg63
(lp2760
g56
(g57
g58
NtRp2761
(dp2762
g61
(dp2763
g69
I3
ssg70
g2757
sg63
(lp2764
S''
asbasbasbag56
(g72
g58
NtRp2765
(dp2766
g61
(dp2767
sg70
g2425
sg63
(lp2768
g56
(g77
g58
NtRp2769
(dp2770
g61
(dp2771
g81
g82
ssg70
g2765
sg63
(lp2772
S'SERVER_NAME'
p2773
asbag56
(g77
g58
NtRp2774
(dp2775
g61
(dp2776
g88
g89
ssg70
g2765
sg63
(lp2777
S':'
asbag56
(g77
g58
NtRp2778
(dp2779
g61
(dp2780
sg70
g2765
sg63
(lp2781
g56
(g57
g58
NtRp2782
(dp2783
g61
(dp2784
g69
I3
ssg70
g2778
sg63
(lp2785
g1755
asbasbasbag56
(g72
g58
NtRp2786
(dp2787
g61
(dp2788
sg70
g2425
sg63
(lp2789
g56
(g77
g58
NtRp2790
(dp2791
g61
(dp2792
g81
g82
ssg70
g2786
sg63
(lp2793
S'SERVER_PORT'
p2794
asbag56
(g77
g58
NtRp2795
(dp2796
g61
(dp2797
g88
g89
ssg70
g2786
sg63
(lp2798
S':'
asbag56
(g77
g58
NtRp2799
(dp2800
g61
(dp2801
sg70
g2786
sg63
(lp2802
g56
(g57
g58
NtRp2803
(dp2804
g61
(dp2805
g69
I3
ssg70
g2799
sg63
(lp2806
g1777
asbasbasbag56
(g72
g58
NtRp2807
(dp2808
g61
(dp2809
sg70
g2425
sg63
(lp2810
g56
(g77
g58
NtRp2811
(dp2812
g61
(dp2813
g81
g82
ssg70
g2807
sg63
(lp2814
S'SERVER_PROTOCOL'
p2815
asbag56
(g77
g58
NtRp2816
(dp2817
g61
(dp2818
g88
g89
ssg70
g2807
sg63
(lp2819
S':'
asbag56
(g77
g58
NtRp2820
(dp2821
g61
(dp2822
sg70
g2807
sg63
(lp2823
g56
(g57
g58
NtRp2824
(dp2825
g61
(dp2826
g69
I3
ssg70
g2820
sg63
(lp2827
g1799
asbasbasbag56
(g72
g58
NtRp2828
(dp2829
g61
(dp2830
sg70
g2425
sg63
(lp2831
g56
(g77
g58
NtRp2832
(dp2833
g61
(dp2834
g81
g82
ssg70
g2828
sg63
(lp2835
S'SERVER_SOFTWARE'
p2836
asbag56
(g77
g58
NtRp2837
(dp2838
g61
(dp2839
g88
g89
ssg70
g2828
sg63
(lp2840
S':'
asbag56
(g77
g58
NtRp2841
(dp2842
g61
(dp2843
sg70
g2828
sg63
(lp2844
g56
(g57
g58
NtRp2845
(dp2846
g61
(dp2847
g69
I3
ssg70
g2841
sg63
(lp2848
g1821
asbasbasbag56
(g72
g58
NtRp2849
(dp2850
g61
(dp2851
sg70
g2425
sg63
(lp2852
g56
(g77
g58
NtRp2853
(dp2854
g61
(dp2855
g81
g82
ssg70
g2849
sg63
(lp2856
S'wsgi.errors'
p2857
asbag56
(g77
g58
NtRp2858
(dp2859
g61
(dp2860
g88
g89
ssg70
g2849
sg63
(lp2861
S':'
asbag56
(g77
g58
NtRp2862
(dp2863
g61
(dp2864
sg70
g2849
sg63
(lp2865
g56
(g57
g58
NtRp2866
(dp2867
g61
(dp2868
g69
I3
ssg70
g2862
sg63
(lp2869
S"<open file '<stderr>', mode 'w' at 0x100287270>"
p2870
asbasbasbag56
(g72
g58
NtRp2871
(dp2872
g61
(dp2873
sg70
g2425
sg63
(lp2874
g56
(g77
g58
NtRp2875
(dp2876
g61
(dp2877
g81
g82
ssg70
g2871
sg63
(lp2878
S'wsgi.file_wrapper'
p2879
asbag56
(g77
g58
NtRp2880
(dp2881
g61
(dp2882
g88
g89
ssg70
g2871
sg63
(lp2883
S':'
asbag56
(g77
g58
NtRp2884
(dp2885
g61
(dp2886
sg70
g2871
sg63
(lp2887
g56
(g57
g58
NtRp2888
(dp2889
g61
(dp2890
g69
I3
ssg70
g2884
sg63
(lp2891
S'<class gluon.rocket.FileWrapper at 0x101667e88>'
p2892
asbasbasbag56
(g72
g58
NtRp2893
(dp2894
g61
(dp2895
sg70
g2425
sg63
(lp2896
g56
(g77
g58
NtRp2897
(dp2898
g61
(dp2899
g81
g82
ssg70
g2893
sg63
(lp2900
S'wsgi.input'
p2901
asbag56
(g77
g58
NtRp2902
(dp2903
g61
(dp2904
g88
g89
ssg70
g2893
sg63
(lp2905
S':'
asbag56
(g77
g58
NtRp2906
(dp2907
g61
(dp2908
sg70
g2893
sg63
(lp2909
g56
(g57
g58
NtRp2910
(dp2911
g61
(dp2912
g69
I3
ssg70
g2906
sg63
(lp2913
S'<cStringIO.StringO object at 0x101eadce0>'
p2914
asbasbasbag56
(g72
g58
NtRp2915
(dp2916
g61
(dp2917
sg70
g2425
sg63
(lp2918
g56
(g77
g58
NtRp2919
(dp2920
g61
(dp2921
g81
g82
ssg70
g2915
sg63
(lp2922
S'wsgi.multiprocess'
p2923
asbag56
(g77
g58
NtRp2924
(dp2925
g61
(dp2926
g88
g89
ssg70
g2915
sg63
(lp2927
S':'
asbag56
(g77
g58
NtRp2928
(dp2929
g61
(dp2930
sg70
g2915
sg63
(lp2931
g56
(g57
g58
NtRp2932
(dp2933
g61
(dp2934
g69
I3
ssg70
g2928
sg63
(lp2935
g99
asbasbasbag56
(g72
g58
NtRp2936
(dp2937
g61
(dp2938
sg70
g2425
sg63
(lp2939
g56
(g77
g58
NtRp2940
(dp2941
g61
(dp2942
g81
g82
ssg70
g2936
sg63
(lp2943
S'wsgi.multithread'
p2944
asbag56
(g77
g58
NtRp2945
(dp2946
g61
(dp2947
g88
g89
ssg70
g2936
sg63
(lp2948
S':'
asbag56
(g77
g58
NtRp2949
(dp2950
g61
(dp2951
sg70
g2936
sg63
(lp2952
g56
(g57
g58
NtRp2953
(dp2954
g61
(dp2955
g69
I3
ssg70
g2949
sg63
(lp2956
g1995
asbasbasbag56
(g72
g58
NtRp2957
(dp2958
g61
(dp2959
sg70
g2425
sg63
(lp2960
g56
(g77
g58
NtRp2961
(dp2962
g61
(dp2963
g81
g82
ssg70
g2957
sg63
(lp2964
S'wsgi.run_once'
p2965
asbag56
(g77
g58
NtRp2966
(dp2967
g61
(dp2968
g88
g89
ssg70
g2957
sg63
(lp2969
S':'
asbag56
(g77
g58
NtRp2970
(dp2971
g61
(dp2972
sg70
g2957
sg63
(lp2973
g56
(g57
g58
NtRp2974
(dp2975
g61
(dp2976
g69
I3
ssg70
g2970
sg63
(lp2977
g99
asbasbasbag56
(g72
g58
NtRp2978
(dp2979
g61
(dp2980
sg70
g2425
sg63
(lp2981
g56
(g77
g58
NtRp2982
(dp2983
g61
(dp2984
g81
g82
ssg70
g2978
sg63
(lp2985
S'wsgi.url_scheme'
p2986
asbag56
(g77
g58
NtRp2987
(dp2988
g61
(dp2989
g88
g89
ssg70
g2978
sg63
(lp2990
S':'
asbag56
(g77
g58
NtRp2991
(dp2992
g61
(dp2993
sg70
g2978
sg63
(lp2994
g56
(g57
g58
NtRp2995
(dp2996
g61
(dp2997
g69
I3
ssg70
g2991
sg63
(lp2998
g2038
asbasbasbag56
(g72
g58
NtRp2999
(dp3000
g61
(dp3001
sg70
g2425
sg63
(lp3002
g56
(g77
g58
NtRp3003
(dp3004
g61
(dp3005
g81
g82
ssg70
g2999
sg63
(lp3006
S'wsgi.version'
p3007
asbag56
(g77
g58
NtRp3008
(dp3009
g61
(dp3010
g88
g89
ssg70
g2999
sg63
(lp3011
S':'
asbag56
(g77
g58
NtRp3012
(dp3013
g61
(dp3014
sg70
g2999
sg63
(lp3015
g56
(g57
g58
NtRp3016
(dp3017
g61
(dp3018
g69
I3
ssg70
g3012
sg63
(lp3019
S'1'
asbasbasbasbasbasbasbasbasbasbasbasbasbsS'frames'
p3020
(lp3021
(dp3022
S'file'
p3023
S'/opt/local/Library/Frameworks/Python.framework/Versions/2.7/lib/python2.7/gluon/restricted.py'
p3024
sS'dump'
p3025
(dp3026
S'environment'
p3027
S"{'A': <class 'gluon.html.A'>, 'Auth': <class 'gluon.tools.Auth'>, 'B': <class 'gluon.html.B'>, 'BEAUTIFY': <class 'gluon.html.BEAUTIFY'>, 'BODY': <class 'gluon.html.BODY'>, 'BR': <class 'gluon.html.BR'>, 'BUTTON': <class 'gluon.html.BUTTON'>, 'CAT': <class 'gluon.html.CAT'>, 'CENTER': <class 'gluon.html.CENTER'>, 'CLEANUP': <class 'gluon.validators.CLEANUP'>, ...}"
p3028
sS'ccode'
p3029
S'<code object <module> at 0x101e371b0, file "/Use...pplications/init/controllers/default.py", line 3>'
p3030
ssS'lnum'
p3031
I192
sS'lines'
p3032
(dp3033
I192
S'        exec ccode in environment'
p3034
sI193
S'    except HTTP:'
p3035
sI194
S'        raise'
p3036
sI195
S'    except Exception, error:'
p3037
sI196
S'        # XXX Show exception in Wing IDE if running in debugger'
p3038
sI187
S'    try:'
p3039
sI188
S'        if type(code) == types.CodeType:'
p3040
sI189
S'            ccode = code'
p3041
sI190
S'        else:'
p3042
sI191
S'            ccode = compile2(code,layer)'
p3043
ssS'call'
p3044
S"(code='# -*- coding: utf-8 -*-\\n### required - do no del...n dict()\\n\\nresponse._vars=response._caller(tulip)\\n', environment={'A': <class 'gluon.html.A'>, 'Auth': <class 'gluon.tools.Auth'>, 'B': <class 'gluon.html.B'>, 'BEAUTIFY': <class 'gluon.html.BEAUTIFY'>, 'BODY': <class 'gluon.html.BODY'>, 'BR': <class 'gluon.html.BR'>, 'BUTTON': <class 'gluon.html.BUTTON'>, 'CAT': <class 'gluon.html.CAT'>, 'CENTER': <class 'gluon.html.CENTER'>, 'CLEANUP': <class 'gluon.validators.CLEANUP'>, ...}, layer='/Users/hellais/Documents/code/mygit/globaleaks/webapp/applications/init/controllers/default.py')"
p3045
sS'func'
p3046
S'restricted'
p3047
sa(dp3048
g3023
S'/Users/hellais/Documents/code/mygit/globaleaks/webapp/applications/init/controllers/default.py'
p3049
sg3025
(dp3050
sg3031
I59
sg3032
(dp3051
I48
S'    t.downloads_counter = t.downloads_counter + 1'
p3052
sI49
S'    return dict(leak_title=leak.title,'
p3053
sI50
S'                leak_tags=leak.tags,'
p3054
sI51
S'                leak_desc=leak.desc,'
p3055
sI52
S'                leak_material=leak.material,'
p3056
sI53
S'                tulip_downloads=t.downloads_counter,'
p3057
sI54
S'                tulip_allowed_downloads=t.allowed_downloads)'
p3058
sI55
S''
sI56
S'def error():'
p3059
sI57
S'    return dict()'
p3060
ssg3044
S'()'
p3061
sg3046
S'<module>'
p3062
sa(dp3063
g3023
S'/opt/local/Library/Frameworks/Python.framework/Versions/2.7/lib/python2.7/gluon/globals.py'
p3064
sg3025
(dp3065
S'self'
p3066
S'undefined'
p3067
sS'f'
S'<function tulip>'
p3068
ssg3031
I145
sg3032
(dp3069
I140
S'        self.meta = Storage()      # used by web2py_ajax.html'
p3070
sI141
S'        self.menu = []             # used by the default view layout'
p3071
sI142
S'        self.files = []            # used by web2py_ajax.html'
p3072
sI143
S'        self.generic_patterns = [] # patterns to allow generic views'
p3073
sI144
S'        self._vars = None'
p3074
sI145
S'        self._caller = lambda f: f()'
p3075
sI146
S'        self._view_environment = None'
p3076
sI147
S'        self._custom_commit = None'
p3077
sI148
S'        self._custom_rollback = None'
p3078
sI149
S''
ssg3044
S'(f=<function tulip>)'
p3079
sg3046
S'<lambda>'
p3080
sa(dp3081
g3023
S'/Users/hellais/Documents/code/mygit/globaleaks/webapp/applications/init/controllers/default.py'
p3082
sg3025
(dp3083
S't'
S'<Tulip object>'
p3084
sS't.downloads_counter'
p3085
S"'0'"
p3086
ssg3031
I48
sg3032
(dp3087
I43
S''
sI44
S'def tulip():'
p3088
sI45
S'    tulip_url = request.args[0]'
p3089
sI46
S'    t = Tulip(url=tulip_url)'
p3090
sI47
S'    leak = t.get_leak()'
p3091
sI48
S'    t.downloads_counter = t.downloads_counter + 1'
p3092
sI49
S'    return dict(leak_title=leak.title,'
p3093
sI50
S'                leak_tags=leak.tags,'
p3094
sI51
S'                leak_desc=leak.desc,'
p3095
sI52
S'                leak_material=leak.material,'
p3096
ssg3044
S'()'
p3097
sg3046
S'tulip'
p3098
sasS'pyver'
p3099
S'Python 2.7.1: /opt/local/Library/Frameworks/Python.framework/Versions/2.7/Resources/Python.app/Contents/MacOS/Python'
p3100
sS'session'
p3101
g56
(g57
g58
NtRp3102
(dp3103
g61
(dp3104
sg63
(lp3105
g56
(g65
g58
NtRp3106
(dp3107
g61
(dp3108
g69
I5
ssg70
Nsg63
(lp3109
sbasbsS'etype'
p3110
S"<type 'exceptions.TypeError'>"
p3111
sS'date'
p3112
S'Sun Aug 28 11:39:36 2011'
p3113
sS'response'
p3114
g56
(g57
g58
NtRp3115
(dp3116
g61
(dp3117
sg63
(lp3118
g56
(g65
g58
NtRp3119
(dp3120
g61
(dp3121
g69
I5
ssg70
Nsg63
(lp3122
g56
(g72
g58
NtRp3123
(dp3124
g61
(dp3125
sg70
g3119
sg63
(lp3126
g56
(g77
g58
NtRp3127
(dp3128
g61
(dp3129
g81
g82
ssg70
g3123
sg63
(lp3130
g167
asbag56
(g77
g58
NtRp3131
(dp3132
g61
(dp3133
g88
g89
ssg70
g3123
sg63
(lp3134
S':'
asbag56
(g77
g58
NtRp3135
(dp3136
g61
(dp3137
sg70
g3123
sg63
(lp3138
g56
(g57
g58
NtRp3139
(dp3140
g61
(dp3141
g69
I5
ssg70
g3135
sg63
(lp3142
S'<cStringIO.StringO object at 0x101c74ea0>'
p3143
asbasbasbag56
(g72
g58
NtRp3144
(dp3145
g61
(dp3146
sg70
g3119
sg63
(lp3147
g56
(g77
g58
NtRp3148
(dp3149
g61
(dp3150
g81
g82
ssg70
g3144
sg63
(lp3151
g233
asbag56
(g77
g58
NtRp3152
(dp3153
g61
(dp3154
g88
g89
ssg70
g3144
sg63
(lp3155
S':'
asbag56
(g77
g58
NtRp3156
(dp3157
g61
(dp3158
sg70
g3144
sg63
(lp3159
g56
(g57
g58
NtRp3160
(dp3161
g61
(dp3162
g69
I5
ssg70
g3156
sg63
(lp3163
g56
(g65
g58
NtRp3164
(dp3165
g61
(dp3166
g69
I4
ssg70
Nsg63
(lp3167
g56
(g72
g58
NtRp3168
(dp3169
g61
(dp3170
sg70
g3164
sg63
(lp3171
g56
(g77
g58
NtRp3172
(dp3173
g61
(dp3174
g81
g82
ssg70
g3168
sg63
(lp3175
S'session_id_init'
p3176
asbag56
(g77
g58
NtRp3177
(dp3178
g61
(dp3179
g88
g89
ssg70
g3168
sg63
(lp3180
S':'
asbag56
(g77
g58
NtRp3181
(dp3182
g61
(dp3183
sg70
g3168
sg63
(lp3184
g56
(g57
g58
NtRp3185
(dp3186
g61
(dp3187
g69
I4
ssg70
g3181
sg63
(lp3188
g56
(g65
g58
NtRp3189
(dp3190
g61
(dp3191
g69
I3
ssg70
Nsg63
(lp3192
g56
(g72
g58
NtRp3193
(dp3194
g61
(dp3195
sg70
g3189
sg63
(lp3196
g56
(g77
g58
NtRp3197
(dp3198
g61
(dp3199
g81
g82
ssg70
g3193
sg63
(lp3200
g283
asbag56
(g77
g58
NtRp3201
(dp3202
g61
(dp3203
g88
g89
ssg70
g3193
sg63
(lp3204
S':'
asbag56
(g77
g58
NtRp3205
(dp3206
g61
(dp3207
sg70
g3193
sg63
(lp3208
g56
(g57
g58
NtRp3209
(dp3210
g61
(dp3211
g69
I3
ssg70
g3205
sg63
(lp3212
S''
asbasbasbag56
(g72
g58
NtRp3213
(dp3214
g61
(dp3215
sg70
g3189
sg63
(lp3216
g56
(g77
g58
NtRp3217
(dp3218
g61
(dp3219
g81
g82
ssg70
g3213
sg63
(lp3220
g304
asbag56
(g77
g58
NtRp3221
(dp3222
g61
(dp3223
g88
g89
ssg70
g3213
sg63
(lp3224
S':'
asbag56
(g77
g58
NtRp3225
(dp3226
g61
(dp3227
sg70
g3213
sg63
(lp3228
g56
(g57
g58
NtRp3229
(dp3230
g61
(dp3231
g69
I3
ssg70
g3225
sg63
(lp3232
S''
asbasbasbag56
(g72
g58
NtRp3233
(dp3234
g61
(dp3235
sg70
g3189
sg63
(lp3236
g56
(g77
g58
NtRp3237
(dp3238
g61
(dp3239
g81
g82
ssg70
g3233
sg63
(lp3240
g325
asbag56
(g77
g58
NtRp3241
(dp3242
g61
(dp3243
g88
g89
ssg70
g3233
sg63
(lp3244
S':'
asbag56
(g77
g58
NtRp3245
(dp3246
g61
(dp3247
sg70
g3233
sg63
(lp3248
g56
(g57
g58
NtRp3249
(dp3250
g61
(dp3251
g69
I3
ssg70
g3245
sg63
(lp3252
S''
asbasbasbag56
(g72
g58
NtRp3253
(dp3254
g61
(dp3255
sg70
g3189
sg63
(lp3256
g56
(g77
g58
NtRp3257
(dp3258
g61
(dp3259
g81
g82
ssg70
g3253
sg63
(lp3260
g346
asbag56
(g77
g58
NtRp3261
(dp3262
g61
(dp3263
g88
g89
ssg70
g3253
sg63
(lp3264
S':'
asbag56
(g77
g58
NtRp3265
(dp3266
g61
(dp3267
sg70
g3253
sg63
(lp3268
g56
(g57
g58
NtRp3269
(dp3270
g61
(dp3271
g69
I3
ssg70
g3265
sg63
(lp3272
S''
asbasbasbag56
(g72
g58
NtRp3273
(dp3274
g61
(dp3275
sg70
g3189
sg63
(lp3276
g56
(g77
g58
NtRp3277
(dp3278
g61
(dp3279
g81
g82
ssg70
g3273
sg63
(lp3280
g367
asbag56
(g77
g58
NtRp3281
(dp3282
g61
(dp3283
g88
g89
ssg70
g3273
sg63
(lp3284
S':'
asbag56
(g77
g58
NtRp3285
(dp3286
g61
(dp3287
sg70
g3273
sg63
(lp3288
g56
(g57
g58
NtRp3289
(dp3290
g61
(dp3291
g69
I3
ssg70
g3285
sg63
(lp3292
S''
asbasbasbag56
(g72
g58
NtRp3293
(dp3294
g61
(dp3295
sg70
g3189
sg63
(lp3296
g56
(g77
g58
NtRp3297
(dp3298
g61
(dp3299
g81
g82
ssg70
g3293
sg63
(lp3300
g388
asbag56
(g77
g58
NtRp3301
(dp3302
g61
(dp3303
g88
g89
ssg70
g3293
sg63
(lp3304
S':'
asbag56
(g77
g58
NtRp3305
(dp3306
g61
(dp3307
sg70
g3293
sg63
(lp3308
g56
(g57
g58
NtRp3309
(dp3310
g61
(dp3311
g69
I3
ssg70
g3305
sg63
(lp3312
S'/'
asbasbasbag56
(g72
g58
NtRp3313
(dp3314
g61
(dp3315
sg70
g3189
sg63
(lp3316
g56
(g77
g58
NtRp3317
(dp3318
g61
(dp3319
g81
g82
ssg70
g3313
sg63
(lp3320
g409
asbag56
(g77
g58
NtRp3321
(dp3322
g61
(dp3323
g88
g89
ssg70
g3313
sg63
(lp3324
S':'
asbag56
(g77
g58
NtRp3325
(dp3326
g61
(dp3327
sg70
g3313
sg63
(lp3328
g56
(g57
g58
NtRp3329
(dp3330
g61
(dp3331
g69
I3
ssg70
g3325
sg63
(lp3332
S''
asbasbasbag56
(g72
g58
NtRp3333
(dp3334
g61
(dp3335
sg70
g3189
sg63
(lp3336
g56
(g77
g58
NtRp3337
(dp3338
g61
(dp3339
g81
g82
ssg70
g3333
sg63
(lp3340
g430
asbag56
(g77
g58
NtRp3341
(dp3342
g61
(dp3343
g88
g89
ssg70
g3333
sg63
(lp3344
S':'
asbag56
(g77
g58
NtRp3345
(dp3346
g61
(dp3347
sg70
g3333
sg63
(lp3348
g56
(g57
g58
NtRp3349
(dp3350
g61
(dp3351
g69
I3
ssg70
g3345
sg63
(lp3352
S''
asbasbasbasbasbasbasbasbasbasbasbag56
(g72
g58
NtRp3353
(dp3354
g61
(dp3355
sg70
g3119
sg63
(lp3356
g56
(g77
g58
NtRp3357
(dp3358
g61
(dp3359
g81
g82
ssg70
g3353
sg63
(lp3360
S'files'
p3361
asbag56
(g77
g58
NtRp3362
(dp3363
g61
(dp3364
g88
g89
ssg70
g3353
sg63
(lp3365
S':'
asbag56
(g77
g58
NtRp3366
(dp3367
g61
(dp3368
sg70
g3353
sg63
(lp3369
g56
(g57
g58
NtRp3370
(dp3371
g61
(dp3372
g69
I5
ssg70
g3366
sg63
(lp3373
g56
(g65
g58
NtRp3374
(dp3375
g61
(dp3376
g69
I4
ssg70
Nsg63
(lp3377
sbasbasbasbag56
(g72
g58
NtRp3378
(dp3379
g61
(dp3380
sg70
g3119
sg63
(lp3381
g56
(g77
g58
NtRp3382
(dp3383
g61
(dp3384
g81
g82
ssg70
g3378
sg63
(lp3385
S'flash'
p3386
asbag56
(g77
g58
NtRp3387
(dp3388
g61
(dp3389
g88
g89
ssg70
g3378
sg63
(lp3390
S':'
asbag56
(g77
g58
NtRp3391
(dp3392
g61
(dp3393
sg70
g3378
sg63
(lp3394
g56
(g57
g58
NtRp3395
(dp3396
g61
(dp3397
g69
I5
ssg70
g3391
sg63
(lp3398
S''
asbasbasbag56
(g72
g58
NtRp3399
(dp3400
g61
(dp3401
sg70
g3119
sg63
(lp3402
g56
(g77
g58
NtRp3403
(dp3404
g61
(dp3405
g81
g82
ssg70
g3399
sg63
(lp3406
S'generic_patterns'
p3407
asbag56
(g77
g58
NtRp3408
(dp3409
g61
(dp3410
g88
g89
ssg70
g3399
sg63
(lp3411
S':'
asbag56
(g77
g58
NtRp3412
(dp3413
g61
(dp3414
sg70
g3399
sg63
(lp3415
g56
(g57
g58
NtRp3416
(dp3417
g61
(dp3418
g69
I5
ssg70
g3412
sg63
(lp3419
g56
(g65
g58
NtRp3420
(dp3421
g61
(dp3422
g69
I4
ssg70
Nsg63
(lp3423
sbasbasbasbag56
(g72
g58
NtRp3424
(dp3425
g61
(dp3426
sg70
g3119
sg63
(lp3427
g56
(g77
g58
NtRp3428
(dp3429
g61
(dp3430
g81
g82
ssg70
g3424
sg63
(lp3431
S'headers'
p3432
asbag56
(g77
g58
NtRp3433
(dp3434
g61
(dp3435
g88
g89
ssg70
g3424
sg63
(lp3436
S':'
asbag56
(g77
g58
NtRp3437
(dp3438
g61
(dp3439
sg70
g3424
sg63
(lp3440
g56
(g57
g58
NtRp3441
(dp3442
g61
(dp3443
g69
I5
ssg70
g3437
sg63
(lp3444
g56
(g65
g58
NtRp3445
(dp3446
g61
(dp3447
g69
I4
ssg70
Nsg63
(lp3448
g56
(g72
g58
NtRp3449
(dp3450
g61
(dp3451
sg70
g3445
sg63
(lp3452
g56
(g77
g58
NtRp3453
(dp3454
g61
(dp3455
g81
g82
ssg70
g3449
sg63
(lp3456
S'Cache-Control'
p3457
asbag56
(g77
g58
NtRp3458
(dp3459
g61
(dp3460
g88
g89
ssg70
g3449
sg63
(lp3461
S':'
asbag56
(g77
g58
NtRp3462
(dp3463
g61
(dp3464
sg70
g3449
sg63
(lp3465
g56
(g57
g58
NtRp3466
(dp3467
g61
(dp3468
g69
I4
ssg70
g3462
sg63
(lp3469
S'no-store, no-cache, must-revalidate, post-check=0, pre-check=0'
p3470
asbasbasbag56
(g72
g58
NtRp3471
(dp3472
g61
(dp3473
sg70
g3445
sg63
(lp3474
g56
(g77
g58
NtRp3475
(dp3476
g61
(dp3477
g81
g82
ssg70
g3471
sg63
(lp3478
S'Content-Type'
p3479
asbag56
(g77
g58
NtRp3480
(dp3481
g61
(dp3482
g88
g89
ssg70
g3471
sg63
(lp3483
S':'
asbag56
(g77
g58
NtRp3484
(dp3485
g61
(dp3486
sg70
g3471
sg63
(lp3487
g56
(g57
g58
NtRp3488
(dp3489
g61
(dp3490
g69
I4
ssg70
g3484
sg63
(lp3491
S'text/html; charset=utf-8'
p3492
asbasbasbag56
(g72
g58
NtRp3493
(dp3494
g61
(dp3495
sg70
g3445
sg63
(lp3496
g56
(g77
g58
NtRp3497
(dp3498
g61
(dp3499
g81
g82
ssg70
g3493
sg63
(lp3500
S'Expires'
p3501
asbag56
(g77
g58
NtRp3502
(dp3503
g61
(dp3504
g88
g89
ssg70
g3493
sg63
(lp3505
S':'
asbag56
(g77
g58
NtRp3506
(dp3507
g61
(dp3508
sg70
g3493
sg63
(lp3509
g56
(g57
g58
NtRp3510
(dp3511
g61
(dp3512
g69
I4
ssg70
g3506
sg63
(lp3513
S'Sun, 28 Aug 2011 09:39:36 GMT'
p3514
asbasbasbag56
(g72
g58
NtRp3515
(dp3516
g61
(dp3517
sg70
g3445
sg63
(lp3518
g56
(g77
g58
NtRp3519
(dp3520
g61
(dp3521
g81
g82
ssg70
g3515
sg63
(lp3522
S'Pragma'
p3523
asbag56
(g77
g58
NtRp3524
(dp3525
g61
(dp3526
g88
g89
ssg70
g3515
sg63
(lp3527
S':'
asbag56
(g77
g58
NtRp3528
(dp3529
g61
(dp3530
sg70
g3515
sg63
(lp3531
g56
(g57
g58
NtRp3532
(dp3533
g61
(dp3534
g69
I4
ssg70
g3528
sg63
(lp3535
S'no-cache'
p3536
asbasbasbag56
(g72
g58
NtRp3537
(dp3538
g61
(dp3539
sg70
g3445
sg63
(lp3540
g56
(g77
g58
NtRp3541
(dp3542
g61
(dp3543
g81
g82
ssg70
g3537
sg63
(lp3544
S'X-Powered-By'
p3545
asbag56
(g77
g58
NtRp3546
(dp3547
g61
(dp3548
g88
g89
ssg70
g3537
sg63
(lp3549
S':'
asbag56
(g77
g58
NtRp3550
(dp3551
g61
(dp3552
sg70
g3537
sg63
(lp3553
g56
(g57
g58
NtRp3554
(dp3555
g61
(dp3556
g69
I4
ssg70
g3550
sg63
(lp3557
S'web2py'
p3558
asbasbasbasbasbasbasbag56
(g72
g58
NtRp3559
(dp3560
g61
(dp3561
sg70
g3119
sg63
(lp3562
g56
(g77
g58
NtRp3563
(dp3564
g61
(dp3565
g81
g82
ssg70
g3559
sg63
(lp3566
S'menu'
p3567
asbag56
(g77
g58
NtRp3568
(dp3569
g61
(dp3570
g88
g89
ssg70
g3559
sg63
(lp3571
S':'
asbag56
(g77
g58
NtRp3572
(dp3573
g61
(dp3574
sg70
g3559
sg63
(lp3575
g56
(g57
g58
NtRp3576
(dp3577
g61
(dp3578
g69
I5
ssg70
g3572
sg63
(lp3579
g56
(g65
g58
NtRp3580
(dp3581
g61
(dp3582
g69
I4
ssg70
Nsg63
(lp3583
g56
(g72
g58
NtRp3584
(dp3585
g61
(dp3586
sg70
g3580
sg63
(lp3587
g56
(g77
g58
NtRp3588
(dp3589
g61
(dp3590
sg70
g3584
sg63
(lp3591
g56
(g57
g58
NtRp3592
(dp3593
g61
(dp3594
g69
I4
ssg70
g3588
sg63
(lp3595
g56
(g65
g58
NtRp3596
(dp3597
g61
(dp3598
g69
I3
ssg70
Nsg63
(lp3599
g56
(g72
g58
NtRp3600
(dp3601
g61
(dp3602
sg70
g3596
sg63
(lp3603
g56
(g77
g58
NtRp3604
(dp3605
g61
(dp3606
sg70
g3600
sg63
(lp3607
g56
(g57
g58
NtRp3608
(dp3609
g61
(dp3610
g69
I3
ssg70
g3604
sg63
(lp3611
cgluon.languages
lazyT_unpickle
p3612
(S't\x05\x00\x00\x00Index'
tRp3613
asbasbasbag56
(g72
g58
NtRp3614
(dp3615
g61
(dp3616
sg70
g3596
sg63
(lp3617
g56
(g77
g58
NtRp3618
(dp3619
g61
(dp3620
sg70
g3614
sg63
(lp3621
g56
(g57
g58
NtRp3622
(dp3623
g61
(dp3624
g69
I3
ssg70
g3618
sg63
(lp3625
g99
asbasbasbag56
(g72
g58
NtRp3626
(dp3627
g61
(dp3628
sg70
g3596
sg63
(lp3629
g56
(g77
g58
NtRp3630
(dp3631
g61
(dp3632
sg70
g3626
sg63
(lp3633
g56
(g57
g58
NtRp3634
(dp3635
g61
(dp3636
g69
I3
ssg70
g3630
sg63
(lp3637
S'/init/default/index'
p3638
asbasbasbag56
(g72
g58
NtRp3639
(dp3640
g61
(dp3641
sg70
g3596
sg63
(lp3642
g56
(g77
g58
NtRp3643
(dp3644
g61
(dp3645
sg70
g3639
sg63
(lp3646
g56
(g57
g58
NtRp3647
(dp3648
g61
(dp3649
g69
I3
ssg70
g3643
sg63
(lp3650
g56
(g65
g58
NtRp3651
(dp3652
g61
(dp3653
g69
I2
ssg70
Nsg63
(lp3654
sbasbasbasbasbasbasbasbag56
(g72
g58
NtRp3655
(dp3656
g61
(dp3657
sg70
g3580
sg63
(lp3658
g56
(g77
g58
NtRp3659
(dp3660
g61
(dp3661
sg70
g3655
sg63
(lp3662
g56
(g57
g58
NtRp3663
(dp3664
g61
(dp3665
g69
I4
ssg70
g3659
sg63
(lp3666
g56
(g65
g58
NtRp3667
(dp3668
g61
(dp3669
g69
I3
ssg70
Nsg63
(lp3670
g56
(g72
g58
NtRp3671
(dp3672
g61
(dp3673
sg70
g3667
sg63
(lp3674
g56
(g77
g58
NtRp3675
(dp3676
g61
(dp3677
sg70
g3671
sg63
(lp3678
g56
(g57
g58
NtRp3679
(dp3680
g61
(dp3681
g69
I3
ssg70
g3675
sg63
(lp3682
g3612
(S't\n\x00\x00\x00Submission'
tRp3683
asbasbasbag56
(g72
g58
NtRp3684
(dp3685
g61
(dp3686
sg70
g3667
sg63
(lp3687
g56
(g77
g58
NtRp3688
(dp3689
g61
(dp3690
sg70
g3684
sg63
(lp3691
g56
(g57
g58
NtRp3692
(dp3693
g61
(dp3694
g69
I3
ssg70
g3688
sg63
(lp3695
g99
asbasbasbag56
(g72
g58
NtRp3696
(dp3697
g61
(dp3698
sg70
g3667
sg63
(lp3699
g56
(g77
g58
NtRp3700
(dp3701
g61
(dp3702
sg70
g3696
sg63
(lp3703
g56
(g57
g58
NtRp3704
(dp3705
g61
(dp3706
g69
I3
ssg70
g3700
sg63
(lp3707
S'/init/default/submission'
p3708
asbasbasbag56
(g72
g58
NtRp3709
(dp3710
g61
(dp3711
sg70
g3667
sg63
(lp3712
g56
(g77
g58
NtRp3713
(dp3714
g61
(dp3715
sg70
g3709
sg63
(lp3716
g56
(g57
g58
NtRp3717
(dp3718
g61
(dp3719
g69
I3
ssg70
g3713
sg63
(lp3720
g56
(g65
g58
NtRp3721
(dp3722
g61
(dp3723
g69
I2
ssg70
Nsg63
(lp3724
sbasbasbasbasbasbasbasbag56
(g72
g58
NtRp3725
(dp3726
g61
(dp3727
sg70
g3580
sg63
(lp3728
g56
(g77
g58
NtRp3729
(dp3730
g61
(dp3731
sg70
g3725
sg63
(lp3732
g56
(g57
g58
NtRp3733
(dp3734
g61
(dp3735
g69
I4
ssg70
g3729
sg63
(lp3736
g56
(g65
g58
NtRp3737
(dp3738
g61
(dp3739
g69
I3
ssg70
Nsg63
(lp3740
g56
(g72
g58
NtRp3741
(dp3742
g61
(dp3743
sg70
g3737
sg63
(lp3744
g56
(g77
g58
NtRp3745
(dp3746
g61
(dp3747
sg70
g3741
sg63
(lp3748
g56
(g57
g58
NtRp3749
(dp3750
g61
(dp3751
g69
I3
ssg70
g3745
sg63
(lp3752
g3612
(S't\x06\x00\x00\x00Tulips'
tRp3753
asbasbasbag56
(g72
g58
NtRp3754
(dp3755
g61
(dp3756
sg70
g3737
sg63
(lp3757
g56
(g77
g58
NtRp3758
(dp3759
g61
(dp3760
sg70
g3754
sg63
(lp3761
g56
(g57
g58
NtRp3762
(dp3763
g61
(dp3764
g69
I3
ssg70
g3758
sg63
(lp3765
g1995
asbasbasbag56
(g72
g58
NtRp3766
(dp3767
g61
(dp3768
sg70
g3737
sg63
(lp3769
g56
(g77
g58
NtRp3770
(dp3771
g61
(dp3772
sg70
g3766
sg63
(lp3773
g56
(g57
g58
NtRp3774
(dp3775
g61
(dp3776
g69
I3
ssg70
g3770
sg63
(lp3777
S'/init/default/tulip'
p3778
asbasbasbag56
(g72
g58
NtRp3779
(dp3780
g61
(dp3781
sg70
g3737
sg63
(lp3782
g56
(g77
g58
NtRp3783
(dp3784
g61
(dp3785
sg70
g3779
sg63
(lp3786
g56
(g57
g58
NtRp3787
(dp3788
g61
(dp3789
g69
I3
ssg70
g3783
sg63
(lp3790
g56
(g65
g58
NtRp3791
(dp3792
g61
(dp3793
g69
I2
ssg70
Nsg63
(lp3794
sbasbasbasbasbasbasbasbasbasbasbasbag56
(g72
g58
NtRp3795
(dp3796
g61
(dp3797
sg70
g3119
sg63
(lp3798
g56
(g77
g58
NtRp3799
(dp3800
g61
(dp3801
g81
g82
ssg70
g3795
sg63
(lp3802
S'meta'
p3803
asbag56
(g77
g58
NtRp3804
(dp3805
g61
(dp3806
g88
g89
ssg70
g3795
sg63
(lp3807
S':'
asbag56
(g77
g58
NtRp3808
(dp3809
g61
(dp3810
sg70
g3795
sg63
(lp3811
g56
(g57
g58
NtRp3812
(dp3813
g61
(dp3814
g69
I5
ssg70
g3808
sg63
(lp3815
g56
(g65
g58
NtRp3816
(dp3817
g61
(dp3818
g69
I4
ssg70
Nsg63
(lp3819
g56
(g72
g58
NtRp3820
(dp3821
g61
(dp3822
sg70
g3816
sg63
(lp3823
g56
(g77
g58
NtRp3824
(dp3825
g61
(dp3826
g81
g82
ssg70
g3820
sg63
(lp3827
S'author'
p3828
asbag56
(g77
g58
NtRp3829
(dp3830
g61
(dp3831
g88
g89
ssg70
g3820
sg63
(lp3832
S':'
asbag56
(g77
g58
NtRp3833
(dp3834
g61
(dp3835
sg70
g3820
sg63
(lp3836
g56
(g57
g58
NtRp3837
(dp3838
g61
(dp3839
g69
I4
ssg70
g3833
sg63
(lp3840
S'RGC <info@globaleaks.org>'
p3841
asbasbasbag56
(g72
g58
NtRp3842
(dp3843
g61
(dp3844
sg70
g3816
sg63
(lp3845
g56
(g77
g58
NtRp3846
(dp3847
g61
(dp3848
g81
g82
ssg70
g3842
sg63
(lp3849
S'description'
p3850
asbag56
(g77
g58
NtRp3851
(dp3852
g61
(dp3853
g88
g89
ssg70
g3842
sg63
(lp3854
S':'
asbag56
(g77
g58
NtRp3855
(dp3856
g61
(dp3857
sg70
g3842
sg63
(lp3858
g56
(g57
g58
NtRp3859
(dp3860
g61
(dp3861
g69
I4
ssg70
g3855
sg63
(lp3862
S''
asbasbasbag56
(g72
g58
NtRp3863
(dp3864
g61
(dp3865
sg70
g3816
sg63
(lp3866
g56
(g77
g58
NtRp3867
(dp3868
g61
(dp3869
g81
g82
ssg70
g3863
sg63
(lp3870
S'keywords'
p3871
asbag56
(g77
g58
NtRp3872
(dp3873
g61
(dp3874
g88
g89
ssg70
g3863
sg63
(lp3875
S':'
asbag56
(g77
g58
NtRp3876
(dp3877
g61
(dp3878
sg70
g3863
sg63
(lp3879
g56
(g57
g58
NtRp3880
(dp3881
g61
(dp3882
g69
I4
ssg70
g3876
sg63
(lp3883
S''
asbasbasbasbasbasbasbag56
(g72
g58
NtRp3884
(dp3885
g61
(dp3886
sg70
g3119
sg63
(lp3887
g56
(g77
g58
NtRp3888
(dp3889
g61
(dp3890
g81
g82
ssg70
g3884
sg63
(lp3891
S'postprocessing'
p3892
asbag56
(g77
g58
NtRp3893
(dp3894
g61
(dp3895
g88
g89
ssg70
g3884
sg63
(lp3896
S':'
asbag56
(g77
g58
NtRp3897
(dp3898
g61
(dp3899
sg70
g3884
sg63
(lp3900
g56
(g57
g58
NtRp3901
(dp3902
g61
(dp3903
g69
I5
ssg70
g3897
sg63
(lp3904
g56
(g65
g58
NtRp3905
(dp3906
g61
(dp3907
g69
I4
ssg70
Nsg63
(lp3908
sbasbasbasbag56
(g72
g58
NtRp3909
(dp3910
g61
(dp3911
sg70
g3119
sg63
(lp3912
g56
(g77
g58
NtRp3913
(dp3914
g61
(dp3915
g81
g82
ssg70
g3909
sg63
(lp3916
S'session_file'
p3917
asbag56
(g77
g58
NtRp3918
(dp3919
g61
(dp3920
g88
g89
ssg70
g3909
sg63
(lp3921
S':'
asbag56
(g77
g58
NtRp3922
(dp3923
g61
(dp3924
sg70
g3909
sg63
(lp3925
g56
(g57
g58
NtRp3926
(dp3927
g61
(dp3928
g69
I5
ssg70
g3922
sg63
(lp3929
S"<open file '/Users/hellais/Documents/code/mygit/globaleaks/webapp/applications/init/sessions/127.0.0.1-144deeb4-6d5c-4579-bdd3-3d9d5085abd2', mode 'rb+' at 0x101d3b0c0>"
p3930
asbasbasbag56
(g72
g58
NtRp3931
(dp3932
g61
(dp3933
sg70
g3119
sg63
(lp3934
g56
(g77
g58
NtRp3935
(dp3936
g61
(dp3937
g81
g82
ssg70
g3931
sg63
(lp3938
S'session_filename'
p3939
asbag56
(g77
g58
NtRp3940
(dp3941
g61
(dp3942
g88
g89
ssg70
g3931
sg63
(lp3943
S':'
asbag56
(g77
g58
NtRp3944
(dp3945
g61
(dp3946
sg70
g3931
sg63
(lp3947
g56
(g57
g58
NtRp3948
(dp3949
g61
(dp3950
g69
I5
ssg70
g3944
sg63
(lp3951
S'/Users/hellais/Documents/code/mygit/globaleaks/webapp/applications/init/sessions/127.0.0.1-144deeb4-6d5c-4579-bdd3-3d9d5085abd2'
p3952
asbasbasbag56
(g72
g58
NtRp3953
(dp3954
g61
(dp3955
sg70
g3119
sg63
(lp3956
g56
(g77
g58
NtRp3957
(dp3958
g61
(dp3959
g81
g82
ssg70
g3953
sg63
(lp3960
S'session_id'
p3961
asbag56
(g77
g58
NtRp3962
(dp3963
g61
(dp3964
g88
g89
ssg70
g3953
sg63
(lp3965
S':'
asbag56
(g77
g58
NtRp3966
(dp3967
g61
(dp3968
sg70
g3953
sg63
(lp3969
g56
(g57
g58
NtRp3970
(dp3971
g61
(dp3972
g69
I5
ssg70
g3966
sg63
(lp3973
S'127.0.0.1-144deeb4-6d5c-4579-bdd3-3d9d5085abd2'
p3974
asbasbasbag56
(g72
g58
NtRp3975
(dp3976
g61
(dp3977
sg70
g3119
sg63
(lp3978
g56
(g77
g58
NtRp3979
(dp3980
g61
(dp3981
g81
g82
ssg70
g3975
sg63
(lp3982
S'session_id_name'
p3983
asbag56
(g77
g58
NtRp3984
(dp3985
g61
(dp3986
g88
g89
ssg70
g3975
sg63
(lp3987
S':'
asbag56
(g77
g58
NtRp3988
(dp3989
g61
(dp3990
sg70
g3975
sg63
(lp3991
g56
(g57
g58
NtRp3992
(dp3993
g61
(dp3994
g69
I5
ssg70
g3988
sg63
(lp3995
g3176
asbasbasbag56
(g72
g58
NtRp3996
(dp3997
g61
(dp3998
sg70
g3119
sg63
(lp3999
g56
(g77
g58
NtRp4000
(dp4001
g61
(dp4002
g81
g82
ssg70
g3996
sg63
(lp4003
S'session_locked'
p4004
asbag56
(g77
g58
NtRp4005
(dp4006
g61
(dp4007
g88
g89
ssg70
g3996
sg63
(lp4008
S':'
asbag56
(g77
g58
NtRp4009
(dp4010
g61
(dp4011
sg70
g3996
sg63
(lp4012
g56
(g57
g58
NtRp4013
(dp4014
g61
(dp4015
g69
I5
ssg70
g4009
sg63
(lp4016
g1995
asbasbasbag56
(g72
g58
NtRp4017
(dp4018
g61
(dp4019
sg70
g3119
sg63
(lp4020
g56
(g77
g58
NtRp4021
(dp4022
g61
(dp4023
g81
g82
ssg70
g4017
sg63
(lp4024
S'session_new'
p4025
asbag56
(g77
g58
NtRp4026
(dp4027
g61
(dp4028
g88
g89
ssg70
g4017
sg63
(lp4029
S':'
asbag56
(g77
g58
NtRp4030
(dp4031
g61
(dp4032
sg70
g4017
sg63
(lp4033
g56
(g57
g58
NtRp4034
(dp4035
g61
(dp4036
g69
I5
ssg70
g4030
sg63
(lp4037
g99
asbasbasbag56
(g72
g58
NtRp4038
(dp4039
g61
(dp4040
sg70
g3119
sg63
(lp4041
g56
(g77
g58
NtRp4042
(dp4043
g61
(dp4044
g81
g82
ssg70
g4038
sg63
(lp4045
S'status'
p4046
asbag56
(g77
g58
NtRp4047
(dp4048
g61
(dp4049
g88
g89
ssg70
g4038
sg63
(lp4050
S':'
asbag56
(g77
g58
NtRp4051
(dp4052
g61
(dp4053
sg70
g4038
sg63
(lp4054
g56
(g57
g58
NtRp4055
(dp4056
g61
(dp4057
g69
I5
ssg70
g4051
sg63
(lp4058
S'200'
p4059
asbasbasbag56
(g72
g58
NtRp4060
(dp4061
g61
(dp4062
sg70
g3119
sg63
(lp4063
g56
(g77
g58
NtRp4064
(dp4065
g61
(dp4066
g81
g82
ssg70
g4060
sg63
(lp4067
S'subtitle'
p4068
asbag56
(g77
g58
NtRp4069
(dp4070
g61
(dp4071
g88
g89
ssg70
g4060
sg63
(lp4072
S':'
asbag56
(g77
g58
NtRp4073
(dp4074
g61
(dp4075
sg70
g4060
sg63
(lp4076
g56
(g57
g58
NtRp4077
(dp4078
g61
(dp4079
g69
I5
ssg70
g4073
sg63
(lp4080
S'Open Source Whistleblowing Platform'
p4081
asbasbasbag56
(g72
g58
NtRp4082
(dp4083
g61
(dp4084
sg70
g3119
sg63
(lp4085
g56
(g77
g58
NtRp4086
(dp4087
g61
(dp4088
g81
g82
ssg70
g4082
sg63
(lp4089
S'title'
p4090
asbag56
(g77
g58
NtRp4091
(dp4092
g61
(dp4093
g88
g89
ssg70
g4082
sg63
(lp4094
S':'
asbag56
(g77
g58
NtRp4095
(dp4096
g61
(dp4097
sg70
g4082
sg63
(lp4098
g56
(g57
g58
NtRp4099
(dp4100
g61
(dp4101
g69
I5
ssg70
g4095
sg63
(lp4102
S'GlobaLeaks'
p4103
asbasbasbag56
(g72
g58
NtRp4104
(dp4105
g61
(dp4106
sg70
g3119
sg63
(lp4107
g56
(g77
g58
NtRp4108
(dp4109
g61
(dp4110
g81
g82
ssg70
g4104
sg63
(lp4111
g2340
asbag56
(g77
g58
NtRp4112
(dp4113
g61
(dp4114
g88
g89
ssg70
g4104
sg63
(lp4115
S':'
asbag56
(g77
g58
NtRp4116
(dp4117
g61
(dp4118
sg70
g4104
sg63
(lp4119
g56
(g57
g58
NtRp4120
(dp4121
g61
(dp4122
g69
I5
ssg70
g4116
sg63
(lp4123
g2353
asbasbasbag56
(g72
g58
NtRp4124
(dp4125
g61
(dp4126
sg70
g3119
sg63
(lp4127
g56
(g77
g58
NtRp4128
(dp4129
g61
(dp4130
g81
g82
ssg70
g4124
sg63
(lp4131
S'view'
p4132
asbag56
(g77
g58
NtRp4133
(dp4134
g61
(dp4135
g88
g89
ssg70
g4124
sg63
(lp4136
S':'
asbag56
(g77
g58
NtRp4137
(dp4138
g61
(dp4139
sg70
g4124
sg63
(lp4140
g56
(g57
g58
NtRp4141
(dp4142
g61
(dp4143
g69
I5
ssg70
g4137
sg63
(lp4144
S'default/tulip.html'
p4145
asbasbasbasbasbsS'locals'
p4146
(dp4147
S'leak'
p4148
S'<Leak object>'
p4149
sS't'
S'<Tulip object>'
p4150
sS'tulip_url'
p4151
S"'cd48f6a321cafd02837cd2b0c90337f847737385f99a1d84833fa80f523f544d'"
p4152
sssS'traceback'
p4153
S'Traceback (most recent call last):\n  File "/opt/local/Library/Frameworks/Python.framework/Versions/2.7/lib/python2.7/gluon/restricted.py", line 192, in restricted\n    exec ccode in environment\n  File "/Users/hellais/Documents/code/mygit/globaleaks/webapp/applications/init/controllers/default.py", line 59, in <module>\n  File "/opt/local/Library/Frameworks/Python.framework/Versions/2.7/lib/python2.7/gluon/globals.py", line 145, in <lambda>\n    self._caller = lambda f: f()\n  File "/Users/hellais/Documents/code/mygit/globaleaks/webapp/applications/init/controllers/default.py", line 48, in tulip\n    t.downloads_counter = t.downloads_counter + 1\nTypeError: cannot concatenate \'str\' and \'int\' objects\n'
p4154
s.