(dp1
S'output'
p2
S''
sS'layer'
p3
S'/Users/hellais/Documents/code/mygit/globaleaks/webapp/applications/globaleaks/views/submission/index.html'
p4
sS'code'
p5
S'response.write(\'<!DOCTYPE html>\\n<html lang="\', escape=False)\nresponse.write(T.accepted_language or \'en\')\nresponse.write(\'" class="no-js"><!-- no-js need it for modernzr -->\\n  <head>\\n    \\n    <meta charset="utf-8" />        \\n    <!-- www.phpied.com/conditional-comments-block-downloads/ -->\\n    <!--[if IE]><![endif]-->    \\n    <!-- Always force latest IE rendering engine \\n     (even in intranet) & Chrome Frame \\n     Remove this if you use the .htaccess -->\\n    <meta http-equiv="X-UA-Compatible" content="IE=edge,chrome=1">\\n    \\n    <title>\', escape=False)\nresponse.write(response.title or request.application)\nresponse.write(\'</title>\\n    \\n    <!-- http://dev.w3.org/html5/markup/meta.name.html -->\\n    <meta name="application-name" content="\', escape=False)\nresponse.write(request.application)\nresponse.write(\'" /> \\n    \\n    <!-- Speaking of Google, don\\\'t forget to set your site up: \\n     http://google.com/webmasters -->\\n    <meta name="google-site-verification" content="" />\\n    \\n    <!--  Mobile Viewport Fix\\n      j.mp/mobileviewport & davidbcalhoun.com/2010/viewport-metatag \\n      device-width: Occupy full width of the screen in its current orientation\\n      initial-scale = 1.0 retains dimensions instead of zooming out if page height > device height\\n      maximum-scale = 1.0 retains dimensions instead of zooming in if page width < device width\\n      -->\\n    <meta name="viewport" content="width=device-width, initial-scale=1.0, maximum-scale=1.0">\\n    \\n    <!-- Place favicon.ico and apple-touch-icon.png in the root of your domain and delete these references -->\\n    <link rel="shortcut icon" href="\', escape=False)\nresponse.write(URL(\'static\',\'favicon.ico\'))\nresponse.write(\'" type="image/x-icon">\\n    <link rel="apple-touch-icon" href="\', escape=False)\nresponse.write(URL(\'static\',\'favicon.png\'))\nresponse.write(\'">\\n\\n    <!-- For the less-enabled mobile browsers like Opera Mini -->\\n    <link rel="stylesheet" media="handheld" href="\', escape=False)\nresponse.write(URL(\'static\',\'css/handheld.css\'))\nresponse.write(\'">\\n    \\n    <!-- All JavaScript at the bottom, except for Modernizr which enables HTML5 elements & feature detects -->\\n    <script src="\', escape=False)\nresponse.write(URL(\'static\',\'js/modernizr-1.7.min.js\'))\nresponse.write(\'"></script>\\n    \\n    \', escape=False)\n#------  require CSS and JS files for this page (read info in base.css) ------\nresponse.write(\'\\n    \', escape=False)\nresponse.files.append(URL(\'static\',\'css/base.css\'))\nresponse.write(\'\\n    \', escape=False)\nresponse.files.append(URL(\'static\',\'css/superfish.css\'))\nresponse.write(\'\\n    \', escape=False)\nresponse.files.append(URL(\'static\',\'js/superfish.js\'))\nresponse.write(\'\\n    \', escape=False)\n#------ include web2py specific js code (jquery, calendar, form stuff) ------\nresponse.write(\'\\n    \', escape=False)\nresponse.files.insert(0,URL(\'static\',\'js/jquery.js\'))\nresponse.files.insert(1,URL(\'static\',\'css/calendar.css\'))\nresponse.files.insert(2,URL(\'static\',\'js/calendar.js\'))\nfor _item in response.meta or []:\n    response.write(\'\\n     <meta name="\', escape=False)\n    response.write(_item)\n    response.write(\'" content="\', escape=False)\n    response.write(response.meta[_item])\n    response.write(\'" />\', escape=False)\n    pass\nfor _k,_file in enumerate(response.files or []):\n    if _file in response.files[:_k]:\n        continue\n    _file0=_file.lower().split(\'?\')[0]\n    if _file0.endswith(\'.css\'):\n        response.write(\'\\n     <link href="\', escape=False)\n        response.write(_file)\n        response.write(\'" rel="stylesheet" type="text/css" />\', escape=False)\n    elif _file0.endswith(\'.js\'):\n        response.write(\'\\n     <script src="\', escape=False)\n        response.write(_file)\n        response.write(\'" type="text/javascript"></script>\', escape=False)\n        pass\n    pass\nresponse.write(\'\\n    <script type="text/javascript"><!--\\n    // These variables are used by the web2py_ajax_init function in web2py_ajax.js (which is loaded below).\\n    var w2p_ajax_confirm_message = "\', escape=False)\nresponse.write(T(\'Are you sure you want to delete this object?\'))\nresponse.write(\'";\\n    var w2p_ajax_date_format = "\', escape=False)\nresponse.write(T(\'%Y-%m-%d\'))\nresponse.write(\'";\\n    var w2p_ajax_datetime_format = "\', escape=False)\nresponse.write(T(\'%Y-%m-%d %H:%M:%S\'))\nresponse.write(\'";\\n    //--></script>\\n    <script src="\', escape=False)\nresponse.write(URL(\'static\',\'js/web2py_ajax.js\'))\nresponse.write(\'" type="text/javascript"></script>\\n\', escape=False)\nresponse.write(\'\\n\\n    \', escape=False)\n#using sidebars need to know what sidebar you want to use\n#prior of using it, because of static width size of content, you can use\n#left_sidebar, right_sidebar, both or none (False left and right)\nleft_sidebar_enabled = globals().get(\'left_sidebar_enabled\',False)\nright_sidebar_enabled = globals().get(\'right_sidebar_enabled\',False)\nif left_sidebar_enabled and right_sidebar_enabled: width_content=\'63%\'\nelif left_sidebar_enabled != right_sidebar_enabled: width_content=\'740px\'\nelse: width_content=\'100%\'\nif left_sidebar_enabled: left_sidebar_style = \'style="display: block;"\'\nelse: left_sidebar_style = \'style="display: none;"\'\nif right_sidebar_enabled: right_sidebar_style = \'style="display: block;"\'\nelse: right_sidebar_style = \'style="display: none;"\'\nstyle_content = \'style="width: %s"\' % width_content\nresponse.write(\'\\n  </head>\\n  \\n  <!-- paulirish.com/2008/conditional-stylesheets-vs-css-hacks-answer-neither/ -->  \\n  <!--[if lt IE 7 ]> <body class="ie6"> <![endif]-->\\n  <!--[if IE 7 ]>    <body class="ie7"> <![endif]-->\\n  <!--[if IE 8 ]>    <body class="ie8"> <![endif]-->\\n  <!--[if IE 9 ]>    <body class="ie9"> <![endif]-->\\n  <!--[if (gt IE 9)|!(IE)]><!--> <body> <!--<![endif]-->\\n    \\n    <div class="flash">\', escape=False)\nresponse.write(response.flash or \'\')\nresponse.write(\'</div> <!-- notification div -->\\n    \\n    <div id="container">                        \\n      \\n    <div id="wrapper">        \\n    \\n    <div id="header"> <!-- header and login nav -->\\n      \', escape=False)\nresponse.write(\' <!-- this is default header -->\\n      \', escape=False)\ntry:\n    response.write(auth.navbar(action=URL(\'default\',\'user\')))\nexcept:pass\nresponse.write(\'               \\n      <h1><img src="\', escape=False)\nresponse.write(URL(\'static\',\'images/globaleaks.png\'))\nresponse.write(\'" /></h1>\\n      <div style="clear: both;"></div><!-- Clear the divs -->\\n      \', escape=False)\nresponse.write(\'                                     \\n    </div><!-- header  -->\\n    \\n    <div id="statusbar"><!-- statusbar is menu zone -->\\n      \', escape=False)\nresponse.write(\' <!-- this is default statusbar -->\\n      \', escape=False)\n#------ superfish menu ------\nresponse.write(\'\\n      \', escape=False)\nresponse.write(MENU(response.menu,_class=\'sf-menu\'))\nresponse.write(\'\\n      <script type="text/javascript">\\n        jQuery(document).ready(function(){\\n        jQuery(\\\'ul.sf-menu\\\').superfish();});\\n      </script>\\n      <div style="clear: both;"></div><!-- Clear the divs -->   \\n      \', escape=False)\nresponse.write(\'               \\n    </div><!-- statusbar -->\\n    \\n    <div id="page"> <!-- Here my central body -->     \\n\\n      \', escape=False)\nif left_sidebar_enabled:\n    response.write(\'\\n          <div id="left_sidebar" \', escape=False)\n    response.write(XML(left_sidebar_style))\n    response.write(\' >\\n            <div style="padding: 4px;">\\n          \', escape=False)\n    response.write(\'Content Left Sidebar\', escape=False)\n    response.write(\'       \\n            </div>\\n          </div><!-- left_sidebar -->\\n      \', escape=False)\n    pass\nresponse.write(\'\\n\\n      <!-- content -->\\n      <div id="content" \', escape=False)\nresponse.write(XML(style_content))\nresponse.write(\' >\\n        \', escape=False)\nresponse.write(\'\\n\\n\\n\', escape=False)\nif form:\n    response.write(\'\\n    \', escape=False)\n    response.write(form)\n    response.write(\'\\n\', escape=False)\n    pass\nresponse.write(\'\\n\\n\', escape=False)\nif leak_id:\n    response.write(\'\\n    <ul>\\n        <li>The id of your leak is: <b>\', escape=False)\n    response.write(leak_id)\n    response.write(\'</b></li>\\n        <li>This is your tulip: <a href="\', escape=False)\n    URL(c=\'tulip\', f=\'status\', r=tulip)\n    response.write(\'">\', escape=False)\n    response.write(tulip)\n    response.write("</a>\\n    </ul>\\n    \\n    <br/>\\n    <br/>\\n    <br/>\\n    <p>pssst... :P</p>\\n    <p>I also generated these other tulips. Keep it secret, my boss doesn\'t want me to know ;).</p>\\n    <ul>\\n    \\n    ", escape=False)\n    for i in tulips:\n        response.write(\'\\n        <li>\', escape=False)\n        response.write(i[1])\n        response.write(\': <a href="\', escape=False)\n        URL(c=\'tulip\', f=\'status\', r=i[0])\n        response.write(\'">\', escape=False)\n        response.write(i[0])\n        response.write(\'</a></li>\\n    \', escape=False)\n        pass\n    response.write(\'\\n    \\n    </ul>\\n\', escape=False)\n    pass\nresponse.write(\'\\n\\n\\n\', escape=False)\n#=BEAUTIFY(request.vars)\nresponse.write(\'\\n\', escape=False)\nresponse.write(\' \\n      </div>\\n      <!-- content -->\\n\\n      \', escape=False)\nif right_sidebar_enabled:\n    response.write(\'\\n          <div id="right_sidebar" \', escape=False)\n    response.write(XML(right_sidebar_style))\n    response.write(\' >\\n            <div style="padding: 4px;">\\n              \', escape=False)\n    response.write(\'Content Right Sidebar\', escape=False)\n    response.write(\'\\n            </div>\\n      </div><!-- right_sidebar -->\\n          \', escape=False)\n    pass\nresponse.write(\'\\n\\n      <div style="clear: both;"></div><!-- Clear the divs -->\\n      \\n    </div><!-- page -->                         \\n    \\n    <div id="footer">\\n      \', escape=False)\nresponse.write(\' <!-- this is default footer -->\\n      <a href="http://www.globaleaks.org/" style="float: left; padding-right: 6px;">\\n        GlobaLeaks\\n      </a>\\n      \', escape=False)\nresponse.write(T(\'Copyright\'))\nresponse.write(\' &#169; 2011\\n      <a href="http://trac.globaleaks.org/" style="float: left; padding-right: 3px; font-size: 0.7em; font-style: italic">\\n        [follow the project]\\n      </a>\\n      <div style="clear: both;"></div><!-- Clear the divs -->\\n      \', escape=False)\nresponse.write(\'\\n\\n    </div><!-- footer -->           \\n      </div><!-- wrapper -->\\n    </div><!-- container -->        \\n    \\n    <!--[if lt IE 7 ]>\\n    <script src="\', escape=False)\nresponse.write(URL(\'static\',\'js/dd_belatedpng.js\'))\nresponse.write(\'"></script>\\n    <script> DD_belatedPNG.fix(\\\'img, .png_bg\\\'); //fix any <img> or .png_bg background-images </script>\\n    <![endif]-->\\n    \\n    <!-- asynchronous google analytics: mathiasbynens.be/notes/async-analytics-snippet \\n     change the UA-XXXXX-X to be your site\\\'s ID -->\\n    <!--   \\n       <script>\\n         var _gaq = [[\\\'_setAccount\\\', \\\'UA-XXXXX-X\\\'], [\\\'_trackPageview\\\']];\\n         (function(d, t) {\\n         var g = d.createElement(t),\\n         s = d.getElementsByTagName(t)[0];\\n         g.async = true;\\n         g.src = \\\'//www.google-analytics.com/ga.js\\\';\\n         s.parentNode.insertBefore(g, s);\\n         })(document, \\\'script\\\');\\n       </script>\\n       -->    \\n  </body>\\n</html>\\n\', escape=False)'
p6
sS'snapshot'
p7
(dp8
S'exception'
p9
(dp10
S'__hash__'
p11
S"<method-wrapper '__hash__' of exceptions.AttributeError object>"
p12
sS'__setattr__'
p13
S"<method-wrapper '__setattr__' of exceptions.AttributeError object>"
p14
sS'__reduce_ex__'
p15
S'<built-in method __reduce_ex__ of exceptions.AttributeError object>'
p16
sS'__getslice__'
p17
S"<method-wrapper '__getslice__' of exceptions.AttributeError object>"
p18
sS'__getitem__'
p19
S"<method-wrapper '__getitem__' of exceptions.AttributeError object>"
p20
sS'__setstate__'
p21
S'<built-in method __setstate__ of exceptions.AttributeError object>'
p22
sS'args'
p23
S'("\'str\' object has no attribute \'application\'",)'
p24
sS'__reduce__'
p25
S'<built-in method __reduce__ of exceptions.AttributeError object>'
p26
sS'__str__'
p27
S"<method-wrapper '__str__' of exceptions.AttributeError object>"
p28
sS'__format__'
p29
S'<built-in method __format__ of exceptions.AttributeError object>'
p30
sS'__getattribute__'
p31
S"<method-wrapper '__getattribute__' of exceptions.AttributeError object>"
p32
sS'__class__'
p33
S"<type 'exceptions.AttributeError'>"
p34
sS'__unicode__'
p35
S'<built-in method __unicode__ of exceptions.AttributeError object>'
p36
sS'__delattr__'
p37
S"<method-wrapper '__delattr__' of exceptions.AttributeError object>"
p38
sS'__subclasshook__'
p39
S'<built-in method __subclasshook__ of type object>'
p40
sS'__repr__'
p41
S"<method-wrapper '__repr__' of exceptions.AttributeError object>"
p42
sS'__dict__'
p43
S'{}'
p44
sS'__sizeof__'
p45
S'<built-in method __sizeof__ of exceptions.AttributeError object>'
p46
sS'__doc__'
p47
S"'Attribute not found.'"
p48
sS'__init__'
p49
S"<method-wrapper '__init__' of exceptions.AttributeError object>"
p50
sS'__new__'
p51
S'<built-in method __new__ of type object>'
p52
ssS'evalue'
p53
S"'str' object has no attribute 'application'"
p54
sS'request'
p55
ccopy_reg
_reconstructor
p56
(cgluon.html
BEAUTIFY
p57
c__builtin__
object
p58
NtRp59
(dp60
S'attributes'
p61
(dp62
sS'components'
p63
(lp64
g56
(cgluon.html
TABLE
p65
g58
NtRp66
(dp67
g61
(dp68
S'level'
p69
I5
ssS'parent'
p70
Nsg63
(lp71
g56
(cgluon.html
TR
p72
g58
NtRp73
(dp74
g61
(dp75
sg70
g66
sg63
(lp76
g56
(cgluon.html
TD
p77
g58
NtRp78
(dp79
g61
(dp80
S'_style'
p81
S'font-weight:bold;'
p82
ssg70
g73
sg63
(lp83
S'ajax'
p84
asbag56
(g77
g58
NtRp85
(dp86
g61
(dp87
S'_valign'
p88
S'top'
p89
ssg70
g73
sg63
(lp90
S':'
asbag56
(g77
g58
NtRp91
(dp92
g61
(dp93
sg70
g73
sg63
(lp94
g56
(g57
g58
NtRp95
(dp96
g61
(dp97
g69
I5
ssg70
g91
sg63
(lp98
S'False'
p99
asbasbasbag56
(g72
g58
NtRp100
(dp101
g61
(dp102
sg70
g66
sg63
(lp103
g56
(g77
g58
NtRp104
(dp105
g61
(dp106
g81
g82
ssg70
g100
sg63
(lp107
S'application'
p108
asbag56
(g77
g58
NtRp109
(dp110
g61
(dp111
g88
g89
ssg70
g100
sg63
(lp112
S':'
asbag56
(g77
g58
NtRp113
(dp114
g61
(dp115
sg70
g100
sg63
(lp116
g56
(g57
g58
NtRp117
(dp118
g61
(dp119
g69
I5
ssg70
g113
sg63
(lp120
S'globaleaks'
p121
asbasbasbag56
(g72
g58
NtRp122
(dp123
g61
(dp124
sg70
g66
sg63
(lp125
g56
(g77
g58
NtRp126
(dp127
g61
(dp128
g81
g82
ssg70
g122
sg63
(lp129
g23
asbag56
(g77
g58
NtRp130
(dp131
g61
(dp132
g88
g89
ssg70
g122
sg63
(lp133
S':'
asbag56
(g77
g58
NtRp134
(dp135
g61
(dp136
sg70
g122
sg63
(lp137
g56
(g57
g58
NtRp138
(dp139
g61
(dp140
g69
I5
ssg70
g134
sg63
(lp141
g56
(g65
g58
NtRp142
(dp143
g61
(dp144
g69
I4
ssg70
Nsg63
(lp145
sbasbasbasbag56
(g72
g58
NtRp146
(dp147
g61
(dp148
sg70
g66
sg63
(lp149
g56
(g77
g58
NtRp150
(dp151
g61
(dp152
g81
g82
ssg70
g146
sg63
(lp153
S'body'
p154
asbag56
(g77
g58
NtRp155
(dp156
g61
(dp157
g88
g89
ssg70
g146
sg63
(lp158
S':'
asbag56
(g77
g58
NtRp159
(dp160
g61
(dp161
sg70
g146
sg63
(lp162
g56
(g57
g58
NtRp163
(dp164
g61
(dp165
g69
I5
ssg70
g159
sg63
(lp166
S"<open file '<fdopen>', mode 'w+b' at 0x1018bfc90>"
p167
asbasbasbag56
(g72
g58
NtRp168
(dp169
g61
(dp170
sg70
g66
sg63
(lp171
g56
(g77
g58
NtRp172
(dp173
g61
(dp174
g81
g82
ssg70
g168
sg63
(lp175
S'client'
p176
asbag56
(g77
g58
NtRp177
(dp178
g61
(dp179
g88
g89
ssg70
g168
sg63
(lp180
S':'
asbag56
(g77
g58
NtRp181
(dp182
g61
(dp183
sg70
g168
sg63
(lp184
g56
(g57
g58
NtRp185
(dp186
g61
(dp187
g69
I5
ssg70
g181
sg63
(lp188
S'127.0.0.1'
p189
asbasbasbag56
(g72
g58
NtRp190
(dp191
g61
(dp192
sg70
g66
sg63
(lp193
g56
(g77
g58
NtRp194
(dp195
g61
(dp196
g81
g82
ssg70
g190
sg63
(lp197
S'controller'
p198
asbag56
(g77
g58
NtRp199
(dp200
g61
(dp201
g88
g89
ssg70
g190
sg63
(lp202
S':'
asbag56
(g77
g58
NtRp203
(dp204
g61
(dp205
sg70
g190
sg63
(lp206
g56
(g57
g58
NtRp207
(dp208
g61
(dp209
g69
I5
ssg70
g203
sg63
(lp210
S'submission'
p211
asbasbasbag56
(g72
g58
NtRp212
(dp213
g61
(dp214
sg70
g66
sg63
(lp215
g56
(g77
g58
NtRp216
(dp217
g61
(dp218
g81
g82
ssg70
g212
sg63
(lp219
S'cookies'
p220
asbag56
(g77
g58
NtRp221
(dp222
g61
(dp223
g88
g89
ssg70
g212
sg63
(lp224
S':'
asbag56
(g77
g58
NtRp225
(dp226
g61
(dp227
sg70
g212
sg63
(lp228
g56
(g57
g58
NtRp229
(dp230
g61
(dp231
g69
I5
ssg70
g225
sg63
(lp232
g56
(g65
g58
NtRp233
(dp234
g61
(dp235
g69
I4
ssg70
Nsg63
(lp236
g56
(g72
g58
NtRp237
(dp238
g61
(dp239
sg70
g233
sg63
(lp240
g56
(g77
g58
NtRp241
(dp242
g61
(dp243
g81
g82
ssg70
g237
sg63
(lp244
S'session_id_admin'
p245
asbag56
(g77
g58
NtRp246
(dp247
g61
(dp248
g88
g89
ssg70
g237
sg63
(lp249
S':'
asbag56
(g77
g58
NtRp250
(dp251
g61
(dp252
sg70
g237
sg63
(lp253
g56
(g57
g58
NtRp254
(dp255
g61
(dp256
g69
I4
ssg70
g250
sg63
(lp257
g56
(g65
g58
NtRp258
(dp259
g61
(dp260
g69
I3
ssg70
Nsg63
(lp261
g56
(g72
g58
NtRp262
(dp263
g61
(dp264
sg70
g258
sg63
(lp265
g56
(g77
g58
NtRp266
(dp267
g61
(dp268
g81
g82
ssg70
g262
sg63
(lp269
S'comment'
p270
asbag56
(g77
g58
NtRp271
(dp272
g61
(dp273
g88
g89
ssg70
g262
sg63
(lp274
S':'
asbag56
(g77
g58
NtRp275
(dp276
g61
(dp277
sg70
g262
sg63
(lp278
g56
(g57
g58
NtRp279
(dp280
g61
(dp281
g69
I3
ssg70
g275
sg63
(lp282
S''
asbasbasbag56
(g72
g58
NtRp283
(dp284
g61
(dp285
sg70
g258
sg63
(lp286
g56
(g77
g58
NtRp287
(dp288
g61
(dp289
g81
g82
ssg70
g283
sg63
(lp290
S'domain'
p291
asbag56
(g77
g58
NtRp292
(dp293
g61
(dp294
g88
g89
ssg70
g283
sg63
(lp295
S':'
asbag56
(g77
g58
NtRp296
(dp297
g61
(dp298
sg70
g283
sg63
(lp299
g56
(g57
g58
NtRp300
(dp301
g61
(dp302
g69
I3
ssg70
g296
sg63
(lp303
S''
asbasbasbag56
(g72
g58
NtRp304
(dp305
g61
(dp306
sg70
g258
sg63
(lp307
g56
(g77
g58
NtRp308
(dp309
g61
(dp310
g81
g82
ssg70
g304
sg63
(lp311
S'expires'
p312
asbag56
(g77
g58
NtRp313
(dp314
g61
(dp315
g88
g89
ssg70
g304
sg63
(lp316
S':'
asbag56
(g77
g58
NtRp317
(dp318
g61
(dp319
sg70
g304
sg63
(lp320
g56
(g57
g58
NtRp321
(dp322
g61
(dp323
g69
I3
ssg70
g317
sg63
(lp324
S''
asbasbasbag56
(g72
g58
NtRp325
(dp326
g61
(dp327
sg70
g258
sg63
(lp328
g56
(g77
g58
NtRp329
(dp330
g61
(dp331
g81
g82
ssg70
g325
sg63
(lp332
S'httponly'
p333
asbag56
(g77
g58
NtRp334
(dp335
g61
(dp336
g88
g89
ssg70
g325
sg63
(lp337
S':'
asbag56
(g77
g58
NtRp338
(dp339
g61
(dp340
sg70
g325
sg63
(lp341
g56
(g57
g58
NtRp342
(dp343
g61
(dp344
g69
I3
ssg70
g338
sg63
(lp345
S''
asbasbasbag56
(g72
g58
NtRp346
(dp347
g61
(dp348
sg70
g258
sg63
(lp349
g56
(g77
g58
NtRp350
(dp351
g61
(dp352
g81
g82
ssg70
g346
sg63
(lp353
S'max-age'
p354
asbag56
(g77
g58
NtRp355
(dp356
g61
(dp357
g88
g89
ssg70
g346
sg63
(lp358
S':'
asbag56
(g77
g58
NtRp359
(dp360
g61
(dp361
sg70
g346
sg63
(lp362
g56
(g57
g58
NtRp363
(dp364
g61
(dp365
g69
I3
ssg70
g359
sg63
(lp366
S''
asbasbasbag56
(g72
g58
NtRp367
(dp368
g61
(dp369
sg70
g258
sg63
(lp370
g56
(g77
g58
NtRp371
(dp372
g61
(dp373
g81
g82
ssg70
g367
sg63
(lp374
S'path'
p375
asbag56
(g77
g58
NtRp376
(dp377
g61
(dp378
g88
g89
ssg70
g367
sg63
(lp379
S':'
asbag56
(g77
g58
NtRp380
(dp381
g61
(dp382
sg70
g367
sg63
(lp383
g56
(g57
g58
NtRp384
(dp385
g61
(dp386
g69
I3
ssg70
g380
sg63
(lp387
S''
asbasbasbag56
(g72
g58
NtRp388
(dp389
g61
(dp390
sg70
g258
sg63
(lp391
g56
(g77
g58
NtRp392
(dp393
g61
(dp394
g81
g82
ssg70
g388
sg63
(lp395
S'secure'
p396
asbag56
(g77
g58
NtRp397
(dp398
g61
(dp399
g88
g89
ssg70
g388
sg63
(lp400
S':'
asbag56
(g77
g58
NtRp401
(dp402
g61
(dp403
sg70
g388
sg63
(lp404
g56
(g57
g58
NtRp405
(dp406
g61
(dp407
g69
I3
ssg70
g401
sg63
(lp408
S''
asbasbasbag56
(g72
g58
NtRp409
(dp410
g61
(dp411
sg70
g258
sg63
(lp412
g56
(g77
g58
NtRp413
(dp414
g61
(dp415
g81
g82
ssg70
g409
sg63
(lp416
S'version'
p417
asbag56
(g77
g58
NtRp418
(dp419
g61
(dp420
g88
g89
ssg70
g409
sg63
(lp421
S':'
asbag56
(g77
g58
NtRp422
(dp423
g61
(dp424
sg70
g409
sg63
(lp425
g56
(g57
g58
NtRp426
(dp427
g61
(dp428
g69
I3
ssg70
g422
sg63
(lp429
S''
asbasbasbasbasbasbasbag56
(g72
g58
NtRp430
(dp431
g61
(dp432
sg70
g233
sg63
(lp433
g56
(g77
g58
NtRp434
(dp435
g61
(dp436
g81
g82
ssg70
g430
sg63
(lp437
S'session_id_blabla'
p438
asbag56
(g77
g58
NtRp439
(dp440
g61
(dp441
g88
g89
ssg70
g430
sg63
(lp442
S':'
asbag56
(g77
g58
NtRp443
(dp444
g61
(dp445
sg70
g430
sg63
(lp446
g56
(g57
g58
NtRp447
(dp448
g61
(dp449
g69
I4
ssg70
g443
sg63
(lp450
g56
(g65
g58
NtRp451
(dp452
g61
(dp453
g69
I3
ssg70
Nsg63
(lp454
g56
(g72
g58
NtRp455
(dp456
g61
(dp457
sg70
g451
sg63
(lp458
g56
(g77
g58
NtRp459
(dp460
g61
(dp461
g81
g82
ssg70
g455
sg63
(lp462
g270
asbag56
(g77
g58
NtRp463
(dp464
g61
(dp465
g88
g89
ssg70
g455
sg63
(lp466
S':'
asbag56
(g77
g58
NtRp467
(dp468
g61
(dp469
sg70
g455
sg63
(lp470
g56
(g57
g58
NtRp471
(dp472
g61
(dp473
g69
I3
ssg70
g467
sg63
(lp474
S''
asbasbasbag56
(g72
g58
NtRp475
(dp476
g61
(dp477
sg70
g451
sg63
(lp478
g56
(g77
g58
NtRp479
(dp480
g61
(dp481
g81
g82
ssg70
g475
sg63
(lp482
g291
asbag56
(g77
g58
NtRp483
(dp484
g61
(dp485
g88
g89
ssg70
g475
sg63
(lp486
S':'
asbag56
(g77
g58
NtRp487
(dp488
g61
(dp489
sg70
g475
sg63
(lp490
g56
(g57
g58
NtRp491
(dp492
g61
(dp493
g69
I3
ssg70
g487
sg63
(lp494
S''
asbasbasbag56
(g72
g58
NtRp495
(dp496
g61
(dp497
sg70
g451
sg63
(lp498
g56
(g77
g58
NtRp499
(dp500
g61
(dp501
g81
g82
ssg70
g495
sg63
(lp502
g312
asbag56
(g77
g58
NtRp503
(dp504
g61
(dp505
g88
g89
ssg70
g495
sg63
(lp506
S':'
asbag56
(g77
g58
NtRp507
(dp508
g61
(dp509
sg70
g495
sg63
(lp510
g56
(g57
g58
NtRp511
(dp512
g61
(dp513
g69
I3
ssg70
g507
sg63
(lp514
S''
asbasbasbag56
(g72
g58
NtRp515
(dp516
g61
(dp517
sg70
g451
sg63
(lp518
g56
(g77
g58
NtRp519
(dp520
g61
(dp521
g81
g82
ssg70
g515
sg63
(lp522
g333
asbag56
(g77
g58
NtRp523
(dp524
g61
(dp525
g88
g89
ssg70
g515
sg63
(lp526
S':'
asbag56
(g77
g58
NtRp527
(dp528
g61
(dp529
sg70
g515
sg63
(lp530
g56
(g57
g58
NtRp531
(dp532
g61
(dp533
g69
I3
ssg70
g527
sg63
(lp534
S''
asbasbasbag56
(g72
g58
NtRp535
(dp536
g61
(dp537
sg70
g451
sg63
(lp538
g56
(g77
g58
NtRp539
(dp540
g61
(dp541
g81
g82
ssg70
g535
sg63
(lp542
g354
asbag56
(g77
g58
NtRp543
(dp544
g61
(dp545
g88
g89
ssg70
g535
sg63
(lp546
S':'
asbag56
(g77
g58
NtRp547
(dp548
g61
(dp549
sg70
g535
sg63
(lp550
g56
(g57
g58
NtRp551
(dp552
g61
(dp553
g69
I3
ssg70
g547
sg63
(lp554
S''
asbasbasbag56
(g72
g58
NtRp555
(dp556
g61
(dp557
sg70
g451
sg63
(lp558
g56
(g77
g58
NtRp559
(dp560
g61
(dp561
g81
g82
ssg70
g555
sg63
(lp562
g375
asbag56
(g77
g58
NtRp563
(dp564
g61
(dp565
g88
g89
ssg70
g555
sg63
(lp566
S':'
asbag56
(g77
g58
NtRp567
(dp568
g61
(dp569
sg70
g555
sg63
(lp570
g56
(g57
g58
NtRp571
(dp572
g61
(dp573
g69
I3
ssg70
g567
sg63
(lp574
S''
asbasbasbag56
(g72
g58
NtRp575
(dp576
g61
(dp577
sg70
g451
sg63
(lp578
g56
(g77
g58
NtRp579
(dp580
g61
(dp581
g81
g82
ssg70
g575
sg63
(lp582
g396
asbag56
(g77
g58
NtRp583
(dp584
g61
(dp585
g88
g89
ssg70
g575
sg63
(lp586
S':'
asbag56
(g77
g58
NtRp587
(dp588
g61
(dp589
sg70
g575
sg63
(lp590
g56
(g57
g58
NtRp591
(dp592
g61
(dp593
g69
I3
ssg70
g587
sg63
(lp594
S''
asbasbasbag56
(g72
g58
NtRp595
(dp596
g61
(dp597
sg70
g451
sg63
(lp598
g56
(g77
g58
NtRp599
(dp600
g61
(dp601
g81
g82
ssg70
g595
sg63
(lp602
g417
asbag56
(g77
g58
NtRp603
(dp604
g61
(dp605
g88
g89
ssg70
g595
sg63
(lp606
S':'
asbag56
(g77
g58
NtRp607
(dp608
g61
(dp609
sg70
g595
sg63
(lp610
g56
(g57
g58
NtRp611
(dp612
g61
(dp613
g69
I3
ssg70
g607
sg63
(lp614
S''
asbasbasbasbasbasbasbag56
(g72
g58
NtRp615
(dp616
g61
(dp617
sg70
g233
sg63
(lp618
g56
(g77
g58
NtRp619
(dp620
g61
(dp621
g81
g82
ssg70
g615
sg63
(lp622
S'session_id_globaleaks'
p623
asbag56
(g77
g58
NtRp624
(dp625
g61
(dp626
g88
g89
ssg70
g615
sg63
(lp627
S':'
asbag56
(g77
g58
NtRp628
(dp629
g61
(dp630
sg70
g615
sg63
(lp631
g56
(g57
g58
NtRp632
(dp633
g61
(dp634
g69
I4
ssg70
g628
sg63
(lp635
g56
(g65
g58
NtRp636
(dp637
g61
(dp638
g69
I3
ssg70
Nsg63
(lp639
g56
(g72
g58
NtRp640
(dp641
g61
(dp642
sg70
g636
sg63
(lp643
g56
(g77
g58
NtRp644
(dp645
g61
(dp646
g81
g82
ssg70
g640
sg63
(lp647
g270
asbag56
(g77
g58
NtRp648
(dp649
g61
(dp650
g88
g89
ssg70
g640
sg63
(lp651
S':'
asbag56
(g77
g58
NtRp652
(dp653
g61
(dp654
sg70
g640
sg63
(lp655
g56
(g57
g58
NtRp656
(dp657
g61
(dp658
g69
I3
ssg70
g652
sg63
(lp659
S''
asbasbasbag56
(g72
g58
NtRp660
(dp661
g61
(dp662
sg70
g636
sg63
(lp663
g56
(g77
g58
NtRp664
(dp665
g61
(dp666
g81
g82
ssg70
g660
sg63
(lp667
g291
asbag56
(g77
g58
NtRp668
(dp669
g61
(dp670
g88
g89
ssg70
g660
sg63
(lp671
S':'
asbag56
(g77
g58
NtRp672
(dp673
g61
(dp674
sg70
g660
sg63
(lp675
g56
(g57
g58
NtRp676
(dp677
g61
(dp678
g69
I3
ssg70
g672
sg63
(lp679
S''
asbasbasbag56
(g72
g58
NtRp680
(dp681
g61
(dp682
sg70
g636
sg63
(lp683
g56
(g77
g58
NtRp684
(dp685
g61
(dp686
g81
g82
ssg70
g680
sg63
(lp687
g312
asbag56
(g77
g58
NtRp688
(dp689
g61
(dp690
g88
g89
ssg70
g680
sg63
(lp691
S':'
asbag56
(g77
g58
NtRp692
(dp693
g61
(dp694
sg70
g680
sg63
(lp695
g56
(g57
g58
NtRp696
(dp697
g61
(dp698
g69
I3
ssg70
g692
sg63
(lp699
S''
asbasbasbag56
(g72
g58
NtRp700
(dp701
g61
(dp702
sg70
g636
sg63
(lp703
g56
(g77
g58
NtRp704
(dp705
g61
(dp706
g81
g82
ssg70
g700
sg63
(lp707
g333
asbag56
(g77
g58
NtRp708
(dp709
g61
(dp710
g88
g89
ssg70
g700
sg63
(lp711
S':'
asbag56
(g77
g58
NtRp712
(dp713
g61
(dp714
sg70
g700
sg63
(lp715
g56
(g57
g58
NtRp716
(dp717
g61
(dp718
g69
I3
ssg70
g712
sg63
(lp719
S''
asbasbasbag56
(g72
g58
NtRp720
(dp721
g61
(dp722
sg70
g636
sg63
(lp723
g56
(g77
g58
NtRp724
(dp725
g61
(dp726
g81
g82
ssg70
g720
sg63
(lp727
g354
asbag56
(g77
g58
NtRp728
(dp729
g61
(dp730
g88
g89
ssg70
g720
sg63
(lp731
S':'
asbag56
(g77
g58
NtRp732
(dp733
g61
(dp734
sg70
g720
sg63
(lp735
g56
(g57
g58
NtRp736
(dp737
g61
(dp738
g69
I3
ssg70
g732
sg63
(lp739
S''
asbasbasbag56
(g72
g58
NtRp740
(dp741
g61
(dp742
sg70
g636
sg63
(lp743
g56
(g77
g58
NtRp744
(dp745
g61
(dp746
g81
g82
ssg70
g740
sg63
(lp747
g375
asbag56
(g77
g58
NtRp748
(dp749
g61
(dp750
g88
g89
ssg70
g740
sg63
(lp751
S':'
asbag56
(g77
g58
NtRp752
(dp753
g61
(dp754
sg70
g740
sg63
(lp755
g56
(g57
g58
NtRp756
(dp757
g61
(dp758
g69
I3
ssg70
g752
sg63
(lp759
S''
asbasbasbag56
(g72
g58
NtRp760
(dp761
g61
(dp762
sg70
g636
sg63
(lp763
g56
(g77
g58
NtRp764
(dp765
g61
(dp766
g81
g82
ssg70
g760
sg63
(lp767
g396
asbag56
(g77
g58
NtRp768
(dp769
g61
(dp770
g88
g89
ssg70
g760
sg63
(lp771
S':'
asbag56
(g77
g58
NtRp772
(dp773
g61
(dp774
sg70
g760
sg63
(lp775
g56
(g57
g58
NtRp776
(dp777
g61
(dp778
g69
I3
ssg70
g772
sg63
(lp779
S''
asbasbasbag56
(g72
g58
NtRp780
(dp781
g61
(dp782
sg70
g636
sg63
(lp783
g56
(g77
g58
NtRp784
(dp785
g61
(dp786
g81
g82
ssg70
g780
sg63
(lp787
g417
asbag56
(g77
g58
NtRp788
(dp789
g61
(dp790
g88
g89
ssg70
g780
sg63
(lp791
S':'
asbag56
(g77
g58
NtRp792
(dp793
g61
(dp794
sg70
g780
sg63
(lp795
g56
(g57
g58
NtRp796
(dp797
g61
(dp798
g69
I3
ssg70
g792
sg63
(lp799
S''
asbasbasbasbasbasbasbag56
(g72
g58
NtRp800
(dp801
g61
(dp802
sg70
g233
sg63
(lp803
g56
(g77
g58
NtRp804
(dp805
g61
(dp806
g81
g82
ssg70
g800
sg63
(lp807
S'session_id_init'
p808
asbag56
(g77
g58
NtRp809
(dp810
g61
(dp811
g88
g89
ssg70
g800
sg63
(lp812
S':'
asbag56
(g77
g58
NtRp813
(dp814
g61
(dp815
sg70
g800
sg63
(lp816
g56
(g57
g58
NtRp817
(dp818
g61
(dp819
g69
I4
ssg70
g813
sg63
(lp820
g56
(g65
g58
NtRp821
(dp822
g61
(dp823
g69
I3
ssg70
Nsg63
(lp824
g56
(g72
g58
NtRp825
(dp826
g61
(dp827
sg70
g821
sg63
(lp828
g56
(g77
g58
NtRp829
(dp830
g61
(dp831
g81
g82
ssg70
g825
sg63
(lp832
g270
asbag56
(g77
g58
NtRp833
(dp834
g61
(dp835
g88
g89
ssg70
g825
sg63
(lp836
S':'
asbag56
(g77
g58
NtRp837
(dp838
g61
(dp839
sg70
g825
sg63
(lp840
g56
(g57
g58
NtRp841
(dp842
g61
(dp843
g69
I3
ssg70
g837
sg63
(lp844
S''
asbasbasbag56
(g72
g58
NtRp845
(dp846
g61
(dp847
sg70
g821
sg63
(lp848
g56
(g77
g58
NtRp849
(dp850
g61
(dp851
g81
g82
ssg70
g845
sg63
(lp852
g291
asbag56
(g77
g58
NtRp853
(dp854
g61
(dp855
g88
g89
ssg70
g845
sg63
(lp856
S':'
asbag56
(g77
g58
NtRp857
(dp858
g61
(dp859
sg70
g845
sg63
(lp860
g56
(g57
g58
NtRp861
(dp862
g61
(dp863
g69
I3
ssg70
g857
sg63
(lp864
S''
asbasbasbag56
(g72
g58
NtRp865
(dp866
g61
(dp867
sg70
g821
sg63
(lp868
g56
(g77
g58
NtRp869
(dp870
g61
(dp871
g81
g82
ssg70
g865
sg63
(lp872
g312
asbag56
(g77
g58
NtRp873
(dp874
g61
(dp875
g88
g89
ssg70
g865
sg63
(lp876
S':'
asbag56
(g77
g58
NtRp877
(dp878
g61
(dp879
sg70
g865
sg63
(lp880
g56
(g57
g58
NtRp881
(dp882
g61
(dp883
g69
I3
ssg70
g877
sg63
(lp884
S''
asbasbasbag56
(g72
g58
NtRp885
(dp886
g61
(dp887
sg70
g821
sg63
(lp888
g56
(g77
g58
NtRp889
(dp890
g61
(dp891
g81
g82
ssg70
g885
sg63
(lp892
g333
asbag56
(g77
g58
NtRp893
(dp894
g61
(dp895
g88
g89
ssg70
g885
sg63
(lp896
S':'
asbag56
(g77
g58
NtRp897
(dp898
g61
(dp899
sg70
g885
sg63
(lp900
g56
(g57
g58
NtRp901
(dp902
g61
(dp903
g69
I3
ssg70
g897
sg63
(lp904
S''
asbasbasbag56
(g72
g58
NtRp905
(dp906
g61
(dp907
sg70
g821
sg63
(lp908
g56
(g77
g58
NtRp909
(dp910
g61
(dp911
g81
g82
ssg70
g905
sg63
(lp912
g354
asbag56
(g77
g58
NtRp913
(dp914
g61
(dp915
g88
g89
ssg70
g905
sg63
(lp916
S':'
asbag56
(g77
g58
NtRp917
(dp918
g61
(dp919
sg70
g905
sg63
(lp920
g56
(g57
g58
NtRp921
(dp922
g61
(dp923
g69
I3
ssg70
g917
sg63
(lp924
S''
asbasbasbag56
(g72
g58
NtRp925
(dp926
g61
(dp927
sg70
g821
sg63
(lp928
g56
(g77
g58
NtRp929
(dp930
g61
(dp931
g81
g82
ssg70
g925
sg63
(lp932
g375
asbag56
(g77
g58
NtRp933
(dp934
g61
(dp935
g88
g89
ssg70
g925
sg63
(lp936
S':'
asbag56
(g77
g58
NtRp937
(dp938
g61
(dp939
sg70
g925
sg63
(lp940
g56
(g57
g58
NtRp941
(dp942
g61
(dp943
g69
I3
ssg70
g937
sg63
(lp944
S''
asbasbasbag56
(g72
g58
NtRp945
(dp946
g61
(dp947
sg70
g821
sg63
(lp948
g56
(g77
g58
NtRp949
(dp950
g61
(dp951
g81
g82
ssg70
g945
sg63
(lp952
g396
asbag56
(g77
g58
NtRp953
(dp954
g61
(dp955
g88
g89
ssg70
g945
sg63
(lp956
S':'
asbag56
(g77
g58
NtRp957
(dp958
g61
(dp959
sg70
g945
sg63
(lp960
g56
(g57
g58
NtRp961
(dp962
g61
(dp963
g69
I3
ssg70
g957
sg63
(lp964
S''
asbasbasbag56
(g72
g58
NtRp965
(dp966
g61
(dp967
sg70
g821
sg63
(lp968
g56
(g77
g58
NtRp969
(dp970
g61
(dp971
g81
g82
ssg70
g965
sg63
(lp972
g417
asbag56
(g77
g58
NtRp973
(dp974
g61
(dp975
g88
g89
ssg70
g965
sg63
(lp976
S':'
asbag56
(g77
g58
NtRp977
(dp978
g61
(dp979
sg70
g965
sg63
(lp980
g56
(g57
g58
NtRp981
(dp982
g61
(dp983
g69
I3
ssg70
g977
sg63
(lp984
S''
asbasbasbasbasbasbasbasbasbasbasbag56
(g72
g58
NtRp985
(dp986
g61
(dp987
sg70
g66
sg63
(lp988
g56
(g77
g58
NtRp989
(dp990
g61
(dp991
g81
g82
ssg70
g985
sg63
(lp992
S'env'
p993
asbag56
(g77
g58
NtRp994
(dp995
g61
(dp996
g88
g89
ssg70
g985
sg63
(lp997
S':'
asbag56
(g77
g58
NtRp998
(dp999
g61
(dp1000
sg70
g985
sg63
(lp1001
g56
(g57
g58
NtRp1002
(dp1003
g61
(dp1004
g69
I5
ssg70
g998
sg63
(lp1005
g56
(g65
g58
NtRp1006
(dp1007
g61
(dp1008
g69
I4
ssg70
Nsg63
(lp1009
g56
(g72
g58
NtRp1010
(dp1011
g61
(dp1012
sg70
g1006
sg63
(lp1013
g56
(g77
g58
NtRp1014
(dp1015
g61
(dp1016
g81
g82
ssg70
g1010
sg63
(lp1017
S'app_folders'
p1018
asbag56
(g77
g58
NtRp1019
(dp1020
g61
(dp1021
g88
g89
ssg70
g1010
sg63
(lp1022
S':'
asbag56
(g77
g58
NtRp1023
(dp1024
g61
(dp1025
sg70
g1010
sg63
(lp1026
g56
(g57
g58
NtRp1027
(dp1028
g61
(dp1029
g69
I4
ssg70
g1023
sg63
(lp1030
S"set(['/Users/hellais/Documents/code/mygit/globaleaks/webapp/applications/globaleaks/', '/Users/hellais/Documents/code/mygit/globaleaks/webapp/applications/admin/'])"
p1031
asbasbasbag56
(g72
g58
NtRp1032
(dp1033
g61
(dp1034
sg70
g1006
sg63
(lp1035
g56
(g77
g58
NtRp1036
(dp1037
g61
(dp1038
g81
g82
ssg70
g1032
sg63
(lp1039
S'applications_parent'
p1040
asbag56
(g77
g58
NtRp1041
(dp1042
g61
(dp1043
g88
g89
ssg70
g1032
sg63
(lp1044
S':'
asbag56
(g77
g58
NtRp1045
(dp1046
g61
(dp1047
sg70
g1032
sg63
(lp1048
g56
(g57
g58
NtRp1049
(dp1050
g61
(dp1051
g69
I4
ssg70
g1045
sg63
(lp1052
S'/Users/hellais/Documents/code/mygit/globaleaks/webapp'
p1053
asbasbasbag56
(g72
g58
NtRp1054
(dp1055
g61
(dp1056
sg70
g1006
sg63
(lp1057
g56
(g77
g58
NtRp1058
(dp1059
g61
(dp1060
g81
g82
ssg70
g1054
sg63
(lp1061
S'cmd_args'
p1062
asbag56
(g77
g58
NtRp1063
(dp1064
g61
(dp1065
g88
g89
ssg70
g1054
sg63
(lp1066
S':'
asbag56
(g77
g58
NtRp1067
(dp1068
g61
(dp1069
sg70
g1054
sg63
(lp1070
g56
(g57
g58
NtRp1071
(dp1072
g61
(dp1073
g69
I4
ssg70
g1067
sg63
(lp1074
g56
(g65
g58
NtRp1075
(dp1076
g61
(dp1077
g69
I3
ssg70
Nsg63
(lp1078
sbasbasbasbag56
(g72
g58
NtRp1079
(dp1080
g61
(dp1081
sg70
g1006
sg63
(lp1082
g56
(g77
g58
NtRp1083
(dp1084
g61
(dp1085
g81
g82
ssg70
g1079
sg63
(lp1086
S'cmd_options'
p1087
asbag56
(g77
g58
NtRp1088
(dp1089
g61
(dp1090
g88
g89
ssg70
g1079
sg63
(lp1091
S':'
asbag56
(g77
g58
NtRp1092
(dp1093
g61
(dp1094
sg70
g1079
sg63
(lp1095
g56
(g57
g58
NtRp1096
(dp1097
g61
(dp1098
g69
I4
ssg70
g1092
sg63
(lp1099
S"<Values at 0x1016b8488: {'verbose': False, 'ip': '127.0.0.1', 'shutdown_timeout': 5, 'taskbar': False, 'port': 8000, 'maxthreads': None, 'softcron': False, 'server_name': 'Jeanne.local', 'bpython': False, 'nogui': False, 'nocron': False, 'extcron': False, 'debuglevel': 30, 'test': None, 'folder': '/Users/hellais/Documents/code/mygit/globaleaks/webapp', 'config': '', 'import_models': False, 'winservice': '', 'shell': None, 'run': '', 'log_filename': 'httpserver.log', 'args': [''], 'profiler_filename': None, 'ssl_private_key': '', 'password': 'asd', 'request_queue_size': 5, 'ssl_certificate': '', 'cronjob': False, 'plain': False, 'quiet': False, 'interfaces': None, 'minthreads': None, 'timeout': 10, 'numthreads': None, 'nobanner': False, 'pid_filename': 'httpserver.pid'}>"
p1100
asbasbasbag56
(g72
g58
NtRp1101
(dp1102
g61
(dp1103
sg70
g1006
sg63
(lp1104
g56
(g77
g58
NtRp1105
(dp1106
g61
(dp1107
g81
g82
ssg70
g1101
sg63
(lp1108
S'content_length'
p1109
asbag56
(g77
g58
NtRp1110
(dp1111
g61
(dp1112
g88
g89
ssg70
g1101
sg63
(lp1113
S':'
asbag56
(g77
g58
NtRp1114
(dp1115
g61
(dp1116
sg70
g1101
sg63
(lp1117
g56
(g57
g58
NtRp1118
(dp1119
g61
(dp1120
g69
I4
ssg70
g1114
sg63
(lp1121
S'966'
p1122
asbasbasbag56
(g72
g58
NtRp1123
(dp1124
g61
(dp1125
sg70
g1006
sg63
(lp1126
g56
(g77
g58
NtRp1127
(dp1128
g61
(dp1129
g81
g82
ssg70
g1123
sg63
(lp1130
S'content_type'
p1131
asbag56
(g77
g58
NtRp1132
(dp1133
g61
(dp1134
g88
g89
ssg70
g1123
sg63
(lp1135
S':'
asbag56
(g77
g58
NtRp1136
(dp1137
g61
(dp1138
sg70
g1123
sg63
(lp1139
g56
(g57
g58
NtRp1140
(dp1141
g61
(dp1142
g69
I4
ssg70
g1136
sg63
(lp1143
S'multipart/form-data; boundary=---------------------------19966438831014273559170516227'
p1144
asbasbasbag56
(g72
g58
NtRp1145
(dp1146
g61
(dp1147
sg70
g1006
sg63
(lp1148
g56
(g77
g58
NtRp1149
(dp1150
g61
(dp1151
g81
g82
ssg70
g1145
sg63
(lp1152
S'db_sessions'
p1153
asbag56
(g77
g58
NtRp1154
(dp1155
g61
(dp1156
g88
g89
ssg70
g1145
sg63
(lp1157
S':'
asbag56
(g77
g58
NtRp1158
(dp1159
g61
(dp1160
sg70
g1145
sg63
(lp1161
g56
(g57
g58
NtRp1162
(dp1163
g61
(dp1164
g69
I4
ssg70
g1158
sg63
(lp1165
S'set([])'
p1166
asbasbasbag56
(g72
g58
NtRp1167
(dp1168
g61
(dp1169
sg70
g1006
sg63
(lp1170
g56
(g77
g58
NtRp1171
(dp1172
g61
(dp1173
g81
g82
ssg70
g1167
sg63
(lp1174
S'debugging'
p1175
asbag56
(g77
g58
NtRp1176
(dp1177
g61
(dp1178
g88
g89
ssg70
g1167
sg63
(lp1179
S':'
asbag56
(g77
g58
NtRp1180
(dp1181
g61
(dp1182
sg70
g1167
sg63
(lp1183
g56
(g57
g58
NtRp1184
(dp1185
g61
(dp1186
g69
I4
ssg70
g1180
sg63
(lp1187
g99
asbasbasbag56
(g72
g58
NtRp1188
(dp1189
g61
(dp1190
sg70
g1006
sg63
(lp1191
g56
(g77
g58
NtRp1192
(dp1193
g61
(dp1194
g81
g82
ssg70
g1188
sg63
(lp1195
S'gluon_parent'
p1196
asbag56
(g77
g58
NtRp1197
(dp1198
g61
(dp1199
g88
g89
ssg70
g1188
sg63
(lp1200
S':'
asbag56
(g77
g58
NtRp1201
(dp1202
g61
(dp1203
sg70
g1188
sg63
(lp1204
g56
(g57
g58
NtRp1205
(dp1206
g61
(dp1207
g69
I4
ssg70
g1201
sg63
(lp1208
S'/Users/hellais/Documents/code/mygit/globaleaks/webapp'
p1209
asbasbasbag56
(g72
g58
NtRp1210
(dp1211
g61
(dp1212
sg70
g1006
sg63
(lp1213
g56
(g77
g58
NtRp1214
(dp1215
g61
(dp1216
g81
g82
ssg70
g1210
sg63
(lp1217
S'http_accept'
p1218
asbag56
(g77
g58
NtRp1219
(dp1220
g61
(dp1221
g88
g89
ssg70
g1210
sg63
(lp1222
S':'
asbag56
(g77
g58
NtRp1223
(dp1224
g61
(dp1225
sg70
g1210
sg63
(lp1226
g56
(g57
g58
NtRp1227
(dp1228
g61
(dp1229
g69
I4
ssg70
g1223
sg63
(lp1230
S'text/html,application/xhtml+xml,application/xml;q=0.9,*/*;q=0.8'
p1231
asbasbasbag56
(g72
g58
NtRp1232
(dp1233
g61
(dp1234
sg70
g1006
sg63
(lp1235
g56
(g77
g58
NtRp1236
(dp1237
g61
(dp1238
g81
g82
ssg70
g1232
sg63
(lp1239
S'http_accept_charset'
p1240
asbag56
(g77
g58
NtRp1241
(dp1242
g61
(dp1243
g88
g89
ssg70
g1232
sg63
(lp1244
S':'
asbag56
(g77
g58
NtRp1245
(dp1246
g61
(dp1247
sg70
g1232
sg63
(lp1248
g56
(g57
g58
NtRp1249
(dp1250
g61
(dp1251
g69
I4
ssg70
g1245
sg63
(lp1252
S'ISO-8859-1,utf-8;q=0.7,*;q=0.7'
p1253
asbasbasbag56
(g72
g58
NtRp1254
(dp1255
g61
(dp1256
sg70
g1006
sg63
(lp1257
g56
(g77
g58
NtRp1258
(dp1259
g61
(dp1260
g81
g82
ssg70
g1254
sg63
(lp1261
S'http_accept_encoding'
p1262
asbag56
(g77
g58
NtRp1263
(dp1264
g61
(dp1265
g88
g89
ssg70
g1254
sg63
(lp1266
S':'
asbag56
(g77
g58
NtRp1267
(dp1268
g61
(dp1269
sg70
g1254
sg63
(lp1270
g56
(g57
g58
NtRp1271
(dp1272
g61
(dp1273
g69
I4
ssg70
g1267
sg63
(lp1274
S'gzip, deflate'
p1275
asbasbasbag56
(g72
g58
NtRp1276
(dp1277
g61
(dp1278
sg70
g1006
sg63
(lp1279
g56
(g77
g58
NtRp1280
(dp1281
g61
(dp1282
g81
g82
ssg70
g1276
sg63
(lp1283
S'http_accept_language'
p1284
asbag56
(g77
g58
NtRp1285
(dp1286
g61
(dp1287
g88
g89
ssg70
g1276
sg63
(lp1288
S':'
asbag56
(g77
g58
NtRp1289
(dp1290
g61
(dp1291
sg70
g1276
sg63
(lp1292
g56
(g57
g58
NtRp1293
(dp1294
g61
(dp1295
g69
I4
ssg70
g1289
sg63
(lp1296
S'en-us,en;q=0.5'
p1297
asbasbasbag56
(g72
g58
NtRp1298
(dp1299
g61
(dp1300
sg70
g1006
sg63
(lp1301
g56
(g77
g58
NtRp1302
(dp1303
g61
(dp1304
g81
g82
ssg70
g1298
sg63
(lp1305
S'http_connection'
p1306
asbag56
(g77
g58
NtRp1307
(dp1308
g61
(dp1309
g88
g89
ssg70
g1298
sg63
(lp1310
S':'
asbag56
(g77
g58
NtRp1311
(dp1312
g61
(dp1313
sg70
g1298
sg63
(lp1314
g56
(g57
g58
NtRp1315
(dp1316
g61
(dp1317
g69
I4
ssg70
g1311
sg63
(lp1318
S'keep-alive'
p1319
asbasbasbag56
(g72
g58
NtRp1320
(dp1321
g61
(dp1322
sg70
g1006
sg63
(lp1323
g56
(g77
g58
NtRp1324
(dp1325
g61
(dp1326
g81
g82
ssg70
g1320
sg63
(lp1327
S'http_content_length'
p1328
asbag56
(g77
g58
NtRp1329
(dp1330
g61
(dp1331
g88
g89
ssg70
g1320
sg63
(lp1332
S':'
asbag56
(g77
g58
NtRp1333
(dp1334
g61
(dp1335
sg70
g1320
sg63
(lp1336
g56
(g57
g58
NtRp1337
(dp1338
g61
(dp1339
g69
I4
ssg70
g1333
sg63
(lp1340
g1122
asbasbasbag56
(g72
g58
NtRp1341
(dp1342
g61
(dp1343
sg70
g1006
sg63
(lp1344
g56
(g77
g58
NtRp1345
(dp1346
g61
(dp1347
g81
g82
ssg70
g1341
sg63
(lp1348
S'http_content_type'
p1349
asbag56
(g77
g58
NtRp1350
(dp1351
g61
(dp1352
g88
g89
ssg70
g1341
sg63
(lp1353
S':'
asbag56
(g77
g58
NtRp1354
(dp1355
g61
(dp1356
sg70
g1341
sg63
(lp1357
g56
(g57
g58
NtRp1358
(dp1359
g61
(dp1360
g69
I4
ssg70
g1354
sg63
(lp1361
g1144
asbasbasbag56
(g72
g58
NtRp1362
(dp1363
g61
(dp1364
sg70
g1006
sg63
(lp1365
g56
(g77
g58
NtRp1366
(dp1367
g61
(dp1368
g81
g82
ssg70
g1362
sg63
(lp1369
S'http_cookie'
p1370
asbag56
(g77
g58
NtRp1371
(dp1372
g61
(dp1373
g88
g89
ssg70
g1362
sg63
(lp1374
S':'
asbag56
(g77
g58
NtRp1375
(dp1376
g61
(dp1377
sg70
g1362
sg63
(lp1378
g56
(g57
g58
NtRp1379
(dp1380
g61
(dp1381
g69
I4
ssg70
g1375
sg63
(lp1382
S'session_id_admin=127.0.0.1-451e3253-5599-4a58-9729-d927f3cdd6fc; session_id_globaleaks=127.0.0.1-c6d5b9b3-1ec7-41c1-8d72-04c21b7a6b11; session_id_blabla=127.0.0.1-c445384e-a3ea-4484-8fe2-52f3295bbb7c; session_id_init=127.0.0.1-a8551263-bc3c-430c-abb2-8711fac671c1'
p1383
asbasbasbag56
(g72
g58
NtRp1384
(dp1385
g61
(dp1386
sg70
g1006
sg63
(lp1387
g56
(g77
g58
NtRp1388
(dp1389
g61
(dp1390
g81
g82
ssg70
g1384
sg63
(lp1391
S'http_host'
p1392
asbag56
(g77
g58
NtRp1393
(dp1394
g61
(dp1395
g88
g89
ssg70
g1384
sg63
(lp1396
S':'
asbag56
(g77
g58
NtRp1397
(dp1398
g61
(dp1399
sg70
g1384
sg63
(lp1400
g56
(g57
g58
NtRp1401
(dp1402
g61
(dp1403
g69
I4
ssg70
g1397
sg63
(lp1404
S'127.0.0.1:8000'
p1405
asbasbasbag56
(g72
g58
NtRp1406
(dp1407
g61
(dp1408
sg70
g1006
sg63
(lp1409
g56
(g77
g58
NtRp1410
(dp1411
g61
(dp1412
g81
g82
ssg70
g1406
sg63
(lp1413
S'http_referer'
p1414
asbag56
(g77
g58
NtRp1415
(dp1416
g61
(dp1417
g88
g89
ssg70
g1406
sg63
(lp1418
S':'
asbag56
(g77
g58
NtRp1419
(dp1420
g61
(dp1421
sg70
g1406
sg63
(lp1422
g56
(g57
g58
NtRp1423
(dp1424
g61
(dp1425
g69
I4
ssg70
g1419
sg63
(lp1426
S'http://127.0.0.1:8000/submit'
p1427
asbasbasbag56
(g72
g58
NtRp1428
(dp1429
g61
(dp1430
sg70
g1006
sg63
(lp1431
g56
(g77
g58
NtRp1432
(dp1433
g61
(dp1434
g81
g82
ssg70
g1428
sg63
(lp1435
S'http_user_agent'
p1436
asbag56
(g77
g58
NtRp1437
(dp1438
g61
(dp1439
g88
g89
ssg70
g1428
sg63
(lp1440
S':'
asbag56
(g77
g58
NtRp1441
(dp1442
g61
(dp1443
sg70
g1428
sg63
(lp1444
g56
(g57
g58
NtRp1445
(dp1446
g61
(dp1447
g69
I4
ssg70
g1441
sg63
(lp1448
S'Mozilla/5.0 (Macintosh; Intel Mac OS X 10.6; rv:5.0.1) Gecko/20100101 Firefox/5.0.1'
p1449
asbasbasbag56
(g72
g58
NtRp1450
(dp1451
g61
(dp1452
sg70
g1006
sg63
(lp1453
g56
(g77
g58
NtRp1454
(dp1455
g61
(dp1456
g81
g82
ssg70
g1450
sg63
(lp1457
S'is_jython'
p1458
asbag56
(g77
g58
NtRp1459
(dp1460
g61
(dp1461
g88
g89
ssg70
g1450
sg63
(lp1462
S':'
asbag56
(g77
g58
NtRp1463
(dp1464
g61
(dp1465
sg70
g1450
sg63
(lp1466
g56
(g57
g58
NtRp1467
(dp1468
g61
(dp1469
g69
I4
ssg70
g1463
sg63
(lp1470
g99
asbasbasbag56
(g72
g58
NtRp1471
(dp1472
g61
(dp1473
sg70
g1006
sg63
(lp1474
g56
(g77
g58
NtRp1475
(dp1476
g61
(dp1477
g81
g82
ssg70
g1471
sg63
(lp1478
S'path_info'
p1479
asbag56
(g77
g58
NtRp1480
(dp1481
g61
(dp1482
g88
g89
ssg70
g1471
sg63
(lp1483
S':'
asbag56
(g77
g58
NtRp1484
(dp1485
g61
(dp1486
sg70
g1471
sg63
(lp1487
g56
(g57
g58
NtRp1488
(dp1489
g61
(dp1490
g69
I4
ssg70
g1484
sg63
(lp1491
S'/globaleaks/submission/'
p1492
asbasbasbag56
(g72
g58
NtRp1493
(dp1494
g61
(dp1495
sg70
g1006
sg63
(lp1496
g56
(g77
g58
NtRp1497
(dp1498
g61
(dp1499
g81
g82
ssg70
g1493
sg63
(lp1500
S'query_string'
p1501
asbag56
(g77
g58
NtRp1502
(dp1503
g61
(dp1504
g88
g89
ssg70
g1493
sg63
(lp1505
S':'
asbag56
(g77
g58
NtRp1506
(dp1507
g61
(dp1508
sg70
g1493
sg63
(lp1509
g56
(g57
g58
NtRp1510
(dp1511
g61
(dp1512
g69
I4
ssg70
g1506
sg63
(lp1513
S''
asbasbasbag56
(g72
g58
NtRp1514
(dp1515
g61
(dp1516
sg70
g1006
sg63
(lp1517
g56
(g77
g58
NtRp1518
(dp1519
g61
(dp1520
g81
g82
ssg70
g1514
sg63
(lp1521
S'remote_addr'
p1522
asbag56
(g77
g58
NtRp1523
(dp1524
g61
(dp1525
g88
g89
ssg70
g1514
sg63
(lp1526
S':'
asbag56
(g77
g58
NtRp1527
(dp1528
g61
(dp1529
sg70
g1514
sg63
(lp1530
g56
(g57
g58
NtRp1531
(dp1532
g61
(dp1533
g69
I4
ssg70
g1527
sg63
(lp1534
g189
asbasbasbag56
(g72
g58
NtRp1535
(dp1536
g61
(dp1537
sg70
g1006
sg63
(lp1538
g56
(g77
g58
NtRp1539
(dp1540
g61
(dp1541
g81
g82
ssg70
g1535
sg63
(lp1542
S'remote_port'
p1543
asbag56
(g77
g58
NtRp1544
(dp1545
g61
(dp1546
g88
g89
ssg70
g1535
sg63
(lp1547
S':'
asbag56
(g77
g58
NtRp1548
(dp1549
g61
(dp1550
sg70
g1535
sg63
(lp1551
g56
(g57
g58
NtRp1552
(dp1553
g61
(dp1554
g69
I4
ssg70
g1548
sg63
(lp1555
S'59885'
p1556
asbasbasbag56
(g72
g58
NtRp1557
(dp1558
g61
(dp1559
sg70
g1006
sg63
(lp1560
g56
(g77
g58
NtRp1561
(dp1562
g61
(dp1563
g81
g82
ssg70
g1557
sg63
(lp1564
S'request_method'
p1565
asbag56
(g77
g58
NtRp1566
(dp1567
g61
(dp1568
g88
g89
ssg70
g1557
sg63
(lp1569
S':'
asbag56
(g77
g58
NtRp1570
(dp1571
g61
(dp1572
sg70
g1557
sg63
(lp1573
g56
(g57
g58
NtRp1574
(dp1575
g61
(dp1576
g69
I4
ssg70
g1570
sg63
(lp1577
S'POST'
p1578
asbasbasbag56
(g72
g58
NtRp1579
(dp1580
g61
(dp1581
sg70
g1006
sg63
(lp1582
g56
(g77
g58
NtRp1583
(dp1584
g61
(dp1585
g81
g82
ssg70
g1579
sg63
(lp1586
S'request_uri'
p1587
asbag56
(g77
g58
NtRp1588
(dp1589
g61
(dp1590
g88
g89
ssg70
g1579
sg63
(lp1591
S':'
asbag56
(g77
g58
NtRp1592
(dp1593
g61
(dp1594
sg70
g1579
sg63
(lp1595
g56
(g57
g58
NtRp1596
(dp1597
g61
(dp1598
g69
I4
ssg70
g1592
sg63
(lp1599
g1492
asbasbasbag56
(g72
g58
NtRp1600
(dp1601
g61
(dp1602
sg70
g1006
sg63
(lp1603
g56
(g77
g58
NtRp1604
(dp1605
g61
(dp1606
g81
g82
ssg70
g1600
sg63
(lp1607
S'script_name'
p1608
asbag56
(g77
g58
NtRp1609
(dp1610
g61
(dp1611
g88
g89
ssg70
g1600
sg63
(lp1612
S':'
asbag56
(g77
g58
NtRp1613
(dp1614
g61
(dp1615
sg70
g1600
sg63
(lp1616
g56
(g57
g58
NtRp1617
(dp1618
g61
(dp1619
g69
I4
ssg70
g1613
sg63
(lp1620
S''
asbasbasbag56
(g72
g58
NtRp1621
(dp1622
g61
(dp1623
sg70
g1006
sg63
(lp1624
g56
(g77
g58
NtRp1625
(dp1626
g61
(dp1627
g81
g82
ssg70
g1621
sg63
(lp1628
S'server_name'
p1629
asbag56
(g77
g58
NtRp1630
(dp1631
g61
(dp1632
g88
g89
ssg70
g1621
sg63
(lp1633
S':'
asbag56
(g77
g58
NtRp1634
(dp1635
g61
(dp1636
sg70
g1621
sg63
(lp1637
g56
(g57
g58
NtRp1638
(dp1639
g61
(dp1640
g69
I4
ssg70
g1634
sg63
(lp1641
S'Jeanne.local'
p1642
asbasbasbag56
(g72
g58
NtRp1643
(dp1644
g61
(dp1645
sg70
g1006
sg63
(lp1646
g56
(g77
g58
NtRp1647
(dp1648
g61
(dp1649
g81
g82
ssg70
g1643
sg63
(lp1650
S'server_port'
p1651
asbag56
(g77
g58
NtRp1652
(dp1653
g61
(dp1654
g88
g89
ssg70
g1643
sg63
(lp1655
S':'
asbag56
(g77
g58
NtRp1656
(dp1657
g61
(dp1658
sg70
g1643
sg63
(lp1659
g56
(g57
g58
NtRp1660
(dp1661
g61
(dp1662
g69
I4
ssg70
g1656
sg63
(lp1663
S'8000'
p1664
asbasbasbag56
(g72
g58
NtRp1665
(dp1666
g61
(dp1667
sg70
g1006
sg63
(lp1668
g56
(g77
g58
NtRp1669
(dp1670
g61
(dp1671
g81
g82
ssg70
g1665
sg63
(lp1672
S'server_protocol'
p1673
asbag56
(g77
g58
NtRp1674
(dp1675
g61
(dp1676
g88
g89
ssg70
g1665
sg63
(lp1677
S':'
asbag56
(g77
g58
NtRp1678
(dp1679
g61
(dp1680
sg70
g1665
sg63
(lp1681
g56
(g57
g58
NtRp1682
(dp1683
g61
(dp1684
g69
I4
ssg70
g1678
sg63
(lp1685
S'HTTP/1.1'
p1686
asbasbasbag56
(g72
g58
NtRp1687
(dp1688
g61
(dp1689
sg70
g1006
sg63
(lp1690
g56
(g77
g58
NtRp1691
(dp1692
g61
(dp1693
g81
g82
ssg70
g1687
sg63
(lp1694
S'server_software'
p1695
asbag56
(g77
g58
NtRp1696
(dp1697
g61
(dp1698
g88
g89
ssg70
g1687
sg63
(lp1699
S':'
asbag56
(g77
g58
NtRp1700
(dp1701
g61
(dp1702
sg70
g1687
sg63
(lp1703
g56
(g57
g58
NtRp1704
(dp1705
g61
(dp1706
g69
I4
ssg70
g1700
sg63
(lp1707
S'Rocket 1.2.2'
p1708
asbasbasbag56
(g72
g58
NtRp1709
(dp1710
g61
(dp1711
sg70
g1006
sg63
(lp1712
g56
(g77
g58
NtRp1713
(dp1714
g61
(dp1715
g81
g82
ssg70
g1709
sg63
(lp1716
S'web2py_crontype'
p1717
asbag56
(g77
g58
NtRp1718
(dp1719
g61
(dp1720
g88
g89
ssg70
g1709
sg63
(lp1721
S':'
asbag56
(g77
g58
NtRp1722
(dp1723
g61
(dp1724
sg70
g1709
sg63
(lp1725
g56
(g57
g58
NtRp1726
(dp1727
g61
(dp1728
g69
I4
ssg70
g1722
sg63
(lp1729
S'hard'
p1730
asbasbasbag56
(g72
g58
NtRp1731
(dp1732
g61
(dp1733
sg70
g1006
sg63
(lp1734
g56
(g77
g58
NtRp1735
(dp1736
g61
(dp1737
g81
g82
ssg70
g1731
sg63
(lp1738
S'web2py_original_uri'
p1739
asbag56
(g77
g58
NtRp1740
(dp1741
g61
(dp1742
g88
g89
ssg70
g1731
sg63
(lp1743
S':'
asbag56
(g77
g58
NtRp1744
(dp1745
g61
(dp1746
sg70
g1731
sg63
(lp1747
g56
(g57
g58
NtRp1748
(dp1749
g61
(dp1750
g69
I4
ssg70
g1744
sg63
(lp1751
S'/submit'
p1752
asbasbasbag56
(g72
g58
NtRp1753
(dp1754
g61
(dp1755
sg70
g1006
sg63
(lp1756
g56
(g77
g58
NtRp1757
(dp1758
g61
(dp1759
g81
g82
ssg70
g1753
sg63
(lp1760
S'web2py_path'
p1761
asbag56
(g77
g58
NtRp1762
(dp1763
g61
(dp1764
g88
g89
ssg70
g1753
sg63
(lp1765
S':'
asbag56
(g77
g58
NtRp1766
(dp1767
g61
(dp1768
sg70
g1753
sg63
(lp1769
g56
(g57
g58
NtRp1770
(dp1771
g61
(dp1772
g69
I4
ssg70
g1766
sg63
(lp1773
g1053
asbasbasbag56
(g72
g58
NtRp1774
(dp1775
g61
(dp1776
sg70
g1006
sg63
(lp1777
g56
(g77
g58
NtRp1778
(dp1779
g61
(dp1780
g81
g82
ssg70
g1774
sg63
(lp1781
S'web2py_version'
p1782
asbag56
(g77
g58
NtRp1783
(dp1784
g61
(dp1785
g88
g89
ssg70
g1774
sg63
(lp1786
S':'
asbag56
(g77
g58
NtRp1787
(dp1788
g61
(dp1789
sg70
g1774
sg63
(lp1790
g56
(g57
g58
NtRp1791
(dp1792
g61
(dp1793
g69
I4
ssg70
g1787
sg63
(lp1794
S'Version 1.98.2 (2011-08-04 00:47:09)\n'
p1795
asbasbasbag56
(g72
g58
NtRp1796
(dp1797
g61
(dp1798
sg70
g1006
sg63
(lp1799
g56
(g77
g58
NtRp1800
(dp1801
g61
(dp1802
g81
g82
ssg70
g1796
sg63
(lp1803
S'wsgi_errors'
p1804
asbag56
(g77
g58
NtRp1805
(dp1806
g61
(dp1807
g88
g89
ssg70
g1796
sg63
(lp1808
S':'
asbag56
(g77
g58
NtRp1809
(dp1810
g61
(dp1811
sg70
g1796
sg63
(lp1812
g56
(g57
g58
NtRp1813
(dp1814
g61
(dp1815
g69
I4
ssg70
g1809
sg63
(lp1816
S"<open file '<stderr>', mode 'w' at 0x100287270>"
p1817
asbasbasbag56
(g72
g58
NtRp1818
(dp1819
g61
(dp1820
sg70
g1006
sg63
(lp1821
g56
(g77
g58
NtRp1822
(dp1823
g61
(dp1824
g81
g82
ssg70
g1818
sg63
(lp1825
S'wsgi_file_wrapper'
p1826
asbag56
(g77
g58
NtRp1827
(dp1828
g61
(dp1829
g88
g89
ssg70
g1818
sg63
(lp1830
S':'
asbag56
(g77
g58
NtRp1831
(dp1832
g61
(dp1833
sg70
g1818
sg63
(lp1834
g56
(g57
g58
NtRp1835
(dp1836
g61
(dp1837
g69
I4
ssg70
g1831
sg63
(lp1838
S'<class gluon.rocket.FileWrapper at 0x1019dae88>'
p1839
asbasbasbag56
(g72
g58
NtRp1840
(dp1841
g61
(dp1842
sg70
g1006
sg63
(lp1843
g56
(g77
g58
NtRp1844
(dp1845
g61
(dp1846
g81
g82
ssg70
g1840
sg63
(lp1847
S'wsgi_input'
p1848
asbag56
(g77
g58
NtRp1849
(dp1850
g61
(dp1851
g88
g89
ssg70
g1840
sg63
(lp1852
S':'
asbag56
(g77
g58
NtRp1853
(dp1854
g61
(dp1855
sg70
g1840
sg63
(lp1856
g56
(g57
g58
NtRp1857
(dp1858
g61
(dp1859
g69
I4
ssg70
g1853
sg63
(lp1860
S'<socket._fileobject object at 0x102309450>'
p1861
asbasbasbag56
(g72
g58
NtRp1862
(dp1863
g61
(dp1864
sg70
g1006
sg63
(lp1865
g56
(g77
g58
NtRp1866
(dp1867
g61
(dp1868
g81
g82
ssg70
g1862
sg63
(lp1869
S'wsgi_multiprocess'
p1870
asbag56
(g77
g58
NtRp1871
(dp1872
g61
(dp1873
g88
g89
ssg70
g1862
sg63
(lp1874
S':'
asbag56
(g77
g58
NtRp1875
(dp1876
g61
(dp1877
sg70
g1862
sg63
(lp1878
g56
(g57
g58
NtRp1879
(dp1880
g61
(dp1881
g69
I4
ssg70
g1875
sg63
(lp1882
g99
asbasbasbag56
(g72
g58
NtRp1883
(dp1884
g61
(dp1885
sg70
g1006
sg63
(lp1886
g56
(g77
g58
NtRp1887
(dp1888
g61
(dp1889
g81
g82
ssg70
g1883
sg63
(lp1890
S'wsgi_multithread'
p1891
asbag56
(g77
g58
NtRp1892
(dp1893
g61
(dp1894
g88
g89
ssg70
g1883
sg63
(lp1895
S':'
asbag56
(g77
g58
NtRp1896
(dp1897
g61
(dp1898
sg70
g1883
sg63
(lp1899
g56
(g57
g58
NtRp1900
(dp1901
g61
(dp1902
g69
I4
ssg70
g1896
sg63
(lp1903
S'True'
p1904
asbasbasbag56
(g72
g58
NtRp1905
(dp1906
g61
(dp1907
sg70
g1006
sg63
(lp1908
g56
(g77
g58
NtRp1909
(dp1910
g61
(dp1911
g81
g82
ssg70
g1905
sg63
(lp1912
S'wsgi_run_once'
p1913
asbag56
(g77
g58
NtRp1914
(dp1915
g61
(dp1916
g88
g89
ssg70
g1905
sg63
(lp1917
S':'
asbag56
(g77
g58
NtRp1918
(dp1919
g61
(dp1920
sg70
g1905
sg63
(lp1921
g56
(g57
g58
NtRp1922
(dp1923
g61
(dp1924
g69
I4
ssg70
g1918
sg63
(lp1925
g99
asbasbasbag56
(g72
g58
NtRp1926
(dp1927
g61
(dp1928
sg70
g1006
sg63
(lp1929
g56
(g77
g58
NtRp1930
(dp1931
g61
(dp1932
g81
g82
ssg70
g1926
sg63
(lp1933
S'wsgi_url_scheme'
p1934
asbag56
(g77
g58
NtRp1935
(dp1936
g61
(dp1937
g88
g89
ssg70
g1926
sg63
(lp1938
S':'
asbag56
(g77
g58
NtRp1939
(dp1940
g61
(dp1941
sg70
g1926
sg63
(lp1942
g56
(g57
g58
NtRp1943
(dp1944
g61
(dp1945
g69
I4
ssg70
g1939
sg63
(lp1946
S'http'
p1947
asbasbasbag56
(g72
g58
NtRp1948
(dp1949
g61
(dp1950
sg70
g1006
sg63
(lp1951
g56
(g77
g58
NtRp1952
(dp1953
g61
(dp1954
g81
g82
ssg70
g1948
sg63
(lp1955
S'wsgi_version'
p1956
asbag56
(g77
g58
NtRp1957
(dp1958
g61
(dp1959
g88
g89
ssg70
g1948
sg63
(lp1960
S':'
asbag56
(g77
g58
NtRp1961
(dp1962
g61
(dp1963
sg70
g1948
sg63
(lp1964
g56
(g57
g58
NtRp1965
(dp1966
g61
(dp1967
g69
I4
ssg70
g1961
sg63
(lp1968
g56
(g65
g58
NtRp1969
(dp1970
g61
(dp1971
g69
I3
ssg70
Nsg63
(lp1972
g56
(g72
g58
NtRp1973
(dp1974
g61
(dp1975
sg70
g1969
sg63
(lp1976
g56
(g77
g58
NtRp1977
(dp1978
g61
(dp1979
sg70
g1973
sg63
(lp1980
g56
(g57
g58
NtRp1981
(dp1982
g61
(dp1983
g69
I3
ssg70
g1977
sg63
(lp1984
S'1'
asbasbasbag56
(g72
g58
NtRp1985
(dp1986
g61
(dp1987
sg70
g1969
sg63
(lp1988
g56
(g77
g58
NtRp1989
(dp1990
g61
(dp1991
sg70
g1985
sg63
(lp1992
g56
(g57
g58
NtRp1993
(dp1994
g61
(dp1995
g69
I3
ssg70
g1989
sg63
(lp1996
S'0'
asbasbasbasbasbasbasbasbasbasbasbag56
(g72
g58
NtRp1997
(dp1998
g61
(dp1999
sg70
g66
sg63
(lp2000
g56
(g77
g58
NtRp2001
(dp2002
g61
(dp2003
g81
g82
ssg70
g1997
sg63
(lp2004
S'extension'
p2005
asbag56
(g77
g58
NtRp2006
(dp2007
g61
(dp2008
g88
g89
ssg70
g1997
sg63
(lp2009
S':'
asbag56
(g77
g58
NtRp2010
(dp2011
g61
(dp2012
sg70
g1997
sg63
(lp2013
g56
(g57
g58
NtRp2014
(dp2015
g61
(dp2016
g69
I5
ssg70
g2010
sg63
(lp2017
S'html'
p2018
asbasbasbag56
(g72
g58
NtRp2019
(dp2020
g61
(dp2021
sg70
g66
sg63
(lp2022
g56
(g77
g58
NtRp2023
(dp2024
g61
(dp2025
g81
g82
ssg70
g2019
sg63
(lp2026
S'folder'
p2027
asbag56
(g77
g58
NtRp2028
(dp2029
g61
(dp2030
g88
g89
ssg70
g2019
sg63
(lp2031
S':'
asbag56
(g77
g58
NtRp2032
(dp2033
g61
(dp2034
sg70
g2019
sg63
(lp2035
g56
(g57
g58
NtRp2036
(dp2037
g61
(dp2038
g69
I5
ssg70
g2032
sg63
(lp2039
S'/Users/hellais/Documents/code/mygit/globaleaks/webapp/applications/globaleaks/'
p2040
asbasbasbag56
(g72
g58
NtRp2041
(dp2042
g61
(dp2043
sg70
g66
sg63
(lp2044
g56
(g77
g58
NtRp2045
(dp2046
g61
(dp2047
g81
g82
ssg70
g2041
sg63
(lp2048
S'function'
p2049
asbag56
(g77
g58
NtRp2050
(dp2051
g61
(dp2052
g88
g89
ssg70
g2041
sg63
(lp2053
S':'
asbag56
(g77
g58
NtRp2054
(dp2055
g61
(dp2056
sg70
g2041
sg63
(lp2057
g56
(g57
g58
NtRp2058
(dp2059
g61
(dp2060
g69
I5
ssg70
g2054
sg63
(lp2061
S'index'
p2062
asbasbasbag56
(g72
g58
NtRp2063
(dp2064
g61
(dp2065
sg70
g66
sg63
(lp2066
g56
(g77
g58
NtRp2067
(dp2068
g61
(dp2069
g81
g82
ssg70
g2063
sg63
(lp2070
S'get_vars'
p2071
asbag56
(g77
g58
NtRp2072
(dp2073
g61
(dp2074
g88
g89
ssg70
g2063
sg63
(lp2075
S':'
asbag56
(g77
g58
NtRp2076
(dp2077
g61
(dp2078
sg70
g2063
sg63
(lp2079
g56
(g57
g58
NtRp2080
(dp2081
g61
(dp2082
g69
I5
ssg70
g2076
sg63
(lp2083
g56
(g65
g58
NtRp2084
(dp2085
g61
(dp2086
g69
I4
ssg70
Nsg63
(lp2087
sbasbasbasbag56
(g72
g58
NtRp2088
(dp2089
g61
(dp2090
sg70
g66
sg63
(lp2091
g56
(g77
g58
NtRp2092
(dp2093
g61
(dp2094
g81
g82
ssg70
g2088
sg63
(lp2095
S'is_https'
p2096
asbag56
(g77
g58
NtRp2097
(dp2098
g61
(dp2099
g88
g89
ssg70
g2088
sg63
(lp2100
S':'
asbag56
(g77
g58
NtRp2101
(dp2102
g61
(dp2103
sg70
g2088
sg63
(lp2104
g56
(g57
g58
NtRp2105
(dp2106
g61
(dp2107
g69
I5
ssg70
g2101
sg63
(lp2108
g99
asbasbasbag56
(g72
g58
NtRp2109
(dp2110
g61
(dp2111
sg70
g66
sg63
(lp2112
g56
(g77
g58
NtRp2113
(dp2114
g61
(dp2115
g81
g82
ssg70
g2109
sg63
(lp2116
S'is_local'
p2117
asbag56
(g77
g58
NtRp2118
(dp2119
g61
(dp2120
g88
g89
ssg70
g2109
sg63
(lp2121
S':'
asbag56
(g77
g58
NtRp2122
(dp2123
g61
(dp2124
sg70
g2109
sg63
(lp2125
g56
(g57
g58
NtRp2126
(dp2127
g61
(dp2128
g69
I5
ssg70
g2122
sg63
(lp2129
g1904
asbasbasbag56
(g72
g58
NtRp2130
(dp2131
g61
(dp2132
sg70
g66
sg63
(lp2133
g56
(g77
g58
NtRp2134
(dp2135
g61
(dp2136
g81
g82
ssg70
g2130
sg63
(lp2137
S'is_restful'
p2138
asbag56
(g77
g58
NtRp2139
(dp2140
g61
(dp2141
g88
g89
ssg70
g2130
sg63
(lp2142
S':'
asbag56
(g77
g58
NtRp2143
(dp2144
g61
(dp2145
sg70
g2130
sg63
(lp2146
g56
(g57
g58
NtRp2147
(dp2148
g61
(dp2149
g69
I5
ssg70
g2143
sg63
(lp2150
g99
asbasbasbag56
(g72
g58
NtRp2151
(dp2152
g61
(dp2153
sg70
g66
sg63
(lp2154
g56
(g77
g58
NtRp2155
(dp2156
g61
(dp2157
g81
g82
ssg70
g2151
sg63
(lp2158
S'now'
p2159
asbag56
(g77
g58
NtRp2160
(dp2161
g61
(dp2162
g88
g89
ssg70
g2151
sg63
(lp2163
S':'
asbag56
(g77
g58
NtRp2164
(dp2165
g61
(dp2166
sg70
g2151
sg63
(lp2167
g56
(g57
g58
NtRp2168
(dp2169
g61
(dp2170
g69
I5
ssg70
g2164
sg63
(lp2171
S'datetime.datetime(2011, 8, 28, 15, 50, 4, 300431)'
p2172
asbasbasbag56
(g72
g58
NtRp2173
(dp2174
g61
(dp2175
sg70
g66
sg63
(lp2176
g56
(g77
g58
NtRp2177
(dp2178
g61
(dp2179
g81
g82
ssg70
g2173
sg63
(lp2180
S'post_vars'
p2181
asbag56
(g77
g58
NtRp2182
(dp2183
g61
(dp2184
g88
g89
ssg70
g2173
sg63
(lp2185
S':'
asbag56
(g77
g58
NtRp2186
(dp2187
g61
(dp2188
sg70
g2173
sg63
(lp2189
g56
(g57
g58
NtRp2190
(dp2191
g61
(dp2192
g69
I5
ssg70
g2186
sg63
(lp2193
g56
(g65
g58
NtRp2194
(dp2195
g61
(dp2196
g69
I4
ssg70
Nsg63
(lp2197
g56
(g72
g58
NtRp2198
(dp2199
g61
(dp2200
sg70
g2194
sg63
(lp2201
g56
(g77
g58
NtRp2202
(dp2203
g61
(dp2204
g81
g82
ssg70
g2198
sg63
(lp2205
S'Description'
p2206
asbag56
(g77
g58
NtRp2207
(dp2208
g61
(dp2209
g88
g89
ssg70
g2198
sg63
(lp2210
S':'
asbag56
(g77
g58
NtRp2211
(dp2212
g61
(dp2213
sg70
g2198
sg63
(lp2214
g56
(g57
g58
NtRp2215
(dp2216
g61
(dp2217
g69
I4
ssg70
g2211
sg63
(lp2218
S'dsa'
p2219
asbasbasbag56
(g72
g58
NtRp2220
(dp2221
g61
(dp2222
sg70
g2194
sg63
(lp2223
g56
(g77
g58
NtRp2224
(dp2225
g61
(dp2226
g81
g82
ssg70
g2220
sg63
(lp2227
S'Tags'
p2228
asbag56
(g77
g58
NtRp2229
(dp2230
g61
(dp2231
g88
g89
ssg70
g2220
sg63
(lp2232
S':'
asbag56
(g77
g58
NtRp2233
(dp2234
g61
(dp2235
sg70
g2220
sg63
(lp2236
g56
(g57
g58
NtRp2237
(dp2238
g61
(dp2239
g69
I4
ssg70
g2233
sg63
(lp2240
S'asd'
p2241
asbasbasbag56
(g72
g58
NtRp2242
(dp2243
g61
(dp2244
sg70
g2194
sg63
(lp2245
g56
(g77
g58
NtRp2246
(dp2247
g61
(dp2248
g81
g82
ssg70
g2242
sg63
(lp2249
S'Title'
p2250
asbag56
(g77
g58
NtRp2251
(dp2252
g61
(dp2253
g88
g89
ssg70
g2242
sg63
(lp2254
S':'
asbag56
(g77
g58
NtRp2255
(dp2256
g61
(dp2257
sg70
g2242
sg63
(lp2258
g56
(g57
g58
NtRp2259
(dp2260
g61
(dp2261
g69
I4
ssg70
g2255
sg63
(lp2262
S'ads'
p2263
asbasbasbag56
(g72
g58
NtRp2264
(dp2265
g61
(dp2266
sg70
g2194
sg63
(lp2267
g56
(g77
g58
NtRp2268
(dp2269
g61
(dp2270
g81
g82
ssg70
g2264
sg63
(lp2271
S'dislaimer'
p2272
asbag56
(g77
g58
NtRp2273
(dp2274
g61
(dp2275
g88
g89
ssg70
g2264
sg63
(lp2276
S':'
asbag56
(g77
g58
NtRp2277
(dp2278
g61
(dp2279
sg70
g2264
sg63
(lp2280
g56
(g57
g58
NtRp2281
(dp2282
g61
(dp2283
g69
I4
ssg70
g2277
sg63
(lp2284
S'on'
p2285
asbasbasbag56
(g72
g58
NtRp2286
(dp2287
g61
(dp2288
sg70
g2194
sg63
(lp2289
g56
(g77
g58
NtRp2290
(dp2291
g61
(dp2292
g81
g82
ssg70
g2286
sg63
(lp2293
S'material'
p2294
asbag56
(g77
g58
NtRp2295
(dp2296
g61
(dp2297
g88
g89
ssg70
g2286
sg63
(lp2298
S':'
asbag56
(g77
g58
NtRp2299
(dp2300
g61
(dp2301
sg70
g2286
sg63
(lp2302
g56
(g57
g58
NtRp2303
(dp2304
g61
(dp2305
g69
I4
ssg70
g2299
sg63
(lp2306
S''
asbasbasbasbasbasbasbag56
(g72
g58
NtRp2307
(dp2308
g61
(dp2309
sg70
g66
sg63
(lp2310
g56
(g77
g58
NtRp2311
(dp2312
g61
(dp2313
g81
g82
ssg70
g2307
sg63
(lp2314
S'url'
p2315
asbag56
(g77
g58
NtRp2316
(dp2317
g61
(dp2318
g88
g89
ssg70
g2307
sg63
(lp2319
S':'
asbag56
(g77
g58
NtRp2320
(dp2321
g61
(dp2322
sg70
g2307
sg63
(lp2323
g56
(g57
g58
NtRp2324
(dp2325
g61
(dp2326
g69
I5
ssg70
g2320
sg63
(lp2327
S'/globaleaks/submission/index'
p2328
asbasbasbag56
(g72
g58
NtRp2329
(dp2330
g61
(dp2331
sg70
g66
sg63
(lp2332
g56
(g77
g58
NtRp2333
(dp2334
g61
(dp2335
g81
g82
ssg70
g2329
sg63
(lp2336
S'uuid'
p2337
asbag56
(g77
g58
NtRp2338
(dp2339
g61
(dp2340
g88
g89
ssg70
g2329
sg63
(lp2341
S':'
asbag56
(g77
g58
NtRp2342
(dp2343
g61
(dp2344
sg70
g2329
sg63
(lp2345
g56
(g57
g58
NtRp2346
(dp2347
g61
(dp2348
g69
I5
ssg70
g2342
sg63
(lp2349
S'globaleaks/127.0.0.1.2011-08-28.15-50-04.d6050dda-e2b4-48ea-8940-af46f1a5a1de'
p2350
asbasbasbag56
(g72
g58
NtRp2351
(dp2352
g61
(dp2353
sg70
g66
sg63
(lp2354
g56
(g77
g58
NtRp2355
(dp2356
g61
(dp2357
g81
g82
ssg70
g2351
sg63
(lp2358
S'vars'
p2359
asbag56
(g77
g58
NtRp2360
(dp2361
g61
(dp2362
g88
g89
ssg70
g2351
sg63
(lp2363
S':'
asbag56
(g77
g58
NtRp2364
(dp2365
g61
(dp2366
sg70
g2351
sg63
(lp2367
g56
(g57
g58
NtRp2368
(dp2369
g61
(dp2370
g69
I5
ssg70
g2364
sg63
(lp2371
g56
(g65
g58
NtRp2372
(dp2373
g61
(dp2374
g69
I4
ssg70
Nsg63
(lp2375
g56
(g72
g58
NtRp2376
(dp2377
g61
(dp2378
sg70
g2372
sg63
(lp2379
g56
(g77
g58
NtRp2380
(dp2381
g61
(dp2382
g81
g82
ssg70
g2376
sg63
(lp2383
g2206
asbag56
(g77
g58
NtRp2384
(dp2385
g61
(dp2386
g88
g89
ssg70
g2376
sg63
(lp2387
S':'
asbag56
(g77
g58
NtRp2388
(dp2389
g61
(dp2390
sg70
g2376
sg63
(lp2391
g56
(g57
g58
NtRp2392
(dp2393
g61
(dp2394
g69
I4
ssg70
g2388
sg63
(lp2395
g2219
asbasbasbag56
(g72
g58
NtRp2396
(dp2397
g61
(dp2398
sg70
g2372
sg63
(lp2399
g56
(g77
g58
NtRp2400
(dp2401
g61
(dp2402
g81
g82
ssg70
g2396
sg63
(lp2403
g2228
asbag56
(g77
g58
NtRp2404
(dp2405
g61
(dp2406
g88
g89
ssg70
g2396
sg63
(lp2407
S':'
asbag56
(g77
g58
NtRp2408
(dp2409
g61
(dp2410
sg70
g2396
sg63
(lp2411
g56
(g57
g58
NtRp2412
(dp2413
g61
(dp2414
g69
I4
ssg70
g2408
sg63
(lp2415
g2241
asbasbasbag56
(g72
g58
NtRp2416
(dp2417
g61
(dp2418
sg70
g2372
sg63
(lp2419
g56
(g77
g58
NtRp2420
(dp2421
g61
(dp2422
g81
g82
ssg70
g2416
sg63
(lp2423
g2250
asbag56
(g77
g58
NtRp2424
(dp2425
g61
(dp2426
g88
g89
ssg70
g2416
sg63
(lp2427
S':'
asbag56
(g77
g58
NtRp2428
(dp2429
g61
(dp2430
sg70
g2416
sg63
(lp2431
g56
(g57
g58
NtRp2432
(dp2433
g61
(dp2434
g69
I4
ssg70
g2428
sg63
(lp2435
g2263
asbasbasbag56
(g72
g58
NtRp2436
(dp2437
g61
(dp2438
sg70
g2372
sg63
(lp2439
g56
(g77
g58
NtRp2440
(dp2441
g61
(dp2442
g81
g82
ssg70
g2436
sg63
(lp2443
g2272
asbag56
(g77
g58
NtRp2444
(dp2445
g61
(dp2446
g88
g89
ssg70
g2436
sg63
(lp2447
S':'
asbag56
(g77
g58
NtRp2448
(dp2449
g61
(dp2450
sg70
g2436
sg63
(lp2451
g56
(g57
g58
NtRp2452
(dp2453
g61
(dp2454
g69
I4
ssg70
g2448
sg63
(lp2455
g2285
asbasbasbag56
(g72
g58
NtRp2456
(dp2457
g61
(dp2458
sg70
g2372
sg63
(lp2459
g56
(g77
g58
NtRp2460
(dp2461
g61
(dp2462
g81
g82
ssg70
g2456
sg63
(lp2463
g2294
asbag56
(g77
g58
NtRp2464
(dp2465
g61
(dp2466
g88
g89
ssg70
g2456
sg63
(lp2467
S':'
asbag56
(g77
g58
NtRp2468
(dp2469
g61
(dp2470
sg70
g2456
sg63
(lp2471
g56
(g57
g58
NtRp2472
(dp2473
g61
(dp2474
g69
I4
ssg70
g2468
sg63
(lp2475
S''
asbasbasbasbasbasbasbag56
(g72
g58
NtRp2476
(dp2477
g61
(dp2478
sg70
g66
sg63
(lp2479
g56
(g77
g58
NtRp2480
(dp2481
g61
(dp2482
g81
g82
ssg70
g2476
sg63
(lp2483
S'wsgi'
p2484
asbag56
(g77
g58
NtRp2485
(dp2486
g61
(dp2487
g88
g89
ssg70
g2476
sg63
(lp2488
S':'
asbag56
(g77
g58
NtRp2489
(dp2490
g61
(dp2491
sg70
g2476
sg63
(lp2492
g56
(g57
g58
NtRp2493
(dp2494
g61
(dp2495
g69
I5
ssg70
g2489
sg63
(lp2496
g56
(g65
g58
NtRp2497
(dp2498
g61
(dp2499
g69
I4
ssg70
Nsg63
(lp2500
g56
(g72
g58
NtRp2501
(dp2502
g61
(dp2503
sg70
g2497
sg63
(lp2504
g56
(g77
g58
NtRp2505
(dp2506
g61
(dp2507
g81
g82
ssg70
g2501
sg63
(lp2508
S'environ'
p2509
asbag56
(g77
g58
NtRp2510
(dp2511
g61
(dp2512
g88
g89
ssg70
g2501
sg63
(lp2513
S':'
asbag56
(g77
g58
NtRp2514
(dp2515
g61
(dp2516
sg70
g2501
sg63
(lp2517
g56
(g57
g58
NtRp2518
(dp2519
g61
(dp2520
g69
I4
ssg70
g2514
sg63
(lp2521
g56
(g65
g58
NtRp2522
(dp2523
g61
(dp2524
g69
I3
ssg70
Nsg63
(lp2525
g56
(g72
g58
NtRp2526
(dp2527
g61
(dp2528
sg70
g2522
sg63
(lp2529
g56
(g77
g58
NtRp2530
(dp2531
g61
(dp2532
g81
g82
ssg70
g2526
sg63
(lp2533
S'CONTENT_LENGTH'
p2534
asbag56
(g77
g58
NtRp2535
(dp2536
g61
(dp2537
g88
g89
ssg70
g2526
sg63
(lp2538
S':'
asbag56
(g77
g58
NtRp2539
(dp2540
g61
(dp2541
sg70
g2526
sg63
(lp2542
g56
(g57
g58
NtRp2543
(dp2544
g61
(dp2545
g69
I3
ssg70
g2539
sg63
(lp2546
g1122
asbasbasbag56
(g72
g58
NtRp2547
(dp2548
g61
(dp2549
sg70
g2522
sg63
(lp2550
g56
(g77
g58
NtRp2551
(dp2552
g61
(dp2553
g81
g82
ssg70
g2547
sg63
(lp2554
S'CONTENT_TYPE'
p2555
asbag56
(g77
g58
NtRp2556
(dp2557
g61
(dp2558
g88
g89
ssg70
g2547
sg63
(lp2559
S':'
asbag56
(g77
g58
NtRp2560
(dp2561
g61
(dp2562
sg70
g2547
sg63
(lp2563
g56
(g57
g58
NtRp2564
(dp2565
g61
(dp2566
g69
I3
ssg70
g2560
sg63
(lp2567
g1144
asbasbasbag56
(g72
g58
NtRp2568
(dp2569
g61
(dp2570
sg70
g2522
sg63
(lp2571
g56
(g77
g58
NtRp2572
(dp2573
g61
(dp2574
g81
g82
ssg70
g2568
sg63
(lp2575
S'HTTP_ACCEPT'
p2576
asbag56
(g77
g58
NtRp2577
(dp2578
g61
(dp2579
g88
g89
ssg70
g2568
sg63
(lp2580
S':'
asbag56
(g77
g58
NtRp2581
(dp2582
g61
(dp2583
sg70
g2568
sg63
(lp2584
g56
(g57
g58
NtRp2585
(dp2586
g61
(dp2587
g69
I3
ssg70
g2581
sg63
(lp2588
g1231
asbasbasbag56
(g72
g58
NtRp2589
(dp2590
g61
(dp2591
sg70
g2522
sg63
(lp2592
g56
(g77
g58
NtRp2593
(dp2594
g61
(dp2595
g81
g82
ssg70
g2589
sg63
(lp2596
S'HTTP_ACCEPT_CHARSET'
p2597
asbag56
(g77
g58
NtRp2598
(dp2599
g61
(dp2600
g88
g89
ssg70
g2589
sg63
(lp2601
S':'
asbag56
(g77
g58
NtRp2602
(dp2603
g61
(dp2604
sg70
g2589
sg63
(lp2605
g56
(g57
g58
NtRp2606
(dp2607
g61
(dp2608
g69
I3
ssg70
g2602
sg63
(lp2609
g1253
asbasbasbag56
(g72
g58
NtRp2610
(dp2611
g61
(dp2612
sg70
g2522
sg63
(lp2613
g56
(g77
g58
NtRp2614
(dp2615
g61
(dp2616
g81
g82
ssg70
g2610
sg63
(lp2617
S'HTTP_ACCEPT_ENCODING'
p2618
asbag56
(g77
g58
NtRp2619
(dp2620
g61
(dp2621
g88
g89
ssg70
g2610
sg63
(lp2622
S':'
asbag56
(g77
g58
NtRp2623
(dp2624
g61
(dp2625
sg70
g2610
sg63
(lp2626
g56
(g57
g58
NtRp2627
(dp2628
g61
(dp2629
g69
I3
ssg70
g2623
sg63
(lp2630
g1275
asbasbasbag56
(g72
g58
NtRp2631
(dp2632
g61
(dp2633
sg70
g2522
sg63
(lp2634
g56
(g77
g58
NtRp2635
(dp2636
g61
(dp2637
g81
g82
ssg70
g2631
sg63
(lp2638
S'HTTP_ACCEPT_LANGUAGE'
p2639
asbag56
(g77
g58
NtRp2640
(dp2641
g61
(dp2642
g88
g89
ssg70
g2631
sg63
(lp2643
S':'
asbag56
(g77
g58
NtRp2644
(dp2645
g61
(dp2646
sg70
g2631
sg63
(lp2647
g56
(g57
g58
NtRp2648
(dp2649
g61
(dp2650
g69
I3
ssg70
g2644
sg63
(lp2651
g1297
asbasbasbag56
(g72
g58
NtRp2652
(dp2653
g61
(dp2654
sg70
g2522
sg63
(lp2655
g56
(g77
g58
NtRp2656
(dp2657
g61
(dp2658
g81
g82
ssg70
g2652
sg63
(lp2659
S'HTTP_CONNECTION'
p2660
asbag56
(g77
g58
NtRp2661
(dp2662
g61
(dp2663
g88
g89
ssg70
g2652
sg63
(lp2664
S':'
asbag56
(g77
g58
NtRp2665
(dp2666
g61
(dp2667
sg70
g2652
sg63
(lp2668
g56
(g57
g58
NtRp2669
(dp2670
g61
(dp2671
g69
I3
ssg70
g2665
sg63
(lp2672
g1319
asbasbasbag56
(g72
g58
NtRp2673
(dp2674
g61
(dp2675
sg70
g2522
sg63
(lp2676
g56
(g77
g58
NtRp2677
(dp2678
g61
(dp2679
g81
g82
ssg70
g2673
sg63
(lp2680
S'HTTP_CONTENT_LENGTH'
p2681
asbag56
(g77
g58
NtRp2682
(dp2683
g61
(dp2684
g88
g89
ssg70
g2673
sg63
(lp2685
S':'
asbag56
(g77
g58
NtRp2686
(dp2687
g61
(dp2688
sg70
g2673
sg63
(lp2689
g56
(g57
g58
NtRp2690
(dp2691
g61
(dp2692
g69
I3
ssg70
g2686
sg63
(lp2693
g1122
asbasbasbag56
(g72
g58
NtRp2694
(dp2695
g61
(dp2696
sg70
g2522
sg63
(lp2697
g56
(g77
g58
NtRp2698
(dp2699
g61
(dp2700
g81
g82
ssg70
g2694
sg63
(lp2701
S'HTTP_CONTENT_TYPE'
p2702
asbag56
(g77
g58
NtRp2703
(dp2704
g61
(dp2705
g88
g89
ssg70
g2694
sg63
(lp2706
S':'
asbag56
(g77
g58
NtRp2707
(dp2708
g61
(dp2709
sg70
g2694
sg63
(lp2710
g56
(g57
g58
NtRp2711
(dp2712
g61
(dp2713
g69
I3
ssg70
g2707
sg63
(lp2714
g1144
asbasbasbag56
(g72
g58
NtRp2715
(dp2716
g61
(dp2717
sg70
g2522
sg63
(lp2718
g56
(g77
g58
NtRp2719
(dp2720
g61
(dp2721
g81
g82
ssg70
g2715
sg63
(lp2722
S'HTTP_COOKIE'
p2723
asbag56
(g77
g58
NtRp2724
(dp2725
g61
(dp2726
g88
g89
ssg70
g2715
sg63
(lp2727
S':'
asbag56
(g77
g58
NtRp2728
(dp2729
g61
(dp2730
sg70
g2715
sg63
(lp2731
g56
(g57
g58
NtRp2732
(dp2733
g61
(dp2734
g69
I3
ssg70
g2728
sg63
(lp2735
g1383
asbasbasbag56
(g72
g58
NtRp2736
(dp2737
g61
(dp2738
sg70
g2522
sg63
(lp2739
g56
(g77
g58
NtRp2740
(dp2741
g61
(dp2742
g81
g82
ssg70
g2736
sg63
(lp2743
S'HTTP_HOST'
p2744
asbag56
(g77
g58
NtRp2745
(dp2746
g61
(dp2747
g88
g89
ssg70
g2736
sg63
(lp2748
S':'
asbag56
(g77
g58
NtRp2749
(dp2750
g61
(dp2751
sg70
g2736
sg63
(lp2752
g56
(g57
g58
NtRp2753
(dp2754
g61
(dp2755
g69
I3
ssg70
g2749
sg63
(lp2756
g1405
asbasbasbag56
(g72
g58
NtRp2757
(dp2758
g61
(dp2759
sg70
g2522
sg63
(lp2760
g56
(g77
g58
NtRp2761
(dp2762
g61
(dp2763
g81
g82
ssg70
g2757
sg63
(lp2764
S'HTTP_REFERER'
p2765
asbag56
(g77
g58
NtRp2766
(dp2767
g61
(dp2768
g88
g89
ssg70
g2757
sg63
(lp2769
S':'
asbag56
(g77
g58
NtRp2770
(dp2771
g61
(dp2772
sg70
g2757
sg63
(lp2773
g56
(g57
g58
NtRp2774
(dp2775
g61
(dp2776
g69
I3
ssg70
g2770
sg63
(lp2777
g1427
asbasbasbag56
(g72
g58
NtRp2778
(dp2779
g61
(dp2780
sg70
g2522
sg63
(lp2781
g56
(g77
g58
NtRp2782
(dp2783
g61
(dp2784
g81
g82
ssg70
g2778
sg63
(lp2785
S'HTTP_USER_AGENT'
p2786
asbag56
(g77
g58
NtRp2787
(dp2788
g61
(dp2789
g88
g89
ssg70
g2778
sg63
(lp2790
S':'
asbag56
(g77
g58
NtRp2791
(dp2792
g61
(dp2793
sg70
g2778
sg63
(lp2794
g56
(g57
g58
NtRp2795
(dp2796
g61
(dp2797
g69
I3
ssg70
g2791
sg63
(lp2798
g1449
asbasbasbag56
(g72
g58
NtRp2799
(dp2800
g61
(dp2801
sg70
g2522
sg63
(lp2802
g56
(g77
g58
NtRp2803
(dp2804
g61
(dp2805
g81
g82
ssg70
g2799
sg63
(lp2806
S'PATH_INFO'
p2807
asbag56
(g77
g58
NtRp2808
(dp2809
g61
(dp2810
g88
g89
ssg70
g2799
sg63
(lp2811
S':'
asbag56
(g77
g58
NtRp2812
(dp2813
g61
(dp2814
sg70
g2799
sg63
(lp2815
g56
(g57
g58
NtRp2816
(dp2817
g61
(dp2818
g69
I3
ssg70
g2812
sg63
(lp2819
g1492
asbasbasbag56
(g72
g58
NtRp2820
(dp2821
g61
(dp2822
sg70
g2522
sg63
(lp2823
g56
(g77
g58
NtRp2824
(dp2825
g61
(dp2826
g81
g82
ssg70
g2820
sg63
(lp2827
S'QUERY_STRING'
p2828
asbag56
(g77
g58
NtRp2829
(dp2830
g61
(dp2831
g88
g89
ssg70
g2820
sg63
(lp2832
S':'
asbag56
(g77
g58
NtRp2833
(dp2834
g61
(dp2835
sg70
g2820
sg63
(lp2836
g56
(g57
g58
NtRp2837
(dp2838
g61
(dp2839
g69
I3
ssg70
g2833
sg63
(lp2840
S''
asbasbasbag56
(g72
g58
NtRp2841
(dp2842
g61
(dp2843
sg70
g2522
sg63
(lp2844
g56
(g77
g58
NtRp2845
(dp2846
g61
(dp2847
g81
g82
ssg70
g2841
sg63
(lp2848
S'REMOTE_ADDR'
p2849
asbag56
(g77
g58
NtRp2850
(dp2851
g61
(dp2852
g88
g89
ssg70
g2841
sg63
(lp2853
S':'
asbag56
(g77
g58
NtRp2854
(dp2855
g61
(dp2856
sg70
g2841
sg63
(lp2857
g56
(g57
g58
NtRp2858
(dp2859
g61
(dp2860
g69
I3
ssg70
g2854
sg63
(lp2861
g189
asbasbasbag56
(g72
g58
NtRp2862
(dp2863
g61
(dp2864
sg70
g2522
sg63
(lp2865
g56
(g77
g58
NtRp2866
(dp2867
g61
(dp2868
g81
g82
ssg70
g2862
sg63
(lp2869
S'REMOTE_PORT'
p2870
asbag56
(g77
g58
NtRp2871
(dp2872
g61
(dp2873
g88
g89
ssg70
g2862
sg63
(lp2874
S':'
asbag56
(g77
g58
NtRp2875
(dp2876
g61
(dp2877
sg70
g2862
sg63
(lp2878
g56
(g57
g58
NtRp2879
(dp2880
g61
(dp2881
g69
I3
ssg70
g2875
sg63
(lp2882
g1556
asbasbasbag56
(g72
g58
NtRp2883
(dp2884
g61
(dp2885
sg70
g2522
sg63
(lp2886
g56
(g77
g58
NtRp2887
(dp2888
g61
(dp2889
g81
g82
ssg70
g2883
sg63
(lp2890
S'REQUEST_METHOD'
p2891
asbag56
(g77
g58
NtRp2892
(dp2893
g61
(dp2894
g88
g89
ssg70
g2883
sg63
(lp2895
S':'
asbag56
(g77
g58
NtRp2896
(dp2897
g61
(dp2898
sg70
g2883
sg63
(lp2899
g56
(g57
g58
NtRp2900
(dp2901
g61
(dp2902
g69
I3
ssg70
g2896
sg63
(lp2903
g1578
asbasbasbag56
(g72
g58
NtRp2904
(dp2905
g61
(dp2906
sg70
g2522
sg63
(lp2907
g56
(g77
g58
NtRp2908
(dp2909
g61
(dp2910
g81
g82
ssg70
g2904
sg63
(lp2911
S'REQUEST_URI'
p2912
asbag56
(g77
g58
NtRp2913
(dp2914
g61
(dp2915
g88
g89
ssg70
g2904
sg63
(lp2916
S':'
asbag56
(g77
g58
NtRp2917
(dp2918
g61
(dp2919
sg70
g2904
sg63
(lp2920
g56
(g57
g58
NtRp2921
(dp2922
g61
(dp2923
g69
I3
ssg70
g2917
sg63
(lp2924
g1492
asbasbasbag56
(g72
g58
NtRp2925
(dp2926
g61
(dp2927
sg70
g2522
sg63
(lp2928
g56
(g77
g58
NtRp2929
(dp2930
g61
(dp2931
g81
g82
ssg70
g2925
sg63
(lp2932
S'SCRIPT_NAME'
p2933
asbag56
(g77
g58
NtRp2934
(dp2935
g61
(dp2936
g88
g89
ssg70
g2925
sg63
(lp2937
S':'
asbag56
(g77
g58
NtRp2938
(dp2939
g61
(dp2940
sg70
g2925
sg63
(lp2941
g56
(g57
g58
NtRp2942
(dp2943
g61
(dp2944
g69
I3
ssg70
g2938
sg63
(lp2945
S''
asbasbasbag56
(g72
g58
NtRp2946
(dp2947
g61
(dp2948
sg70
g2522
sg63
(lp2949
g56
(g77
g58
NtRp2950
(dp2951
g61
(dp2952
g81
g82
ssg70
g2946
sg63
(lp2953
S'SERVER_NAME'
p2954
asbag56
(g77
g58
NtRp2955
(dp2956
g61
(dp2957
g88
g89
ssg70
g2946
sg63
(lp2958
S':'
asbag56
(g77
g58
NtRp2959
(dp2960
g61
(dp2961
sg70
g2946
sg63
(lp2962
g56
(g57
g58
NtRp2963
(dp2964
g61
(dp2965
g69
I3
ssg70
g2959
sg63
(lp2966
g1642
asbasbasbag56
(g72
g58
NtRp2967
(dp2968
g61
(dp2969
sg70
g2522
sg63
(lp2970
g56
(g77
g58
NtRp2971
(dp2972
g61
(dp2973
g81
g82
ssg70
g2967
sg63
(lp2974
S'SERVER_PORT'
p2975
asbag56
(g77
g58
NtRp2976
(dp2977
g61
(dp2978
g88
g89
ssg70
g2967
sg63
(lp2979
S':'
asbag56
(g77
g58
NtRp2980
(dp2981
g61
(dp2982
sg70
g2967
sg63
(lp2983
g56
(g57
g58
NtRp2984
(dp2985
g61
(dp2986
g69
I3
ssg70
g2980
sg63
(lp2987
g1664
asbasbasbag56
(g72
g58
NtRp2988
(dp2989
g61
(dp2990
sg70
g2522
sg63
(lp2991
g56
(g77
g58
NtRp2992
(dp2993
g61
(dp2994
g81
g82
ssg70
g2988
sg63
(lp2995
S'SERVER_PROTOCOL'
p2996
asbag56
(g77
g58
NtRp2997
(dp2998
g61
(dp2999
g88
g89
ssg70
g2988
sg63
(lp3000
S':'
asbag56
(g77
g58
NtRp3001
(dp3002
g61
(dp3003
sg70
g2988
sg63
(lp3004
g56
(g57
g58
NtRp3005
(dp3006
g61
(dp3007
g69
I3
ssg70
g3001
sg63
(lp3008
g1686
asbasbasbag56
(g72
g58
NtRp3009
(dp3010
g61
(dp3011
sg70
g2522
sg63
(lp3012
g56
(g77
g58
NtRp3013
(dp3014
g61
(dp3015
g81
g82
ssg70
g3009
sg63
(lp3016
S'SERVER_SOFTWARE'
p3017
asbag56
(g77
g58
NtRp3018
(dp3019
g61
(dp3020
g88
g89
ssg70
g3009
sg63
(lp3021
S':'
asbag56
(g77
g58
NtRp3022
(dp3023
g61
(dp3024
sg70
g3009
sg63
(lp3025
g56
(g57
g58
NtRp3026
(dp3027
g61
(dp3028
g69
I3
ssg70
g3022
sg63
(lp3029
g1708
asbasbasbag56
(g72
g58
NtRp3030
(dp3031
g61
(dp3032
sg70
g2522
sg63
(lp3033
g56
(g77
g58
NtRp3034
(dp3035
g61
(dp3036
g81
g82
ssg70
g3030
sg63
(lp3037
S'WEB2PY_ORIGINAL_URI'
p3038
asbag56
(g77
g58
NtRp3039
(dp3040
g61
(dp3041
g88
g89
ssg70
g3030
sg63
(lp3042
S':'
asbag56
(g77
g58
NtRp3043
(dp3044
g61
(dp3045
sg70
g3030
sg63
(lp3046
g56
(g57
g58
NtRp3047
(dp3048
g61
(dp3049
g69
I3
ssg70
g3043
sg63
(lp3050
g1752
asbasbasbag56
(g72
g58
NtRp3051
(dp3052
g61
(dp3053
sg70
g2522
sg63
(lp3054
g56
(g77
g58
NtRp3055
(dp3056
g61
(dp3057
g81
g82
ssg70
g3051
sg63
(lp3058
S'wsgi.errors'
p3059
asbag56
(g77
g58
NtRp3060
(dp3061
g61
(dp3062
g88
g89
ssg70
g3051
sg63
(lp3063
S':'
asbag56
(g77
g58
NtRp3064
(dp3065
g61
(dp3066
sg70
g3051
sg63
(lp3067
g56
(g57
g58
NtRp3068
(dp3069
g61
(dp3070
g69
I3
ssg70
g3064
sg63
(lp3071
S"<open file '<stderr>', mode 'w' at 0x100287270>"
p3072
asbasbasbag56
(g72
g58
NtRp3073
(dp3074
g61
(dp3075
sg70
g2522
sg63
(lp3076
g56
(g77
g58
NtRp3077
(dp3078
g61
(dp3079
g81
g82
ssg70
g3073
sg63
(lp3080
S'wsgi.file_wrapper'
p3081
asbag56
(g77
g58
NtRp3082
(dp3083
g61
(dp3084
g88
g89
ssg70
g3073
sg63
(lp3085
S':'
asbag56
(g77
g58
NtRp3086
(dp3087
g61
(dp3088
sg70
g3073
sg63
(lp3089
g56
(g57
g58
NtRp3090
(dp3091
g61
(dp3092
g69
I3
ssg70
g3086
sg63
(lp3093
S'<class gluon.rocket.FileWrapper at 0x1019dae88>'
p3094
asbasbasbag56
(g72
g58
NtRp3095
(dp3096
g61
(dp3097
sg70
g2522
sg63
(lp3098
g56
(g77
g58
NtRp3099
(dp3100
g61
(dp3101
g81
g82
ssg70
g3095
sg63
(lp3102
S'wsgi.input'
p3103
asbag56
(g77
g58
NtRp3104
(dp3105
g61
(dp3106
g88
g89
ssg70
g3095
sg63
(lp3107
S':'
asbag56
(g77
g58
NtRp3108
(dp3109
g61
(dp3110
sg70
g3095
sg63
(lp3111
g56
(g57
g58
NtRp3112
(dp3113
g61
(dp3114
g69
I3
ssg70
g3108
sg63
(lp3115
S"<open file '<fdopen>', mode 'w+b' at 0x1018bfc90>"
p3116
asbasbasbag56
(g72
g58
NtRp3117
(dp3118
g61
(dp3119
sg70
g2522
sg63
(lp3120
g56
(g77
g58
NtRp3121
(dp3122
g61
(dp3123
g81
g82
ssg70
g3117
sg63
(lp3124
S'wsgi.multiprocess'
p3125
asbag56
(g77
g58
NtRp3126
(dp3127
g61
(dp3128
g88
g89
ssg70
g3117
sg63
(lp3129
S':'
asbag56
(g77
g58
NtRp3130
(dp3131
g61
(dp3132
sg70
g3117
sg63
(lp3133
g56
(g57
g58
NtRp3134
(dp3135
g61
(dp3136
g69
I3
ssg70
g3130
sg63
(lp3137
g99
asbasbasbag56
(g72
g58
NtRp3138
(dp3139
g61
(dp3140
sg70
g2522
sg63
(lp3141
g56
(g77
g58
NtRp3142
(dp3143
g61
(dp3144
g81
g82
ssg70
g3138
sg63
(lp3145
S'wsgi.multithread'
p3146
asbag56
(g77
g58
NtRp3147
(dp3148
g61
(dp3149
g88
g89
ssg70
g3138
sg63
(lp3150
S':'
asbag56
(g77
g58
NtRp3151
(dp3152
g61
(dp3153
sg70
g3138
sg63
(lp3154
g56
(g57
g58
NtRp3155
(dp3156
g61
(dp3157
g69
I3
ssg70
g3151
sg63
(lp3158
g1904
asbasbasbag56
(g72
g58
NtRp3159
(dp3160
g61
(dp3161
sg70
g2522
sg63
(lp3162
g56
(g77
g58
NtRp3163
(dp3164
g61
(dp3165
g81
g82
ssg70
g3159
sg63
(lp3166
S'wsgi.run_once'
p3167
asbag56
(g77
g58
NtRp3168
(dp3169
g61
(dp3170
g88
g89
ssg70
g3159
sg63
(lp3171
S':'
asbag56
(g77
g58
NtRp3172
(dp3173
g61
(dp3174
sg70
g3159
sg63
(lp3175
g56
(g57
g58
NtRp3176
(dp3177
g61
(dp3178
g69
I3
ssg70
g3172
sg63
(lp3179
g99
asbasbasbag56
(g72
g58
NtRp3180
(dp3181
g61
(dp3182
sg70
g2522
sg63
(lp3183
g56
(g77
g58
NtRp3184
(dp3185
g61
(dp3186
g81
g82
ssg70
g3180
sg63
(lp3187
S'wsgi.url_scheme'
p3188
asbag56
(g77
g58
NtRp3189
(dp3190
g61
(dp3191
g88
g89
ssg70
g3180
sg63
(lp3192
S':'
asbag56
(g77
g58
NtRp3193
(dp3194
g61
(dp3195
sg70
g3180
sg63
(lp3196
g56
(g57
g58
NtRp3197
(dp3198
g61
(dp3199
g69
I3
ssg70
g3193
sg63
(lp3200
g1947
asbasbasbag56
(g72
g58
NtRp3201
(dp3202
g61
(dp3203
sg70
g2522
sg63
(lp3204
g56
(g77
g58
NtRp3205
(dp3206
g61
(dp3207
g81
g82
ssg70
g3201
sg63
(lp3208
S'wsgi.version'
p3209
asbag56
(g77
g58
NtRp3210
(dp3211
g61
(dp3212
g88
g89
ssg70
g3201
sg63
(lp3213
S':'
asbag56
(g77
g58
NtRp3214
(dp3215
g61
(dp3216
sg70
g3201
sg63
(lp3217
g56
(g57
g58
NtRp3218
(dp3219
g61
(dp3220
g69
I3
ssg70
g3214
sg63
(lp3221
S'1'
asbasbasbasbasbasbasbasbasbasbasbasbasbsS'frames'
p3222
(lp3223
(dp3224
S'file'
p3225
S'/opt/local/Library/Frameworks/Python.framework/Versions/2.7/lib/python2.7/gluon/restricted.py'
p3226
sS'dump'
p3227
(dp3228
S'environment'
p3229
S"{'A': <class 'gluon.html.A'>, 'Auth': <class 'gluon.tools.Auth'>, 'B': <class 'gluon.html.B'>, 'BEAUTIFY': <class 'gluon.html.BEAUTIFY'>, 'BODY': <class 'gluon.html.BODY'>, 'BR': <class 'gluon.html.BR'>, 'BUTTON': <class 'gluon.html.BUTTON'>, 'CAT': <class 'gluon.html.CAT'>, 'CENTER': <class 'gluon.html.CENTER'>, 'CLEANUP': <class 'gluon.validators.CLEANUP'>, ...}"
p3230
sS'ccode'
p3231
S'<code object <module> at 0x101d4e4b0, file "/Use.../globaleaks/views/submission/index.html", line 1>'
p3232
ssS'lnum'
p3233
I192
sS'lines'
p3234
(dp3235
I192
S'        exec ccode in environment'
p3236
sI193
S'    except HTTP:'
p3237
sI194
S'        raise'
p3238
sI195
S'    except Exception, error:'
p3239
sI196
S'        # XXX Show exception in Wing IDE if running in debugger'
p3240
sI187
S'    try:'
p3241
sI188
S'        if type(code) == types.CodeType:'
p3242
sI189
S'            ccode = code'
p3243
sI190
S'        else:'
p3244
sI191
S'            ccode = compile2(code,layer)'
p3245
ssS'call'
p3246
S'(code=\'response.write(\\\'<!DOCTYPE html>\\\\n<html lang="\\\', ...    -->    \\\\n  </body>\\\\n</html>\\\\n\\\', escape=False)\', environment={\'A\': <class \'gluon.html.A\'>, \'Auth\': <class \'gluon.tools.Auth\'>, \'B\': <class \'gluon.html.B\'>, \'BEAUTIFY\': <class \'gluon.html.BEAUTIFY\'>, \'BODY\': <class \'gluon.html.BODY\'>, \'BR\': <class \'gluon.html.BR\'>, \'BUTTON\': <class \'gluon.html.BUTTON\'>, \'CAT\': <class \'gluon.html.CAT\'>, \'CENTER\': <class \'gluon.html.CENTER\'>, \'CLEANUP\': <class \'gluon.validators.CLEANUP\'>, ...}, layer=\'/Users/hellais/Documents/code/mygit/globaleaks/w...plications/globaleaks/views/submission/index.html\')'
p3247
sS'func'
p3248
S'restricted'
p3249
sa(dp3250
g3225
S'/Users/hellais/Documents/code/mygit/globaleaks/webapp/applications/globaleaks/views/submission/index.html'
p3251
sg3227
(dp3252
sg3233
I111
sg3234
(dp3253
I102
S"    response.write('\\n    ', escape=False)"
p3254
sI103
S'    response.write(form)'
p3255
sI104
S"    response.write('\\n', escape=False)"
p3256
sI105
S'    pass'
p3257
sI106
S"response.write('\\n\\n', escape=False)"
p3258
sI107
S'if leak_id:'
p3259
sI108
S"    response.write('\\n    <ul>\\n        <li>The id of your leak is: <b>', escape=False)"
p3260
sI109
S'    response.write(leak_id)'
p3261
sI110
S'    response.write(\'</b></li>\\n        <li>This is your tulip: <a href="\', escape=False)'
p3262
sI111
S"    URL(c='tulip', f='status', r=tulip)"
p3263
sI112
S'    response.write(\'">\', escape=False)'
p3264
sI113
S'    response.write(tulip)'
p3265
sI114
S'    response.write("</a>\\n    </ul>\\n    \\n    <br/>\\n    <br/>\\n    <br/>\\n    <p>pssst... :P</p>\\n    <p>I also generated these other tulips. Keep it secret, my boss doesn\'t want me to know ;).</p>\\n    <ul>\\n    \\n    ", escape=False)'
p3266
sI115
S'    for i in tulips:'
p3267
sI116
S"        response.write('\\n        <li>', escape=False)"
p3268
sI117
S'        response.write(i[1])'
p3269
sI118
S'        response.write(\': <a href="\', escape=False)'
p3270
sI119
S"        URL(c='tulip', f='status', r=i[0])"
p3271
sI120
S'        response.write(\'">\', escape=False)'
p3272
sI121
S'        response.write(i[0])'
p3273
ssg3246
S'()'
p3274
sg3248
S'<module>'
p3275
sa(dp3276
g3225
S'/opt/local/Library/Frameworks/Python.framework/Versions/2.7/lib/python2.7/gluon/html.py'
p3277
sg3227
(dp3278
S'application'
p3279
S'None'
p3280
sS'r'
S"'25c16f4ef0d33ae54d8ed75bdb27c0e8eb02d2cc4eda3eb76e8c7cbbedec5778'"
p3281
sS'r.application'
p3282
S'undefined'
p3283
ssg3233
I212
sg3234
(dp3284
I207
S'        elif a and c and not f: (c,f,a)=(a,c,f)'
p3285
sI208
S'        from globals import current'
p3286
sI209
S"        if hasattr(current,'request'):"
p3287
sI210
S'            r = current.request'
p3288
sI211
S'    if r:'
p3289
sI212
S'        application = r.application'
p3290
sI213
S'        controller = r.controller'
p3291
sI214
S'        function = r.function'
p3292
sI215
S'        env = r.env'
p3293
sI216
S"        if extension is None and r.extension != 'html':"
p3294
ssg3246
S"(a=None, c='tulip', f='status', r='25c16f4ef0d33ae54d8ed75bdb27c0e8eb02d2cc4eda3eb76e8c7cbbedec5778', args=[], vars={}, anchor='', extension=None, env=None, hmac_key=None, hash_vars=True, salt=None, user_signature=None, scheme=None, host=None, port=None)"
p3295
sg3248
S'URL'
p3296
sasS'pyver'
p3297
S'Python 2.7.1: /opt/local/Library/Frameworks/Python.framework/Versions/2.7/Resources/Python.app/Contents/MacOS/Python'
p3298
sS'session'
p3299
g56
(g57
g58
NtRp3300
(dp3301
g61
(dp3302
sg63
(lp3303
g56
(g65
g58
NtRp3304
(dp3305
g61
(dp3306
g69
I5
ssg70
Nsg63
(lp3307
sbasbsS'etype'
p3308
S"<type 'exceptions.AttributeError'>"
p3309
sS'date'
p3310
S'Sun Aug 28 15:50:04 2011'
p3311
sS'response'
p3312
g56
(g57
g58
NtRp3313
(dp3314
g61
(dp3315
sg63
(lp3316
g56
(g65
g58
NtRp3317
(dp3318
g61
(dp3319
g69
I5
ssg70
Nsg63
(lp3320
g56
(g72
g58
NtRp3321
(dp3322
g61
(dp3323
sg70
g3317
sg63
(lp3324
g56
(g77
g58
NtRp3325
(dp3326
g61
(dp3327
g81
g82
ssg70
g3321
sg63
(lp3328
g154
asbag56
(g77
g58
NtRp3329
(dp3330
g61
(dp3331
g88
g89
ssg70
g3321
sg63
(lp3332
S':'
asbag56
(g77
g58
NtRp3333
(dp3334
g61
(dp3335
sg70
g3321
sg63
(lp3336
g56
(g57
g58
NtRp3337
(dp3338
g61
(dp3339
g69
I5
ssg70
g3333
sg63
(lp3340
S'<cStringIO.StringO object at 0x101d4c5a8>'
p3341
asbasbasbag56
(g72
g58
NtRp3342
(dp3343
g61
(dp3344
sg70
g3317
sg63
(lp3345
g56
(g77
g58
NtRp3346
(dp3347
g61
(dp3348
g81
g82
ssg70
g3342
sg63
(lp3349
g220
asbag56
(g77
g58
NtRp3350
(dp3351
g61
(dp3352
g88
g89
ssg70
g3342
sg63
(lp3353
S':'
asbag56
(g77
g58
NtRp3354
(dp3355
g61
(dp3356
sg70
g3342
sg63
(lp3357
g56
(g57
g58
NtRp3358
(dp3359
g61
(dp3360
g69
I5
ssg70
g3354
sg63
(lp3361
g56
(g65
g58
NtRp3362
(dp3363
g61
(dp3364
g69
I4
ssg70
Nsg63
(lp3365
g56
(g72
g58
NtRp3366
(dp3367
g61
(dp3368
sg70
g3362
sg63
(lp3369
g56
(g77
g58
NtRp3370
(dp3371
g61
(dp3372
g81
g82
ssg70
g3366
sg63
(lp3373
S'session_id_globaleaks'
p3374
asbag56
(g77
g58
NtRp3375
(dp3376
g61
(dp3377
g88
g89
ssg70
g3366
sg63
(lp3378
S':'
asbag56
(g77
g58
NtRp3379
(dp3380
g61
(dp3381
sg70
g3366
sg63
(lp3382
g56
(g57
g58
NtRp3383
(dp3384
g61
(dp3385
g69
I4
ssg70
g3379
sg63
(lp3386
g56
(g65
g58
NtRp3387
(dp3388
g61
(dp3389
g69
I3
ssg70
Nsg63
(lp3390
g56
(g72
g58
NtRp3391
(dp3392
g61
(dp3393
sg70
g3387
sg63
(lp3394
g56
(g77
g58
NtRp3395
(dp3396
g61
(dp3397
g81
g82
ssg70
g3391
sg63
(lp3398
g270
asbag56
(g77
g58
NtRp3399
(dp3400
g61
(dp3401
g88
g89
ssg70
g3391
sg63
(lp3402
S':'
asbag56
(g77
g58
NtRp3403
(dp3404
g61
(dp3405
sg70
g3391
sg63
(lp3406
g56
(g57
g58
NtRp3407
(dp3408
g61
(dp3409
g69
I3
ssg70
g3403
sg63
(lp3410
S''
asbasbasbag56
(g72
g58
NtRp3411
(dp3412
g61
(dp3413
sg70
g3387
sg63
(lp3414
g56
(g77
g58
NtRp3415
(dp3416
g61
(dp3417
g81
g82
ssg70
g3411
sg63
(lp3418
g291
asbag56
(g77
g58
NtRp3419
(dp3420
g61
(dp3421
g88
g89
ssg70
g3411
sg63
(lp3422
S':'
asbag56
(g77
g58
NtRp3423
(dp3424
g61
(dp3425
sg70
g3411
sg63
(lp3426
g56
(g57
g58
NtRp3427
(dp3428
g61
(dp3429
g69
I3
ssg70
g3423
sg63
(lp3430
S''
asbasbasbag56
(g72
g58
NtRp3431
(dp3432
g61
(dp3433
sg70
g3387
sg63
(lp3434
g56
(g77
g58
NtRp3435
(dp3436
g61
(dp3437
g81
g82
ssg70
g3431
sg63
(lp3438
g312
asbag56
(g77
g58
NtRp3439
(dp3440
g61
(dp3441
g88
g89
ssg70
g3431
sg63
(lp3442
S':'
asbag56
(g77
g58
NtRp3443
(dp3444
g61
(dp3445
sg70
g3431
sg63
(lp3446
g56
(g57
g58
NtRp3447
(dp3448
g61
(dp3449
g69
I3
ssg70
g3443
sg63
(lp3450
S''
asbasbasbag56
(g72
g58
NtRp3451
(dp3452
g61
(dp3453
sg70
g3387
sg63
(lp3454
g56
(g77
g58
NtRp3455
(dp3456
g61
(dp3457
g81
g82
ssg70
g3451
sg63
(lp3458
g333
asbag56
(g77
g58
NtRp3459
(dp3460
g61
(dp3461
g88
g89
ssg70
g3451
sg63
(lp3462
S':'
asbag56
(g77
g58
NtRp3463
(dp3464
g61
(dp3465
sg70
g3451
sg63
(lp3466
g56
(g57
g58
NtRp3467
(dp3468
g61
(dp3469
g69
I3
ssg70
g3463
sg63
(lp3470
S''
asbasbasbag56
(g72
g58
NtRp3471
(dp3472
g61
(dp3473
sg70
g3387
sg63
(lp3474
g56
(g77
g58
NtRp3475
(dp3476
g61
(dp3477
g81
g82
ssg70
g3471
sg63
(lp3478
g354
asbag56
(g77
g58
NtRp3479
(dp3480
g61
(dp3481
g88
g89
ssg70
g3471
sg63
(lp3482
S':'
asbag56
(g77
g58
NtRp3483
(dp3484
g61
(dp3485
sg70
g3471
sg63
(lp3486
g56
(g57
g58
NtRp3487
(dp3488
g61
(dp3489
g69
I3
ssg70
g3483
sg63
(lp3490
S''
asbasbasbag56
(g72
g58
NtRp3491
(dp3492
g61
(dp3493
sg70
g3387
sg63
(lp3494
g56
(g77
g58
NtRp3495
(dp3496
g61
(dp3497
g81
g82
ssg70
g3491
sg63
(lp3498
g375
asbag56
(g77
g58
NtRp3499
(dp3500
g61
(dp3501
g88
g89
ssg70
g3491
sg63
(lp3502
S':'
asbag56
(g77
g58
NtRp3503
(dp3504
g61
(dp3505
sg70
g3491
sg63
(lp3506
g56
(g57
g58
NtRp3507
(dp3508
g61
(dp3509
g69
I3
ssg70
g3503
sg63
(lp3510
S'/'
asbasbasbag56
(g72
g58
NtRp3511
(dp3512
g61
(dp3513
sg70
g3387
sg63
(lp3514
g56
(g77
g58
NtRp3515
(dp3516
g61
(dp3517
g81
g82
ssg70
g3511
sg63
(lp3518
g396
asbag56
(g77
g58
NtRp3519
(dp3520
g61
(dp3521
g88
g89
ssg70
g3511
sg63
(lp3522
S':'
asbag56
(g77
g58
NtRp3523
(dp3524
g61
(dp3525
sg70
g3511
sg63
(lp3526
g56
(g57
g58
NtRp3527
(dp3528
g61
(dp3529
g69
I3
ssg70
g3523
sg63
(lp3530
S''
asbasbasbag56
(g72
g58
NtRp3531
(dp3532
g61
(dp3533
sg70
g3387
sg63
(lp3534
g56
(g77
g58
NtRp3535
(dp3536
g61
(dp3537
g81
g82
ssg70
g3531
sg63
(lp3538
g417
asbag56
(g77
g58
NtRp3539
(dp3540
g61
(dp3541
g88
g89
ssg70
g3531
sg63
(lp3542
S':'
asbag56
(g77
g58
NtRp3543
(dp3544
g61
(dp3545
sg70
g3531
sg63
(lp3546
g56
(g57
g58
NtRp3547
(dp3548
g61
(dp3549
g69
I3
ssg70
g3543
sg63
(lp3550
S''
asbasbasbasbasbasbasbasbasbasbasbag56
(g72
g58
NtRp3551
(dp3552
g61
(dp3553
sg70
g3317
sg63
(lp3554
g56
(g77
g58
NtRp3555
(dp3556
g61
(dp3557
g81
g82
ssg70
g3551
sg63
(lp3558
S'files'
p3559
asbag56
(g77
g58
NtRp3560
(dp3561
g61
(dp3562
g88
g89
ssg70
g3551
sg63
(lp3563
S':'
asbag56
(g77
g58
NtRp3564
(dp3565
g61
(dp3566
sg70
g3551
sg63
(lp3567
g56
(g57
g58
NtRp3568
(dp3569
g61
(dp3570
g69
I5
ssg70
g3564
sg63
(lp3571
g56
(g65
g58
NtRp3572
(dp3573
g61
(dp3574
g69
I4
ssg70
Nsg63
(lp3575
g56
(g72
g58
NtRp3576
(dp3577
g61
(dp3578
sg70
g3572
sg63
(lp3579
g56
(g77
g58
NtRp3580
(dp3581
g61
(dp3582
sg70
g3576
sg63
(lp3583
g56
(g57
g58
NtRp3584
(dp3585
g61
(dp3586
g69
I4
ssg70
g3580
sg63
(lp3587
S'/globaleaks/static/js/jquery.js'
p3588
asbasbasbag56
(g72
g58
NtRp3589
(dp3590
g61
(dp3591
sg70
g3572
sg63
(lp3592
g56
(g77
g58
NtRp3593
(dp3594
g61
(dp3595
sg70
g3589
sg63
(lp3596
g56
(g57
g58
NtRp3597
(dp3598
g61
(dp3599
g69
I4
ssg70
g3593
sg63
(lp3600
S'/globaleaks/static/css/calendar.css'
p3601
asbasbasbag56
(g72
g58
NtRp3602
(dp3603
g61
(dp3604
sg70
g3572
sg63
(lp3605
g56
(g77
g58
NtRp3606
(dp3607
g61
(dp3608
sg70
g3602
sg63
(lp3609
g56
(g57
g58
NtRp3610
(dp3611
g61
(dp3612
g69
I4
ssg70
g3606
sg63
(lp3613
S'/globaleaks/static/js/calendar.js'
p3614
asbasbasbag56
(g72
g58
NtRp3615
(dp3616
g61
(dp3617
sg70
g3572
sg63
(lp3618
g56
(g77
g58
NtRp3619
(dp3620
g61
(dp3621
sg70
g3615
sg63
(lp3622
g56
(g57
g58
NtRp3623
(dp3624
g61
(dp3625
g69
I4
ssg70
g3619
sg63
(lp3626
S'/globaleaks/static/css/base.css'
p3627
asbasbasbag56
(g72
g58
NtRp3628
(dp3629
g61
(dp3630
sg70
g3572
sg63
(lp3631
g56
(g77
g58
NtRp3632
(dp3633
g61
(dp3634
sg70
g3628
sg63
(lp3635
g56
(g57
g58
NtRp3636
(dp3637
g61
(dp3638
g69
I4
ssg70
g3632
sg63
(lp3639
S'/globaleaks/static/css/superfish.css'
p3640
asbasbasbag56
(g72
g58
NtRp3641
(dp3642
g61
(dp3643
sg70
g3572
sg63
(lp3644
g56
(g77
g58
NtRp3645
(dp3646
g61
(dp3647
sg70
g3641
sg63
(lp3648
g56
(g57
g58
NtRp3649
(dp3650
g61
(dp3651
g69
I4
ssg70
g3645
sg63
(lp3652
S'/globaleaks/static/js/superfish.js'
p3653
asbasbasbasbasbasbasbag56
(g72
g58
NtRp3654
(dp3655
g61
(dp3656
sg70
g3317
sg63
(lp3657
g56
(g77
g58
NtRp3658
(dp3659
g61
(dp3660
g81
g82
ssg70
g3654
sg63
(lp3661
S'flash'
p3662
asbag56
(g77
g58
NtRp3663
(dp3664
g61
(dp3665
g88
g89
ssg70
g3654
sg63
(lp3666
S':'
asbag56
(g77
g58
NtRp3667
(dp3668
g61
(dp3669
sg70
g3654
sg63
(lp3670
g56
(g57
g58
NtRp3671
(dp3672
g61
(dp3673
g69
I5
ssg70
g3667
sg63
(lp3674
S''
asbasbasbag56
(g72
g58
NtRp3675
(dp3676
g61
(dp3677
sg70
g3317
sg63
(lp3678
g56
(g77
g58
NtRp3679
(dp3680
g61
(dp3681
g81
g82
ssg70
g3675
sg63
(lp3682
S'generic_patterns'
p3683
asbag56
(g77
g58
NtRp3684
(dp3685
g61
(dp3686
g88
g89
ssg70
g3675
sg63
(lp3687
S':'
asbag56
(g77
g58
NtRp3688
(dp3689
g61
(dp3690
sg70
g3675
sg63
(lp3691
g56
(g57
g58
NtRp3692
(dp3693
g61
(dp3694
g69
I5
ssg70
g3688
sg63
(lp3695
g56
(g65
g58
NtRp3696
(dp3697
g61
(dp3698
g69
I4
ssg70
Nsg63
(lp3699
sbasbasbasbag56
(g72
g58
NtRp3700
(dp3701
g61
(dp3702
sg70
g3317
sg63
(lp3703
g56
(g77
g58
NtRp3704
(dp3705
g61
(dp3706
g81
g82
ssg70
g3700
sg63
(lp3707
S'headers'
p3708
asbag56
(g77
g58
NtRp3709
(dp3710
g61
(dp3711
g88
g89
ssg70
g3700
sg63
(lp3712
S':'
asbag56
(g77
g58
NtRp3713
(dp3714
g61
(dp3715
sg70
g3700
sg63
(lp3716
g56
(g57
g58
NtRp3717
(dp3718
g61
(dp3719
g69
I5
ssg70
g3713
sg63
(lp3720
g56
(g65
g58
NtRp3721
(dp3722
g61
(dp3723
g69
I4
ssg70
Nsg63
(lp3724
g56
(g72
g58
NtRp3725
(dp3726
g61
(dp3727
sg70
g3721
sg63
(lp3728
g56
(g77
g58
NtRp3729
(dp3730
g61
(dp3731
g81
g82
ssg70
g3725
sg63
(lp3732
S'Cache-Control'
p3733
asbag56
(g77
g58
NtRp3734
(dp3735
g61
(dp3736
g88
g89
ssg70
g3725
sg63
(lp3737
S':'
asbag56
(g77
g58
NtRp3738
(dp3739
g61
(dp3740
sg70
g3725
sg63
(lp3741
g56
(g57
g58
NtRp3742
(dp3743
g61
(dp3744
g69
I4
ssg70
g3738
sg63
(lp3745
S'no-store, no-cache, must-revalidate, post-check=0, pre-check=0'
p3746
asbasbasbag56
(g72
g58
NtRp3747
(dp3748
g61
(dp3749
sg70
g3721
sg63
(lp3750
g56
(g77
g58
NtRp3751
(dp3752
g61
(dp3753
g81
g82
ssg70
g3747
sg63
(lp3754
S'Content-Type'
p3755
asbag56
(g77
g58
NtRp3756
(dp3757
g61
(dp3758
g88
g89
ssg70
g3747
sg63
(lp3759
S':'
asbag56
(g77
g58
NtRp3760
(dp3761
g61
(dp3762
sg70
g3747
sg63
(lp3763
g56
(g57
g58
NtRp3764
(dp3765
g61
(dp3766
g69
I4
ssg70
g3760
sg63
(lp3767
S'text/html; charset=utf-8'
p3768
asbasbasbag56
(g72
g58
NtRp3769
(dp3770
g61
(dp3771
sg70
g3721
sg63
(lp3772
g56
(g77
g58
NtRp3773
(dp3774
g61
(dp3775
g81
g82
ssg70
g3769
sg63
(lp3776
S'Expires'
p3777
asbag56
(g77
g58
NtRp3778
(dp3779
g61
(dp3780
g88
g89
ssg70
g3769
sg63
(lp3781
S':'
asbag56
(g77
g58
NtRp3782
(dp3783
g61
(dp3784
sg70
g3769
sg63
(lp3785
g56
(g57
g58
NtRp3786
(dp3787
g61
(dp3788
g69
I4
ssg70
g3782
sg63
(lp3789
S'Sun, 28 Aug 2011 13:50:04 GMT'
p3790
asbasbasbag56
(g72
g58
NtRp3791
(dp3792
g61
(dp3793
sg70
g3721
sg63
(lp3794
g56
(g77
g58
NtRp3795
(dp3796
g61
(dp3797
g81
g82
ssg70
g3791
sg63
(lp3798
S'Pragma'
p3799
asbag56
(g77
g58
NtRp3800
(dp3801
g61
(dp3802
g88
g89
ssg70
g3791
sg63
(lp3803
S':'
asbag56
(g77
g58
NtRp3804
(dp3805
g61
(dp3806
sg70
g3791
sg63
(lp3807
g56
(g57
g58
NtRp3808
(dp3809
g61
(dp3810
g69
I4
ssg70
g3804
sg63
(lp3811
S'no-cache'
p3812
asbasbasbag56
(g72
g58
NtRp3813
(dp3814
g61
(dp3815
sg70
g3721
sg63
(lp3816
g56
(g77
g58
NtRp3817
(dp3818
g61
(dp3819
g81
g82
ssg70
g3813
sg63
(lp3820
S'X-Powered-By'
p3821
asbag56
(g77
g58
NtRp3822
(dp3823
g61
(dp3824
g88
g89
ssg70
g3813
sg63
(lp3825
S':'
asbag56
(g77
g58
NtRp3826
(dp3827
g61
(dp3828
sg70
g3813
sg63
(lp3829
g56
(g57
g58
NtRp3830
(dp3831
g61
(dp3832
g69
I4
ssg70
g3826
sg63
(lp3833
S'web2py'
p3834
asbasbasbasbasbasbasbag56
(g72
g58
NtRp3835
(dp3836
g61
(dp3837
sg70
g3317
sg63
(lp3838
g56
(g77
g58
NtRp3839
(dp3840
g61
(dp3841
g81
g82
ssg70
g3835
sg63
(lp3842
S'menu'
p3843
asbag56
(g77
g58
NtRp3844
(dp3845
g61
(dp3846
g88
g89
ssg70
g3835
sg63
(lp3847
S':'
asbag56
(g77
g58
NtRp3848
(dp3849
g61
(dp3850
sg70
g3835
sg63
(lp3851
g56
(g57
g58
NtRp3852
(dp3853
g61
(dp3854
g69
I5
ssg70
g3848
sg63
(lp3855
g56
(g65
g58
NtRp3856
(dp3857
g61
(dp3858
g69
I4
ssg70
Nsg63
(lp3859
g56
(g72
g58
NtRp3860
(dp3861
g61
(dp3862
sg70
g3856
sg63
(lp3863
g56
(g77
g58
NtRp3864
(dp3865
g61
(dp3866
sg70
g3860
sg63
(lp3867
g56
(g57
g58
NtRp3868
(dp3869
g61
(dp3870
g69
I4
ssg70
g3864
sg63
(lp3871
g56
(g65
g58
NtRp3872
(dp3873
g61
(dp3874
g69
I3
ssg70
Nsg63
(lp3875
g56
(g72
g58
NtRp3876
(dp3877
g61
(dp3878
sg70
g3872
sg63
(lp3879
g56
(g77
g58
NtRp3880
(dp3881
g61
(dp3882
sg70
g3876
sg63
(lp3883
g56
(g57
g58
NtRp3884
(dp3885
g61
(dp3886
g69
I3
ssg70
g3880
sg63
(lp3887
cgluon.languages
lazyT_unpickle
p3888
(S't\x05\x00\x00\x00Index'
tRp3889
asbasbasbag56
(g72
g58
NtRp3890
(dp3891
g61
(dp3892
sg70
g3872
sg63
(lp3893
g56
(g77
g58
NtRp3894
(dp3895
g61
(dp3896
sg70
g3890
sg63
(lp3897
g56
(g57
g58
NtRp3898
(dp3899
g61
(dp3900
g69
I3
ssg70
g3894
sg63
(lp3901
g99
asbasbasbag56
(g72
g58
NtRp3902
(dp3903
g61
(dp3904
sg70
g3872
sg63
(lp3905
g56
(g77
g58
NtRp3906
(dp3907
g61
(dp3908
sg70
g3902
sg63
(lp3909
g56
(g57
g58
NtRp3910
(dp3911
g61
(dp3912
g69
I3
ssg70
g3906
sg63
(lp3913
S'/globaleaks/default/index'
p3914
asbasbasbag56
(g72
g58
NtRp3915
(dp3916
g61
(dp3917
sg70
g3872
sg63
(lp3918
g56
(g77
g58
NtRp3919
(dp3920
g61
(dp3921
sg70
g3915
sg63
(lp3922
g56
(g57
g58
NtRp3923
(dp3924
g61
(dp3925
g69
I3
ssg70
g3919
sg63
(lp3926
g56
(g65
g58
NtRp3927
(dp3928
g61
(dp3929
g69
I2
ssg70
Nsg63
(lp3930
sbasbasbasbasbasbasbasbag56
(g72
g58
NtRp3931
(dp3932
g61
(dp3933
sg70
g3856
sg63
(lp3934
g56
(g77
g58
NtRp3935
(dp3936
g61
(dp3937
sg70
g3931
sg63
(lp3938
g56
(g57
g58
NtRp3939
(dp3940
g61
(dp3941
g69
I4
ssg70
g3935
sg63
(lp3942
g56
(g65
g58
NtRp3943
(dp3944
g61
(dp3945
g69
I3
ssg70
Nsg63
(lp3946
g56
(g72
g58
NtRp3947
(dp3948
g61
(dp3949
sg70
g3943
sg63
(lp3950
g56
(g77
g58
NtRp3951
(dp3952
g61
(dp3953
sg70
g3947
sg63
(lp3954
g56
(g57
g58
NtRp3955
(dp3956
g61
(dp3957
g69
I3
ssg70
g3951
sg63
(lp3958
g3888
(S't\n\x00\x00\x00Submission'
tRp3959
asbasbasbag56
(g72
g58
NtRp3960
(dp3961
g61
(dp3962
sg70
g3943
sg63
(lp3963
g56
(g77
g58
NtRp3964
(dp3965
g61
(dp3966
sg70
g3960
sg63
(lp3967
g56
(g57
g58
NtRp3968
(dp3969
g61
(dp3970
g69
I3
ssg70
g3964
sg63
(lp3971
g1904
asbasbasbag56
(g72
g58
NtRp3972
(dp3973
g61
(dp3974
sg70
g3943
sg63
(lp3975
g56
(g77
g58
NtRp3976
(dp3977
g61
(dp3978
sg70
g3972
sg63
(lp3979
g56
(g57
g58
NtRp3980
(dp3981
g61
(dp3982
g69
I3
ssg70
g3976
sg63
(lp3983
S'/globaleaks/submission/index'
p3984
asbasbasbag56
(g72
g58
NtRp3985
(dp3986
g61
(dp3987
sg70
g3943
sg63
(lp3988
g56
(g77
g58
NtRp3989
(dp3990
g61
(dp3991
sg70
g3985
sg63
(lp3992
g56
(g57
g58
NtRp3993
(dp3994
g61
(dp3995
g69
I3
ssg70
g3989
sg63
(lp3996
g56
(g65
g58
NtRp3997
(dp3998
g61
(dp3999
g69
I2
ssg70
Nsg63
(lp4000
sbasbasbasbasbasbasbasbag56
(g72
g58
NtRp4001
(dp4002
g61
(dp4003
sg70
g3856
sg63
(lp4004
g56
(g77
g58
NtRp4005
(dp4006
g61
(dp4007
sg70
g4001
sg63
(lp4008
g56
(g57
g58
NtRp4009
(dp4010
g61
(dp4011
g69
I4
ssg70
g4005
sg63
(lp4012
g56
(g65
g58
NtRp4013
(dp4014
g61
(dp4015
g69
I3
ssg70
Nsg63
(lp4016
g56
(g72
g58
NtRp4017
(dp4018
g61
(dp4019
sg70
g4013
sg63
(lp4020
g56
(g77
g58
NtRp4021
(dp4022
g61
(dp4023
sg70
g4017
sg63
(lp4024
g56
(g57
g58
NtRp4025
(dp4026
g61
(dp4027
g69
I3
ssg70
g4021
sg63
(lp4028
g3888
(S't\x06\x00\x00\x00Tulips'
tRp4029
asbasbasbag56
(g72
g58
NtRp4030
(dp4031
g61
(dp4032
sg70
g4013
sg63
(lp4033
g56
(g77
g58
NtRp4034
(dp4035
g61
(dp4036
sg70
g4030
sg63
(lp4037
g56
(g57
g58
NtRp4038
(dp4039
g61
(dp4040
g69
I3
ssg70
g4034
sg63
(lp4041
g99
asbasbasbag56
(g72
g58
NtRp4042
(dp4043
g61
(dp4044
sg70
g4013
sg63
(lp4045
g56
(g77
g58
NtRp4046
(dp4047
g61
(dp4048
sg70
g4042
sg63
(lp4049
g56
(g57
g58
NtRp4050
(dp4051
g61
(dp4052
g69
I3
ssg70
g4046
sg63
(lp4053
S'/globaleaks/tulip/index'
p4054
asbasbasbag56
(g72
g58
NtRp4055
(dp4056
g61
(dp4057
sg70
g4013
sg63
(lp4058
g56
(g77
g58
NtRp4059
(dp4060
g61
(dp4061
sg70
g4055
sg63
(lp4062
g56
(g57
g58
NtRp4063
(dp4064
g61
(dp4065
g69
I3
ssg70
g4059
sg63
(lp4066
g56
(g65
g58
NtRp4067
(dp4068
g61
(dp4069
g69
I2
ssg70
Nsg63
(lp4070
sbasbasbasbasbasbasbasbasbasbasbasbag56
(g72
g58
NtRp4071
(dp4072
g61
(dp4073
sg70
g3317
sg63
(lp4074
g56
(g77
g58
NtRp4075
(dp4076
g61
(dp4077
g81
g82
ssg70
g4071
sg63
(lp4078
S'meta'
p4079
asbag56
(g77
g58
NtRp4080
(dp4081
g61
(dp4082
g88
g89
ssg70
g4071
sg63
(lp4083
S':'
asbag56
(g77
g58
NtRp4084
(dp4085
g61
(dp4086
sg70
g4071
sg63
(lp4087
g56
(g57
g58
NtRp4088
(dp4089
g61
(dp4090
g69
I5
ssg70
g4084
sg63
(lp4091
g56
(g65
g58
NtRp4092
(dp4093
g61
(dp4094
g69
I4
ssg70
Nsg63
(lp4095
g56
(g72
g58
NtRp4096
(dp4097
g61
(dp4098
sg70
g4092
sg63
(lp4099
g56
(g77
g58
NtRp4100
(dp4101
g61
(dp4102
g81
g82
ssg70
g4096
sg63
(lp4103
S'author'
p4104
asbag56
(g77
g58
NtRp4105
(dp4106
g61
(dp4107
g88
g89
ssg70
g4096
sg63
(lp4108
S':'
asbag56
(g77
g58
NtRp4109
(dp4110
g61
(dp4111
sg70
g4096
sg63
(lp4112
g56
(g57
g58
NtRp4113
(dp4114
g61
(dp4115
g69
I4
ssg70
g4109
sg63
(lp4116
S'RGC <info@globaleaks.org>'
p4117
asbasbasbag56
(g72
g58
NtRp4118
(dp4119
g61
(dp4120
sg70
g4092
sg63
(lp4121
g56
(g77
g58
NtRp4122
(dp4123
g61
(dp4124
g81
g82
ssg70
g4118
sg63
(lp4125
S'description'
p4126
asbag56
(g77
g58
NtRp4127
(dp4128
g61
(dp4129
g88
g89
ssg70
g4118
sg63
(lp4130
S':'
asbag56
(g77
g58
NtRp4131
(dp4132
g61
(dp4133
sg70
g4118
sg63
(lp4134
g56
(g57
g58
NtRp4135
(dp4136
g61
(dp4137
g69
I4
ssg70
g4131
sg63
(lp4138
S''
asbasbasbag56
(g72
g58
NtRp4139
(dp4140
g61
(dp4141
sg70
g4092
sg63
(lp4142
g56
(g77
g58
NtRp4143
(dp4144
g61
(dp4145
g81
g82
ssg70
g4139
sg63
(lp4146
S'keywords'
p4147
asbag56
(g77
g58
NtRp4148
(dp4149
g61
(dp4150
g88
g89
ssg70
g4139
sg63
(lp4151
S':'
asbag56
(g77
g58
NtRp4152
(dp4153
g61
(dp4154
sg70
g4139
sg63
(lp4155
g56
(g57
g58
NtRp4156
(dp4157
g61
(dp4158
g69
I4
ssg70
g4152
sg63
(lp4159
S''
asbasbasbasbasbasbasbag56
(g72
g58
NtRp4160
(dp4161
g61
(dp4162
sg70
g3317
sg63
(lp4163
g56
(g77
g58
NtRp4164
(dp4165
g61
(dp4166
g81
g82
ssg70
g4160
sg63
(lp4167
S'postprocessing'
p4168
asbag56
(g77
g58
NtRp4169
(dp4170
g61
(dp4171
g88
g89
ssg70
g4160
sg63
(lp4172
S':'
asbag56
(g77
g58
NtRp4173
(dp4174
g61
(dp4175
sg70
g4160
sg63
(lp4176
g56
(g57
g58
NtRp4177
(dp4178
g61
(dp4179
g69
I5
ssg70
g4173
sg63
(lp4180
g56
(g65
g58
NtRp4181
(dp4182
g61
(dp4183
g69
I4
ssg70
Nsg63
(lp4184
sbasbasbasbag56
(g72
g58
NtRp4185
(dp4186
g61
(dp4187
sg70
g3317
sg63
(lp4188
g56
(g77
g58
NtRp4189
(dp4190
g61
(dp4191
g81
g82
ssg70
g4185
sg63
(lp4192
S'session_file'
p4193
asbag56
(g77
g58
NtRp4194
(dp4195
g61
(dp4196
g88
g89
ssg70
g4185
sg63
(lp4197
S':'
asbag56
(g77
g58
NtRp4198
(dp4199
g61
(dp4200
sg70
g4185
sg63
(lp4201
g56
(g57
g58
NtRp4202
(dp4203
g61
(dp4204
g69
I5
ssg70
g4198
sg63
(lp4205
S"<open file '/Users/hellais/Documents/code/mygit/globaleaks/webapp/applications/globaleaks/sessions/127.0.0.1-c6d5b9b3-1ec7-41c1-8d72-04c21b7a6b11', mode 'rb+' at 0x101d2dc90>"
p4206
asbasbasbag56
(g72
g58
NtRp4207
(dp4208
g61
(dp4209
sg70
g3317
sg63
(lp4210
g56
(g77
g58
NtRp4211
(dp4212
g61
(dp4213
g81
g82
ssg70
g4207
sg63
(lp4214
S'session_filename'
p4215
asbag56
(g77
g58
NtRp4216
(dp4217
g61
(dp4218
g88
g89
ssg70
g4207
sg63
(lp4219
S':'
asbag56
(g77
g58
NtRp4220
(dp4221
g61
(dp4222
sg70
g4207
sg63
(lp4223
g56
(g57
g58
NtRp4224
(dp4225
g61
(dp4226
g69
I5
ssg70
g4220
sg63
(lp4227
S'/Users/hellais/Documents/code/mygit/globaleaks/webapp/applications/globaleaks/sessions/127.0.0.1-c6d5b9b3-1ec7-41c1-8d72-04c21b7a6b11'
p4228
asbasbasbag56
(g72
g58
NtRp4229
(dp4230
g61
(dp4231
sg70
g3317
sg63
(lp4232
g56
(g77
g58
NtRp4233
(dp4234
g61
(dp4235
g81
g82
ssg70
g4229
sg63
(lp4236
S'session_id'
p4237
asbag56
(g77
g58
NtRp4238
(dp4239
g61
(dp4240
g88
g89
ssg70
g4229
sg63
(lp4241
S':'
asbag56
(g77
g58
NtRp4242
(dp4243
g61
(dp4244
sg70
g4229
sg63
(lp4245
g56
(g57
g58
NtRp4246
(dp4247
g61
(dp4248
g69
I5
ssg70
g4242
sg63
(lp4249
S'127.0.0.1-c6d5b9b3-1ec7-41c1-8d72-04c21b7a6b11'
p4250
asbasbasbag56
(g72
g58
NtRp4251
(dp4252
g61
(dp4253
sg70
g3317
sg63
(lp4254
g56
(g77
g58
NtRp4255
(dp4256
g61
(dp4257
g81
g82
ssg70
g4251
sg63
(lp4258
S'session_id_name'
p4259
asbag56
(g77
g58
NtRp4260
(dp4261
g61
(dp4262
g88
g89
ssg70
g4251
sg63
(lp4263
S':'
asbag56
(g77
g58
NtRp4264
(dp4265
g61
(dp4266
sg70
g4251
sg63
(lp4267
g56
(g57
g58
NtRp4268
(dp4269
g61
(dp4270
g69
I5
ssg70
g4264
sg63
(lp4271
g3374
asbasbasbag56
(g72
g58
NtRp4272
(dp4273
g61
(dp4274
sg70
g3317
sg63
(lp4275
g56
(g77
g58
NtRp4276
(dp4277
g61
(dp4278
g81
g82
ssg70
g4272
sg63
(lp4279
S'session_locked'
p4280
asbag56
(g77
g58
NtRp4281
(dp4282
g61
(dp4283
g88
g89
ssg70
g4272
sg63
(lp4284
S':'
asbag56
(g77
g58
NtRp4285
(dp4286
g61
(dp4287
sg70
g4272
sg63
(lp4288
g56
(g57
g58
NtRp4289
(dp4290
g61
(dp4291
g69
I5
ssg70
g4285
sg63
(lp4292
g1904
asbasbasbag56
(g72
g58
NtRp4293
(dp4294
g61
(dp4295
sg70
g3317
sg63
(lp4296
g56
(g77
g58
NtRp4297
(dp4298
g61
(dp4299
g81
g82
ssg70
g4293
sg63
(lp4300
S'session_new'
p4301
asbag56
(g77
g58
NtRp4302
(dp4303
g61
(dp4304
g88
g89
ssg70
g4293
sg63
(lp4305
S':'
asbag56
(g77
g58
NtRp4306
(dp4307
g61
(dp4308
sg70
g4293
sg63
(lp4309
g56
(g57
g58
NtRp4310
(dp4311
g61
(dp4312
g69
I5
ssg70
g4306
sg63
(lp4313
g99
asbasbasbag56
(g72
g58
NtRp4314
(dp4315
g61
(dp4316
sg70
g3317
sg63
(lp4317
g56
(g77
g58
NtRp4318
(dp4319
g61
(dp4320
g81
g82
ssg70
g4314
sg63
(lp4321
S'status'
p4322
asbag56
(g77
g58
NtRp4323
(dp4324
g61
(dp4325
g88
g89
ssg70
g4314
sg63
(lp4326
S':'
asbag56
(g77
g58
NtRp4327
(dp4328
g61
(dp4329
sg70
g4314
sg63
(lp4330
g56
(g57
g58
NtRp4331
(dp4332
g61
(dp4333
g69
I5
ssg70
g4327
sg63
(lp4334
S'200'
p4335
asbasbasbag56
(g72
g58
NtRp4336
(dp4337
g61
(dp4338
sg70
g3317
sg63
(lp4339
g56
(g77
g58
NtRp4340
(dp4341
g61
(dp4342
g81
g82
ssg70
g4336
sg63
(lp4343
S'subtitle'
p4344
asbag56
(g77
g58
NtRp4345
(dp4346
g61
(dp4347
g88
g89
ssg70
g4336
sg63
(lp4348
S':'
asbag56
(g77
g58
NtRp4349
(dp4350
g61
(dp4351
sg70
g4336
sg63
(lp4352
g56
(g57
g58
NtRp4353
(dp4354
g61
(dp4355
g69
I5
ssg70
g4349
sg63
(lp4356
S'Open Source Whistleblowing Platform'
p4357
asbasbasbag56
(g72
g58
NtRp4358
(dp4359
g61
(dp4360
sg70
g3317
sg63
(lp4361
g56
(g77
g58
NtRp4362
(dp4363
g61
(dp4364
g81
g82
ssg70
g4358
sg63
(lp4365
S'title'
p4366
asbag56
(g77
g58
NtRp4367
(dp4368
g61
(dp4369
g88
g89
ssg70
g4358
sg63
(lp4370
S':'
asbag56
(g77
g58
NtRp4371
(dp4372
g61
(dp4373
sg70
g4358
sg63
(lp4374
g56
(g57
g58
NtRp4375
(dp4376
g61
(dp4377
g69
I5
ssg70
g4371
sg63
(lp4378
S'GlobaLeaks'
p4379
asbasbasbag56
(g72
g58
NtRp4380
(dp4381
g61
(dp4382
sg70
g3317
sg63
(lp4383
g56
(g77
g58
NtRp4384
(dp4385
g61
(dp4386
g81
g82
ssg70
g4380
sg63
(lp4387
g2337
asbag56
(g77
g58
NtRp4388
(dp4389
g61
(dp4390
g88
g89
ssg70
g4380
sg63
(lp4391
S':'
asbag56
(g77
g58
NtRp4392
(dp4393
g61
(dp4394
sg70
g4380
sg63
(lp4395
g56
(g57
g58
NtRp4396
(dp4397
g61
(dp4398
g69
I5
ssg70
g4392
sg63
(lp4399
g2350
asbasbasbag56
(g72
g58
NtRp4400
(dp4401
g61
(dp4402
sg70
g3317
sg63
(lp4403
g56
(g77
g58
NtRp4404
(dp4405
g61
(dp4406
g81
g82
ssg70
g4400
sg63
(lp4407
S'view'
p4408
asbag56
(g77
g58
NtRp4409
(dp4410
g61
(dp4411
g88
g89
ssg70
g4400
sg63
(lp4412
S':'
asbag56
(g77
g58
NtRp4413
(dp4414
g61
(dp4415
sg70
g4400
sg63
(lp4416
g56
(g57
g58
NtRp4417
(dp4418
g61
(dp4419
g69
I5
ssg70
g4413
sg63
(lp4420
S'submission/index.html'
p4421
asbasbasbasbasbsS'locals'
p4422
(dp4423
g2049
S'None'
p4424
sS'a'
S'None'
p4425
sS'c'
S"'tulip'"
p4426
sS'scheme'
p4427
S'None'
p4428
sg2359
g44
sg2005
S'None'
p4429
sS'f'
S"'status'"
p4430
sg23
S'[]'
p4431
sS'hash_vars'
p4432
g1904
sg198
S'None'
p4433
sS'port'
p4434
S'None'
p4435
sS'hmac_key'
p4436
S'None'
p4437
sS'host'
p4438
S'None'
p4439
sg108
S'None'
p4440
sS'user_signature'
p4441
S'None'
p4442
sg993
S'None'
p4443
sS'r'
S"'25c16f4ef0d33ae54d8ed75bdb27c0e8eb02d2cc4eda3eb76e8c7cbbedec5778'"
p4444
sS'salt'
p4445
S'None'
p4446
sS'anchor'
p4447
S"''"
p4448
sssS'traceback'
p4449
S'Traceback (most recent call last):\n  File "/opt/local/Library/Frameworks/Python.framework/Versions/2.7/lib/python2.7/gluon/restricted.py", line 192, in restricted\n    exec ccode in environment\n  File "/Users/hellais/Documents/code/mygit/globaleaks/webapp/applications/globaleaks/views/submission/index.html", line 111, in <module>\n  File "/opt/local/Library/Frameworks/Python.framework/Versions/2.7/lib/python2.7/gluon/html.py", line 212, in URL\n    application = r.application\nAttributeError: \'str\' object has no attribute \'application\'\n'
p4450
s.