(dp1
S'output'
p2
S''
sS'layer'
p3
S'/Users/hellais/Documents/code/mygit/globaleaks/webapp/applications/init/controllers/default.py'
p4
sS'code'
p5
S'# -*- coding: utf-8 -*-\n### required - do no delete\ndef user(): return dict(form=auth())\ndef download(): return response.download(request,db)\ndef call():\n    session.forget()\n    return service()\n### end requires\ndef index():\n    return dict(message=T("Hello World, I am GlobaLeaks!"))\n\ndef submission():\n    form_content = (Field(\'Title\', requires=IS_NOT_EMPTY()),\n                    Field(\'Description\', \'text\', requires=IS_NOT_EMPTY()),\n                    Field(\'Tags\'),Field(\'material\', \'upload\', uploadfolder="uploads/"),\n                    Field(\'dislaimer\', \'boolean\', requires=IS_EQUAL_TO("on", error_message="Please read the disclaimer")))\n   \n    form = SQLFORM.factory(*form_content)\n    \n    if form.accepts(request.vars, session):\n        l = request.vars\n        leak_id = gl.create_leak(l.Title, l.Description, None, None,\n                {"Al Jazeera":10 , "CNN":20, "Leaker":0}, l.Tags)\n        \n        #response.flash = \'form accepted\'\n        leak = Leak(leak_id)\n\n        #FIXME do this better...\n        tulips = []\n        for tulip in leak.tulips:\n            if tulip.target=="Leaker":\n                leaker_tulip = tulip.url\n            else:\n                tulips.append((tulip.url, tulip.target))\n            \n        return dict(leak_id=leak_id, tulip=leaker_tulip, form=None, tulips=tulips)\n    elif form.errors:\n        response.flash = \'form has errors\'\n    else:\n        response.flash = \'please fill the form\'        \n    \n    return dict(form=form, leak_id=None, tulip=None, tulips=None)\n\ndef tulip():\n    tulip_url = request.args[0]\n    t = Tulip(url=tulip_url)\n    leak = t.get_leak()\n    \n    form = SQLFORM.factory(Field(\'Comment\', \'text\', requires=IS_NOT_EMPTY()))\n       \n    if form.accepts(request.vars, session):\n        response.flash = \'ok!\'\n        c = response.vars\n        print response.vars\n        print dir(t)\n\n        return dict(dead=True,\n                leak_title=leak.title,\n                leak_tags=leak.tags,\n                leak_desc=leak.desc,\n                leak_material=leak.material,\n                comment="asdads", \n                name=t.target, \n                comment_form=form)\n\n    elif form.errors:\n        response.flash = \'form has errors\'\n    else:\n        response.flash = \'please fill the form\'    \n\n    if(int(t.downloads_counter) >= int(t.allowed_downloads)):\n                tulip_downloads=t.downloads_counter,\n                tulip_allowed_downloads=t.allowed_downloads)\n\n    t.downloads_counter = int(t.downloads_counter) + 1\n   \n    return dict(dead=False,\n                leak_title=leak.title,\n                leak_tags=leak.tags,\n                leak_desc=leak.desc,\n                leak_material=leak.material,\n                tulip_downloads=t.downloads_counter,\n                tulip_allowed_downloads=t.allowed_downloads,\n                comment_form=form,\n                comment=None)\n\ndef error():\n    return dict()\n\nresponse._vars=response._caller(index)\n'
p6
sS'snapshot'
p7
(dp8
S'exception'
p9
(dp10
S'__getslice__'
p11
S"<method-wrapper '__getslice__' of exceptions.SyntaxError object>"
p12
sS'text'
p13
S"'                tulip_allowed_downloads=t.allowed_downloads)\\n'"
p14
sS'__str__'
p15
S"<method-wrapper '__str__' of exceptions.SyntaxError object>"
p16
sS'__reduce__'
p17
S'<built-in method __reduce__ of exceptions.SyntaxError object>'
p18
sS'__dict__'
p19
S'{}'
p20
sS'__sizeof__'
p21
S'<built-in method __sizeof__ of exceptions.SyntaxError object>'
p22
sS'__init__'
p23
S"<method-wrapper '__init__' of exceptions.SyntaxError object>"
p24
sS'__setattr__'
p25
S"<method-wrapper '__setattr__' of exceptions.SyntaxError object>"
p26
sS'__reduce_ex__'
p27
S'<built-in method __reduce_ex__ of exceptions.SyntaxError object>'
p28
sS'__new__'
p29
S'<built-in method __new__ of type object>'
p30
sS'__format__'
p31
S'<built-in method __format__ of exceptions.SyntaxError object>'
p32
sS'__class__'
p33
S"<type 'exceptions.SyntaxError'>"
p34
sS'filename'
p35
S"'/Users/hellais/Documents/code/mygit/globaleaks/webapp/applications/init/controllers/default.py'"
p36
sS'lineno'
p37
S'73'
p38
sS'msg'
p39
S"'invalid syntax'"
p40
sS'__doc__'
p41
S"'Invalid syntax.'"
p42
sS'__getitem__'
p43
S"<method-wrapper '__getitem__' of exceptions.SyntaxError object>"
p44
sS'__setstate__'
p45
S'<built-in method __setstate__ of exceptions.SyntaxError object>'
p46
sS'__getattribute__'
p47
S"<method-wrapper '__getattribute__' of exceptions.SyntaxError object>"
p48
sS'print_file_and_line'
p49
S'None'
p50
sS'args'
p51
S"('invalid syntax', ('/Users/hellais/Documents/code/mygit/globaleaks/webapp/applications/init/controllers/default.py', 73, 60, '                tulip_allowed_downloads=t.allowed_downloads)\\n'))"
p52
sS'__subclasshook__'
p53
S'<built-in method __subclasshook__ of type object>'
p54
sS'offset'
p55
S'60'
p56
sS'__unicode__'
p57
S'<built-in method __unicode__ of exceptions.SyntaxError object>'
p58
sS'__delattr__'
p59
S"<method-wrapper '__delattr__' of exceptions.SyntaxError object>"
p60
sS'__repr__'
p61
S"<method-wrapper '__repr__' of exceptions.SyntaxError object>"
p62
sS'__hash__'
p63
S"<method-wrapper '__hash__' of exceptions.SyntaxError object>"
p64
ssS'evalue'
p65
S'invalid syntax (default.py, line 73)'
p66
sS'request'
p67
ccopy_reg
_reconstructor
p68
(cgluon.html
BEAUTIFY
p69
c__builtin__
object
p70
NtRp71
(dp72
S'attributes'
p73
(dp74
sS'components'
p75
(lp76
g68
(cgluon.html
TABLE
p77
g70
NtRp78
(dp79
g73
(dp80
S'level'
p81
I5
ssS'parent'
p82
Nsg75
(lp83
g68
(cgluon.html
TR
p84
g70
NtRp85
(dp86
g73
(dp87
sg82
g78
sg75
(lp88
g68
(cgluon.html
TD
p89
g70
NtRp90
(dp91
g73
(dp92
S'_style'
p93
S'font-weight:bold;'
p94
ssg82
g85
sg75
(lp95
S'ajax'
p96
asbag68
(g89
g70
NtRp97
(dp98
g73
(dp99
S'_valign'
p100
S'top'
p101
ssg82
g85
sg75
(lp102
S':'
asbag68
(g89
g70
NtRp103
(dp104
g73
(dp105
sg82
g85
sg75
(lp106
g68
(g69
g70
NtRp107
(dp108
g73
(dp109
g81
I5
ssg82
g103
sg75
(lp110
S'False'
p111
asbasbasbag68
(g84
g70
NtRp112
(dp113
g73
(dp114
sg82
g78
sg75
(lp115
g68
(g89
g70
NtRp116
(dp117
g73
(dp118
g93
g94
ssg82
g112
sg75
(lp119
S'application'
p120
asbag68
(g89
g70
NtRp121
(dp122
g73
(dp123
g100
g101
ssg82
g112
sg75
(lp124
S':'
asbag68
(g89
g70
NtRp125
(dp126
g73
(dp127
sg82
g112
sg75
(lp128
g68
(g69
g70
NtRp129
(dp130
g73
(dp131
g81
I5
ssg82
g125
sg75
(lp132
S'init'
p133
asbasbasbag68
(g84
g70
NtRp134
(dp135
g73
(dp136
sg82
g78
sg75
(lp137
g68
(g89
g70
NtRp138
(dp139
g73
(dp140
g93
g94
ssg82
g134
sg75
(lp141
g51
asbag68
(g89
g70
NtRp142
(dp143
g73
(dp144
g100
g101
ssg82
g134
sg75
(lp145
S':'
asbag68
(g89
g70
NtRp146
(dp147
g73
(dp148
sg82
g134
sg75
(lp149
g68
(g69
g70
NtRp150
(dp151
g73
(dp152
g81
I5
ssg82
g146
sg75
(lp153
g68
(g77
g70
NtRp154
(dp155
g73
(dp156
g81
I4
ssg82
Nsg75
(lp157
sbasbasbasbag68
(g84
g70
NtRp158
(dp159
g73
(dp160
sg82
g78
sg75
(lp161
g68
(g89
g70
NtRp162
(dp163
g73
(dp164
g93
g94
ssg82
g158
sg75
(lp165
S'body'
p166
asbag68
(g89
g70
NtRp167
(dp168
g73
(dp169
g100
g101
ssg82
g158
sg75
(lp170
S':'
asbag68
(g89
g70
NtRp171
(dp172
g73
(dp173
sg82
g158
sg75
(lp174
g68
(g69
g70
NtRp175
(dp176
g73
(dp177
g81
I5
ssg82
g171
sg75
(lp178
S'<cStringIO.StringO object at 0x1018c6260>'
p179
asbasbasbag68
(g84
g70
NtRp180
(dp181
g73
(dp182
sg82
g78
sg75
(lp183
g68
(g89
g70
NtRp184
(dp185
g73
(dp186
g93
g94
ssg82
g180
sg75
(lp187
S'client'
p188
asbag68
(g89
g70
NtRp189
(dp190
g73
(dp191
g100
g101
ssg82
g180
sg75
(lp192
S':'
asbag68
(g89
g70
NtRp193
(dp194
g73
(dp195
sg82
g180
sg75
(lp196
g68
(g69
g70
NtRp197
(dp198
g73
(dp199
g81
I5
ssg82
g193
sg75
(lp200
S'127.0.0.1'
p201
asbasbasbag68
(g84
g70
NtRp202
(dp203
g73
(dp204
sg82
g78
sg75
(lp205
g68
(g89
g70
NtRp206
(dp207
g73
(dp208
g93
g94
ssg82
g202
sg75
(lp209
S'controller'
p210
asbag68
(g89
g70
NtRp211
(dp212
g73
(dp213
g100
g101
ssg82
g202
sg75
(lp214
S':'
asbag68
(g89
g70
NtRp215
(dp216
g73
(dp217
sg82
g202
sg75
(lp218
g68
(g69
g70
NtRp219
(dp220
g73
(dp221
g81
I5
ssg82
g215
sg75
(lp222
S'default'
p223
asbasbasbag68
(g84
g70
NtRp224
(dp225
g73
(dp226
sg82
g78
sg75
(lp227
g68
(g89
g70
NtRp228
(dp229
g73
(dp230
g93
g94
ssg82
g224
sg75
(lp231
S'cookies'
p232
asbag68
(g89
g70
NtRp233
(dp234
g73
(dp235
g100
g101
ssg82
g224
sg75
(lp236
S':'
asbag68
(g89
g70
NtRp237
(dp238
g73
(dp239
sg82
g224
sg75
(lp240
g68
(g69
g70
NtRp241
(dp242
g73
(dp243
g81
I5
ssg82
g237
sg75
(lp244
g68
(g77
g70
NtRp245
(dp246
g73
(dp247
g81
I4
ssg82
Nsg75
(lp248
g68
(g84
g70
NtRp249
(dp250
g73
(dp251
sg82
g245
sg75
(lp252
g68
(g89
g70
NtRp253
(dp254
g73
(dp255
g93
g94
ssg82
g249
sg75
(lp256
S'session_id_admin'
p257
asbag68
(g89
g70
NtRp258
(dp259
g73
(dp260
g100
g101
ssg82
g249
sg75
(lp261
S':'
asbag68
(g89
g70
NtRp262
(dp263
g73
(dp264
sg82
g249
sg75
(lp265
g68
(g69
g70
NtRp266
(dp267
g73
(dp268
g81
I4
ssg82
g262
sg75
(lp269
g68
(g77
g70
NtRp270
(dp271
g73
(dp272
g81
I3
ssg82
Nsg75
(lp273
g68
(g84
g70
NtRp274
(dp275
g73
(dp276
sg82
g270
sg75
(lp277
g68
(g89
g70
NtRp278
(dp279
g73
(dp280
g93
g94
ssg82
g274
sg75
(lp281
S'comment'
p282
asbag68
(g89
g70
NtRp283
(dp284
g73
(dp285
g100
g101
ssg82
g274
sg75
(lp286
S':'
asbag68
(g89
g70
NtRp287
(dp288
g73
(dp289
sg82
g274
sg75
(lp290
g68
(g69
g70
NtRp291
(dp292
g73
(dp293
g81
I3
ssg82
g287
sg75
(lp294
S''
asbasbasbag68
(g84
g70
NtRp295
(dp296
g73
(dp297
sg82
g270
sg75
(lp298
g68
(g89
g70
NtRp299
(dp300
g73
(dp301
g93
g94
ssg82
g295
sg75
(lp302
S'domain'
p303
asbag68
(g89
g70
NtRp304
(dp305
g73
(dp306
g100
g101
ssg82
g295
sg75
(lp307
S':'
asbag68
(g89
g70
NtRp308
(dp309
g73
(dp310
sg82
g295
sg75
(lp311
g68
(g69
g70
NtRp312
(dp313
g73
(dp314
g81
I3
ssg82
g308
sg75
(lp315
S''
asbasbasbag68
(g84
g70
NtRp316
(dp317
g73
(dp318
sg82
g270
sg75
(lp319
g68
(g89
g70
NtRp320
(dp321
g73
(dp322
g93
g94
ssg82
g316
sg75
(lp323
S'expires'
p324
asbag68
(g89
g70
NtRp325
(dp326
g73
(dp327
g100
g101
ssg82
g316
sg75
(lp328
S':'
asbag68
(g89
g70
NtRp329
(dp330
g73
(dp331
sg82
g316
sg75
(lp332
g68
(g69
g70
NtRp333
(dp334
g73
(dp335
g81
I3
ssg82
g329
sg75
(lp336
S''
asbasbasbag68
(g84
g70
NtRp337
(dp338
g73
(dp339
sg82
g270
sg75
(lp340
g68
(g89
g70
NtRp341
(dp342
g73
(dp343
g93
g94
ssg82
g337
sg75
(lp344
S'httponly'
p345
asbag68
(g89
g70
NtRp346
(dp347
g73
(dp348
g100
g101
ssg82
g337
sg75
(lp349
S':'
asbag68
(g89
g70
NtRp350
(dp351
g73
(dp352
sg82
g337
sg75
(lp353
g68
(g69
g70
NtRp354
(dp355
g73
(dp356
g81
I3
ssg82
g350
sg75
(lp357
S''
asbasbasbag68
(g84
g70
NtRp358
(dp359
g73
(dp360
sg82
g270
sg75
(lp361
g68
(g89
g70
NtRp362
(dp363
g73
(dp364
g93
g94
ssg82
g358
sg75
(lp365
S'max-age'
p366
asbag68
(g89
g70
NtRp367
(dp368
g73
(dp369
g100
g101
ssg82
g358
sg75
(lp370
S':'
asbag68
(g89
g70
NtRp371
(dp372
g73
(dp373
sg82
g358
sg75
(lp374
g68
(g69
g70
NtRp375
(dp376
g73
(dp377
g81
I3
ssg82
g371
sg75
(lp378
S''
asbasbasbag68
(g84
g70
NtRp379
(dp380
g73
(dp381
sg82
g270
sg75
(lp382
g68
(g89
g70
NtRp383
(dp384
g73
(dp385
g93
g94
ssg82
g379
sg75
(lp386
S'path'
p387
asbag68
(g89
g70
NtRp388
(dp389
g73
(dp390
g100
g101
ssg82
g379
sg75
(lp391
S':'
asbag68
(g89
g70
NtRp392
(dp393
g73
(dp394
sg82
g379
sg75
(lp395
g68
(g69
g70
NtRp396
(dp397
g73
(dp398
g81
I3
ssg82
g392
sg75
(lp399
S''
asbasbasbag68
(g84
g70
NtRp400
(dp401
g73
(dp402
sg82
g270
sg75
(lp403
g68
(g89
g70
NtRp404
(dp405
g73
(dp406
g93
g94
ssg82
g400
sg75
(lp407
S'secure'
p408
asbag68
(g89
g70
NtRp409
(dp410
g73
(dp411
g100
g101
ssg82
g400
sg75
(lp412
S':'
asbag68
(g89
g70
NtRp413
(dp414
g73
(dp415
sg82
g400
sg75
(lp416
g68
(g69
g70
NtRp417
(dp418
g73
(dp419
g81
I3
ssg82
g413
sg75
(lp420
S''
asbasbasbag68
(g84
g70
NtRp421
(dp422
g73
(dp423
sg82
g270
sg75
(lp424
g68
(g89
g70
NtRp425
(dp426
g73
(dp427
g93
g94
ssg82
g421
sg75
(lp428
S'version'
p429
asbag68
(g89
g70
NtRp430
(dp431
g73
(dp432
g100
g101
ssg82
g421
sg75
(lp433
S':'
asbag68
(g89
g70
NtRp434
(dp435
g73
(dp436
sg82
g421
sg75
(lp437
g68
(g69
g70
NtRp438
(dp439
g73
(dp440
g81
I3
ssg82
g434
sg75
(lp441
S''
asbasbasbasbasbasbasbag68
(g84
g70
NtRp442
(dp443
g73
(dp444
sg82
g245
sg75
(lp445
g68
(g89
g70
NtRp446
(dp447
g73
(dp448
g93
g94
ssg82
g442
sg75
(lp449
S'session_id_blabla'
p450
asbag68
(g89
g70
NtRp451
(dp452
g73
(dp453
g100
g101
ssg82
g442
sg75
(lp454
S':'
asbag68
(g89
g70
NtRp455
(dp456
g73
(dp457
sg82
g442
sg75
(lp458
g68
(g69
g70
NtRp459
(dp460
g73
(dp461
g81
I4
ssg82
g455
sg75
(lp462
g68
(g77
g70
NtRp463
(dp464
g73
(dp465
g81
I3
ssg82
Nsg75
(lp466
g68
(g84
g70
NtRp467
(dp468
g73
(dp469
sg82
g463
sg75
(lp470
g68
(g89
g70
NtRp471
(dp472
g73
(dp473
g93
g94
ssg82
g467
sg75
(lp474
g282
asbag68
(g89
g70
NtRp475
(dp476
g73
(dp477
g100
g101
ssg82
g467
sg75
(lp478
S':'
asbag68
(g89
g70
NtRp479
(dp480
g73
(dp481
sg82
g467
sg75
(lp482
g68
(g69
g70
NtRp483
(dp484
g73
(dp485
g81
I3
ssg82
g479
sg75
(lp486
S''
asbasbasbag68
(g84
g70
NtRp487
(dp488
g73
(dp489
sg82
g463
sg75
(lp490
g68
(g89
g70
NtRp491
(dp492
g73
(dp493
g93
g94
ssg82
g487
sg75
(lp494
g303
asbag68
(g89
g70
NtRp495
(dp496
g73
(dp497
g100
g101
ssg82
g487
sg75
(lp498
S':'
asbag68
(g89
g70
NtRp499
(dp500
g73
(dp501
sg82
g487
sg75
(lp502
g68
(g69
g70
NtRp503
(dp504
g73
(dp505
g81
I3
ssg82
g499
sg75
(lp506
S''
asbasbasbag68
(g84
g70
NtRp507
(dp508
g73
(dp509
sg82
g463
sg75
(lp510
g68
(g89
g70
NtRp511
(dp512
g73
(dp513
g93
g94
ssg82
g507
sg75
(lp514
g324
asbag68
(g89
g70
NtRp515
(dp516
g73
(dp517
g100
g101
ssg82
g507
sg75
(lp518
S':'
asbag68
(g89
g70
NtRp519
(dp520
g73
(dp521
sg82
g507
sg75
(lp522
g68
(g69
g70
NtRp523
(dp524
g73
(dp525
g81
I3
ssg82
g519
sg75
(lp526
S''
asbasbasbag68
(g84
g70
NtRp527
(dp528
g73
(dp529
sg82
g463
sg75
(lp530
g68
(g89
g70
NtRp531
(dp532
g73
(dp533
g93
g94
ssg82
g527
sg75
(lp534
g345
asbag68
(g89
g70
NtRp535
(dp536
g73
(dp537
g100
g101
ssg82
g527
sg75
(lp538
S':'
asbag68
(g89
g70
NtRp539
(dp540
g73
(dp541
sg82
g527
sg75
(lp542
g68
(g69
g70
NtRp543
(dp544
g73
(dp545
g81
I3
ssg82
g539
sg75
(lp546
S''
asbasbasbag68
(g84
g70
NtRp547
(dp548
g73
(dp549
sg82
g463
sg75
(lp550
g68
(g89
g70
NtRp551
(dp552
g73
(dp553
g93
g94
ssg82
g547
sg75
(lp554
g366
asbag68
(g89
g70
NtRp555
(dp556
g73
(dp557
g100
g101
ssg82
g547
sg75
(lp558
S':'
asbag68
(g89
g70
NtRp559
(dp560
g73
(dp561
sg82
g547
sg75
(lp562
g68
(g69
g70
NtRp563
(dp564
g73
(dp565
g81
I3
ssg82
g559
sg75
(lp566
S''
asbasbasbag68
(g84
g70
NtRp567
(dp568
g73
(dp569
sg82
g463
sg75
(lp570
g68
(g89
g70
NtRp571
(dp572
g73
(dp573
g93
g94
ssg82
g567
sg75
(lp574
g387
asbag68
(g89
g70
NtRp575
(dp576
g73
(dp577
g100
g101
ssg82
g567
sg75
(lp578
S':'
asbag68
(g89
g70
NtRp579
(dp580
g73
(dp581
sg82
g567
sg75
(lp582
g68
(g69
g70
NtRp583
(dp584
g73
(dp585
g81
I3
ssg82
g579
sg75
(lp586
S''
asbasbasbag68
(g84
g70
NtRp587
(dp588
g73
(dp589
sg82
g463
sg75
(lp590
g68
(g89
g70
NtRp591
(dp592
g73
(dp593
g93
g94
ssg82
g587
sg75
(lp594
g408
asbag68
(g89
g70
NtRp595
(dp596
g73
(dp597
g100
g101
ssg82
g587
sg75
(lp598
S':'
asbag68
(g89
g70
NtRp599
(dp600
g73
(dp601
sg82
g587
sg75
(lp602
g68
(g69
g70
NtRp603
(dp604
g73
(dp605
g81
I3
ssg82
g599
sg75
(lp606
S''
asbasbasbag68
(g84
g70
NtRp607
(dp608
g73
(dp609
sg82
g463
sg75
(lp610
g68
(g89
g70
NtRp611
(dp612
g73
(dp613
g93
g94
ssg82
g607
sg75
(lp614
g429
asbag68
(g89
g70
NtRp615
(dp616
g73
(dp617
g100
g101
ssg82
g607
sg75
(lp618
S':'
asbag68
(g89
g70
NtRp619
(dp620
g73
(dp621
sg82
g607
sg75
(lp622
g68
(g69
g70
NtRp623
(dp624
g73
(dp625
g81
I3
ssg82
g619
sg75
(lp626
S''
asbasbasbasbasbasbasbag68
(g84
g70
NtRp627
(dp628
g73
(dp629
sg82
g245
sg75
(lp630
g68
(g89
g70
NtRp631
(dp632
g73
(dp633
g93
g94
ssg82
g627
sg75
(lp634
S'session_id_globaleaks'
p635
asbag68
(g89
g70
NtRp636
(dp637
g73
(dp638
g100
g101
ssg82
g627
sg75
(lp639
S':'
asbag68
(g89
g70
NtRp640
(dp641
g73
(dp642
sg82
g627
sg75
(lp643
g68
(g69
g70
NtRp644
(dp645
g73
(dp646
g81
I4
ssg82
g640
sg75
(lp647
g68
(g77
g70
NtRp648
(dp649
g73
(dp650
g81
I3
ssg82
Nsg75
(lp651
g68
(g84
g70
NtRp652
(dp653
g73
(dp654
sg82
g648
sg75
(lp655
g68
(g89
g70
NtRp656
(dp657
g73
(dp658
g93
g94
ssg82
g652
sg75
(lp659
g282
asbag68
(g89
g70
NtRp660
(dp661
g73
(dp662
g100
g101
ssg82
g652
sg75
(lp663
S':'
asbag68
(g89
g70
NtRp664
(dp665
g73
(dp666
sg82
g652
sg75
(lp667
g68
(g69
g70
NtRp668
(dp669
g73
(dp670
g81
I3
ssg82
g664
sg75
(lp671
S''
asbasbasbag68
(g84
g70
NtRp672
(dp673
g73
(dp674
sg82
g648
sg75
(lp675
g68
(g89
g70
NtRp676
(dp677
g73
(dp678
g93
g94
ssg82
g672
sg75
(lp679
g303
asbag68
(g89
g70
NtRp680
(dp681
g73
(dp682
g100
g101
ssg82
g672
sg75
(lp683
S':'
asbag68
(g89
g70
NtRp684
(dp685
g73
(dp686
sg82
g672
sg75
(lp687
g68
(g69
g70
NtRp688
(dp689
g73
(dp690
g81
I3
ssg82
g684
sg75
(lp691
S''
asbasbasbag68
(g84
g70
NtRp692
(dp693
g73
(dp694
sg82
g648
sg75
(lp695
g68
(g89
g70
NtRp696
(dp697
g73
(dp698
g93
g94
ssg82
g692
sg75
(lp699
g324
asbag68
(g89
g70
NtRp700
(dp701
g73
(dp702
g100
g101
ssg82
g692
sg75
(lp703
S':'
asbag68
(g89
g70
NtRp704
(dp705
g73
(dp706
sg82
g692
sg75
(lp707
g68
(g69
g70
NtRp708
(dp709
g73
(dp710
g81
I3
ssg82
g704
sg75
(lp711
S''
asbasbasbag68
(g84
g70
NtRp712
(dp713
g73
(dp714
sg82
g648
sg75
(lp715
g68
(g89
g70
NtRp716
(dp717
g73
(dp718
g93
g94
ssg82
g712
sg75
(lp719
g345
asbag68
(g89
g70
NtRp720
(dp721
g73
(dp722
g100
g101
ssg82
g712
sg75
(lp723
S':'
asbag68
(g89
g70
NtRp724
(dp725
g73
(dp726
sg82
g712
sg75
(lp727
g68
(g69
g70
NtRp728
(dp729
g73
(dp730
g81
I3
ssg82
g724
sg75
(lp731
S''
asbasbasbag68
(g84
g70
NtRp732
(dp733
g73
(dp734
sg82
g648
sg75
(lp735
g68
(g89
g70
NtRp736
(dp737
g73
(dp738
g93
g94
ssg82
g732
sg75
(lp739
g366
asbag68
(g89
g70
NtRp740
(dp741
g73
(dp742
g100
g101
ssg82
g732
sg75
(lp743
S':'
asbag68
(g89
g70
NtRp744
(dp745
g73
(dp746
sg82
g732
sg75
(lp747
g68
(g69
g70
NtRp748
(dp749
g73
(dp750
g81
I3
ssg82
g744
sg75
(lp751
S''
asbasbasbag68
(g84
g70
NtRp752
(dp753
g73
(dp754
sg82
g648
sg75
(lp755
g68
(g89
g70
NtRp756
(dp757
g73
(dp758
g93
g94
ssg82
g752
sg75
(lp759
g387
asbag68
(g89
g70
NtRp760
(dp761
g73
(dp762
g100
g101
ssg82
g752
sg75
(lp763
S':'
asbag68
(g89
g70
NtRp764
(dp765
g73
(dp766
sg82
g752
sg75
(lp767
g68
(g69
g70
NtRp768
(dp769
g73
(dp770
g81
I3
ssg82
g764
sg75
(lp771
S''
asbasbasbag68
(g84
g70
NtRp772
(dp773
g73
(dp774
sg82
g648
sg75
(lp775
g68
(g89
g70
NtRp776
(dp777
g73
(dp778
g93
g94
ssg82
g772
sg75
(lp779
g408
asbag68
(g89
g70
NtRp780
(dp781
g73
(dp782
g100
g101
ssg82
g772
sg75
(lp783
S':'
asbag68
(g89
g70
NtRp784
(dp785
g73
(dp786
sg82
g772
sg75
(lp787
g68
(g69
g70
NtRp788
(dp789
g73
(dp790
g81
I3
ssg82
g784
sg75
(lp791
S''
asbasbasbag68
(g84
g70
NtRp792
(dp793
g73
(dp794
sg82
g648
sg75
(lp795
g68
(g89
g70
NtRp796
(dp797
g73
(dp798
g93
g94
ssg82
g792
sg75
(lp799
g429
asbag68
(g89
g70
NtRp800
(dp801
g73
(dp802
g100
g101
ssg82
g792
sg75
(lp803
S':'
asbag68
(g89
g70
NtRp804
(dp805
g73
(dp806
sg82
g792
sg75
(lp807
g68
(g69
g70
NtRp808
(dp809
g73
(dp810
g81
I3
ssg82
g804
sg75
(lp811
S''
asbasbasbasbasbasbasbag68
(g84
g70
NtRp812
(dp813
g73
(dp814
sg82
g245
sg75
(lp815
g68
(g89
g70
NtRp816
(dp817
g73
(dp818
g93
g94
ssg82
g812
sg75
(lp819
S'session_id_init'
p820
asbag68
(g89
g70
NtRp821
(dp822
g73
(dp823
g100
g101
ssg82
g812
sg75
(lp824
S':'
asbag68
(g89
g70
NtRp825
(dp826
g73
(dp827
sg82
g812
sg75
(lp828
g68
(g69
g70
NtRp829
(dp830
g73
(dp831
g81
I4
ssg82
g825
sg75
(lp832
g68
(g77
g70
NtRp833
(dp834
g73
(dp835
g81
I3
ssg82
Nsg75
(lp836
g68
(g84
g70
NtRp837
(dp838
g73
(dp839
sg82
g833
sg75
(lp840
g68
(g89
g70
NtRp841
(dp842
g73
(dp843
g93
g94
ssg82
g837
sg75
(lp844
g282
asbag68
(g89
g70
NtRp845
(dp846
g73
(dp847
g100
g101
ssg82
g837
sg75
(lp848
S':'
asbag68
(g89
g70
NtRp849
(dp850
g73
(dp851
sg82
g837
sg75
(lp852
g68
(g69
g70
NtRp853
(dp854
g73
(dp855
g81
I3
ssg82
g849
sg75
(lp856
S''
asbasbasbag68
(g84
g70
NtRp857
(dp858
g73
(dp859
sg82
g833
sg75
(lp860
g68
(g89
g70
NtRp861
(dp862
g73
(dp863
g93
g94
ssg82
g857
sg75
(lp864
g303
asbag68
(g89
g70
NtRp865
(dp866
g73
(dp867
g100
g101
ssg82
g857
sg75
(lp868
S':'
asbag68
(g89
g70
NtRp869
(dp870
g73
(dp871
sg82
g857
sg75
(lp872
g68
(g69
g70
NtRp873
(dp874
g73
(dp875
g81
I3
ssg82
g869
sg75
(lp876
S''
asbasbasbag68
(g84
g70
NtRp877
(dp878
g73
(dp879
sg82
g833
sg75
(lp880
g68
(g89
g70
NtRp881
(dp882
g73
(dp883
g93
g94
ssg82
g877
sg75
(lp884
g324
asbag68
(g89
g70
NtRp885
(dp886
g73
(dp887
g100
g101
ssg82
g877
sg75
(lp888
S':'
asbag68
(g89
g70
NtRp889
(dp890
g73
(dp891
sg82
g877
sg75
(lp892
g68
(g69
g70
NtRp893
(dp894
g73
(dp895
g81
I3
ssg82
g889
sg75
(lp896
S''
asbasbasbag68
(g84
g70
NtRp897
(dp898
g73
(dp899
sg82
g833
sg75
(lp900
g68
(g89
g70
NtRp901
(dp902
g73
(dp903
g93
g94
ssg82
g897
sg75
(lp904
g345
asbag68
(g89
g70
NtRp905
(dp906
g73
(dp907
g100
g101
ssg82
g897
sg75
(lp908
S':'
asbag68
(g89
g70
NtRp909
(dp910
g73
(dp911
sg82
g897
sg75
(lp912
g68
(g69
g70
NtRp913
(dp914
g73
(dp915
g81
I3
ssg82
g909
sg75
(lp916
S''
asbasbasbag68
(g84
g70
NtRp917
(dp918
g73
(dp919
sg82
g833
sg75
(lp920
g68
(g89
g70
NtRp921
(dp922
g73
(dp923
g93
g94
ssg82
g917
sg75
(lp924
g366
asbag68
(g89
g70
NtRp925
(dp926
g73
(dp927
g100
g101
ssg82
g917
sg75
(lp928
S':'
asbag68
(g89
g70
NtRp929
(dp930
g73
(dp931
sg82
g917
sg75
(lp932
g68
(g69
g70
NtRp933
(dp934
g73
(dp935
g81
I3
ssg82
g929
sg75
(lp936
S''
asbasbasbag68
(g84
g70
NtRp937
(dp938
g73
(dp939
sg82
g833
sg75
(lp940
g68
(g89
g70
NtRp941
(dp942
g73
(dp943
g93
g94
ssg82
g937
sg75
(lp944
g387
asbag68
(g89
g70
NtRp945
(dp946
g73
(dp947
g100
g101
ssg82
g937
sg75
(lp948
S':'
asbag68
(g89
g70
NtRp949
(dp950
g73
(dp951
sg82
g937
sg75
(lp952
g68
(g69
g70
NtRp953
(dp954
g73
(dp955
g81
I3
ssg82
g949
sg75
(lp956
S''
asbasbasbag68
(g84
g70
NtRp957
(dp958
g73
(dp959
sg82
g833
sg75
(lp960
g68
(g89
g70
NtRp961
(dp962
g73
(dp963
g93
g94
ssg82
g957
sg75
(lp964
g408
asbag68
(g89
g70
NtRp965
(dp966
g73
(dp967
g100
g101
ssg82
g957
sg75
(lp968
S':'
asbag68
(g89
g70
NtRp969
(dp970
g73
(dp971
sg82
g957
sg75
(lp972
g68
(g69
g70
NtRp973
(dp974
g73
(dp975
g81
I3
ssg82
g969
sg75
(lp976
S''
asbasbasbag68
(g84
g70
NtRp977
(dp978
g73
(dp979
sg82
g833
sg75
(lp980
g68
(g89
g70
NtRp981
(dp982
g73
(dp983
g93
g94
ssg82
g977
sg75
(lp984
g429
asbag68
(g89
g70
NtRp985
(dp986
g73
(dp987
g100
g101
ssg82
g977
sg75
(lp988
S':'
asbag68
(g89
g70
NtRp989
(dp990
g73
(dp991
sg82
g977
sg75
(lp992
g68
(g69
g70
NtRp993
(dp994
g73
(dp995
g81
I3
ssg82
g989
sg75
(lp996
S''
asbasbasbasbasbasbasbasbasbasbasbag68
(g84
g70
NtRp997
(dp998
g73
(dp999
sg82
g78
sg75
(lp1000
g68
(g89
g70
NtRp1001
(dp1002
g73
(dp1003
g93
g94
ssg82
g997
sg75
(lp1004
S'env'
p1005
asbag68
(g89
g70
NtRp1006
(dp1007
g73
(dp1008
g100
g101
ssg82
g997
sg75
(lp1009
S':'
asbag68
(g89
g70
NtRp1010
(dp1011
g73
(dp1012
sg82
g997
sg75
(lp1013
g68
(g69
g70
NtRp1014
(dp1015
g73
(dp1016
g81
I5
ssg82
g1010
sg75
(lp1017
g68
(g77
g70
NtRp1018
(dp1019
g73
(dp1020
g81
I4
ssg82
Nsg75
(lp1021
g68
(g84
g70
NtRp1022
(dp1023
g73
(dp1024
sg82
g1018
sg75
(lp1025
g68
(g89
g70
NtRp1026
(dp1027
g73
(dp1028
g93
g94
ssg82
g1022
sg75
(lp1029
S'app_folders'
p1030
asbag68
(g89
g70
NtRp1031
(dp1032
g73
(dp1033
g100
g101
ssg82
g1022
sg75
(lp1034
S':'
asbag68
(g89
g70
NtRp1035
(dp1036
g73
(dp1037
sg82
g1022
sg75
(lp1038
g68
(g69
g70
NtRp1039
(dp1040
g73
(dp1041
g81
I4
ssg82
g1035
sg75
(lp1042
S"set(['/Users/hellais/Documents/code/mygit/globaleaks/webapp/applications/init/'])"
p1043
asbasbasbag68
(g84
g70
NtRp1044
(dp1045
g73
(dp1046
sg82
g1018
sg75
(lp1047
g68
(g89
g70
NtRp1048
(dp1049
g73
(dp1050
g93
g94
ssg82
g1044
sg75
(lp1051
S'applications_parent'
p1052
asbag68
(g89
g70
NtRp1053
(dp1054
g73
(dp1055
g100
g101
ssg82
g1044
sg75
(lp1056
S':'
asbag68
(g89
g70
NtRp1057
(dp1058
g73
(dp1059
sg82
g1044
sg75
(lp1060
g68
(g69
g70
NtRp1061
(dp1062
g73
(dp1063
g81
I4
ssg82
g1057
sg75
(lp1064
S'/Users/hellais/Documents/code/mygit/globaleaks/webapp'
p1065
asbasbasbag68
(g84
g70
NtRp1066
(dp1067
g73
(dp1068
sg82
g1018
sg75
(lp1069
g68
(g89
g70
NtRp1070
(dp1071
g73
(dp1072
g93
g94
ssg82
g1066
sg75
(lp1073
S'cmd_args'
p1074
asbag68
(g89
g70
NtRp1075
(dp1076
g73
(dp1077
g100
g101
ssg82
g1066
sg75
(lp1078
S':'
asbag68
(g89
g70
NtRp1079
(dp1080
g73
(dp1081
sg82
g1066
sg75
(lp1082
g68
(g69
g70
NtRp1083
(dp1084
g73
(dp1085
g81
I4
ssg82
g1079
sg75
(lp1086
g68
(g77
g70
NtRp1087
(dp1088
g73
(dp1089
g81
I3
ssg82
Nsg75
(lp1090
sbasbasbasbag68
(g84
g70
NtRp1091
(dp1092
g73
(dp1093
sg82
g1018
sg75
(lp1094
g68
(g89
g70
NtRp1095
(dp1096
g73
(dp1097
g93
g94
ssg82
g1091
sg75
(lp1098
S'cmd_options'
p1099
asbag68
(g89
g70
NtRp1100
(dp1101
g73
(dp1102
g100
g101
ssg82
g1091
sg75
(lp1103
S':'
asbag68
(g89
g70
NtRp1104
(dp1105
g73
(dp1106
sg82
g1091
sg75
(lp1107
g68
(g69
g70
NtRp1108
(dp1109
g73
(dp1110
g81
I4
ssg82
g1104
sg75
(lp1111
S"<Values at 0x1018ba320: {'verbose': False, 'ip': '127.0.0.1', 'shutdown_timeout': 5, 'taskbar': False, 'port': 8000, 'maxthreads': None, 'softcron': False, 'server_name': 'Jeanne.local', 'bpython': False, 'nogui': False, 'nocron': False, 'extcron': False, 'debuglevel': 30, 'test': None, 'folder': '/Users/hellais/Documents/code/mygit/globaleaks/webapp', 'config': '', 'import_models': False, 'winservice': '', 'shell': None, 'run': '', 'log_filename': 'httpserver.log', 'args': [''], 'profiler_filename': None, 'ssl_private_key': '', 'password': '<ask>', 'request_queue_size': 5, 'ssl_certificate': '', 'cronjob': False, 'plain': False, 'quiet': False, 'interfaces': None, 'minthreads': None, 'timeout': 10, 'numthreads': None, 'nobanner': False, 'pid_filename': 'httpserver.pid'}>"
p1112
asbasbasbag68
(g84
g70
NtRp1113
(dp1114
g73
(dp1115
sg82
g1018
sg75
(lp1116
g68
(g89
g70
NtRp1117
(dp1118
g73
(dp1119
g93
g94
ssg82
g1113
sg75
(lp1120
S'db_sessions'
p1121
asbag68
(g89
g70
NtRp1122
(dp1123
g73
(dp1124
g100
g101
ssg82
g1113
sg75
(lp1125
S':'
asbag68
(g89
g70
NtRp1126
(dp1127
g73
(dp1128
sg82
g1113
sg75
(lp1129
g68
(g69
g70
NtRp1130
(dp1131
g73
(dp1132
g81
I4
ssg82
g1126
sg75
(lp1133
S'set([])'
p1134
asbasbasbag68
(g84
g70
NtRp1135
(dp1136
g73
(dp1137
sg82
g1018
sg75
(lp1138
g68
(g89
g70
NtRp1139
(dp1140
g73
(dp1141
g93
g94
ssg82
g1135
sg75
(lp1142
S'debugging'
p1143
asbag68
(g89
g70
NtRp1144
(dp1145
g73
(dp1146
g100
g101
ssg82
g1135
sg75
(lp1147
S':'
asbag68
(g89
g70
NtRp1148
(dp1149
g73
(dp1150
sg82
g1135
sg75
(lp1151
g68
(g69
g70
NtRp1152
(dp1153
g73
(dp1154
g81
I4
ssg82
g1148
sg75
(lp1155
g111
asbasbasbag68
(g84
g70
NtRp1156
(dp1157
g73
(dp1158
sg82
g1018
sg75
(lp1159
g68
(g89
g70
NtRp1160
(dp1161
g73
(dp1162
g93
g94
ssg82
g1156
sg75
(lp1163
S'gluon_parent'
p1164
asbag68
(g89
g70
NtRp1165
(dp1166
g73
(dp1167
g100
g101
ssg82
g1156
sg75
(lp1168
S':'
asbag68
(g89
g70
NtRp1169
(dp1170
g73
(dp1171
sg82
g1156
sg75
(lp1172
g68
(g69
g70
NtRp1173
(dp1174
g73
(dp1175
g81
I4
ssg82
g1169
sg75
(lp1176
S'/Users/hellais/Documents/code/mygit/globaleaks/webapp'
p1177
asbasbasbag68
(g84
g70
NtRp1178
(dp1179
g73
(dp1180
sg82
g1018
sg75
(lp1181
g68
(g89
g70
NtRp1182
(dp1183
g73
(dp1184
g93
g94
ssg82
g1178
sg75
(lp1185
S'http_accept'
p1186
asbag68
(g89
g70
NtRp1187
(dp1188
g73
(dp1189
g100
g101
ssg82
g1178
sg75
(lp1190
S':'
asbag68
(g89
g70
NtRp1191
(dp1192
g73
(dp1193
sg82
g1178
sg75
(lp1194
g68
(g69
g70
NtRp1195
(dp1196
g73
(dp1197
g81
I4
ssg82
g1191
sg75
(lp1198
S'text/html,application/xhtml+xml,application/xml;q=0.9,*/*;q=0.8'
p1199
asbasbasbag68
(g84
g70
NtRp1200
(dp1201
g73
(dp1202
sg82
g1018
sg75
(lp1203
g68
(g89
g70
NtRp1204
(dp1205
g73
(dp1206
g93
g94
ssg82
g1200
sg75
(lp1207
S'http_accept_charset'
p1208
asbag68
(g89
g70
NtRp1209
(dp1210
g73
(dp1211
g100
g101
ssg82
g1200
sg75
(lp1212
S':'
asbag68
(g89
g70
NtRp1213
(dp1214
g73
(dp1215
sg82
g1200
sg75
(lp1216
g68
(g69
g70
NtRp1217
(dp1218
g73
(dp1219
g81
I4
ssg82
g1213
sg75
(lp1220
S'ISO-8859-1,utf-8;q=0.7,*;q=0.7'
p1221
asbasbasbag68
(g84
g70
NtRp1222
(dp1223
g73
(dp1224
sg82
g1018
sg75
(lp1225
g68
(g89
g70
NtRp1226
(dp1227
g73
(dp1228
g93
g94
ssg82
g1222
sg75
(lp1229
S'http_accept_encoding'
p1230
asbag68
(g89
g70
NtRp1231
(dp1232
g73
(dp1233
g100
g101
ssg82
g1222
sg75
(lp1234
S':'
asbag68
(g89
g70
NtRp1235
(dp1236
g73
(dp1237
sg82
g1222
sg75
(lp1238
g68
(g69
g70
NtRp1239
(dp1240
g73
(dp1241
g81
I4
ssg82
g1235
sg75
(lp1242
S'gzip, deflate'
p1243
asbasbasbag68
(g84
g70
NtRp1244
(dp1245
g73
(dp1246
sg82
g1018
sg75
(lp1247
g68
(g89
g70
NtRp1248
(dp1249
g73
(dp1250
g93
g94
ssg82
g1244
sg75
(lp1251
S'http_accept_language'
p1252
asbag68
(g89
g70
NtRp1253
(dp1254
g73
(dp1255
g100
g101
ssg82
g1244
sg75
(lp1256
S':'
asbag68
(g89
g70
NtRp1257
(dp1258
g73
(dp1259
sg82
g1244
sg75
(lp1260
g68
(g69
g70
NtRp1261
(dp1262
g73
(dp1263
g81
I4
ssg82
g1257
sg75
(lp1264
S'en-us,en;q=0.5'
p1265
asbasbasbag68
(g84
g70
NtRp1266
(dp1267
g73
(dp1268
sg82
g1018
sg75
(lp1269
g68
(g89
g70
NtRp1270
(dp1271
g73
(dp1272
g93
g94
ssg82
g1266
sg75
(lp1273
S'http_connection'
p1274
asbag68
(g89
g70
NtRp1275
(dp1276
g73
(dp1277
g100
g101
ssg82
g1266
sg75
(lp1278
S':'
asbag68
(g89
g70
NtRp1279
(dp1280
g73
(dp1281
sg82
g1266
sg75
(lp1282
g68
(g69
g70
NtRp1283
(dp1284
g73
(dp1285
g81
I4
ssg82
g1279
sg75
(lp1286
S'keep-alive'
p1287
asbasbasbag68
(g84
g70
NtRp1288
(dp1289
g73
(dp1290
sg82
g1018
sg75
(lp1291
g68
(g89
g70
NtRp1292
(dp1293
g73
(dp1294
g93
g94
ssg82
g1288
sg75
(lp1295
S'http_cookie'
p1296
asbag68
(g89
g70
NtRp1297
(dp1298
g73
(dp1299
g100
g101
ssg82
g1288
sg75
(lp1300
S':'
asbag68
(g89
g70
NtRp1301
(dp1302
g73
(dp1303
sg82
g1288
sg75
(lp1304
g68
(g69
g70
NtRp1305
(dp1306
g73
(dp1307
g81
I4
ssg82
g1301
sg75
(lp1308
S'session_id_admin=127.0.0.1-67122ce4-50b2-4acf-b28e-7a14feeff4d9; session_id_globaleaks=127.0.0.1-c6d5b9b3-1ec7-41c1-8d72-04c21b7a6b11; session_id_blabla=127.0.0.1-c445384e-a3ea-4484-8fe2-52f3295bbb7c; session_id_init=127.0.0.1-a8551263-bc3c-430c-abb2-8711fac671c1'
p1309
asbasbasbag68
(g84
g70
NtRp1310
(dp1311
g73
(dp1312
sg82
g1018
sg75
(lp1313
g68
(g89
g70
NtRp1314
(dp1315
g73
(dp1316
g93
g94
ssg82
g1310
sg75
(lp1317
S'http_host'
p1318
asbag68
(g89
g70
NtRp1319
(dp1320
g73
(dp1321
g100
g101
ssg82
g1310
sg75
(lp1322
S':'
asbag68
(g89
g70
NtRp1323
(dp1324
g73
(dp1325
sg82
g1310
sg75
(lp1326
g68
(g69
g70
NtRp1327
(dp1328
g73
(dp1329
g81
I4
ssg82
g1323
sg75
(lp1330
S'127.0.0.1:8000'
p1331
asbasbasbag68
(g84
g70
NtRp1332
(dp1333
g73
(dp1334
sg82
g1018
sg75
(lp1335
g68
(g89
g70
NtRp1336
(dp1337
g73
(dp1338
g93
g94
ssg82
g1332
sg75
(lp1339
S'http_user_agent'
p1340
asbag68
(g89
g70
NtRp1341
(dp1342
g73
(dp1343
g100
g101
ssg82
g1332
sg75
(lp1344
S':'
asbag68
(g89
g70
NtRp1345
(dp1346
g73
(dp1347
sg82
g1332
sg75
(lp1348
g68
(g69
g70
NtRp1349
(dp1350
g73
(dp1351
g81
I4
ssg82
g1345
sg75
(lp1352
S'Mozilla/5.0 (Macintosh; Intel Mac OS X 10.6; rv:5.0.1) Gecko/20100101 Firefox/5.0.1'
p1353
asbasbasbag68
(g84
g70
NtRp1354
(dp1355
g73
(dp1356
sg82
g1018
sg75
(lp1357
g68
(g89
g70
NtRp1358
(dp1359
g73
(dp1360
g93
g94
ssg82
g1354
sg75
(lp1361
S'is_jython'
p1362
asbag68
(g89
g70
NtRp1363
(dp1364
g73
(dp1365
g100
g101
ssg82
g1354
sg75
(lp1366
S':'
asbag68
(g89
g70
NtRp1367
(dp1368
g73
(dp1369
sg82
g1354
sg75
(lp1370
g68
(g69
g70
NtRp1371
(dp1372
g73
(dp1373
g81
I4
ssg82
g1367
sg75
(lp1374
g111
asbasbasbag68
(g84
g70
NtRp1375
(dp1376
g73
(dp1377
sg82
g1018
sg75
(lp1378
g68
(g89
g70
NtRp1379
(dp1380
g73
(dp1381
g93
g94
ssg82
g1375
sg75
(lp1382
S'path_info'
p1383
asbag68
(g89
g70
NtRp1384
(dp1385
g73
(dp1386
g100
g101
ssg82
g1375
sg75
(lp1387
S':'
asbag68
(g89
g70
NtRp1388
(dp1389
g73
(dp1390
sg82
g1375
sg75
(lp1391
g68
(g69
g70
NtRp1392
(dp1393
g73
(dp1394
g81
I4
ssg82
g1388
sg75
(lp1395
S'/'
asbasbasbag68
(g84
g70
NtRp1396
(dp1397
g73
(dp1398
sg82
g1018
sg75
(lp1399
g68
(g89
g70
NtRp1400
(dp1401
g73
(dp1402
g93
g94
ssg82
g1396
sg75
(lp1403
S'query_string'
p1404
asbag68
(g89
g70
NtRp1405
(dp1406
g73
(dp1407
g100
g101
ssg82
g1396
sg75
(lp1408
S':'
asbag68
(g89
g70
NtRp1409
(dp1410
g73
(dp1411
sg82
g1396
sg75
(lp1412
g68
(g69
g70
NtRp1413
(dp1414
g73
(dp1415
g81
I4
ssg82
g1409
sg75
(lp1416
S''
asbasbasbag68
(g84
g70
NtRp1417
(dp1418
g73
(dp1419
sg82
g1018
sg75
(lp1420
g68
(g89
g70
NtRp1421
(dp1422
g73
(dp1423
g93
g94
ssg82
g1417
sg75
(lp1424
S'remote_addr'
p1425
asbag68
(g89
g70
NtRp1426
(dp1427
g73
(dp1428
g100
g101
ssg82
g1417
sg75
(lp1429
S':'
asbag68
(g89
g70
NtRp1430
(dp1431
g73
(dp1432
sg82
g1417
sg75
(lp1433
g68
(g69
g70
NtRp1434
(dp1435
g73
(dp1436
g81
I4
ssg82
g1430
sg75
(lp1437
g201
asbasbasbag68
(g84
g70
NtRp1438
(dp1439
g73
(dp1440
sg82
g1018
sg75
(lp1441
g68
(g89
g70
NtRp1442
(dp1443
g73
(dp1444
g93
g94
ssg82
g1438
sg75
(lp1445
S'remote_port'
p1446
asbag68
(g89
g70
NtRp1447
(dp1448
g73
(dp1449
g100
g101
ssg82
g1438
sg75
(lp1450
S':'
asbag68
(g89
g70
NtRp1451
(dp1452
g73
(dp1453
sg82
g1438
sg75
(lp1454
g68
(g69
g70
NtRp1455
(dp1456
g73
(dp1457
g81
I4
ssg82
g1451
sg75
(lp1458
S'58325'
p1459
asbasbasbag68
(g84
g70
NtRp1460
(dp1461
g73
(dp1462
sg82
g1018
sg75
(lp1463
g68
(g89
g70
NtRp1464
(dp1465
g73
(dp1466
g93
g94
ssg82
g1460
sg75
(lp1467
S'request_method'
p1468
asbag68
(g89
g70
NtRp1469
(dp1470
g73
(dp1471
g100
g101
ssg82
g1460
sg75
(lp1472
S':'
asbag68
(g89
g70
NtRp1473
(dp1474
g73
(dp1475
sg82
g1460
sg75
(lp1476
g68
(g69
g70
NtRp1477
(dp1478
g73
(dp1479
g81
I4
ssg82
g1473
sg75
(lp1480
S'GET'
p1481
asbasbasbag68
(g84
g70
NtRp1482
(dp1483
g73
(dp1484
sg82
g1018
sg75
(lp1485
g68
(g89
g70
NtRp1486
(dp1487
g73
(dp1488
g93
g94
ssg82
g1482
sg75
(lp1489
S'script_name'
p1490
asbag68
(g89
g70
NtRp1491
(dp1492
g73
(dp1493
g100
g101
ssg82
g1482
sg75
(lp1494
S':'
asbag68
(g89
g70
NtRp1495
(dp1496
g73
(dp1497
sg82
g1482
sg75
(lp1498
g68
(g69
g70
NtRp1499
(dp1500
g73
(dp1501
g81
I4
ssg82
g1495
sg75
(lp1502
S''
asbasbasbag68
(g84
g70
NtRp1503
(dp1504
g73
(dp1505
sg82
g1018
sg75
(lp1506
g68
(g89
g70
NtRp1507
(dp1508
g73
(dp1509
g93
g94
ssg82
g1503
sg75
(lp1510
S'server_name'
p1511
asbag68
(g89
g70
NtRp1512
(dp1513
g73
(dp1514
g100
g101
ssg82
g1503
sg75
(lp1515
S':'
asbag68
(g89
g70
NtRp1516
(dp1517
g73
(dp1518
sg82
g1503
sg75
(lp1519
g68
(g69
g70
NtRp1520
(dp1521
g73
(dp1522
g81
I4
ssg82
g1516
sg75
(lp1523
S'Jeanne.local'
p1524
asbasbasbag68
(g84
g70
NtRp1525
(dp1526
g73
(dp1527
sg82
g1018
sg75
(lp1528
g68
(g89
g70
NtRp1529
(dp1530
g73
(dp1531
g93
g94
ssg82
g1525
sg75
(lp1532
S'server_port'
p1533
asbag68
(g89
g70
NtRp1534
(dp1535
g73
(dp1536
g100
g101
ssg82
g1525
sg75
(lp1537
S':'
asbag68
(g89
g70
NtRp1538
(dp1539
g73
(dp1540
sg82
g1525
sg75
(lp1541
g68
(g69
g70
NtRp1542
(dp1543
g73
(dp1544
g81
I4
ssg82
g1538
sg75
(lp1545
S'8000'
p1546
asbasbasbag68
(g84
g70
NtRp1547
(dp1548
g73
(dp1549
sg82
g1018
sg75
(lp1550
g68
(g89
g70
NtRp1551
(dp1552
g73
(dp1553
g93
g94
ssg82
g1547
sg75
(lp1554
S'server_protocol'
p1555
asbag68
(g89
g70
NtRp1556
(dp1557
g73
(dp1558
g100
g101
ssg82
g1547
sg75
(lp1559
S':'
asbag68
(g89
g70
NtRp1560
(dp1561
g73
(dp1562
sg82
g1547
sg75
(lp1563
g68
(g69
g70
NtRp1564
(dp1565
g73
(dp1566
g81
I4
ssg82
g1560
sg75
(lp1567
S'HTTP/1.1'
p1568
asbasbasbag68
(g84
g70
NtRp1569
(dp1570
g73
(dp1571
sg82
g1018
sg75
(lp1572
g68
(g89
g70
NtRp1573
(dp1574
g73
(dp1575
g93
g94
ssg82
g1569
sg75
(lp1576
S'server_software'
p1577
asbag68
(g89
g70
NtRp1578
(dp1579
g73
(dp1580
g100
g101
ssg82
g1569
sg75
(lp1581
S':'
asbag68
(g89
g70
NtRp1582
(dp1583
g73
(dp1584
sg82
g1569
sg75
(lp1585
g68
(g69
g70
NtRp1586
(dp1587
g73
(dp1588
g81
I4
ssg82
g1582
sg75
(lp1589
S'Rocket 1.2.2'
p1590
asbasbasbag68
(g84
g70
NtRp1591
(dp1592
g73
(dp1593
sg82
g1018
sg75
(lp1594
g68
(g89
g70
NtRp1595
(dp1596
g73
(dp1597
g93
g94
ssg82
g1591
sg75
(lp1598
S'web2py_crontype'
p1599
asbag68
(g89
g70
NtRp1600
(dp1601
g73
(dp1602
g100
g101
ssg82
g1591
sg75
(lp1603
S':'
asbag68
(g89
g70
NtRp1604
(dp1605
g73
(dp1606
sg82
g1591
sg75
(lp1607
g68
(g69
g70
NtRp1608
(dp1609
g73
(dp1610
g81
I4
ssg82
g1604
sg75
(lp1611
S'hard'
p1612
asbasbasbag68
(g84
g70
NtRp1613
(dp1614
g73
(dp1615
sg82
g1018
sg75
(lp1616
g68
(g89
g70
NtRp1617
(dp1618
g73
(dp1619
g93
g94
ssg82
g1613
sg75
(lp1620
S'web2py_path'
p1621
asbag68
(g89
g70
NtRp1622
(dp1623
g73
(dp1624
g100
g101
ssg82
g1613
sg75
(lp1625
S':'
asbag68
(g89
g70
NtRp1626
(dp1627
g73
(dp1628
sg82
g1613
sg75
(lp1629
g68
(g69
g70
NtRp1630
(dp1631
g73
(dp1632
g81
I4
ssg82
g1626
sg75
(lp1633
g1065
asbasbasbag68
(g84
g70
NtRp1634
(dp1635
g73
(dp1636
sg82
g1018
sg75
(lp1637
g68
(g89
g70
NtRp1638
(dp1639
g73
(dp1640
g93
g94
ssg82
g1634
sg75
(lp1641
S'web2py_version'
p1642
asbag68
(g89
g70
NtRp1643
(dp1644
g73
(dp1645
g100
g101
ssg82
g1634
sg75
(lp1646
S':'
asbag68
(g89
g70
NtRp1647
(dp1648
g73
(dp1649
sg82
g1634
sg75
(lp1650
g68
(g69
g70
NtRp1651
(dp1652
g73
(dp1653
g81
I4
ssg82
g1647
sg75
(lp1654
S'Version 1.98.2 (2011-08-04 00:47:09)\n'
p1655
asbasbasbag68
(g84
g70
NtRp1656
(dp1657
g73
(dp1658
sg82
g1018
sg75
(lp1659
g68
(g89
g70
NtRp1660
(dp1661
g73
(dp1662
g93
g94
ssg82
g1656
sg75
(lp1663
S'wsgi_errors'
p1664
asbag68
(g89
g70
NtRp1665
(dp1666
g73
(dp1667
g100
g101
ssg82
g1656
sg75
(lp1668
S':'
asbag68
(g89
g70
NtRp1669
(dp1670
g73
(dp1671
sg82
g1656
sg75
(lp1672
g68
(g69
g70
NtRp1673
(dp1674
g73
(dp1675
g81
I4
ssg82
g1669
sg75
(lp1676
S"<open file '<stderr>', mode 'w' at 0x100287270>"
p1677
asbasbasbag68
(g84
g70
NtRp1678
(dp1679
g73
(dp1680
sg82
g1018
sg75
(lp1681
g68
(g89
g70
NtRp1682
(dp1683
g73
(dp1684
g93
g94
ssg82
g1678
sg75
(lp1685
S'wsgi_file_wrapper'
p1686
asbag68
(g89
g70
NtRp1687
(dp1688
g73
(dp1689
g100
g101
ssg82
g1678
sg75
(lp1690
S':'
asbag68
(g89
g70
NtRp1691
(dp1692
g73
(dp1693
sg82
g1678
sg75
(lp1694
g68
(g69
g70
NtRp1695
(dp1696
g73
(dp1697
g81
I4
ssg82
g1691
sg75
(lp1698
S'<class gluon.rocket.FileWrapper at 0x1019d3e88>'
p1699
asbasbasbag68
(g84
g70
NtRp1700
(dp1701
g73
(dp1702
sg82
g1018
sg75
(lp1703
g68
(g89
g70
NtRp1704
(dp1705
g73
(dp1706
g93
g94
ssg82
g1700
sg75
(lp1707
S'wsgi_input'
p1708
asbag68
(g89
g70
NtRp1709
(dp1710
g73
(dp1711
g100
g101
ssg82
g1700
sg75
(lp1712
S':'
asbag68
(g89
g70
NtRp1713
(dp1714
g73
(dp1715
sg82
g1700
sg75
(lp1716
g68
(g69
g70
NtRp1717
(dp1718
g73
(dp1719
g81
I4
ssg82
g1713
sg75
(lp1720
S'<socket._fileobject object at 0x10239add0>'
p1721
asbasbasbag68
(g84
g70
NtRp1722
(dp1723
g73
(dp1724
sg82
g1018
sg75
(lp1725
g68
(g89
g70
NtRp1726
(dp1727
g73
(dp1728
g93
g94
ssg82
g1722
sg75
(lp1729
S'wsgi_multiprocess'
p1730
asbag68
(g89
g70
NtRp1731
(dp1732
g73
(dp1733
g100
g101
ssg82
g1722
sg75
(lp1734
S':'
asbag68
(g89
g70
NtRp1735
(dp1736
g73
(dp1737
sg82
g1722
sg75
(lp1738
g68
(g69
g70
NtRp1739
(dp1740
g73
(dp1741
g81
I4
ssg82
g1735
sg75
(lp1742
g111
asbasbasbag68
(g84
g70
NtRp1743
(dp1744
g73
(dp1745
sg82
g1018
sg75
(lp1746
g68
(g89
g70
NtRp1747
(dp1748
g73
(dp1749
g93
g94
ssg82
g1743
sg75
(lp1750
S'wsgi_multithread'
p1751
asbag68
(g89
g70
NtRp1752
(dp1753
g73
(dp1754
g100
g101
ssg82
g1743
sg75
(lp1755
S':'
asbag68
(g89
g70
NtRp1756
(dp1757
g73
(dp1758
sg82
g1743
sg75
(lp1759
g68
(g69
g70
NtRp1760
(dp1761
g73
(dp1762
g81
I4
ssg82
g1756
sg75
(lp1763
S'True'
p1764
asbasbasbag68
(g84
g70
NtRp1765
(dp1766
g73
(dp1767
sg82
g1018
sg75
(lp1768
g68
(g89
g70
NtRp1769
(dp1770
g73
(dp1771
g93
g94
ssg82
g1765
sg75
(lp1772
S'wsgi_run_once'
p1773
asbag68
(g89
g70
NtRp1774
(dp1775
g73
(dp1776
g100
g101
ssg82
g1765
sg75
(lp1777
S':'
asbag68
(g89
g70
NtRp1778
(dp1779
g73
(dp1780
sg82
g1765
sg75
(lp1781
g68
(g69
g70
NtRp1782
(dp1783
g73
(dp1784
g81
I4
ssg82
g1778
sg75
(lp1785
g111
asbasbasbag68
(g84
g70
NtRp1786
(dp1787
g73
(dp1788
sg82
g1018
sg75
(lp1789
g68
(g89
g70
NtRp1790
(dp1791
g73
(dp1792
g93
g94
ssg82
g1786
sg75
(lp1793
S'wsgi_url_scheme'
p1794
asbag68
(g89
g70
NtRp1795
(dp1796
g73
(dp1797
g100
g101
ssg82
g1786
sg75
(lp1798
S':'
asbag68
(g89
g70
NtRp1799
(dp1800
g73
(dp1801
sg82
g1786
sg75
(lp1802
g68
(g69
g70
NtRp1803
(dp1804
g73
(dp1805
g81
I4
ssg82
g1799
sg75
(lp1806
S'http'
p1807
asbasbasbag68
(g84
g70
NtRp1808
(dp1809
g73
(dp1810
sg82
g1018
sg75
(lp1811
g68
(g89
g70
NtRp1812
(dp1813
g73
(dp1814
g93
g94
ssg82
g1808
sg75
(lp1815
S'wsgi_version'
p1816
asbag68
(g89
g70
NtRp1817
(dp1818
g73
(dp1819
g100
g101
ssg82
g1808
sg75
(lp1820
S':'
asbag68
(g89
g70
NtRp1821
(dp1822
g73
(dp1823
sg82
g1808
sg75
(lp1824
g68
(g69
g70
NtRp1825
(dp1826
g73
(dp1827
g81
I4
ssg82
g1821
sg75
(lp1828
g68
(g77
g70
NtRp1829
(dp1830
g73
(dp1831
g81
I3
ssg82
Nsg75
(lp1832
g68
(g84
g70
NtRp1833
(dp1834
g73
(dp1835
sg82
g1829
sg75
(lp1836
g68
(g89
g70
NtRp1837
(dp1838
g73
(dp1839
sg82
g1833
sg75
(lp1840
g68
(g69
g70
NtRp1841
(dp1842
g73
(dp1843
g81
I3
ssg82
g1837
sg75
(lp1844
S'1'
asbasbasbag68
(g84
g70
NtRp1845
(dp1846
g73
(dp1847
sg82
g1829
sg75
(lp1848
g68
(g89
g70
NtRp1849
(dp1850
g73
(dp1851
sg82
g1845
sg75
(lp1852
g68
(g69
g70
NtRp1853
(dp1854
g73
(dp1855
g81
I3
ssg82
g1849
sg75
(lp1856
S'0'
asbasbasbasbasbasbasbasbasbasbasbag68
(g84
g70
NtRp1857
(dp1858
g73
(dp1859
sg82
g78
sg75
(lp1860
g68
(g89
g70
NtRp1861
(dp1862
g73
(dp1863
g93
g94
ssg82
g1857
sg75
(lp1864
S'extension'
p1865
asbag68
(g89
g70
NtRp1866
(dp1867
g73
(dp1868
g100
g101
ssg82
g1857
sg75
(lp1869
S':'
asbag68
(g89
g70
NtRp1870
(dp1871
g73
(dp1872
sg82
g1857
sg75
(lp1873
g68
(g69
g70
NtRp1874
(dp1875
g73
(dp1876
g81
I5
ssg82
g1870
sg75
(lp1877
S'html'
p1878
asbasbasbag68
(g84
g70
NtRp1879
(dp1880
g73
(dp1881
sg82
g78
sg75
(lp1882
g68
(g89
g70
NtRp1883
(dp1884
g73
(dp1885
g93
g94
ssg82
g1879
sg75
(lp1886
S'folder'
p1887
asbag68
(g89
g70
NtRp1888
(dp1889
g73
(dp1890
g100
g101
ssg82
g1879
sg75
(lp1891
S':'
asbag68
(g89
g70
NtRp1892
(dp1893
g73
(dp1894
sg82
g1879
sg75
(lp1895
g68
(g69
g70
NtRp1896
(dp1897
g73
(dp1898
g81
I5
ssg82
g1892
sg75
(lp1899
S'/Users/hellais/Documents/code/mygit/globaleaks/webapp/applications/init/'
p1900
asbasbasbag68
(g84
g70
NtRp1901
(dp1902
g73
(dp1903
sg82
g78
sg75
(lp1904
g68
(g89
g70
NtRp1905
(dp1906
g73
(dp1907
g93
g94
ssg82
g1901
sg75
(lp1908
S'function'
p1909
asbag68
(g89
g70
NtRp1910
(dp1911
g73
(dp1912
g100
g101
ssg82
g1901
sg75
(lp1913
S':'
asbag68
(g89
g70
NtRp1914
(dp1915
g73
(dp1916
sg82
g1901
sg75
(lp1917
g68
(g69
g70
NtRp1918
(dp1919
g73
(dp1920
g81
I5
ssg82
g1914
sg75
(lp1921
S'index'
p1922
asbasbasbag68
(g84
g70
NtRp1923
(dp1924
g73
(dp1925
sg82
g78
sg75
(lp1926
g68
(g89
g70
NtRp1927
(dp1928
g73
(dp1929
g93
g94
ssg82
g1923
sg75
(lp1930
S'get_vars'
p1931
asbag68
(g89
g70
NtRp1932
(dp1933
g73
(dp1934
g100
g101
ssg82
g1923
sg75
(lp1935
S':'
asbag68
(g89
g70
NtRp1936
(dp1937
g73
(dp1938
sg82
g1923
sg75
(lp1939
g68
(g69
g70
NtRp1940
(dp1941
g73
(dp1942
g81
I5
ssg82
g1936
sg75
(lp1943
g68
(g77
g70
NtRp1944
(dp1945
g73
(dp1946
g81
I4
ssg82
Nsg75
(lp1947
sbasbasbasbag68
(g84
g70
NtRp1948
(dp1949
g73
(dp1950
sg82
g78
sg75
(lp1951
g68
(g89
g70
NtRp1952
(dp1953
g73
(dp1954
g93
g94
ssg82
g1948
sg75
(lp1955
S'is_https'
p1956
asbag68
(g89
g70
NtRp1957
(dp1958
g73
(dp1959
g100
g101
ssg82
g1948
sg75
(lp1960
S':'
asbag68
(g89
g70
NtRp1961
(dp1962
g73
(dp1963
sg82
g1948
sg75
(lp1964
g68
(g69
g70
NtRp1965
(dp1966
g73
(dp1967
g81
I5
ssg82
g1961
sg75
(lp1968
g111
asbasbasbag68
(g84
g70
NtRp1969
(dp1970
g73
(dp1971
sg82
g78
sg75
(lp1972
g68
(g89
g70
NtRp1973
(dp1974
g73
(dp1975
g93
g94
ssg82
g1969
sg75
(lp1976
S'is_local'
p1977
asbag68
(g89
g70
NtRp1978
(dp1979
g73
(dp1980
g100
g101
ssg82
g1969
sg75
(lp1981
S':'
asbag68
(g89
g70
NtRp1982
(dp1983
g73
(dp1984
sg82
g1969
sg75
(lp1985
g68
(g69
g70
NtRp1986
(dp1987
g73
(dp1988
g81
I5
ssg82
g1982
sg75
(lp1989
g1764
asbasbasbag68
(g84
g70
NtRp1990
(dp1991
g73
(dp1992
sg82
g78
sg75
(lp1993
g68
(g89
g70
NtRp1994
(dp1995
g73
(dp1996
g93
g94
ssg82
g1990
sg75
(lp1997
S'is_restful'
p1998
asbag68
(g89
g70
NtRp1999
(dp2000
g73
(dp2001
g100
g101
ssg82
g1990
sg75
(lp2002
S':'
asbag68
(g89
g70
NtRp2003
(dp2004
g73
(dp2005
sg82
g1990
sg75
(lp2006
g68
(g69
g70
NtRp2007
(dp2008
g73
(dp2009
g81
I5
ssg82
g2003
sg75
(lp2010
g111
asbasbasbag68
(g84
g70
NtRp2011
(dp2012
g73
(dp2013
sg82
g78
sg75
(lp2014
g68
(g89
g70
NtRp2015
(dp2016
g73
(dp2017
g93
g94
ssg82
g2011
sg75
(lp2018
S'now'
p2019
asbag68
(g89
g70
NtRp2020
(dp2021
g73
(dp2022
g100
g101
ssg82
g2011
sg75
(lp2023
S':'
asbag68
(g89
g70
NtRp2024
(dp2025
g73
(dp2026
sg82
g2011
sg75
(lp2027
g68
(g69
g70
NtRp2028
(dp2029
g73
(dp2030
g81
I5
ssg82
g2024
sg75
(lp2031
S'datetime.datetime(2011, 8, 28, 14, 56, 0, 997357)'
p2032
asbasbasbag68
(g84
g70
NtRp2033
(dp2034
g73
(dp2035
sg82
g78
sg75
(lp2036
g68
(g89
g70
NtRp2037
(dp2038
g73
(dp2039
g93
g94
ssg82
g2033
sg75
(lp2040
S'post_vars'
p2041
asbag68
(g89
g70
NtRp2042
(dp2043
g73
(dp2044
g100
g101
ssg82
g2033
sg75
(lp2045
S':'
asbag68
(g89
g70
NtRp2046
(dp2047
g73
(dp2048
sg82
g2033
sg75
(lp2049
g68
(g69
g70
NtRp2050
(dp2051
g73
(dp2052
g81
I5
ssg82
g2046
sg75
(lp2053
g68
(g77
g70
NtRp2054
(dp2055
g73
(dp2056
g81
I4
ssg82
Nsg75
(lp2057
sbasbasbasbag68
(g84
g70
NtRp2058
(dp2059
g73
(dp2060
sg82
g78
sg75
(lp2061
g68
(g89
g70
NtRp2062
(dp2063
g73
(dp2064
g93
g94
ssg82
g2058
sg75
(lp2065
S'url'
p2066
asbag68
(g89
g70
NtRp2067
(dp2068
g73
(dp2069
g100
g101
ssg82
g2058
sg75
(lp2070
S':'
asbag68
(g89
g70
NtRp2071
(dp2072
g73
(dp2073
sg82
g2058
sg75
(lp2074
g68
(g69
g70
NtRp2075
(dp2076
g73
(dp2077
g81
I5
ssg82
g2071
sg75
(lp2078
S'/init/default/index'
p2079
asbasbasbag68
(g84
g70
NtRp2080
(dp2081
g73
(dp2082
sg82
g78
sg75
(lp2083
g68
(g89
g70
NtRp2084
(dp2085
g73
(dp2086
g93
g94
ssg82
g2080
sg75
(lp2087
S'uuid'
p2088
asbag68
(g89
g70
NtRp2089
(dp2090
g73
(dp2091
g100
g101
ssg82
g2080
sg75
(lp2092
S':'
asbag68
(g89
g70
NtRp2093
(dp2094
g73
(dp2095
sg82
g2080
sg75
(lp2096
g68
(g69
g70
NtRp2097
(dp2098
g73
(dp2099
g81
I5
ssg82
g2093
sg75
(lp2100
S'init/127.0.0.1.2011-08-28.14-56-00.cb81080c-7f38-4f3d-a07f-e504fe6eeabb'
p2101
asbasbasbag68
(g84
g70
NtRp2102
(dp2103
g73
(dp2104
sg82
g78
sg75
(lp2105
g68
(g89
g70
NtRp2106
(dp2107
g73
(dp2108
g93
g94
ssg82
g2102
sg75
(lp2109
S'vars'
p2110
asbag68
(g89
g70
NtRp2111
(dp2112
g73
(dp2113
g100
g101
ssg82
g2102
sg75
(lp2114
S':'
asbag68
(g89
g70
NtRp2115
(dp2116
g73
(dp2117
sg82
g2102
sg75
(lp2118
g68
(g69
g70
NtRp2119
(dp2120
g73
(dp2121
g81
I5
ssg82
g2115
sg75
(lp2122
g68
(g77
g70
NtRp2123
(dp2124
g73
(dp2125
g81
I4
ssg82
Nsg75
(lp2126
sbasbasbasbag68
(g84
g70
NtRp2127
(dp2128
g73
(dp2129
sg82
g78
sg75
(lp2130
g68
(g89
g70
NtRp2131
(dp2132
g73
(dp2133
g93
g94
ssg82
g2127
sg75
(lp2134
S'wsgi'
p2135
asbag68
(g89
g70
NtRp2136
(dp2137
g73
(dp2138
g100
g101
ssg82
g2127
sg75
(lp2139
S':'
asbag68
(g89
g70
NtRp2140
(dp2141
g73
(dp2142
sg82
g2127
sg75
(lp2143
g68
(g69
g70
NtRp2144
(dp2145
g73
(dp2146
g81
I5
ssg82
g2140
sg75
(lp2147
g68
(g77
g70
NtRp2148
(dp2149
g73
(dp2150
g81
I4
ssg82
Nsg75
(lp2151
g68
(g84
g70
NtRp2152
(dp2153
g73
(dp2154
sg82
g2148
sg75
(lp2155
g68
(g89
g70
NtRp2156
(dp2157
g73
(dp2158
g93
g94
ssg82
g2152
sg75
(lp2159
S'environ'
p2160
asbag68
(g89
g70
NtRp2161
(dp2162
g73
(dp2163
g100
g101
ssg82
g2152
sg75
(lp2164
S':'
asbag68
(g89
g70
NtRp2165
(dp2166
g73
(dp2167
sg82
g2152
sg75
(lp2168
g68
(g69
g70
NtRp2169
(dp2170
g73
(dp2171
g81
I4
ssg82
g2165
sg75
(lp2172
g68
(g77
g70
NtRp2173
(dp2174
g73
(dp2175
g81
I3
ssg82
Nsg75
(lp2176
g68
(g84
g70
NtRp2177
(dp2178
g73
(dp2179
sg82
g2173
sg75
(lp2180
g68
(g89
g70
NtRp2181
(dp2182
g73
(dp2183
g93
g94
ssg82
g2177
sg75
(lp2184
S'HTTP_ACCEPT'
p2185
asbag68
(g89
g70
NtRp2186
(dp2187
g73
(dp2188
g100
g101
ssg82
g2177
sg75
(lp2189
S':'
asbag68
(g89
g70
NtRp2190
(dp2191
g73
(dp2192
sg82
g2177
sg75
(lp2193
g68
(g69
g70
NtRp2194
(dp2195
g73
(dp2196
g81
I3
ssg82
g2190
sg75
(lp2197
g1199
asbasbasbag68
(g84
g70
NtRp2198
(dp2199
g73
(dp2200
sg82
g2173
sg75
(lp2201
g68
(g89
g70
NtRp2202
(dp2203
g73
(dp2204
g93
g94
ssg82
g2198
sg75
(lp2205
S'HTTP_ACCEPT_CHARSET'
p2206
asbag68
(g89
g70
NtRp2207
(dp2208
g73
(dp2209
g100
g101
ssg82
g2198
sg75
(lp2210
S':'
asbag68
(g89
g70
NtRp2211
(dp2212
g73
(dp2213
sg82
g2198
sg75
(lp2214
g68
(g69
g70
NtRp2215
(dp2216
g73
(dp2217
g81
I3
ssg82
g2211
sg75
(lp2218
g1221
asbasbasbag68
(g84
g70
NtRp2219
(dp2220
g73
(dp2221
sg82
g2173
sg75
(lp2222
g68
(g89
g70
NtRp2223
(dp2224
g73
(dp2225
g93
g94
ssg82
g2219
sg75
(lp2226
S'HTTP_ACCEPT_ENCODING'
p2227
asbag68
(g89
g70
NtRp2228
(dp2229
g73
(dp2230
g100
g101
ssg82
g2219
sg75
(lp2231
S':'
asbag68
(g89
g70
NtRp2232
(dp2233
g73
(dp2234
sg82
g2219
sg75
(lp2235
g68
(g69
g70
NtRp2236
(dp2237
g73
(dp2238
g81
I3
ssg82
g2232
sg75
(lp2239
g1243
asbasbasbag68
(g84
g70
NtRp2240
(dp2241
g73
(dp2242
sg82
g2173
sg75
(lp2243
g68
(g89
g70
NtRp2244
(dp2245
g73
(dp2246
g93
g94
ssg82
g2240
sg75
(lp2247
S'HTTP_ACCEPT_LANGUAGE'
p2248
asbag68
(g89
g70
NtRp2249
(dp2250
g73
(dp2251
g100
g101
ssg82
g2240
sg75
(lp2252
S':'
asbag68
(g89
g70
NtRp2253
(dp2254
g73
(dp2255
sg82
g2240
sg75
(lp2256
g68
(g69
g70
NtRp2257
(dp2258
g73
(dp2259
g81
I3
ssg82
g2253
sg75
(lp2260
g1265
asbasbasbag68
(g84
g70
NtRp2261
(dp2262
g73
(dp2263
sg82
g2173
sg75
(lp2264
g68
(g89
g70
NtRp2265
(dp2266
g73
(dp2267
g93
g94
ssg82
g2261
sg75
(lp2268
S'HTTP_CONNECTION'
p2269
asbag68
(g89
g70
NtRp2270
(dp2271
g73
(dp2272
g100
g101
ssg82
g2261
sg75
(lp2273
S':'
asbag68
(g89
g70
NtRp2274
(dp2275
g73
(dp2276
sg82
g2261
sg75
(lp2277
g68
(g69
g70
NtRp2278
(dp2279
g73
(dp2280
g81
I3
ssg82
g2274
sg75
(lp2281
g1287
asbasbasbag68
(g84
g70
NtRp2282
(dp2283
g73
(dp2284
sg82
g2173
sg75
(lp2285
g68
(g89
g70
NtRp2286
(dp2287
g73
(dp2288
g93
g94
ssg82
g2282
sg75
(lp2289
S'HTTP_COOKIE'
p2290
asbag68
(g89
g70
NtRp2291
(dp2292
g73
(dp2293
g100
g101
ssg82
g2282
sg75
(lp2294
S':'
asbag68
(g89
g70
NtRp2295
(dp2296
g73
(dp2297
sg82
g2282
sg75
(lp2298
g68
(g69
g70
NtRp2299
(dp2300
g73
(dp2301
g81
I3
ssg82
g2295
sg75
(lp2302
g1309
asbasbasbag68
(g84
g70
NtRp2303
(dp2304
g73
(dp2305
sg82
g2173
sg75
(lp2306
g68
(g89
g70
NtRp2307
(dp2308
g73
(dp2309
g93
g94
ssg82
g2303
sg75
(lp2310
S'HTTP_HOST'
p2311
asbag68
(g89
g70
NtRp2312
(dp2313
g73
(dp2314
g100
g101
ssg82
g2303
sg75
(lp2315
S':'
asbag68
(g89
g70
NtRp2316
(dp2317
g73
(dp2318
sg82
g2303
sg75
(lp2319
g68
(g69
g70
NtRp2320
(dp2321
g73
(dp2322
g81
I3
ssg82
g2316
sg75
(lp2323
g1331
asbasbasbag68
(g84
g70
NtRp2324
(dp2325
g73
(dp2326
sg82
g2173
sg75
(lp2327
g68
(g89
g70
NtRp2328
(dp2329
g73
(dp2330
g93
g94
ssg82
g2324
sg75
(lp2331
S'HTTP_USER_AGENT'
p2332
asbag68
(g89
g70
NtRp2333
(dp2334
g73
(dp2335
g100
g101
ssg82
g2324
sg75
(lp2336
S':'
asbag68
(g89
g70
NtRp2337
(dp2338
g73
(dp2339
sg82
g2324
sg75
(lp2340
g68
(g69
g70
NtRp2341
(dp2342
g73
(dp2343
g81
I3
ssg82
g2337
sg75
(lp2344
g1353
asbasbasbag68
(g84
g70
NtRp2345
(dp2346
g73
(dp2347
sg82
g2173
sg75
(lp2348
g68
(g89
g70
NtRp2349
(dp2350
g73
(dp2351
g93
g94
ssg82
g2345
sg75
(lp2352
S'PATH_INFO'
p2353
asbag68
(g89
g70
NtRp2354
(dp2355
g73
(dp2356
g100
g101
ssg82
g2345
sg75
(lp2357
S':'
asbag68
(g89
g70
NtRp2358
(dp2359
g73
(dp2360
sg82
g2345
sg75
(lp2361
g68
(g69
g70
NtRp2362
(dp2363
g73
(dp2364
g81
I3
ssg82
g2358
sg75
(lp2365
S'/'
asbasbasbag68
(g84
g70
NtRp2366
(dp2367
g73
(dp2368
sg82
g2173
sg75
(lp2369
g68
(g89
g70
NtRp2370
(dp2371
g73
(dp2372
g93
g94
ssg82
g2366
sg75
(lp2373
S'QUERY_STRING'
p2374
asbag68
(g89
g70
NtRp2375
(dp2376
g73
(dp2377
g100
g101
ssg82
g2366
sg75
(lp2378
S':'
asbag68
(g89
g70
NtRp2379
(dp2380
g73
(dp2381
sg82
g2366
sg75
(lp2382
g68
(g69
g70
NtRp2383
(dp2384
g73
(dp2385
g81
I3
ssg82
g2379
sg75
(lp2386
S''
asbasbasbag68
(g84
g70
NtRp2387
(dp2388
g73
(dp2389
sg82
g2173
sg75
(lp2390
g68
(g89
g70
NtRp2391
(dp2392
g73
(dp2393
g93
g94
ssg82
g2387
sg75
(lp2394
S'REMOTE_ADDR'
p2395
asbag68
(g89
g70
NtRp2396
(dp2397
g73
(dp2398
g100
g101
ssg82
g2387
sg75
(lp2399
S':'
asbag68
(g89
g70
NtRp2400
(dp2401
g73
(dp2402
sg82
g2387
sg75
(lp2403
g68
(g69
g70
NtRp2404
(dp2405
g73
(dp2406
g81
I3
ssg82
g2400
sg75
(lp2407
g201
asbasbasbag68
(g84
g70
NtRp2408
(dp2409
g73
(dp2410
sg82
g2173
sg75
(lp2411
g68
(g89
g70
NtRp2412
(dp2413
g73
(dp2414
g93
g94
ssg82
g2408
sg75
(lp2415
S'REMOTE_PORT'
p2416
asbag68
(g89
g70
NtRp2417
(dp2418
g73
(dp2419
g100
g101
ssg82
g2408
sg75
(lp2420
S':'
asbag68
(g89
g70
NtRp2421
(dp2422
g73
(dp2423
sg82
g2408
sg75
(lp2424
g68
(g69
g70
NtRp2425
(dp2426
g73
(dp2427
g81
I3
ssg82
g2421
sg75
(lp2428
g1459
asbasbasbag68
(g84
g70
NtRp2429
(dp2430
g73
(dp2431
sg82
g2173
sg75
(lp2432
g68
(g89
g70
NtRp2433
(dp2434
g73
(dp2435
g93
g94
ssg82
g2429
sg75
(lp2436
S'REQUEST_METHOD'
p2437
asbag68
(g89
g70
NtRp2438
(dp2439
g73
(dp2440
g100
g101
ssg82
g2429
sg75
(lp2441
S':'
asbag68
(g89
g70
NtRp2442
(dp2443
g73
(dp2444
sg82
g2429
sg75
(lp2445
g68
(g69
g70
NtRp2446
(dp2447
g73
(dp2448
g81
I3
ssg82
g2442
sg75
(lp2449
g1481
asbasbasbag68
(g84
g70
NtRp2450
(dp2451
g73
(dp2452
sg82
g2173
sg75
(lp2453
g68
(g89
g70
NtRp2454
(dp2455
g73
(dp2456
g93
g94
ssg82
g2450
sg75
(lp2457
S'SCRIPT_NAME'
p2458
asbag68
(g89
g70
NtRp2459
(dp2460
g73
(dp2461
g100
g101
ssg82
g2450
sg75
(lp2462
S':'
asbag68
(g89
g70
NtRp2463
(dp2464
g73
(dp2465
sg82
g2450
sg75
(lp2466
g68
(g69
g70
NtRp2467
(dp2468
g73
(dp2469
g81
I3
ssg82
g2463
sg75
(lp2470
S''
asbasbasbag68
(g84
g70
NtRp2471
(dp2472
g73
(dp2473
sg82
g2173
sg75
(lp2474
g68
(g89
g70
NtRp2475
(dp2476
g73
(dp2477
g93
g94
ssg82
g2471
sg75
(lp2478
S'SERVER_NAME'
p2479
asbag68
(g89
g70
NtRp2480
(dp2481
g73
(dp2482
g100
g101
ssg82
g2471
sg75
(lp2483
S':'
asbag68
(g89
g70
NtRp2484
(dp2485
g73
(dp2486
sg82
g2471
sg75
(lp2487
g68
(g69
g70
NtRp2488
(dp2489
g73
(dp2490
g81
I3
ssg82
g2484
sg75
(lp2491
g1524
asbasbasbag68
(g84
g70
NtRp2492
(dp2493
g73
(dp2494
sg82
g2173
sg75
(lp2495
g68
(g89
g70
NtRp2496
(dp2497
g73
(dp2498
g93
g94
ssg82
g2492
sg75
(lp2499
S'SERVER_PORT'
p2500
asbag68
(g89
g70
NtRp2501
(dp2502
g73
(dp2503
g100
g101
ssg82
g2492
sg75
(lp2504
S':'
asbag68
(g89
g70
NtRp2505
(dp2506
g73
(dp2507
sg82
g2492
sg75
(lp2508
g68
(g69
g70
NtRp2509
(dp2510
g73
(dp2511
g81
I3
ssg82
g2505
sg75
(lp2512
g1546
asbasbasbag68
(g84
g70
NtRp2513
(dp2514
g73
(dp2515
sg82
g2173
sg75
(lp2516
g68
(g89
g70
NtRp2517
(dp2518
g73
(dp2519
g93
g94
ssg82
g2513
sg75
(lp2520
S'SERVER_PROTOCOL'
p2521
asbag68
(g89
g70
NtRp2522
(dp2523
g73
(dp2524
g100
g101
ssg82
g2513
sg75
(lp2525
S':'
asbag68
(g89
g70
NtRp2526
(dp2527
g73
(dp2528
sg82
g2513
sg75
(lp2529
g68
(g69
g70
NtRp2530
(dp2531
g73
(dp2532
g81
I3
ssg82
g2526
sg75
(lp2533
g1568
asbasbasbag68
(g84
g70
NtRp2534
(dp2535
g73
(dp2536
sg82
g2173
sg75
(lp2537
g68
(g89
g70
NtRp2538
(dp2539
g73
(dp2540
g93
g94
ssg82
g2534
sg75
(lp2541
S'SERVER_SOFTWARE'
p2542
asbag68
(g89
g70
NtRp2543
(dp2544
g73
(dp2545
g100
g101
ssg82
g2534
sg75
(lp2546
S':'
asbag68
(g89
g70
NtRp2547
(dp2548
g73
(dp2549
sg82
g2534
sg75
(lp2550
g68
(g69
g70
NtRp2551
(dp2552
g73
(dp2553
g81
I3
ssg82
g2547
sg75
(lp2554
g1590
asbasbasbag68
(g84
g70
NtRp2555
(dp2556
g73
(dp2557
sg82
g2173
sg75
(lp2558
g68
(g89
g70
NtRp2559
(dp2560
g73
(dp2561
g93
g94
ssg82
g2555
sg75
(lp2562
S'wsgi.errors'
p2563
asbag68
(g89
g70
NtRp2564
(dp2565
g73
(dp2566
g100
g101
ssg82
g2555
sg75
(lp2567
S':'
asbag68
(g89
g70
NtRp2568
(dp2569
g73
(dp2570
sg82
g2555
sg75
(lp2571
g68
(g69
g70
NtRp2572
(dp2573
g73
(dp2574
g81
I3
ssg82
g2568
sg75
(lp2575
S"<open file '<stderr>', mode 'w' at 0x100287270>"
p2576
asbasbasbag68
(g84
g70
NtRp2577
(dp2578
g73
(dp2579
sg82
g2173
sg75
(lp2580
g68
(g89
g70
NtRp2581
(dp2582
g73
(dp2583
g93
g94
ssg82
g2577
sg75
(lp2584
S'wsgi.file_wrapper'
p2585
asbag68
(g89
g70
NtRp2586
(dp2587
g73
(dp2588
g100
g101
ssg82
g2577
sg75
(lp2589
S':'
asbag68
(g89
g70
NtRp2590
(dp2591
g73
(dp2592
sg82
g2577
sg75
(lp2593
g68
(g69
g70
NtRp2594
(dp2595
g73
(dp2596
g81
I3
ssg82
g2590
sg75
(lp2597
S'<class gluon.rocket.FileWrapper at 0x1019d3e88>'
p2598
asbasbasbag68
(g84
g70
NtRp2599
(dp2600
g73
(dp2601
sg82
g2173
sg75
(lp2602
g68
(g89
g70
NtRp2603
(dp2604
g73
(dp2605
g93
g94
ssg82
g2599
sg75
(lp2606
S'wsgi.input'
p2607
asbag68
(g89
g70
NtRp2608
(dp2609
g73
(dp2610
g100
g101
ssg82
g2599
sg75
(lp2611
S':'
asbag68
(g89
g70
NtRp2612
(dp2613
g73
(dp2614
sg82
g2599
sg75
(lp2615
g68
(g69
g70
NtRp2616
(dp2617
g73
(dp2618
g81
I3
ssg82
g2612
sg75
(lp2619
S'<cStringIO.StringO object at 0x1018c6260>'
p2620
asbasbasbag68
(g84
g70
NtRp2621
(dp2622
g73
(dp2623
sg82
g2173
sg75
(lp2624
g68
(g89
g70
NtRp2625
(dp2626
g73
(dp2627
g93
g94
ssg82
g2621
sg75
(lp2628
S'wsgi.multiprocess'
p2629
asbag68
(g89
g70
NtRp2630
(dp2631
g73
(dp2632
g100
g101
ssg82
g2621
sg75
(lp2633
S':'
asbag68
(g89
g70
NtRp2634
(dp2635
g73
(dp2636
sg82
g2621
sg75
(lp2637
g68
(g69
g70
NtRp2638
(dp2639
g73
(dp2640
g81
I3
ssg82
g2634
sg75
(lp2641
g111
asbasbasbag68
(g84
g70
NtRp2642
(dp2643
g73
(dp2644
sg82
g2173
sg75
(lp2645
g68
(g89
g70
NtRp2646
(dp2647
g73
(dp2648
g93
g94
ssg82
g2642
sg75
(lp2649
S'wsgi.multithread'
p2650
asbag68
(g89
g70
NtRp2651
(dp2652
g73
(dp2653
g100
g101
ssg82
g2642
sg75
(lp2654
S':'
asbag68
(g89
g70
NtRp2655
(dp2656
g73
(dp2657
sg82
g2642
sg75
(lp2658
g68
(g69
g70
NtRp2659
(dp2660
g73
(dp2661
g81
I3
ssg82
g2655
sg75
(lp2662
g1764
asbasbasbag68
(g84
g70
NtRp2663
(dp2664
g73
(dp2665
sg82
g2173
sg75
(lp2666
g68
(g89
g70
NtRp2667
(dp2668
g73
(dp2669
g93
g94
ssg82
g2663
sg75
(lp2670
S'wsgi.run_once'
p2671
asbag68
(g89
g70
NtRp2672
(dp2673
g73
(dp2674
g100
g101
ssg82
g2663
sg75
(lp2675
S':'
asbag68
(g89
g70
NtRp2676
(dp2677
g73
(dp2678
sg82
g2663
sg75
(lp2679
g68
(g69
g70
NtRp2680
(dp2681
g73
(dp2682
g81
I3
ssg82
g2676
sg75
(lp2683
g111
asbasbasbag68
(g84
g70
NtRp2684
(dp2685
g73
(dp2686
sg82
g2173
sg75
(lp2687
g68
(g89
g70
NtRp2688
(dp2689
g73
(dp2690
g93
g94
ssg82
g2684
sg75
(lp2691
S'wsgi.url_scheme'
p2692
asbag68
(g89
g70
NtRp2693
(dp2694
g73
(dp2695
g100
g101
ssg82
g2684
sg75
(lp2696
S':'
asbag68
(g89
g70
NtRp2697
(dp2698
g73
(dp2699
sg82
g2684
sg75
(lp2700
g68
(g69
g70
NtRp2701
(dp2702
g73
(dp2703
g81
I3
ssg82
g2697
sg75
(lp2704
g1807
asbasbasbag68
(g84
g70
NtRp2705
(dp2706
g73
(dp2707
sg82
g2173
sg75
(lp2708
g68
(g89
g70
NtRp2709
(dp2710
g73
(dp2711
g93
g94
ssg82
g2705
sg75
(lp2712
S'wsgi.version'
p2713
asbag68
(g89
g70
NtRp2714
(dp2715
g73
(dp2716
g100
g101
ssg82
g2705
sg75
(lp2717
S':'
asbag68
(g89
g70
NtRp2718
(dp2719
g73
(dp2720
sg82
g2705
sg75
(lp2721
g68
(g69
g70
NtRp2722
(dp2723
g73
(dp2724
g81
I3
ssg82
g2718
sg75
(lp2725
S'1'
asbasbasbasbasbasbasbasbasbasbasbasbasbsS'frames'
p2726
(lp2727
(dp2728
S'file'
p2729
S'/opt/local/Library/Frameworks/Python.framework/Versions/2.7/lib/python2.7/gluon/restricted.py'
p2730
sS'dump'
p2731
(dp2732
S'code'
p2733
S"'# -*- coding: utf-8 -*-\\n### required - do no del...n dict()\\n\\nresponse._vars=response._caller(index)\\n'"
p2734
sS'layer'
p2735
S"'/Users/hellais/Documents/code/mygit/globaleaks/webapp/applications/init/controllers/default.py'"
p2736
sS'global compile2'
p2737
S'<function compile2>'
p2738
sS'ccode'
p2739
S'undefined'
p2740
ssS'lnum'
p2741
I191
sS'lines'
p2742
(dp2743
I192
S'        exec ccode in environment'
p2744
sI193
S'    except HTTP:'
p2745
sI194
S'        raise'
p2746
sI195
S'    except Exception, error:'
p2747
sI186
S"    environment['__file__'] = layer"
p2748
sI187
S'    try:'
p2749
sI188
S'        if type(code) == types.CodeType:'
p2750
sI189
S'            ccode = code'
p2751
sI190
S'        else:'
p2752
sI191
S'            ccode = compile2(code,layer)'
p2753
ssS'call'
p2754
S"(code='# -*- coding: utf-8 -*-\\n### required - do no del...n dict()\\n\\nresponse._vars=response._caller(index)\\n', environment={'A': <class 'gluon.html.A'>, 'Auth': <class 'gluon.tools.Auth'>, 'B': <class 'gluon.html.B'>, 'BEAUTIFY': <class 'gluon.html.BEAUTIFY'>, 'BODY': <class 'gluon.html.BODY'>, 'BR': <class 'gluon.html.BR'>, 'BUTTON': <class 'gluon.html.BUTTON'>, 'CAT': <class 'gluon.html.CAT'>, 'CENTER': <class 'gluon.html.CENTER'>, 'CLEANUP': <class 'gluon.validators.CLEANUP'>, ...}, layer='/Users/hellais/Documents/code/mygit/globaleaks/webapp/applications/init/controllers/default.py')"
p2755
sS'func'
p2756
S'restricted'
p2757
sa(dp2758
g2729
S'/opt/local/Library/Frameworks/Python.framework/Versions/2.7/lib/python2.7/gluon/restricted.py'
p2759
sg2731
(dp2760
S'builtincompile'
p2761
S'<built-in function compile>'
p2762
sS'code'
p2763
S"'# -*- coding: utf-8 -*-\\n### required - do no del...n dict()\\n\\nresponse._vars=response._caller(index)\\n'"
p2764
sS'code.rstrip'
p2765
S'<built-in method rstrip of str object>'
p2766
sS').replace'
p2767
g2740
sS'layer'
p2768
S"'/Users/hellais/Documents/code/mygit/globaleaks/webapp/applications/init/controllers/default.py'"
p2769
ssg2741
I178
sg2742
(dp2770
I173
S''
sI174
S'def compile2(code,layer):'
p2771
sI175
S'    """'
p2772
sI176
S"    The +'\\n' is necessary else compile fails when code ends in a comment."
p2773
sI177
S'    """'
p2774
sI178
S"    return compile(code.rstrip().replace('\\r\\n','\\n')+'\\n', layer, 'exec')"
p2775
sI179
S''
sI180
S"def restricted(code, environment={}, layer='Unknown'):"
p2776
sI181
S'    """'
p2777
sI182
S'    runs code in environment and returns the output. if an exception occurs'
p2778
ssg2754
S"(code='# -*- coding: utf-8 -*-\\n### required - do no del...n dict()\\n\\nresponse._vars=response._caller(index)\\n', layer='/Users/hellais/Documents/code/mygit/globaleaks/webapp/applications/init/controllers/default.py')"
p2779
sg2756
S'compile2'
p2780
sasS'pyver'
p2781
S'Python 2.7.1: /opt/local/Library/Frameworks/Python.framework/Versions/2.7/Resources/Python.app/Contents/MacOS/Python'
p2782
sS'session'
p2783
g68
(g69
g70
NtRp2784
(dp2785
g73
(dp2786
sg75
(lp2787
g68
(g77
g70
NtRp2788
(dp2789
g73
(dp2790
g81
I5
ssg82
Nsg75
(lp2791
sbasbsS'etype'
p2792
S"<type 'exceptions.SyntaxError'>"
p2793
sS'date'
p2794
S'Sun Aug 28 14:56:03 2011'
p2795
sS'response'
p2796
g68
(g69
g70
NtRp2797
(dp2798
g73
(dp2799
sg75
(lp2800
g68
(g77
g70
NtRp2801
(dp2802
g73
(dp2803
g81
I5
ssg82
Nsg75
(lp2804
g68
(g84
g70
NtRp2805
(dp2806
g73
(dp2807
sg82
g2801
sg75
(lp2808
g68
(g89
g70
NtRp2809
(dp2810
g73
(dp2811
g93
g94
ssg82
g2805
sg75
(lp2812
g166
asbag68
(g89
g70
NtRp2813
(dp2814
g73
(dp2815
g100
g101
ssg82
g2805
sg75
(lp2816
S':'
asbag68
(g89
g70
NtRp2817
(dp2818
g73
(dp2819
sg82
g2805
sg75
(lp2820
g68
(g69
g70
NtRp2821
(dp2822
g73
(dp2823
g81
I5
ssg82
g2817
sg75
(lp2824
S'<cStringIO.StringO object at 0x1018e8e30>'
p2825
asbasbasbag68
(g84
g70
NtRp2826
(dp2827
g73
(dp2828
sg82
g2801
sg75
(lp2829
g68
(g89
g70
NtRp2830
(dp2831
g73
(dp2832
g93
g94
ssg82
g2826
sg75
(lp2833
g232
asbag68
(g89
g70
NtRp2834
(dp2835
g73
(dp2836
g100
g101
ssg82
g2826
sg75
(lp2837
S':'
asbag68
(g89
g70
NtRp2838
(dp2839
g73
(dp2840
sg82
g2826
sg75
(lp2841
g68
(g69
g70
NtRp2842
(dp2843
g73
(dp2844
g81
I5
ssg82
g2838
sg75
(lp2845
g68
(g77
g70
NtRp2846
(dp2847
g73
(dp2848
g81
I4
ssg82
Nsg75
(lp2849
g68
(g84
g70
NtRp2850
(dp2851
g73
(dp2852
sg82
g2846
sg75
(lp2853
g68
(g89
g70
NtRp2854
(dp2855
g73
(dp2856
g93
g94
ssg82
g2850
sg75
(lp2857
S'session_id_init'
p2858
asbag68
(g89
g70
NtRp2859
(dp2860
g73
(dp2861
g100
g101
ssg82
g2850
sg75
(lp2862
S':'
asbag68
(g89
g70
NtRp2863
(dp2864
g73
(dp2865
sg82
g2850
sg75
(lp2866
g68
(g69
g70
NtRp2867
(dp2868
g73
(dp2869
g81
I4
ssg82
g2863
sg75
(lp2870
g68
(g77
g70
NtRp2871
(dp2872
g73
(dp2873
g81
I3
ssg82
Nsg75
(lp2874
g68
(g84
g70
NtRp2875
(dp2876
g73
(dp2877
sg82
g2871
sg75
(lp2878
g68
(g89
g70
NtRp2879
(dp2880
g73
(dp2881
g93
g94
ssg82
g2875
sg75
(lp2882
g282
asbag68
(g89
g70
NtRp2883
(dp2884
g73
(dp2885
g100
g101
ssg82
g2875
sg75
(lp2886
S':'
asbag68
(g89
g70
NtRp2887
(dp2888
g73
(dp2889
sg82
g2875
sg75
(lp2890
g68
(g69
g70
NtRp2891
(dp2892
g73
(dp2893
g81
I3
ssg82
g2887
sg75
(lp2894
S''
asbasbasbag68
(g84
g70
NtRp2895
(dp2896
g73
(dp2897
sg82
g2871
sg75
(lp2898
g68
(g89
g70
NtRp2899
(dp2900
g73
(dp2901
g93
g94
ssg82
g2895
sg75
(lp2902
g303
asbag68
(g89
g70
NtRp2903
(dp2904
g73
(dp2905
g100
g101
ssg82
g2895
sg75
(lp2906
S':'
asbag68
(g89
g70
NtRp2907
(dp2908
g73
(dp2909
sg82
g2895
sg75
(lp2910
g68
(g69
g70
NtRp2911
(dp2912
g73
(dp2913
g81
I3
ssg82
g2907
sg75
(lp2914
S''
asbasbasbag68
(g84
g70
NtRp2915
(dp2916
g73
(dp2917
sg82
g2871
sg75
(lp2918
g68
(g89
g70
NtRp2919
(dp2920
g73
(dp2921
g93
g94
ssg82
g2915
sg75
(lp2922
g324
asbag68
(g89
g70
NtRp2923
(dp2924
g73
(dp2925
g100
g101
ssg82
g2915
sg75
(lp2926
S':'
asbag68
(g89
g70
NtRp2927
(dp2928
g73
(dp2929
sg82
g2915
sg75
(lp2930
g68
(g69
g70
NtRp2931
(dp2932
g73
(dp2933
g81
I3
ssg82
g2927
sg75
(lp2934
S''
asbasbasbag68
(g84
g70
NtRp2935
(dp2936
g73
(dp2937
sg82
g2871
sg75
(lp2938
g68
(g89
g70
NtRp2939
(dp2940
g73
(dp2941
g93
g94
ssg82
g2935
sg75
(lp2942
g345
asbag68
(g89
g70
NtRp2943
(dp2944
g73
(dp2945
g100
g101
ssg82
g2935
sg75
(lp2946
S':'
asbag68
(g89
g70
NtRp2947
(dp2948
g73
(dp2949
sg82
g2935
sg75
(lp2950
g68
(g69
g70
NtRp2951
(dp2952
g73
(dp2953
g81
I3
ssg82
g2947
sg75
(lp2954
S''
asbasbasbag68
(g84
g70
NtRp2955
(dp2956
g73
(dp2957
sg82
g2871
sg75
(lp2958
g68
(g89
g70
NtRp2959
(dp2960
g73
(dp2961
g93
g94
ssg82
g2955
sg75
(lp2962
g366
asbag68
(g89
g70
NtRp2963
(dp2964
g73
(dp2965
g100
g101
ssg82
g2955
sg75
(lp2966
S':'
asbag68
(g89
g70
NtRp2967
(dp2968
g73
(dp2969
sg82
g2955
sg75
(lp2970
g68
(g69
g70
NtRp2971
(dp2972
g73
(dp2973
g81
I3
ssg82
g2967
sg75
(lp2974
S''
asbasbasbag68
(g84
g70
NtRp2975
(dp2976
g73
(dp2977
sg82
g2871
sg75
(lp2978
g68
(g89
g70
NtRp2979
(dp2980
g73
(dp2981
g93
g94
ssg82
g2975
sg75
(lp2982
g387
asbag68
(g89
g70
NtRp2983
(dp2984
g73
(dp2985
g100
g101
ssg82
g2975
sg75
(lp2986
S':'
asbag68
(g89
g70
NtRp2987
(dp2988
g73
(dp2989
sg82
g2975
sg75
(lp2990
g68
(g69
g70
NtRp2991
(dp2992
g73
(dp2993
g81
I3
ssg82
g2987
sg75
(lp2994
S'/'
asbasbasbag68
(g84
g70
NtRp2995
(dp2996
g73
(dp2997
sg82
g2871
sg75
(lp2998
g68
(g89
g70
NtRp2999
(dp3000
g73
(dp3001
g93
g94
ssg82
g2995
sg75
(lp3002
g408
asbag68
(g89
g70
NtRp3003
(dp3004
g73
(dp3005
g100
g101
ssg82
g2995
sg75
(lp3006
S':'
asbag68
(g89
g70
NtRp3007
(dp3008
g73
(dp3009
sg82
g2995
sg75
(lp3010
g68
(g69
g70
NtRp3011
(dp3012
g73
(dp3013
g81
I3
ssg82
g3007
sg75
(lp3014
S''
asbasbasbag68
(g84
g70
NtRp3015
(dp3016
g73
(dp3017
sg82
g2871
sg75
(lp3018
g68
(g89
g70
NtRp3019
(dp3020
g73
(dp3021
g93
g94
ssg82
g3015
sg75
(lp3022
g429
asbag68
(g89
g70
NtRp3023
(dp3024
g73
(dp3025
g100
g101
ssg82
g3015
sg75
(lp3026
S':'
asbag68
(g89
g70
NtRp3027
(dp3028
g73
(dp3029
sg82
g3015
sg75
(lp3030
g68
(g69
g70
NtRp3031
(dp3032
g73
(dp3033
g81
I3
ssg82
g3027
sg75
(lp3034
S''
asbasbasbasbasbasbasbasbasbasbasbag68
(g84
g70
NtRp3035
(dp3036
g73
(dp3037
sg82
g2801
sg75
(lp3038
g68
(g89
g70
NtRp3039
(dp3040
g73
(dp3041
g93
g94
ssg82
g3035
sg75
(lp3042
S'files'
p3043
asbag68
(g89
g70
NtRp3044
(dp3045
g73
(dp3046
g100
g101
ssg82
g3035
sg75
(lp3047
S':'
asbag68
(g89
g70
NtRp3048
(dp3049
g73
(dp3050
sg82
g3035
sg75
(lp3051
g68
(g69
g70
NtRp3052
(dp3053
g73
(dp3054
g81
I5
ssg82
g3048
sg75
(lp3055
g68
(g77
g70
NtRp3056
(dp3057
g73
(dp3058
g81
I4
ssg82
Nsg75
(lp3059
sbasbasbasbag68
(g84
g70
NtRp3060
(dp3061
g73
(dp3062
sg82
g2801
sg75
(lp3063
g68
(g89
g70
NtRp3064
(dp3065
g73
(dp3066
g93
g94
ssg82
g3060
sg75
(lp3067
S'flash'
p3068
asbag68
(g89
g70
NtRp3069
(dp3070
g73
(dp3071
g100
g101
ssg82
g3060
sg75
(lp3072
S':'
asbag68
(g89
g70
NtRp3073
(dp3074
g73
(dp3075
sg82
g3060
sg75
(lp3076
g68
(g69
g70
NtRp3077
(dp3078
g73
(dp3079
g81
I5
ssg82
g3073
sg75
(lp3080
S''
asbasbasbag68
(g84
g70
NtRp3081
(dp3082
g73
(dp3083
sg82
g2801
sg75
(lp3084
g68
(g89
g70
NtRp3085
(dp3086
g73
(dp3087
g93
g94
ssg82
g3081
sg75
(lp3088
S'generic_patterns'
p3089
asbag68
(g89
g70
NtRp3090
(dp3091
g73
(dp3092
g100
g101
ssg82
g3081
sg75
(lp3093
S':'
asbag68
(g89
g70
NtRp3094
(dp3095
g73
(dp3096
sg82
g3081
sg75
(lp3097
g68
(g69
g70
NtRp3098
(dp3099
g73
(dp3100
g81
I5
ssg82
g3094
sg75
(lp3101
g68
(g77
g70
NtRp3102
(dp3103
g73
(dp3104
g81
I4
ssg82
Nsg75
(lp3105
sbasbasbasbag68
(g84
g70
NtRp3106
(dp3107
g73
(dp3108
sg82
g2801
sg75
(lp3109
g68
(g89
g70
NtRp3110
(dp3111
g73
(dp3112
g93
g94
ssg82
g3106
sg75
(lp3113
S'headers'
p3114
asbag68
(g89
g70
NtRp3115
(dp3116
g73
(dp3117
g100
g101
ssg82
g3106
sg75
(lp3118
S':'
asbag68
(g89
g70
NtRp3119
(dp3120
g73
(dp3121
sg82
g3106
sg75
(lp3122
g68
(g69
g70
NtRp3123
(dp3124
g73
(dp3125
g81
I5
ssg82
g3119
sg75
(lp3126
g68
(g77
g70
NtRp3127
(dp3128
g73
(dp3129
g81
I4
ssg82
Nsg75
(lp3130
g68
(g84
g70
NtRp3131
(dp3132
g73
(dp3133
sg82
g3127
sg75
(lp3134
g68
(g89
g70
NtRp3135
(dp3136
g73
(dp3137
g93
g94
ssg82
g3131
sg75
(lp3138
S'Cache-Control'
p3139
asbag68
(g89
g70
NtRp3140
(dp3141
g73
(dp3142
g100
g101
ssg82
g3131
sg75
(lp3143
S':'
asbag68
(g89
g70
NtRp3144
(dp3145
g73
(dp3146
sg82
g3131
sg75
(lp3147
g68
(g69
g70
NtRp3148
(dp3149
g73
(dp3150
g81
I4
ssg82
g3144
sg75
(lp3151
S'no-store, no-cache, must-revalidate, post-check=0, pre-check=0'
p3152
asbasbasbag68
(g84
g70
NtRp3153
(dp3154
g73
(dp3155
sg82
g3127
sg75
(lp3156
g68
(g89
g70
NtRp3157
(dp3158
g73
(dp3159
g93
g94
ssg82
g3153
sg75
(lp3160
S'Content-Type'
p3161
asbag68
(g89
g70
NtRp3162
(dp3163
g73
(dp3164
g100
g101
ssg82
g3153
sg75
(lp3165
S':'
asbag68
(g89
g70
NtRp3166
(dp3167
g73
(dp3168
sg82
g3153
sg75
(lp3169
g68
(g69
g70
NtRp3170
(dp3171
g73
(dp3172
g81
I4
ssg82
g3166
sg75
(lp3173
S'text/html; charset=utf-8'
p3174
asbasbasbag68
(g84
g70
NtRp3175
(dp3176
g73
(dp3177
sg82
g3127
sg75
(lp3178
g68
(g89
g70
NtRp3179
(dp3180
g73
(dp3181
g93
g94
ssg82
g3175
sg75
(lp3182
S'Expires'
p3183
asbag68
(g89
g70
NtRp3184
(dp3185
g73
(dp3186
g100
g101
ssg82
g3175
sg75
(lp3187
S':'
asbag68
(g89
g70
NtRp3188
(dp3189
g73
(dp3190
sg82
g3175
sg75
(lp3191
g68
(g69
g70
NtRp3192
(dp3193
g73
(dp3194
g81
I4
ssg82
g3188
sg75
(lp3195
S'Sun, 28 Aug 2011 12:56:01 GMT'
p3196
asbasbasbag68
(g84
g70
NtRp3197
(dp3198
g73
(dp3199
sg82
g3127
sg75
(lp3200
g68
(g89
g70
NtRp3201
(dp3202
g73
(dp3203
g93
g94
ssg82
g3197
sg75
(lp3204
S'Pragma'
p3205
asbag68
(g89
g70
NtRp3206
(dp3207
g73
(dp3208
g100
g101
ssg82
g3197
sg75
(lp3209
S':'
asbag68
(g89
g70
NtRp3210
(dp3211
g73
(dp3212
sg82
g3197
sg75
(lp3213
g68
(g69
g70
NtRp3214
(dp3215
g73
(dp3216
g81
I4
ssg82
g3210
sg75
(lp3217
S'no-cache'
p3218
asbasbasbag68
(g84
g70
NtRp3219
(dp3220
g73
(dp3221
sg82
g3127
sg75
(lp3222
g68
(g89
g70
NtRp3223
(dp3224
g73
(dp3225
g93
g94
ssg82
g3219
sg75
(lp3226
S'X-Powered-By'
p3227
asbag68
(g89
g70
NtRp3228
(dp3229
g73
(dp3230
g100
g101
ssg82
g3219
sg75
(lp3231
S':'
asbag68
(g89
g70
NtRp3232
(dp3233
g73
(dp3234
sg82
g3219
sg75
(lp3235
g68
(g69
g70
NtRp3236
(dp3237
g73
(dp3238
g81
I4
ssg82
g3232
sg75
(lp3239
S'web2py'
p3240
asbasbasbasbasbasbasbag68
(g84
g70
NtRp3241
(dp3242
g73
(dp3243
sg82
g2801
sg75
(lp3244
g68
(g89
g70
NtRp3245
(dp3246
g73
(dp3247
g93
g94
ssg82
g3241
sg75
(lp3248
S'menu'
p3249
asbag68
(g89
g70
NtRp3250
(dp3251
g73
(dp3252
g100
g101
ssg82
g3241
sg75
(lp3253
S':'
asbag68
(g89
g70
NtRp3254
(dp3255
g73
(dp3256
sg82
g3241
sg75
(lp3257
g68
(g69
g70
NtRp3258
(dp3259
g73
(dp3260
g81
I5
ssg82
g3254
sg75
(lp3261
g68
(g77
g70
NtRp3262
(dp3263
g73
(dp3264
g81
I4
ssg82
Nsg75
(lp3265
g68
(g84
g70
NtRp3266
(dp3267
g73
(dp3268
sg82
g3262
sg75
(lp3269
g68
(g89
g70
NtRp3270
(dp3271
g73
(dp3272
sg82
g3266
sg75
(lp3273
g68
(g69
g70
NtRp3274
(dp3275
g73
(dp3276
g81
I4
ssg82
g3270
sg75
(lp3277
g68
(g77
g70
NtRp3278
(dp3279
g73
(dp3280
g81
I3
ssg82
Nsg75
(lp3281
g68
(g84
g70
NtRp3282
(dp3283
g73
(dp3284
sg82
g3278
sg75
(lp3285
g68
(g89
g70
NtRp3286
(dp3287
g73
(dp3288
sg82
g3282
sg75
(lp3289
g68
(g69
g70
NtRp3290
(dp3291
g73
(dp3292
g81
I3
ssg82
g3286
sg75
(lp3293
cgluon.languages
lazyT_unpickle
p3294
(S't\x05\x00\x00\x00Index'
tRp3295
asbasbasbag68
(g84
g70
NtRp3296
(dp3297
g73
(dp3298
sg82
g3278
sg75
(lp3299
g68
(g89
g70
NtRp3300
(dp3301
g73
(dp3302
sg82
g3296
sg75
(lp3303
g68
(g69
g70
NtRp3304
(dp3305
g73
(dp3306
g81
I3
ssg82
g3300
sg75
(lp3307
g1764
asbasbasbag68
(g84
g70
NtRp3308
(dp3309
g73
(dp3310
sg82
g3278
sg75
(lp3311
g68
(g89
g70
NtRp3312
(dp3313
g73
(dp3314
sg82
g3308
sg75
(lp3315
g68
(g69
g70
NtRp3316
(dp3317
g73
(dp3318
g81
I3
ssg82
g3312
sg75
(lp3319
S'/init/default/index'
p3320
asbasbasbag68
(g84
g70
NtRp3321
(dp3322
g73
(dp3323
sg82
g3278
sg75
(lp3324
g68
(g89
g70
NtRp3325
(dp3326
g73
(dp3327
sg82
g3321
sg75
(lp3328
g68
(g69
g70
NtRp3329
(dp3330
g73
(dp3331
g81
I3
ssg82
g3325
sg75
(lp3332
g68
(g77
g70
NtRp3333
(dp3334
g73
(dp3335
g81
I2
ssg82
Nsg75
(lp3336
sbasbasbasbasbasbasbasbag68
(g84
g70
NtRp3337
(dp3338
g73
(dp3339
sg82
g3262
sg75
(lp3340
g68
(g89
g70
NtRp3341
(dp3342
g73
(dp3343
sg82
g3337
sg75
(lp3344
g68
(g69
g70
NtRp3345
(dp3346
g73
(dp3347
g81
I4
ssg82
g3341
sg75
(lp3348
g68
(g77
g70
NtRp3349
(dp3350
g73
(dp3351
g81
I3
ssg82
Nsg75
(lp3352
g68
(g84
g70
NtRp3353
(dp3354
g73
(dp3355
sg82
g3349
sg75
(lp3356
g68
(g89
g70
NtRp3357
(dp3358
g73
(dp3359
sg82
g3353
sg75
(lp3360
g68
(g69
g70
NtRp3361
(dp3362
g73
(dp3363
g81
I3
ssg82
g3357
sg75
(lp3364
g3294
(S't\n\x00\x00\x00Submission'
tRp3365
asbasbasbag68
(g84
g70
NtRp3366
(dp3367
g73
(dp3368
sg82
g3349
sg75
(lp3369
g68
(g89
g70
NtRp3370
(dp3371
g73
(dp3372
sg82
g3366
sg75
(lp3373
g68
(g69
g70
NtRp3374
(dp3375
g73
(dp3376
g81
I3
ssg82
g3370
sg75
(lp3377
g111
asbasbasbag68
(g84
g70
NtRp3378
(dp3379
g73
(dp3380
sg82
g3349
sg75
(lp3381
g68
(g89
g70
NtRp3382
(dp3383
g73
(dp3384
sg82
g3378
sg75
(lp3385
g68
(g69
g70
NtRp3386
(dp3387
g73
(dp3388
g81
I3
ssg82
g3382
sg75
(lp3389
S'/init/default/submission'
p3390
asbasbasbag68
(g84
g70
NtRp3391
(dp3392
g73
(dp3393
sg82
g3349
sg75
(lp3394
g68
(g89
g70
NtRp3395
(dp3396
g73
(dp3397
sg82
g3391
sg75
(lp3398
g68
(g69
g70
NtRp3399
(dp3400
g73
(dp3401
g81
I3
ssg82
g3395
sg75
(lp3402
g68
(g77
g70
NtRp3403
(dp3404
g73
(dp3405
g81
I2
ssg82
Nsg75
(lp3406
sbasbasbasbasbasbasbasbag68
(g84
g70
NtRp3407
(dp3408
g73
(dp3409
sg82
g3262
sg75
(lp3410
g68
(g89
g70
NtRp3411
(dp3412
g73
(dp3413
sg82
g3407
sg75
(lp3414
g68
(g69
g70
NtRp3415
(dp3416
g73
(dp3417
g81
I4
ssg82
g3411
sg75
(lp3418
g68
(g77
g70
NtRp3419
(dp3420
g73
(dp3421
g81
I3
ssg82
Nsg75
(lp3422
g68
(g84
g70
NtRp3423
(dp3424
g73
(dp3425
sg82
g3419
sg75
(lp3426
g68
(g89
g70
NtRp3427
(dp3428
g73
(dp3429
sg82
g3423
sg75
(lp3430
g68
(g69
g70
NtRp3431
(dp3432
g73
(dp3433
g81
I3
ssg82
g3427
sg75
(lp3434
g3294
(S't\x06\x00\x00\x00Tulips'
tRp3435
asbasbasbag68
(g84
g70
NtRp3436
(dp3437
g73
(dp3438
sg82
g3419
sg75
(lp3439
g68
(g89
g70
NtRp3440
(dp3441
g73
(dp3442
sg82
g3436
sg75
(lp3443
g68
(g69
g70
NtRp3444
(dp3445
g73
(dp3446
g81
I3
ssg82
g3440
sg75
(lp3447
g111
asbasbasbag68
(g84
g70
NtRp3448
(dp3449
g73
(dp3450
sg82
g3419
sg75
(lp3451
g68
(g89
g70
NtRp3452
(dp3453
g73
(dp3454
sg82
g3448
sg75
(lp3455
g68
(g69
g70
NtRp3456
(dp3457
g73
(dp3458
g81
I3
ssg82
g3452
sg75
(lp3459
S'/init/default/tulip'
p3460
asbasbasbag68
(g84
g70
NtRp3461
(dp3462
g73
(dp3463
sg82
g3419
sg75
(lp3464
g68
(g89
g70
NtRp3465
(dp3466
g73
(dp3467
sg82
g3461
sg75
(lp3468
g68
(g69
g70
NtRp3469
(dp3470
g73
(dp3471
g81
I3
ssg82
g3465
sg75
(lp3472
g68
(g77
g70
NtRp3473
(dp3474
g73
(dp3475
g81
I2
ssg82
Nsg75
(lp3476
sbasbasbasbasbasbasbasbasbasbasbasbag68
(g84
g70
NtRp3477
(dp3478
g73
(dp3479
sg82
g2801
sg75
(lp3480
g68
(g89
g70
NtRp3481
(dp3482
g73
(dp3483
g93
g94
ssg82
g3477
sg75
(lp3484
S'meta'
p3485
asbag68
(g89
g70
NtRp3486
(dp3487
g73
(dp3488
g100
g101
ssg82
g3477
sg75
(lp3489
S':'
asbag68
(g89
g70
NtRp3490
(dp3491
g73
(dp3492
sg82
g3477
sg75
(lp3493
g68
(g69
g70
NtRp3494
(dp3495
g73
(dp3496
g81
I5
ssg82
g3490
sg75
(lp3497
g68
(g77
g70
NtRp3498
(dp3499
g73
(dp3500
g81
I4
ssg82
Nsg75
(lp3501
g68
(g84
g70
NtRp3502
(dp3503
g73
(dp3504
sg82
g3498
sg75
(lp3505
g68
(g89
g70
NtRp3506
(dp3507
g73
(dp3508
g93
g94
ssg82
g3502
sg75
(lp3509
S'author'
p3510
asbag68
(g89
g70
NtRp3511
(dp3512
g73
(dp3513
g100
g101
ssg82
g3502
sg75
(lp3514
S':'
asbag68
(g89
g70
NtRp3515
(dp3516
g73
(dp3517
sg82
g3502
sg75
(lp3518
g68
(g69
g70
NtRp3519
(dp3520
g73
(dp3521
g81
I4
ssg82
g3515
sg75
(lp3522
S'RGC <info@globaleaks.org>'
p3523
asbasbasbag68
(g84
g70
NtRp3524
(dp3525
g73
(dp3526
sg82
g3498
sg75
(lp3527
g68
(g89
g70
NtRp3528
(dp3529
g73
(dp3530
g93
g94
ssg82
g3524
sg75
(lp3531
S'description'
p3532
asbag68
(g89
g70
NtRp3533
(dp3534
g73
(dp3535
g100
g101
ssg82
g3524
sg75
(lp3536
S':'
asbag68
(g89
g70
NtRp3537
(dp3538
g73
(dp3539
sg82
g3524
sg75
(lp3540
g68
(g69
g70
NtRp3541
(dp3542
g73
(dp3543
g81
I4
ssg82
g3537
sg75
(lp3544
S''
asbasbasbag68
(g84
g70
NtRp3545
(dp3546
g73
(dp3547
sg82
g3498
sg75
(lp3548
g68
(g89
g70
NtRp3549
(dp3550
g73
(dp3551
g93
g94
ssg82
g3545
sg75
(lp3552
S'keywords'
p3553
asbag68
(g89
g70
NtRp3554
(dp3555
g73
(dp3556
g100
g101
ssg82
g3545
sg75
(lp3557
S':'
asbag68
(g89
g70
NtRp3558
(dp3559
g73
(dp3560
sg82
g3545
sg75
(lp3561
g68
(g69
g70
NtRp3562
(dp3563
g73
(dp3564
g81
I4
ssg82
g3558
sg75
(lp3565
S''
asbasbasbasbasbasbasbag68
(g84
g70
NtRp3566
(dp3567
g73
(dp3568
sg82
g2801
sg75
(lp3569
g68
(g89
g70
NtRp3570
(dp3571
g73
(dp3572
g93
g94
ssg82
g3566
sg75
(lp3573
S'postprocessing'
p3574
asbag68
(g89
g70
NtRp3575
(dp3576
g73
(dp3577
g100
g101
ssg82
g3566
sg75
(lp3578
S':'
asbag68
(g89
g70
NtRp3579
(dp3580
g73
(dp3581
sg82
g3566
sg75
(lp3582
g68
(g69
g70
NtRp3583
(dp3584
g73
(dp3585
g81
I5
ssg82
g3579
sg75
(lp3586
g68
(g77
g70
NtRp3587
(dp3588
g73
(dp3589
g81
I4
ssg82
Nsg75
(lp3590
sbasbasbasbag68
(g84
g70
NtRp3591
(dp3592
g73
(dp3593
sg82
g2801
sg75
(lp3594
g68
(g89
g70
NtRp3595
(dp3596
g73
(dp3597
g93
g94
ssg82
g3591
sg75
(lp3598
S'session_file'
p3599
asbag68
(g89
g70
NtRp3600
(dp3601
g73
(dp3602
g100
g101
ssg82
g3591
sg75
(lp3603
S':'
asbag68
(g89
g70
NtRp3604
(dp3605
g73
(dp3606
sg82
g3591
sg75
(lp3607
g68
(g69
g70
NtRp3608
(dp3609
g73
(dp3610
g81
I5
ssg82
g3604
sg75
(lp3611
S"<open file '/Users/hellais/Documents/code/mygit/globaleaks/webapp/applications/init/sessions/127.0.0.1-a8551263-bc3c-430c-abb2-8711fac671c1', mode 'rb+' at 0x101672b70>"
p3612
asbasbasbag68
(g84
g70
NtRp3613
(dp3614
g73
(dp3615
sg82
g2801
sg75
(lp3616
g68
(g89
g70
NtRp3617
(dp3618
g73
(dp3619
g93
g94
ssg82
g3613
sg75
(lp3620
S'session_filename'
p3621
asbag68
(g89
g70
NtRp3622
(dp3623
g73
(dp3624
g100
g101
ssg82
g3613
sg75
(lp3625
S':'
asbag68
(g89
g70
NtRp3626
(dp3627
g73
(dp3628
sg82
g3613
sg75
(lp3629
g68
(g69
g70
NtRp3630
(dp3631
g73
(dp3632
g81
I5
ssg82
g3626
sg75
(lp3633
S'/Users/hellais/Documents/code/mygit/globaleaks/webapp/applications/init/sessions/127.0.0.1-a8551263-bc3c-430c-abb2-8711fac671c1'
p3634
asbasbasbag68
(g84
g70
NtRp3635
(dp3636
g73
(dp3637
sg82
g2801
sg75
(lp3638
g68
(g89
g70
NtRp3639
(dp3640
g73
(dp3641
g93
g94
ssg82
g3635
sg75
(lp3642
S'session_id'
p3643
asbag68
(g89
g70
NtRp3644
(dp3645
g73
(dp3646
g100
g101
ssg82
g3635
sg75
(lp3647
S':'
asbag68
(g89
g70
NtRp3648
(dp3649
g73
(dp3650
sg82
g3635
sg75
(lp3651
g68
(g69
g70
NtRp3652
(dp3653
g73
(dp3654
g81
I5
ssg82
g3648
sg75
(lp3655
S'127.0.0.1-a8551263-bc3c-430c-abb2-8711fac671c1'
p3656
asbasbasbag68
(g84
g70
NtRp3657
(dp3658
g73
(dp3659
sg82
g2801
sg75
(lp3660
g68
(g89
g70
NtRp3661
(dp3662
g73
(dp3663
g93
g94
ssg82
g3657
sg75
(lp3664
S'session_id_name'
p3665
asbag68
(g89
g70
NtRp3666
(dp3667
g73
(dp3668
g100
g101
ssg82
g3657
sg75
(lp3669
S':'
asbag68
(g89
g70
NtRp3670
(dp3671
g73
(dp3672
sg82
g3657
sg75
(lp3673
g68
(g69
g70
NtRp3674
(dp3675
g73
(dp3676
g81
I5
ssg82
g3670
sg75
(lp3677
g2858
asbasbasbag68
(g84
g70
NtRp3678
(dp3679
g73
(dp3680
sg82
g2801
sg75
(lp3681
g68
(g89
g70
NtRp3682
(dp3683
g73
(dp3684
g93
g94
ssg82
g3678
sg75
(lp3685
S'session_locked'
p3686
asbag68
(g89
g70
NtRp3687
(dp3688
g73
(dp3689
g100
g101
ssg82
g3678
sg75
(lp3690
S':'
asbag68
(g89
g70
NtRp3691
(dp3692
g73
(dp3693
sg82
g3678
sg75
(lp3694
g68
(g69
g70
NtRp3695
(dp3696
g73
(dp3697
g81
I5
ssg82
g3691
sg75
(lp3698
g1764
asbasbasbag68
(g84
g70
NtRp3699
(dp3700
g73
(dp3701
sg82
g2801
sg75
(lp3702
g68
(g89
g70
NtRp3703
(dp3704
g73
(dp3705
g93
g94
ssg82
g3699
sg75
(lp3706
S'session_new'
p3707
asbag68
(g89
g70
NtRp3708
(dp3709
g73
(dp3710
g100
g101
ssg82
g3699
sg75
(lp3711
S':'
asbag68
(g89
g70
NtRp3712
(dp3713
g73
(dp3714
sg82
g3699
sg75
(lp3715
g68
(g69
g70
NtRp3716
(dp3717
g73
(dp3718
g81
I5
ssg82
g3712
sg75
(lp3719
g111
asbasbasbag68
(g84
g70
NtRp3720
(dp3721
g73
(dp3722
sg82
g2801
sg75
(lp3723
g68
(g89
g70
NtRp3724
(dp3725
g73
(dp3726
g93
g94
ssg82
g3720
sg75
(lp3727
S'status'
p3728
asbag68
(g89
g70
NtRp3729
(dp3730
g73
(dp3731
g100
g101
ssg82
g3720
sg75
(lp3732
S':'
asbag68
(g89
g70
NtRp3733
(dp3734
g73
(dp3735
sg82
g3720
sg75
(lp3736
g68
(g69
g70
NtRp3737
(dp3738
g73
(dp3739
g81
I5
ssg82
g3733
sg75
(lp3740
S'200'
p3741
asbasbasbag68
(g84
g70
NtRp3742
(dp3743
g73
(dp3744
sg82
g2801
sg75
(lp3745
g68
(g89
g70
NtRp3746
(dp3747
g73
(dp3748
g93
g94
ssg82
g3742
sg75
(lp3749
S'subtitle'
p3750
asbag68
(g89
g70
NtRp3751
(dp3752
g73
(dp3753
g100
g101
ssg82
g3742
sg75
(lp3754
S':'
asbag68
(g89
g70
NtRp3755
(dp3756
g73
(dp3757
sg82
g3742
sg75
(lp3758
g68
(g69
g70
NtRp3759
(dp3760
g73
(dp3761
g81
I5
ssg82
g3755
sg75
(lp3762
S'Open Source Whistleblowing Platform'
p3763
asbasbasbag68
(g84
g70
NtRp3764
(dp3765
g73
(dp3766
sg82
g2801
sg75
(lp3767
g68
(g89
g70
NtRp3768
(dp3769
g73
(dp3770
g93
g94
ssg82
g3764
sg75
(lp3771
S'title'
p3772
asbag68
(g89
g70
NtRp3773
(dp3774
g73
(dp3775
g100
g101
ssg82
g3764
sg75
(lp3776
S':'
asbag68
(g89
g70
NtRp3777
(dp3778
g73
(dp3779
sg82
g3764
sg75
(lp3780
g68
(g69
g70
NtRp3781
(dp3782
g73
(dp3783
g81
I5
ssg82
g3777
sg75
(lp3784
S'GlobaLeaks'
p3785
asbasbasbag68
(g84
g70
NtRp3786
(dp3787
g73
(dp3788
sg82
g2801
sg75
(lp3789
g68
(g89
g70
NtRp3790
(dp3791
g73
(dp3792
g93
g94
ssg82
g3786
sg75
(lp3793
g2088
asbag68
(g89
g70
NtRp3794
(dp3795
g73
(dp3796
g100
g101
ssg82
g3786
sg75
(lp3797
S':'
asbag68
(g89
g70
NtRp3798
(dp3799
g73
(dp3800
sg82
g3786
sg75
(lp3801
g68
(g69
g70
NtRp3802
(dp3803
g73
(dp3804
g81
I5
ssg82
g3798
sg75
(lp3805
g2101
asbasbasbag68
(g84
g70
NtRp3806
(dp3807
g73
(dp3808
sg82
g2801
sg75
(lp3809
g68
(g89
g70
NtRp3810
(dp3811
g73
(dp3812
g93
g94
ssg82
g3806
sg75
(lp3813
S'view'
p3814
asbag68
(g89
g70
NtRp3815
(dp3816
g73
(dp3817
g100
g101
ssg82
g3806
sg75
(lp3818
S':'
asbag68
(g89
g70
NtRp3819
(dp3820
g73
(dp3821
sg82
g3806
sg75
(lp3822
g68
(g69
g70
NtRp3823
(dp3824
g73
(dp3825
g81
I5
ssg82
g3819
sg75
(lp3826
S'default/index.html'
p3827
asbasbasbasbasbsS'locals'
p3828
(dp3829
g3
S"'/Users/hellais/Documents/code/mygit/globaleaks/webapp/applications/init/controllers/default.py'"
p3830
sg5
S"'# -*- coding: utf-8 -*-\\n### required - do no del...n dict()\\n\\nresponse._vars=response._caller(index)\\n'"
p3831
sssS'traceback'
p3832
S'Traceback (most recent call last):\n  File "/opt/local/Library/Frameworks/Python.framework/Versions/2.7/lib/python2.7/gluon/restricted.py", line 191, in restricted\n    ccode = compile2(code,layer)\n  File "/opt/local/Library/Frameworks/Python.framework/Versions/2.7/lib/python2.7/gluon/restricted.py", line 178, in compile2\n    return compile(code.rstrip().replace(\'\\r\\n\',\'\\n\')+\'\\n\', layer, \'exec\')\n  File "/Users/hellais/Documents/code/mygit/globaleaks/webapp/applications/init/controllers/default.py", line 73\n    tulip_allowed_downloads=t.allowed_downloads)\n                                               ^\nSyntaxError: invalid syntax\n'
p3833
s.