(dp1
S'output'
p2
S''
sS'layer'
p3
S'/Users/hellais/Documents/code/mygit/globaleaks/webapp/applications/globaleaks/controllers/tulip.py'
p4
sS'code'
p5
S'def index():\n    return dict(dead=False,\n                leak_title=None,\n                leak_tags=None,\n                leak_desc=None,\n                leak_material=None,\n                tulip_downloads=None,\n                tulip_allowed_downloads=None,\n                comment=None, \n                name=None,\n                comment_form=None)\n\ndef status():\n    tulip_url = request.args[0]\n    t = Tulip(url=tulip_url)\n    leak = t.get_leak()\n    dead = False\n    \n    form = SQLFORM.factory(Field(\'Comment\', \'text\', requires=IS_NOT_EMPTY()))\n\n    if(int(t.downloads_counter) >= int(t.allowed_downloads) and int(t.allowed_downloads)!=0):\n        dead = True\n    else:\n        t.downloads_counter = int(t.downloads_counter) + 1\n\n    if form.accepts(request.vars, session):\n        response.flash = \'ok!\'\n        c = response.vars\n        print response.vars\n\n        return dict(dead=dead,\n                leak_title=leak.title,\n                leak_tags=leak.tags,\n                leak_desc=leak.desc,\n                leak_material=leak.material,\n                tulip_downloads=t.downloads_counter,\n                tulip_allowed_downloads=t.allowed_downloads,\n                comment="asdads", \n                name=t.target, \n                comment_form=form)\n\n    elif form.errors:\n        response.flash = \'form has errors\'\n    else:\n        response.flash = \'please fill the form\'    \n\n\n    return dict(dead=dead,\n                leak_title=leak.title,\n                leak_tags=leak.tags,\n                leak_desc=leak.desc,\n                leak_material=leak.material,\n                tulip_downloads=t.downloads_counter,\n                tulip_allowed_downloads=t.allowed_downloads,\n                comment_form=form,\n                comment=None)\n\nresponse._vars=response._caller(status)\n'
p6
sS'snapshot'
p7
(dp8
S'exception'
p9
(dp10
S'__hash__'
p11
S"<method-wrapper '__hash__' of exceptions.AttributeError object>"
p12
sS'__setattr__'
p13
S"<method-wrapper '__setattr__' of exceptions.AttributeError object>"
p14
sS'__reduce_ex__'
p15
S'<built-in method __reduce_ex__ of exceptions.AttributeError object>'
p16
sS'__getslice__'
p17
S"<method-wrapper '__getslice__' of exceptions.AttributeError object>"
p18
sS'__getitem__'
p19
S"<method-wrapper '__getitem__' of exceptions.AttributeError object>"
p20
sS'__setstate__'
p21
S'<built-in method __setstate__ of exceptions.AttributeError object>'
p22
sS'args'
p23
S'("\'NoneType\' object has no attribute \'id\'",)'
p24
sS'__reduce__'
p25
S'<built-in method __reduce__ of exceptions.AttributeError object>'
p26
sS'__str__'
p27
S"<method-wrapper '__str__' of exceptions.AttributeError object>"
p28
sS'__format__'
p29
S'<built-in method __format__ of exceptions.AttributeError object>'
p30
sS'__getattribute__'
p31
S"<method-wrapper '__getattribute__' of exceptions.AttributeError object>"
p32
sS'__class__'
p33
S"<type 'exceptions.AttributeError'>"
p34
sS'__unicode__'
p35
S'<built-in method __unicode__ of exceptions.AttributeError object>'
p36
sS'__delattr__'
p37
S"<method-wrapper '__delattr__' of exceptions.AttributeError object>"
p38
sS'__subclasshook__'
p39
S'<built-in method __subclasshook__ of type object>'
p40
sS'__repr__'
p41
S"<method-wrapper '__repr__' of exceptions.AttributeError object>"
p42
sS'__dict__'
p43
S'{}'
p44
sS'__sizeof__'
p45
S'<built-in method __sizeof__ of exceptions.AttributeError object>'
p46
sS'__doc__'
p47
S"'Attribute not found.'"
p48
sS'__init__'
p49
S"<method-wrapper '__init__' of exceptions.AttributeError object>"
p50
sS'__new__'
p51
S'<built-in method __new__ of type object>'
p52
ssS'evalue'
p53
S"'NoneType' object has no attribute 'id'"
p54
sS'request'
p55
ccopy_reg
_reconstructor
p56
(cgluon.html
BEAUTIFY
p57
c__builtin__
object
p58
NtRp59
(dp60
S'attributes'
p61
(dp62
sS'components'
p63
(lp64
g56
(cgluon.html
TABLE
p65
g58
NtRp66
(dp67
g61
(dp68
S'level'
p69
I5
ssS'parent'
p70
Nsg63
(lp71
g56
(cgluon.html
TR
p72
g58
NtRp73
(dp74
g61
(dp75
sg70
g66
sg63
(lp76
g56
(cgluon.html
TD
p77
g58
NtRp78
(dp79
g61
(dp80
S'_style'
p81
S'font-weight:bold;'
p82
ssg70
g73
sg63
(lp83
S'ajax'
p84
asbag56
(g77
g58
NtRp85
(dp86
g61
(dp87
S'_valign'
p88
S'top'
p89
ssg70
g73
sg63
(lp90
S':'
asbag56
(g77
g58
NtRp91
(dp92
g61
(dp93
sg70
g73
sg63
(lp94
g56
(g57
g58
NtRp95
(dp96
g61
(dp97
g69
I5
ssg70
g91
sg63
(lp98
S'False'
p99
asbasbasbag56
(g72
g58
NtRp100
(dp101
g61
(dp102
sg70
g66
sg63
(lp103
g56
(g77
g58
NtRp104
(dp105
g61
(dp106
g81
g82
ssg70
g100
sg63
(lp107
S'application'
p108
asbag56
(g77
g58
NtRp109
(dp110
g61
(dp111
g88
g89
ssg70
g100
sg63
(lp112
S':'
asbag56
(g77
g58
NtRp113
(dp114
g61
(dp115
sg70
g100
sg63
(lp116
g56
(g57
g58
NtRp117
(dp118
g61
(dp119
g69
I5
ssg70
g113
sg63
(lp120
S'globaleaks'
p121
asbasbasbag56
(g72
g58
NtRp122
(dp123
g61
(dp124
sg70
g66
sg63
(lp125
g56
(g77
g58
NtRp126
(dp127
g61
(dp128
g81
g82
ssg70
g122
sg63
(lp129
g23
asbag56
(g77
g58
NtRp130
(dp131
g61
(dp132
g88
g89
ssg70
g122
sg63
(lp133
S':'
asbag56
(g77
g58
NtRp134
(dp135
g61
(dp136
sg70
g122
sg63
(lp137
g56
(g57
g58
NtRp138
(dp139
g61
(dp140
g69
I5
ssg70
g134
sg63
(lp141
g56
(g65
g58
NtRp142
(dp143
g61
(dp144
g69
I4
ssg70
Nsg63
(lp145
g56
(g72
g58
NtRp146
(dp147
g61
(dp148
sg70
g142
sg63
(lp149
g56
(g77
g58
NtRp150
(dp151
g61
(dp152
sg70
g146
sg63
(lp153
g56
(g57
g58
NtRp154
(dp155
g61
(dp156
g69
I4
ssg70
g150
sg63
(lp157
S'asd'
p158
asbasbasbasbasbasbasbag56
(g72
g58
NtRp159
(dp160
g61
(dp161
sg70
g66
sg63
(lp162
g56
(g77
g58
NtRp163
(dp164
g61
(dp165
g81
g82
ssg70
g159
sg63
(lp166
S'body'
p167
asbag56
(g77
g58
NtRp168
(dp169
g61
(dp170
g88
g89
ssg70
g159
sg63
(lp171
S':'
asbag56
(g77
g58
NtRp172
(dp173
g61
(dp174
sg70
g159
sg63
(lp175
g56
(g57
g58
NtRp176
(dp177
g61
(dp178
g69
I5
ssg70
g172
sg63
(lp179
S'<cStringIO.StringO object at 0x101905dc0>'
p180
asbasbasbag56
(g72
g58
NtRp181
(dp182
g61
(dp183
sg70
g66
sg63
(lp184
g56
(g77
g58
NtRp185
(dp186
g61
(dp187
g81
g82
ssg70
g181
sg63
(lp188
S'client'
p189
asbag56
(g77
g58
NtRp190
(dp191
g61
(dp192
g88
g89
ssg70
g181
sg63
(lp193
S':'
asbag56
(g77
g58
NtRp194
(dp195
g61
(dp196
sg70
g181
sg63
(lp197
g56
(g57
g58
NtRp198
(dp199
g61
(dp200
g69
I5
ssg70
g194
sg63
(lp201
S'127.0.0.1'
p202
asbasbasbag56
(g72
g58
NtRp203
(dp204
g61
(dp205
sg70
g66
sg63
(lp206
g56
(g77
g58
NtRp207
(dp208
g61
(dp209
g81
g82
ssg70
g203
sg63
(lp210
S'controller'
p211
asbag56
(g77
g58
NtRp212
(dp213
g61
(dp214
g88
g89
ssg70
g203
sg63
(lp215
S':'
asbag56
(g77
g58
NtRp216
(dp217
g61
(dp218
sg70
g203
sg63
(lp219
g56
(g57
g58
NtRp220
(dp221
g61
(dp222
g69
I5
ssg70
g216
sg63
(lp223
S'tulip'
p224
asbasbasbag56
(g72
g58
NtRp225
(dp226
g61
(dp227
sg70
g66
sg63
(lp228
g56
(g77
g58
NtRp229
(dp230
g61
(dp231
g81
g82
ssg70
g225
sg63
(lp232
S'cookies'
p233
asbag56
(g77
g58
NtRp234
(dp235
g61
(dp236
g88
g89
ssg70
g225
sg63
(lp237
S':'
asbag56
(g77
g58
NtRp238
(dp239
g61
(dp240
sg70
g225
sg63
(lp241
g56
(g57
g58
NtRp242
(dp243
g61
(dp244
g69
I5
ssg70
g238
sg63
(lp245
g56
(g65
g58
NtRp246
(dp247
g61
(dp248
g69
I4
ssg70
Nsg63
(lp249
g56
(g72
g58
NtRp250
(dp251
g61
(dp252
sg70
g246
sg63
(lp253
g56
(g77
g58
NtRp254
(dp255
g61
(dp256
g81
g82
ssg70
g250
sg63
(lp257
S'session_id_admin'
p258
asbag56
(g77
g58
NtRp259
(dp260
g61
(dp261
g88
g89
ssg70
g250
sg63
(lp262
S':'
asbag56
(g77
g58
NtRp263
(dp264
g61
(dp265
sg70
g250
sg63
(lp266
g56
(g57
g58
NtRp267
(dp268
g61
(dp269
g69
I4
ssg70
g263
sg63
(lp270
g56
(g65
g58
NtRp271
(dp272
g61
(dp273
g69
I3
ssg70
Nsg63
(lp274
g56
(g72
g58
NtRp275
(dp276
g61
(dp277
sg70
g271
sg63
(lp278
g56
(g77
g58
NtRp279
(dp280
g61
(dp281
g81
g82
ssg70
g275
sg63
(lp282
S'comment'
p283
asbag56
(g77
g58
NtRp284
(dp285
g61
(dp286
g88
g89
ssg70
g275
sg63
(lp287
S':'
asbag56
(g77
g58
NtRp288
(dp289
g61
(dp290
sg70
g275
sg63
(lp291
g56
(g57
g58
NtRp292
(dp293
g61
(dp294
g69
I3
ssg70
g288
sg63
(lp295
S''
asbasbasbag56
(g72
g58
NtRp296
(dp297
g61
(dp298
sg70
g271
sg63
(lp299
g56
(g77
g58
NtRp300
(dp301
g61
(dp302
g81
g82
ssg70
g296
sg63
(lp303
S'domain'
p304
asbag56
(g77
g58
NtRp305
(dp306
g61
(dp307
g88
g89
ssg70
g296
sg63
(lp308
S':'
asbag56
(g77
g58
NtRp309
(dp310
g61
(dp311
sg70
g296
sg63
(lp312
g56
(g57
g58
NtRp313
(dp314
g61
(dp315
g69
I3
ssg70
g309
sg63
(lp316
S''
asbasbasbag56
(g72
g58
NtRp317
(dp318
g61
(dp319
sg70
g271
sg63
(lp320
g56
(g77
g58
NtRp321
(dp322
g61
(dp323
g81
g82
ssg70
g317
sg63
(lp324
S'expires'
p325
asbag56
(g77
g58
NtRp326
(dp327
g61
(dp328
g88
g89
ssg70
g317
sg63
(lp329
S':'
asbag56
(g77
g58
NtRp330
(dp331
g61
(dp332
sg70
g317
sg63
(lp333
g56
(g57
g58
NtRp334
(dp335
g61
(dp336
g69
I3
ssg70
g330
sg63
(lp337
S''
asbasbasbag56
(g72
g58
NtRp338
(dp339
g61
(dp340
sg70
g271
sg63
(lp341
g56
(g77
g58
NtRp342
(dp343
g61
(dp344
g81
g82
ssg70
g338
sg63
(lp345
S'httponly'
p346
asbag56
(g77
g58
NtRp347
(dp348
g61
(dp349
g88
g89
ssg70
g338
sg63
(lp350
S':'
asbag56
(g77
g58
NtRp351
(dp352
g61
(dp353
sg70
g338
sg63
(lp354
g56
(g57
g58
NtRp355
(dp356
g61
(dp357
g69
I3
ssg70
g351
sg63
(lp358
S''
asbasbasbag56
(g72
g58
NtRp359
(dp360
g61
(dp361
sg70
g271
sg63
(lp362
g56
(g77
g58
NtRp363
(dp364
g61
(dp365
g81
g82
ssg70
g359
sg63
(lp366
S'max-age'
p367
asbag56
(g77
g58
NtRp368
(dp369
g61
(dp370
g88
g89
ssg70
g359
sg63
(lp371
S':'
asbag56
(g77
g58
NtRp372
(dp373
g61
(dp374
sg70
g359
sg63
(lp375
g56
(g57
g58
NtRp376
(dp377
g61
(dp378
g69
I3
ssg70
g372
sg63
(lp379
S''
asbasbasbag56
(g72
g58
NtRp380
(dp381
g61
(dp382
sg70
g271
sg63
(lp383
g56
(g77
g58
NtRp384
(dp385
g61
(dp386
g81
g82
ssg70
g380
sg63
(lp387
S'path'
p388
asbag56
(g77
g58
NtRp389
(dp390
g61
(dp391
g88
g89
ssg70
g380
sg63
(lp392
S':'
asbag56
(g77
g58
NtRp393
(dp394
g61
(dp395
sg70
g380
sg63
(lp396
g56
(g57
g58
NtRp397
(dp398
g61
(dp399
g69
I3
ssg70
g393
sg63
(lp400
S''
asbasbasbag56
(g72
g58
NtRp401
(dp402
g61
(dp403
sg70
g271
sg63
(lp404
g56
(g77
g58
NtRp405
(dp406
g61
(dp407
g81
g82
ssg70
g401
sg63
(lp408
S'secure'
p409
asbag56
(g77
g58
NtRp410
(dp411
g61
(dp412
g88
g89
ssg70
g401
sg63
(lp413
S':'
asbag56
(g77
g58
NtRp414
(dp415
g61
(dp416
sg70
g401
sg63
(lp417
g56
(g57
g58
NtRp418
(dp419
g61
(dp420
g69
I3
ssg70
g414
sg63
(lp421
S''
asbasbasbag56
(g72
g58
NtRp422
(dp423
g61
(dp424
sg70
g271
sg63
(lp425
g56
(g77
g58
NtRp426
(dp427
g61
(dp428
g81
g82
ssg70
g422
sg63
(lp429
S'version'
p430
asbag56
(g77
g58
NtRp431
(dp432
g61
(dp433
g88
g89
ssg70
g422
sg63
(lp434
S':'
asbag56
(g77
g58
NtRp435
(dp436
g61
(dp437
sg70
g422
sg63
(lp438
g56
(g57
g58
NtRp439
(dp440
g61
(dp441
g69
I3
ssg70
g435
sg63
(lp442
S''
asbasbasbasbasbasbasbag56
(g72
g58
NtRp443
(dp444
g61
(dp445
sg70
g246
sg63
(lp446
g56
(g77
g58
NtRp447
(dp448
g61
(dp449
g81
g82
ssg70
g443
sg63
(lp450
S'session_id_blabla'
p451
asbag56
(g77
g58
NtRp452
(dp453
g61
(dp454
g88
g89
ssg70
g443
sg63
(lp455
S':'
asbag56
(g77
g58
NtRp456
(dp457
g61
(dp458
sg70
g443
sg63
(lp459
g56
(g57
g58
NtRp460
(dp461
g61
(dp462
g69
I4
ssg70
g456
sg63
(lp463
g56
(g65
g58
NtRp464
(dp465
g61
(dp466
g69
I3
ssg70
Nsg63
(lp467
g56
(g72
g58
NtRp468
(dp469
g61
(dp470
sg70
g464
sg63
(lp471
g56
(g77
g58
NtRp472
(dp473
g61
(dp474
g81
g82
ssg70
g468
sg63
(lp475
g283
asbag56
(g77
g58
NtRp476
(dp477
g61
(dp478
g88
g89
ssg70
g468
sg63
(lp479
S':'
asbag56
(g77
g58
NtRp480
(dp481
g61
(dp482
sg70
g468
sg63
(lp483
g56
(g57
g58
NtRp484
(dp485
g61
(dp486
g69
I3
ssg70
g480
sg63
(lp487
S''
asbasbasbag56
(g72
g58
NtRp488
(dp489
g61
(dp490
sg70
g464
sg63
(lp491
g56
(g77
g58
NtRp492
(dp493
g61
(dp494
g81
g82
ssg70
g488
sg63
(lp495
g304
asbag56
(g77
g58
NtRp496
(dp497
g61
(dp498
g88
g89
ssg70
g488
sg63
(lp499
S':'
asbag56
(g77
g58
NtRp500
(dp501
g61
(dp502
sg70
g488
sg63
(lp503
g56
(g57
g58
NtRp504
(dp505
g61
(dp506
g69
I3
ssg70
g500
sg63
(lp507
S''
asbasbasbag56
(g72
g58
NtRp508
(dp509
g61
(dp510
sg70
g464
sg63
(lp511
g56
(g77
g58
NtRp512
(dp513
g61
(dp514
g81
g82
ssg70
g508
sg63
(lp515
g325
asbag56
(g77
g58
NtRp516
(dp517
g61
(dp518
g88
g89
ssg70
g508
sg63
(lp519
S':'
asbag56
(g77
g58
NtRp520
(dp521
g61
(dp522
sg70
g508
sg63
(lp523
g56
(g57
g58
NtRp524
(dp525
g61
(dp526
g69
I3
ssg70
g520
sg63
(lp527
S''
asbasbasbag56
(g72
g58
NtRp528
(dp529
g61
(dp530
sg70
g464
sg63
(lp531
g56
(g77
g58
NtRp532
(dp533
g61
(dp534
g81
g82
ssg70
g528
sg63
(lp535
g346
asbag56
(g77
g58
NtRp536
(dp537
g61
(dp538
g88
g89
ssg70
g528
sg63
(lp539
S':'
asbag56
(g77
g58
NtRp540
(dp541
g61
(dp542
sg70
g528
sg63
(lp543
g56
(g57
g58
NtRp544
(dp545
g61
(dp546
g69
I3
ssg70
g540
sg63
(lp547
S''
asbasbasbag56
(g72
g58
NtRp548
(dp549
g61
(dp550
sg70
g464
sg63
(lp551
g56
(g77
g58
NtRp552
(dp553
g61
(dp554
g81
g82
ssg70
g548
sg63
(lp555
g367
asbag56
(g77
g58
NtRp556
(dp557
g61
(dp558
g88
g89
ssg70
g548
sg63
(lp559
S':'
asbag56
(g77
g58
NtRp560
(dp561
g61
(dp562
sg70
g548
sg63
(lp563
g56
(g57
g58
NtRp564
(dp565
g61
(dp566
g69
I3
ssg70
g560
sg63
(lp567
S''
asbasbasbag56
(g72
g58
NtRp568
(dp569
g61
(dp570
sg70
g464
sg63
(lp571
g56
(g77
g58
NtRp572
(dp573
g61
(dp574
g81
g82
ssg70
g568
sg63
(lp575
g388
asbag56
(g77
g58
NtRp576
(dp577
g61
(dp578
g88
g89
ssg70
g568
sg63
(lp579
S':'
asbag56
(g77
g58
NtRp580
(dp581
g61
(dp582
sg70
g568
sg63
(lp583
g56
(g57
g58
NtRp584
(dp585
g61
(dp586
g69
I3
ssg70
g580
sg63
(lp587
S''
asbasbasbag56
(g72
g58
NtRp588
(dp589
g61
(dp590
sg70
g464
sg63
(lp591
g56
(g77
g58
NtRp592
(dp593
g61
(dp594
g81
g82
ssg70
g588
sg63
(lp595
g409
asbag56
(g77
g58
NtRp596
(dp597
g61
(dp598
g88
g89
ssg70
g588
sg63
(lp599
S':'
asbag56
(g77
g58
NtRp600
(dp601
g61
(dp602
sg70
g588
sg63
(lp603
g56
(g57
g58
NtRp604
(dp605
g61
(dp606
g69
I3
ssg70
g600
sg63
(lp607
S''
asbasbasbag56
(g72
g58
NtRp608
(dp609
g61
(dp610
sg70
g464
sg63
(lp611
g56
(g77
g58
NtRp612
(dp613
g61
(dp614
g81
g82
ssg70
g608
sg63
(lp615
g430
asbag56
(g77
g58
NtRp616
(dp617
g61
(dp618
g88
g89
ssg70
g608
sg63
(lp619
S':'
asbag56
(g77
g58
NtRp620
(dp621
g61
(dp622
sg70
g608
sg63
(lp623
g56
(g57
g58
NtRp624
(dp625
g61
(dp626
g69
I3
ssg70
g620
sg63
(lp627
S''
asbasbasbasbasbasbasbag56
(g72
g58
NtRp628
(dp629
g61
(dp630
sg70
g246
sg63
(lp631
g56
(g77
g58
NtRp632
(dp633
g61
(dp634
g81
g82
ssg70
g628
sg63
(lp635
S'session_id_globaleaks'
p636
asbag56
(g77
g58
NtRp637
(dp638
g61
(dp639
g88
g89
ssg70
g628
sg63
(lp640
S':'
asbag56
(g77
g58
NtRp641
(dp642
g61
(dp643
sg70
g628
sg63
(lp644
g56
(g57
g58
NtRp645
(dp646
g61
(dp647
g69
I4
ssg70
g641
sg63
(lp648
g56
(g65
g58
NtRp649
(dp650
g61
(dp651
g69
I3
ssg70
Nsg63
(lp652
g56
(g72
g58
NtRp653
(dp654
g61
(dp655
sg70
g649
sg63
(lp656
g56
(g77
g58
NtRp657
(dp658
g61
(dp659
g81
g82
ssg70
g653
sg63
(lp660
g283
asbag56
(g77
g58
NtRp661
(dp662
g61
(dp663
g88
g89
ssg70
g653
sg63
(lp664
S':'
asbag56
(g77
g58
NtRp665
(dp666
g61
(dp667
sg70
g653
sg63
(lp668
g56
(g57
g58
NtRp669
(dp670
g61
(dp671
g69
I3
ssg70
g665
sg63
(lp672
S''
asbasbasbag56
(g72
g58
NtRp673
(dp674
g61
(dp675
sg70
g649
sg63
(lp676
g56
(g77
g58
NtRp677
(dp678
g61
(dp679
g81
g82
ssg70
g673
sg63
(lp680
g304
asbag56
(g77
g58
NtRp681
(dp682
g61
(dp683
g88
g89
ssg70
g673
sg63
(lp684
S':'
asbag56
(g77
g58
NtRp685
(dp686
g61
(dp687
sg70
g673
sg63
(lp688
g56
(g57
g58
NtRp689
(dp690
g61
(dp691
g69
I3
ssg70
g685
sg63
(lp692
S''
asbasbasbag56
(g72
g58
NtRp693
(dp694
g61
(dp695
sg70
g649
sg63
(lp696
g56
(g77
g58
NtRp697
(dp698
g61
(dp699
g81
g82
ssg70
g693
sg63
(lp700
g325
asbag56
(g77
g58
NtRp701
(dp702
g61
(dp703
g88
g89
ssg70
g693
sg63
(lp704
S':'
asbag56
(g77
g58
NtRp705
(dp706
g61
(dp707
sg70
g693
sg63
(lp708
g56
(g57
g58
NtRp709
(dp710
g61
(dp711
g69
I3
ssg70
g705
sg63
(lp712
S''
asbasbasbag56
(g72
g58
NtRp713
(dp714
g61
(dp715
sg70
g649
sg63
(lp716
g56
(g77
g58
NtRp717
(dp718
g61
(dp719
g81
g82
ssg70
g713
sg63
(lp720
g346
asbag56
(g77
g58
NtRp721
(dp722
g61
(dp723
g88
g89
ssg70
g713
sg63
(lp724
S':'
asbag56
(g77
g58
NtRp725
(dp726
g61
(dp727
sg70
g713
sg63
(lp728
g56
(g57
g58
NtRp729
(dp730
g61
(dp731
g69
I3
ssg70
g725
sg63
(lp732
S''
asbasbasbag56
(g72
g58
NtRp733
(dp734
g61
(dp735
sg70
g649
sg63
(lp736
g56
(g77
g58
NtRp737
(dp738
g61
(dp739
g81
g82
ssg70
g733
sg63
(lp740
g367
asbag56
(g77
g58
NtRp741
(dp742
g61
(dp743
g88
g89
ssg70
g733
sg63
(lp744
S':'
asbag56
(g77
g58
NtRp745
(dp746
g61
(dp747
sg70
g733
sg63
(lp748
g56
(g57
g58
NtRp749
(dp750
g61
(dp751
g69
I3
ssg70
g745
sg63
(lp752
S''
asbasbasbag56
(g72
g58
NtRp753
(dp754
g61
(dp755
sg70
g649
sg63
(lp756
g56
(g77
g58
NtRp757
(dp758
g61
(dp759
g81
g82
ssg70
g753
sg63
(lp760
g388
asbag56
(g77
g58
NtRp761
(dp762
g61
(dp763
g88
g89
ssg70
g753
sg63
(lp764
S':'
asbag56
(g77
g58
NtRp765
(dp766
g61
(dp767
sg70
g753
sg63
(lp768
g56
(g57
g58
NtRp769
(dp770
g61
(dp771
g69
I3
ssg70
g765
sg63
(lp772
S''
asbasbasbag56
(g72
g58
NtRp773
(dp774
g61
(dp775
sg70
g649
sg63
(lp776
g56
(g77
g58
NtRp777
(dp778
g61
(dp779
g81
g82
ssg70
g773
sg63
(lp780
g409
asbag56
(g77
g58
NtRp781
(dp782
g61
(dp783
g88
g89
ssg70
g773
sg63
(lp784
S':'
asbag56
(g77
g58
NtRp785
(dp786
g61
(dp787
sg70
g773
sg63
(lp788
g56
(g57
g58
NtRp789
(dp790
g61
(dp791
g69
I3
ssg70
g785
sg63
(lp792
S''
asbasbasbag56
(g72
g58
NtRp793
(dp794
g61
(dp795
sg70
g649
sg63
(lp796
g56
(g77
g58
NtRp797
(dp798
g61
(dp799
g81
g82
ssg70
g793
sg63
(lp800
g430
asbag56
(g77
g58
NtRp801
(dp802
g61
(dp803
g88
g89
ssg70
g793
sg63
(lp804
S':'
asbag56
(g77
g58
NtRp805
(dp806
g61
(dp807
sg70
g793
sg63
(lp808
g56
(g57
g58
NtRp809
(dp810
g61
(dp811
g69
I3
ssg70
g805
sg63
(lp812
S''
asbasbasbasbasbasbasbag56
(g72
g58
NtRp813
(dp814
g61
(dp815
sg70
g246
sg63
(lp816
g56
(g77
g58
NtRp817
(dp818
g61
(dp819
g81
g82
ssg70
g813
sg63
(lp820
S'session_id_init'
p821
asbag56
(g77
g58
NtRp822
(dp823
g61
(dp824
g88
g89
ssg70
g813
sg63
(lp825
S':'
asbag56
(g77
g58
NtRp826
(dp827
g61
(dp828
sg70
g813
sg63
(lp829
g56
(g57
g58
NtRp830
(dp831
g61
(dp832
g69
I4
ssg70
g826
sg63
(lp833
g56
(g65
g58
NtRp834
(dp835
g61
(dp836
g69
I3
ssg70
Nsg63
(lp837
g56
(g72
g58
NtRp838
(dp839
g61
(dp840
sg70
g834
sg63
(lp841
g56
(g77
g58
NtRp842
(dp843
g61
(dp844
g81
g82
ssg70
g838
sg63
(lp845
g283
asbag56
(g77
g58
NtRp846
(dp847
g61
(dp848
g88
g89
ssg70
g838
sg63
(lp849
S':'
asbag56
(g77
g58
NtRp850
(dp851
g61
(dp852
sg70
g838
sg63
(lp853
g56
(g57
g58
NtRp854
(dp855
g61
(dp856
g69
I3
ssg70
g850
sg63
(lp857
S''
asbasbasbag56
(g72
g58
NtRp858
(dp859
g61
(dp860
sg70
g834
sg63
(lp861
g56
(g77
g58
NtRp862
(dp863
g61
(dp864
g81
g82
ssg70
g858
sg63
(lp865
g304
asbag56
(g77
g58
NtRp866
(dp867
g61
(dp868
g88
g89
ssg70
g858
sg63
(lp869
S':'
asbag56
(g77
g58
NtRp870
(dp871
g61
(dp872
sg70
g858
sg63
(lp873
g56
(g57
g58
NtRp874
(dp875
g61
(dp876
g69
I3
ssg70
g870
sg63
(lp877
S''
asbasbasbag56
(g72
g58
NtRp878
(dp879
g61
(dp880
sg70
g834
sg63
(lp881
g56
(g77
g58
NtRp882
(dp883
g61
(dp884
g81
g82
ssg70
g878
sg63
(lp885
g325
asbag56
(g77
g58
NtRp886
(dp887
g61
(dp888
g88
g89
ssg70
g878
sg63
(lp889
S':'
asbag56
(g77
g58
NtRp890
(dp891
g61
(dp892
sg70
g878
sg63
(lp893
g56
(g57
g58
NtRp894
(dp895
g61
(dp896
g69
I3
ssg70
g890
sg63
(lp897
S''
asbasbasbag56
(g72
g58
NtRp898
(dp899
g61
(dp900
sg70
g834
sg63
(lp901
g56
(g77
g58
NtRp902
(dp903
g61
(dp904
g81
g82
ssg70
g898
sg63
(lp905
g346
asbag56
(g77
g58
NtRp906
(dp907
g61
(dp908
g88
g89
ssg70
g898
sg63
(lp909
S':'
asbag56
(g77
g58
NtRp910
(dp911
g61
(dp912
sg70
g898
sg63
(lp913
g56
(g57
g58
NtRp914
(dp915
g61
(dp916
g69
I3
ssg70
g910
sg63
(lp917
S''
asbasbasbag56
(g72
g58
NtRp918
(dp919
g61
(dp920
sg70
g834
sg63
(lp921
g56
(g77
g58
NtRp922
(dp923
g61
(dp924
g81
g82
ssg70
g918
sg63
(lp925
g367
asbag56
(g77
g58
NtRp926
(dp927
g61
(dp928
g88
g89
ssg70
g918
sg63
(lp929
S':'
asbag56
(g77
g58
NtRp930
(dp931
g61
(dp932
sg70
g918
sg63
(lp933
g56
(g57
g58
NtRp934
(dp935
g61
(dp936
g69
I3
ssg70
g930
sg63
(lp937
S''
asbasbasbag56
(g72
g58
NtRp938
(dp939
g61
(dp940
sg70
g834
sg63
(lp941
g56
(g77
g58
NtRp942
(dp943
g61
(dp944
g81
g82
ssg70
g938
sg63
(lp945
g388
asbag56
(g77
g58
NtRp946
(dp947
g61
(dp948
g88
g89
ssg70
g938
sg63
(lp949
S':'
asbag56
(g77
g58
NtRp950
(dp951
g61
(dp952
sg70
g938
sg63
(lp953
g56
(g57
g58
NtRp954
(dp955
g61
(dp956
g69
I3
ssg70
g950
sg63
(lp957
S''
asbasbasbag56
(g72
g58
NtRp958
(dp959
g61
(dp960
sg70
g834
sg63
(lp961
g56
(g77
g58
NtRp962
(dp963
g61
(dp964
g81
g82
ssg70
g958
sg63
(lp965
g409
asbag56
(g77
g58
NtRp966
(dp967
g61
(dp968
g88
g89
ssg70
g958
sg63
(lp969
S':'
asbag56
(g77
g58
NtRp970
(dp971
g61
(dp972
sg70
g958
sg63
(lp973
g56
(g57
g58
NtRp974
(dp975
g61
(dp976
g69
I3
ssg70
g970
sg63
(lp977
S''
asbasbasbag56
(g72
g58
NtRp978
(dp979
g61
(dp980
sg70
g834
sg63
(lp981
g56
(g77
g58
NtRp982
(dp983
g61
(dp984
g81
g82
ssg70
g978
sg63
(lp985
g430
asbag56
(g77
g58
NtRp986
(dp987
g61
(dp988
g88
g89
ssg70
g978
sg63
(lp989
S':'
asbag56
(g77
g58
NtRp990
(dp991
g61
(dp992
sg70
g978
sg63
(lp993
g56
(g57
g58
NtRp994
(dp995
g61
(dp996
g69
I3
ssg70
g990
sg63
(lp997
S''
asbasbasbasbasbasbasbasbasbasbasbag56
(g72
g58
NtRp998
(dp999
g61
(dp1000
sg70
g66
sg63
(lp1001
g56
(g77
g58
NtRp1002
(dp1003
g61
(dp1004
g81
g82
ssg70
g998
sg63
(lp1005
S'env'
p1006
asbag56
(g77
g58
NtRp1007
(dp1008
g61
(dp1009
g88
g89
ssg70
g998
sg63
(lp1010
S':'
asbag56
(g77
g58
NtRp1011
(dp1012
g61
(dp1013
sg70
g998
sg63
(lp1014
g56
(g57
g58
NtRp1015
(dp1016
g61
(dp1017
g69
I5
ssg70
g1011
sg63
(lp1018
g56
(g65
g58
NtRp1019
(dp1020
g61
(dp1021
g69
I4
ssg70
Nsg63
(lp1022
g56
(g72
g58
NtRp1023
(dp1024
g61
(dp1025
sg70
g1019
sg63
(lp1026
g56
(g77
g58
NtRp1027
(dp1028
g61
(dp1029
g81
g82
ssg70
g1023
sg63
(lp1030
S'app_folders'
p1031
asbag56
(g77
g58
NtRp1032
(dp1033
g61
(dp1034
g88
g89
ssg70
g1023
sg63
(lp1035
S':'
asbag56
(g77
g58
NtRp1036
(dp1037
g61
(dp1038
sg70
g1023
sg63
(lp1039
g56
(g57
g58
NtRp1040
(dp1041
g61
(dp1042
g69
I4
ssg70
g1036
sg63
(lp1043
S"set(['/Users/hellais/Documents/code/mygit/globaleaks/webapp/applications/globaleaks/'])"
p1044
asbasbasbag56
(g72
g58
NtRp1045
(dp1046
g61
(dp1047
sg70
g1019
sg63
(lp1048
g56
(g77
g58
NtRp1049
(dp1050
g61
(dp1051
g81
g82
ssg70
g1045
sg63
(lp1052
S'applications_parent'
p1053
asbag56
(g77
g58
NtRp1054
(dp1055
g61
(dp1056
g88
g89
ssg70
g1045
sg63
(lp1057
S':'
asbag56
(g77
g58
NtRp1058
(dp1059
g61
(dp1060
sg70
g1045
sg63
(lp1061
g56
(g57
g58
NtRp1062
(dp1063
g61
(dp1064
g69
I4
ssg70
g1058
sg63
(lp1065
S'/Users/hellais/Documents/code/mygit/globaleaks/webapp'
p1066
asbasbasbag56
(g72
g58
NtRp1067
(dp1068
g61
(dp1069
sg70
g1019
sg63
(lp1070
g56
(g77
g58
NtRp1071
(dp1072
g61
(dp1073
g81
g82
ssg70
g1067
sg63
(lp1074
S'cmd_args'
p1075
asbag56
(g77
g58
NtRp1076
(dp1077
g61
(dp1078
g88
g89
ssg70
g1067
sg63
(lp1079
S':'
asbag56
(g77
g58
NtRp1080
(dp1081
g61
(dp1082
sg70
g1067
sg63
(lp1083
g56
(g57
g58
NtRp1084
(dp1085
g61
(dp1086
g69
I4
ssg70
g1080
sg63
(lp1087
g56
(g65
g58
NtRp1088
(dp1089
g61
(dp1090
g69
I3
ssg70
Nsg63
(lp1091
sbasbasbasbag56
(g72
g58
NtRp1092
(dp1093
g61
(dp1094
sg70
g1019
sg63
(lp1095
g56
(g77
g58
NtRp1096
(dp1097
g61
(dp1098
g81
g82
ssg70
g1092
sg63
(lp1099
S'cmd_options'
p1100
asbag56
(g77
g58
NtRp1101
(dp1102
g61
(dp1103
g88
g89
ssg70
g1092
sg63
(lp1104
S':'
asbag56
(g77
g58
NtRp1105
(dp1106
g61
(dp1107
sg70
g1092
sg63
(lp1108
g56
(g57
g58
NtRp1109
(dp1110
g61
(dp1111
g69
I4
ssg70
g1105
sg63
(lp1112
S"<Values at 0x1016b8518: {'verbose': False, 'ip': '127.0.0.1', 'shutdown_timeout': 5, 'taskbar': False, 'port': 8000, 'maxthreads': None, 'softcron': False, 'server_name': 'Jeanne.local', 'bpython': False, 'nogui': False, 'nocron': False, 'extcron': False, 'debuglevel': 30, 'test': None, 'folder': '/Users/hellais/Documents/code/mygit/globaleaks/webapp', 'config': '', 'import_models': False, 'winservice': '', 'shell': None, 'run': '', 'log_filename': 'httpserver.log', 'args': [''], 'profiler_filename': None, 'ssl_private_key': '', 'password': 'asd', 'request_queue_size': 5, 'ssl_certificate': '', 'cronjob': False, 'plain': False, 'quiet': False, 'interfaces': None, 'minthreads': None, 'timeout': 10, 'numthreads': None, 'nobanner': False, 'pid_filename': 'httpserver.pid'}>"
p1113
asbasbasbag56
(g72
g58
NtRp1114
(dp1115
g61
(dp1116
sg70
g1019
sg63
(lp1117
g56
(g77
g58
NtRp1118
(dp1119
g61
(dp1120
g81
g82
ssg70
g1114
sg63
(lp1121
S'db_sessions'
p1122
asbag56
(g77
g58
NtRp1123
(dp1124
g61
(dp1125
g88
g89
ssg70
g1114
sg63
(lp1126
S':'
asbag56
(g77
g58
NtRp1127
(dp1128
g61
(dp1129
sg70
g1114
sg63
(lp1130
g56
(g57
g58
NtRp1131
(dp1132
g61
(dp1133
g69
I4
ssg70
g1127
sg63
(lp1134
S'set([])'
p1135
asbasbasbag56
(g72
g58
NtRp1136
(dp1137
g61
(dp1138
sg70
g1019
sg63
(lp1139
g56
(g77
g58
NtRp1140
(dp1141
g61
(dp1142
g81
g82
ssg70
g1136
sg63
(lp1143
S'debugging'
p1144
asbag56
(g77
g58
NtRp1145
(dp1146
g61
(dp1147
g88
g89
ssg70
g1136
sg63
(lp1148
S':'
asbag56
(g77
g58
NtRp1149
(dp1150
g61
(dp1151
sg70
g1136
sg63
(lp1152
g56
(g57
g58
NtRp1153
(dp1154
g61
(dp1155
g69
I4
ssg70
g1149
sg63
(lp1156
g99
asbasbasbag56
(g72
g58
NtRp1157
(dp1158
g61
(dp1159
sg70
g1019
sg63
(lp1160
g56
(g77
g58
NtRp1161
(dp1162
g61
(dp1163
g81
g82
ssg70
g1157
sg63
(lp1164
S'gluon_parent'
p1165
asbag56
(g77
g58
NtRp1166
(dp1167
g61
(dp1168
g88
g89
ssg70
g1157
sg63
(lp1169
S':'
asbag56
(g77
g58
NtRp1170
(dp1171
g61
(dp1172
sg70
g1157
sg63
(lp1173
g56
(g57
g58
NtRp1174
(dp1175
g61
(dp1176
g69
I4
ssg70
g1170
sg63
(lp1177
S'/Users/hellais/Documents/code/mygit/globaleaks/webapp'
p1178
asbasbasbag56
(g72
g58
NtRp1179
(dp1180
g61
(dp1181
sg70
g1019
sg63
(lp1182
g56
(g77
g58
NtRp1183
(dp1184
g61
(dp1185
g81
g82
ssg70
g1179
sg63
(lp1186
S'http_accept'
p1187
asbag56
(g77
g58
NtRp1188
(dp1189
g61
(dp1190
g88
g89
ssg70
g1179
sg63
(lp1191
S':'
asbag56
(g77
g58
NtRp1192
(dp1193
g61
(dp1194
sg70
g1179
sg63
(lp1195
g56
(g57
g58
NtRp1196
(dp1197
g61
(dp1198
g69
I4
ssg70
g1192
sg63
(lp1199
S'text/html,application/xhtml+xml,application/xml;q=0.9,*/*;q=0.8'
p1200
asbasbasbag56
(g72
g58
NtRp1201
(dp1202
g61
(dp1203
sg70
g1019
sg63
(lp1204
g56
(g77
g58
NtRp1205
(dp1206
g61
(dp1207
g81
g82
ssg70
g1201
sg63
(lp1208
S'http_accept_charset'
p1209
asbag56
(g77
g58
NtRp1210
(dp1211
g61
(dp1212
g88
g89
ssg70
g1201
sg63
(lp1213
S':'
asbag56
(g77
g58
NtRp1214
(dp1215
g61
(dp1216
sg70
g1201
sg63
(lp1217
g56
(g57
g58
NtRp1218
(dp1219
g61
(dp1220
g69
I4
ssg70
g1214
sg63
(lp1221
S'ISO-8859-1,utf-8;q=0.7,*;q=0.7'
p1222
asbasbasbag56
(g72
g58
NtRp1223
(dp1224
g61
(dp1225
sg70
g1019
sg63
(lp1226
g56
(g77
g58
NtRp1227
(dp1228
g61
(dp1229
g81
g82
ssg70
g1223
sg63
(lp1230
S'http_accept_encoding'
p1231
asbag56
(g77
g58
NtRp1232
(dp1233
g61
(dp1234
g88
g89
ssg70
g1223
sg63
(lp1235
S':'
asbag56
(g77
g58
NtRp1236
(dp1237
g61
(dp1238
sg70
g1223
sg63
(lp1239
g56
(g57
g58
NtRp1240
(dp1241
g61
(dp1242
g69
I4
ssg70
g1236
sg63
(lp1243
S'gzip, deflate'
p1244
asbasbasbag56
(g72
g58
NtRp1245
(dp1246
g61
(dp1247
sg70
g1019
sg63
(lp1248
g56
(g77
g58
NtRp1249
(dp1250
g61
(dp1251
g81
g82
ssg70
g1245
sg63
(lp1252
S'http_accept_language'
p1253
asbag56
(g77
g58
NtRp1254
(dp1255
g61
(dp1256
g88
g89
ssg70
g1245
sg63
(lp1257
S':'
asbag56
(g77
g58
NtRp1258
(dp1259
g61
(dp1260
sg70
g1245
sg63
(lp1261
g56
(g57
g58
NtRp1262
(dp1263
g61
(dp1264
g69
I4
ssg70
g1258
sg63
(lp1265
S'en-us,en;q=0.5'
p1266
asbasbasbag56
(g72
g58
NtRp1267
(dp1268
g61
(dp1269
sg70
g1019
sg63
(lp1270
g56
(g77
g58
NtRp1271
(dp1272
g61
(dp1273
g81
g82
ssg70
g1267
sg63
(lp1274
S'http_connection'
p1275
asbag56
(g77
g58
NtRp1276
(dp1277
g61
(dp1278
g88
g89
ssg70
g1267
sg63
(lp1279
S':'
asbag56
(g77
g58
NtRp1280
(dp1281
g61
(dp1282
sg70
g1267
sg63
(lp1283
g56
(g57
g58
NtRp1284
(dp1285
g61
(dp1286
g69
I4
ssg70
g1280
sg63
(lp1287
S'keep-alive'
p1288
asbasbasbag56
(g72
g58
NtRp1289
(dp1290
g61
(dp1291
sg70
g1019
sg63
(lp1292
g56
(g77
g58
NtRp1293
(dp1294
g61
(dp1295
g81
g82
ssg70
g1289
sg63
(lp1296
S'http_cookie'
p1297
asbag56
(g77
g58
NtRp1298
(dp1299
g61
(dp1300
g88
g89
ssg70
g1289
sg63
(lp1301
S':'
asbag56
(g77
g58
NtRp1302
(dp1303
g61
(dp1304
sg70
g1289
sg63
(lp1305
g56
(g57
g58
NtRp1306
(dp1307
g61
(dp1308
g69
I4
ssg70
g1302
sg63
(lp1309
S'session_id_admin=127.0.0.1-451e3253-5599-4a58-9729-d927f3cdd6fc; session_id_globaleaks=127.0.0.1-c6d5b9b3-1ec7-41c1-8d72-04c21b7a6b11; session_id_blabla=127.0.0.1-c445384e-a3ea-4484-8fe2-52f3295bbb7c; session_id_init=127.0.0.1-a8551263-bc3c-430c-abb2-8711fac671c1'
p1310
asbasbasbag56
(g72
g58
NtRp1311
(dp1312
g61
(dp1313
sg70
g1019
sg63
(lp1314
g56
(g77
g58
NtRp1315
(dp1316
g61
(dp1317
g81
g82
ssg70
g1311
sg63
(lp1318
S'http_host'
p1319
asbag56
(g77
g58
NtRp1320
(dp1321
g61
(dp1322
g88
g89
ssg70
g1311
sg63
(lp1323
S':'
asbag56
(g77
g58
NtRp1324
(dp1325
g61
(dp1326
sg70
g1311
sg63
(lp1327
g56
(g57
g58
NtRp1328
(dp1329
g61
(dp1330
g69
I4
ssg70
g1324
sg63
(lp1331
S'127.0.0.1:8000'
p1332
asbasbasbag56
(g72
g58
NtRp1333
(dp1334
g61
(dp1335
sg70
g1019
sg63
(lp1336
g56
(g77
g58
NtRp1337
(dp1338
g61
(dp1339
g81
g82
ssg70
g1333
sg63
(lp1340
S'http_user_agent'
p1341
asbag56
(g77
g58
NtRp1342
(dp1343
g61
(dp1344
g88
g89
ssg70
g1333
sg63
(lp1345
S':'
asbag56
(g77
g58
NtRp1346
(dp1347
g61
(dp1348
sg70
g1333
sg63
(lp1349
g56
(g57
g58
NtRp1350
(dp1351
g61
(dp1352
g69
I4
ssg70
g1346
sg63
(lp1353
S'Mozilla/5.0 (Macintosh; Intel Mac OS X 10.6; rv:5.0.1) Gecko/20100101 Firefox/5.0.1'
p1354
asbasbasbag56
(g72
g58
NtRp1355
(dp1356
g61
(dp1357
sg70
g1019
sg63
(lp1358
g56
(g77
g58
NtRp1359
(dp1360
g61
(dp1361
g81
g82
ssg70
g1355
sg63
(lp1362
S'is_jython'
p1363
asbag56
(g77
g58
NtRp1364
(dp1365
g61
(dp1366
g88
g89
ssg70
g1355
sg63
(lp1367
S':'
asbag56
(g77
g58
NtRp1368
(dp1369
g61
(dp1370
sg70
g1355
sg63
(lp1371
g56
(g57
g58
NtRp1372
(dp1373
g61
(dp1374
g69
I4
ssg70
g1368
sg63
(lp1375
g99
asbasbasbag56
(g72
g58
NtRp1376
(dp1377
g61
(dp1378
sg70
g1019
sg63
(lp1379
g56
(g77
g58
NtRp1380
(dp1381
g61
(dp1382
g81
g82
ssg70
g1376
sg63
(lp1383
S'path_info'
p1384
asbag56
(g77
g58
NtRp1385
(dp1386
g61
(dp1387
g88
g89
ssg70
g1376
sg63
(lp1388
S':'
asbag56
(g77
g58
NtRp1389
(dp1390
g61
(dp1391
sg70
g1376
sg63
(lp1392
g56
(g57
g58
NtRp1393
(dp1394
g61
(dp1395
g69
I4
ssg70
g1389
sg63
(lp1396
S'/globaleaks/tulip/status/asd'
p1397
asbasbasbag56
(g72
g58
NtRp1398
(dp1399
g61
(dp1400
sg70
g1019
sg63
(lp1401
g56
(g77
g58
NtRp1402
(dp1403
g61
(dp1404
g81
g82
ssg70
g1398
sg63
(lp1405
S'query_string'
p1406
asbag56
(g77
g58
NtRp1407
(dp1408
g61
(dp1409
g88
g89
ssg70
g1398
sg63
(lp1410
S':'
asbag56
(g77
g58
NtRp1411
(dp1412
g61
(dp1413
sg70
g1398
sg63
(lp1414
g56
(g57
g58
NtRp1415
(dp1416
g61
(dp1417
g69
I4
ssg70
g1411
sg63
(lp1418
S''
asbasbasbag56
(g72
g58
NtRp1419
(dp1420
g61
(dp1421
sg70
g1019
sg63
(lp1422
g56
(g77
g58
NtRp1423
(dp1424
g61
(dp1425
g81
g82
ssg70
g1419
sg63
(lp1426
S'remote_addr'
p1427
asbag56
(g77
g58
NtRp1428
(dp1429
g61
(dp1430
g88
g89
ssg70
g1419
sg63
(lp1431
S':'
asbag56
(g77
g58
NtRp1432
(dp1433
g61
(dp1434
sg70
g1419
sg63
(lp1435
g56
(g57
g58
NtRp1436
(dp1437
g61
(dp1438
g69
I4
ssg70
g1432
sg63
(lp1439
g202
asbasbasbag56
(g72
g58
NtRp1440
(dp1441
g61
(dp1442
sg70
g1019
sg63
(lp1443
g56
(g77
g58
NtRp1444
(dp1445
g61
(dp1446
g81
g82
ssg70
g1440
sg63
(lp1447
S'remote_port'
p1448
asbag56
(g77
g58
NtRp1449
(dp1450
g61
(dp1451
g88
g89
ssg70
g1440
sg63
(lp1452
S':'
asbag56
(g77
g58
NtRp1453
(dp1454
g61
(dp1455
sg70
g1440
sg63
(lp1456
g56
(g57
g58
NtRp1457
(dp1458
g61
(dp1459
g69
I4
ssg70
g1453
sg63
(lp1460
S'60198'
p1461
asbasbasbag56
(g72
g58
NtRp1462
(dp1463
g61
(dp1464
sg70
g1019
sg63
(lp1465
g56
(g77
g58
NtRp1466
(dp1467
g61
(dp1468
g81
g82
ssg70
g1462
sg63
(lp1469
S'request_method'
p1470
asbag56
(g77
g58
NtRp1471
(dp1472
g61
(dp1473
g88
g89
ssg70
g1462
sg63
(lp1474
S':'
asbag56
(g77
g58
NtRp1475
(dp1476
g61
(dp1477
sg70
g1462
sg63
(lp1478
g56
(g57
g58
NtRp1479
(dp1480
g61
(dp1481
g69
I4
ssg70
g1475
sg63
(lp1482
S'GET'
p1483
asbasbasbag56
(g72
g58
NtRp1484
(dp1485
g61
(dp1486
sg70
g1019
sg63
(lp1487
g56
(g77
g58
NtRp1488
(dp1489
g61
(dp1490
g81
g82
ssg70
g1484
sg63
(lp1491
S'request_uri'
p1492
asbag56
(g77
g58
NtRp1493
(dp1494
g61
(dp1495
g88
g89
ssg70
g1484
sg63
(lp1496
S':'
asbag56
(g77
g58
NtRp1497
(dp1498
g61
(dp1499
sg70
g1484
sg63
(lp1500
g56
(g57
g58
NtRp1501
(dp1502
g61
(dp1503
g69
I4
ssg70
g1497
sg63
(lp1504
g1397
asbasbasbag56
(g72
g58
NtRp1505
(dp1506
g61
(dp1507
sg70
g1019
sg63
(lp1508
g56
(g77
g58
NtRp1509
(dp1510
g61
(dp1511
g81
g82
ssg70
g1505
sg63
(lp1512
S'script_name'
p1513
asbag56
(g77
g58
NtRp1514
(dp1515
g61
(dp1516
g88
g89
ssg70
g1505
sg63
(lp1517
S':'
asbag56
(g77
g58
NtRp1518
(dp1519
g61
(dp1520
sg70
g1505
sg63
(lp1521
g56
(g57
g58
NtRp1522
(dp1523
g61
(dp1524
g69
I4
ssg70
g1518
sg63
(lp1525
S''
asbasbasbag56
(g72
g58
NtRp1526
(dp1527
g61
(dp1528
sg70
g1019
sg63
(lp1529
g56
(g77
g58
NtRp1530
(dp1531
g61
(dp1532
g81
g82
ssg70
g1526
sg63
(lp1533
S'server_name'
p1534
asbag56
(g77
g58
NtRp1535
(dp1536
g61
(dp1537
g88
g89
ssg70
g1526
sg63
(lp1538
S':'
asbag56
(g77
g58
NtRp1539
(dp1540
g61
(dp1541
sg70
g1526
sg63
(lp1542
g56
(g57
g58
NtRp1543
(dp1544
g61
(dp1545
g69
I4
ssg70
g1539
sg63
(lp1546
S'Jeanne.local'
p1547
asbasbasbag56
(g72
g58
NtRp1548
(dp1549
g61
(dp1550
sg70
g1019
sg63
(lp1551
g56
(g77
g58
NtRp1552
(dp1553
g61
(dp1554
g81
g82
ssg70
g1548
sg63
(lp1555
S'server_port'
p1556
asbag56
(g77
g58
NtRp1557
(dp1558
g61
(dp1559
g88
g89
ssg70
g1548
sg63
(lp1560
S':'
asbag56
(g77
g58
NtRp1561
(dp1562
g61
(dp1563
sg70
g1548
sg63
(lp1564
g56
(g57
g58
NtRp1565
(dp1566
g61
(dp1567
g69
I4
ssg70
g1561
sg63
(lp1568
S'8000'
p1569
asbasbasbag56
(g72
g58
NtRp1570
(dp1571
g61
(dp1572
sg70
g1019
sg63
(lp1573
g56
(g77
g58
NtRp1574
(dp1575
g61
(dp1576
g81
g82
ssg70
g1570
sg63
(lp1577
S'server_protocol'
p1578
asbag56
(g77
g58
NtRp1579
(dp1580
g61
(dp1581
g88
g89
ssg70
g1570
sg63
(lp1582
S':'
asbag56
(g77
g58
NtRp1583
(dp1584
g61
(dp1585
sg70
g1570
sg63
(lp1586
g56
(g57
g58
NtRp1587
(dp1588
g61
(dp1589
g69
I4
ssg70
g1583
sg63
(lp1590
S'HTTP/1.1'
p1591
asbasbasbag56
(g72
g58
NtRp1592
(dp1593
g61
(dp1594
sg70
g1019
sg63
(lp1595
g56
(g77
g58
NtRp1596
(dp1597
g61
(dp1598
g81
g82
ssg70
g1592
sg63
(lp1599
S'server_software'
p1600
asbag56
(g77
g58
NtRp1601
(dp1602
g61
(dp1603
g88
g89
ssg70
g1592
sg63
(lp1604
S':'
asbag56
(g77
g58
NtRp1605
(dp1606
g61
(dp1607
sg70
g1592
sg63
(lp1608
g56
(g57
g58
NtRp1609
(dp1610
g61
(dp1611
g69
I4
ssg70
g1605
sg63
(lp1612
S'Rocket 1.2.2'
p1613
asbasbasbag56
(g72
g58
NtRp1614
(dp1615
g61
(dp1616
sg70
g1019
sg63
(lp1617
g56
(g77
g58
NtRp1618
(dp1619
g61
(dp1620
g81
g82
ssg70
g1614
sg63
(lp1621
S'web2py_crontype'
p1622
asbag56
(g77
g58
NtRp1623
(dp1624
g61
(dp1625
g88
g89
ssg70
g1614
sg63
(lp1626
S':'
asbag56
(g77
g58
NtRp1627
(dp1628
g61
(dp1629
sg70
g1614
sg63
(lp1630
g56
(g57
g58
NtRp1631
(dp1632
g61
(dp1633
g69
I4
ssg70
g1627
sg63
(lp1634
S'hard'
p1635
asbasbasbag56
(g72
g58
NtRp1636
(dp1637
g61
(dp1638
sg70
g1019
sg63
(lp1639
g56
(g77
g58
NtRp1640
(dp1641
g61
(dp1642
g81
g82
ssg70
g1636
sg63
(lp1643
S'web2py_original_uri'
p1644
asbag56
(g77
g58
NtRp1645
(dp1646
g61
(dp1647
g88
g89
ssg70
g1636
sg63
(lp1648
S':'
asbag56
(g77
g58
NtRp1649
(dp1650
g61
(dp1651
sg70
g1636
sg63
(lp1652
g56
(g57
g58
NtRp1653
(dp1654
g61
(dp1655
g69
I4
ssg70
g1649
sg63
(lp1656
S'/tulip/asd'
p1657
asbasbasbag56
(g72
g58
NtRp1658
(dp1659
g61
(dp1660
sg70
g1019
sg63
(lp1661
g56
(g77
g58
NtRp1662
(dp1663
g61
(dp1664
g81
g82
ssg70
g1658
sg63
(lp1665
S'web2py_path'
p1666
asbag56
(g77
g58
NtRp1667
(dp1668
g61
(dp1669
g88
g89
ssg70
g1658
sg63
(lp1670
S':'
asbag56
(g77
g58
NtRp1671
(dp1672
g61
(dp1673
sg70
g1658
sg63
(lp1674
g56
(g57
g58
NtRp1675
(dp1676
g61
(dp1677
g69
I4
ssg70
g1671
sg63
(lp1678
g1066
asbasbasbag56
(g72
g58
NtRp1679
(dp1680
g61
(dp1681
sg70
g1019
sg63
(lp1682
g56
(g77
g58
NtRp1683
(dp1684
g61
(dp1685
g81
g82
ssg70
g1679
sg63
(lp1686
S'web2py_version'
p1687
asbag56
(g77
g58
NtRp1688
(dp1689
g61
(dp1690
g88
g89
ssg70
g1679
sg63
(lp1691
S':'
asbag56
(g77
g58
NtRp1692
(dp1693
g61
(dp1694
sg70
g1679
sg63
(lp1695
g56
(g57
g58
NtRp1696
(dp1697
g61
(dp1698
g69
I4
ssg70
g1692
sg63
(lp1699
S'Version 1.98.2 (2011-08-04 00:47:09)\n'
p1700
asbasbasbag56
(g72
g58
NtRp1701
(dp1702
g61
(dp1703
sg70
g1019
sg63
(lp1704
g56
(g77
g58
NtRp1705
(dp1706
g61
(dp1707
g81
g82
ssg70
g1701
sg63
(lp1708
S'wsgi_errors'
p1709
asbag56
(g77
g58
NtRp1710
(dp1711
g61
(dp1712
g88
g89
ssg70
g1701
sg63
(lp1713
S':'
asbag56
(g77
g58
NtRp1714
(dp1715
g61
(dp1716
sg70
g1701
sg63
(lp1717
g56
(g57
g58
NtRp1718
(dp1719
g61
(dp1720
g69
I4
ssg70
g1714
sg63
(lp1721
S"<open file '<stderr>', mode 'w' at 0x100287270>"
p1722
asbasbasbag56
(g72
g58
NtRp1723
(dp1724
g61
(dp1725
sg70
g1019
sg63
(lp1726
g56
(g77
g58
NtRp1727
(dp1728
g61
(dp1729
g81
g82
ssg70
g1723
sg63
(lp1730
S'wsgi_file_wrapper'
p1731
asbag56
(g77
g58
NtRp1732
(dp1733
g61
(dp1734
g88
g89
ssg70
g1723
sg63
(lp1735
S':'
asbag56
(g77
g58
NtRp1736
(dp1737
g61
(dp1738
sg70
g1723
sg63
(lp1739
g56
(g57
g58
NtRp1740
(dp1741
g61
(dp1742
g69
I4
ssg70
g1736
sg63
(lp1743
S'<class gluon.rocket.FileWrapper at 0x1019dae88>'
p1744
asbasbasbag56
(g72
g58
NtRp1745
(dp1746
g61
(dp1747
sg70
g1019
sg63
(lp1748
g56
(g77
g58
NtRp1749
(dp1750
g61
(dp1751
g81
g82
ssg70
g1745
sg63
(lp1752
S'wsgi_input'
p1753
asbag56
(g77
g58
NtRp1754
(dp1755
g61
(dp1756
g88
g89
ssg70
g1745
sg63
(lp1757
S':'
asbag56
(g77
g58
NtRp1758
(dp1759
g61
(dp1760
sg70
g1745
sg63
(lp1761
g56
(g57
g58
NtRp1762
(dp1763
g61
(dp1764
g69
I4
ssg70
g1758
sg63
(lp1765
S'<socket._fileobject object at 0x103811c50>'
p1766
asbasbasbag56
(g72
g58
NtRp1767
(dp1768
g61
(dp1769
sg70
g1019
sg63
(lp1770
g56
(g77
g58
NtRp1771
(dp1772
g61
(dp1773
g81
g82
ssg70
g1767
sg63
(lp1774
S'wsgi_multiprocess'
p1775
asbag56
(g77
g58
NtRp1776
(dp1777
g61
(dp1778
g88
g89
ssg70
g1767
sg63
(lp1779
S':'
asbag56
(g77
g58
NtRp1780
(dp1781
g61
(dp1782
sg70
g1767
sg63
(lp1783
g56
(g57
g58
NtRp1784
(dp1785
g61
(dp1786
g69
I4
ssg70
g1780
sg63
(lp1787
g99
asbasbasbag56
(g72
g58
NtRp1788
(dp1789
g61
(dp1790
sg70
g1019
sg63
(lp1791
g56
(g77
g58
NtRp1792
(dp1793
g61
(dp1794
g81
g82
ssg70
g1788
sg63
(lp1795
S'wsgi_multithread'
p1796
asbag56
(g77
g58
NtRp1797
(dp1798
g61
(dp1799
g88
g89
ssg70
g1788
sg63
(lp1800
S':'
asbag56
(g77
g58
NtRp1801
(dp1802
g61
(dp1803
sg70
g1788
sg63
(lp1804
g56
(g57
g58
NtRp1805
(dp1806
g61
(dp1807
g69
I4
ssg70
g1801
sg63
(lp1808
S'True'
p1809
asbasbasbag56
(g72
g58
NtRp1810
(dp1811
g61
(dp1812
sg70
g1019
sg63
(lp1813
g56
(g77
g58
NtRp1814
(dp1815
g61
(dp1816
g81
g82
ssg70
g1810
sg63
(lp1817
S'wsgi_run_once'
p1818
asbag56
(g77
g58
NtRp1819
(dp1820
g61
(dp1821
g88
g89
ssg70
g1810
sg63
(lp1822
S':'
asbag56
(g77
g58
NtRp1823
(dp1824
g61
(dp1825
sg70
g1810
sg63
(lp1826
g56
(g57
g58
NtRp1827
(dp1828
g61
(dp1829
g69
I4
ssg70
g1823
sg63
(lp1830
g99
asbasbasbag56
(g72
g58
NtRp1831
(dp1832
g61
(dp1833
sg70
g1019
sg63
(lp1834
g56
(g77
g58
NtRp1835
(dp1836
g61
(dp1837
g81
g82
ssg70
g1831
sg63
(lp1838
S'wsgi_url_scheme'
p1839
asbag56
(g77
g58
NtRp1840
(dp1841
g61
(dp1842
g88
g89
ssg70
g1831
sg63
(lp1843
S':'
asbag56
(g77
g58
NtRp1844
(dp1845
g61
(dp1846
sg70
g1831
sg63
(lp1847
g56
(g57
g58
NtRp1848
(dp1849
g61
(dp1850
g69
I4
ssg70
g1844
sg63
(lp1851
S'http'
p1852
asbasbasbag56
(g72
g58
NtRp1853
(dp1854
g61
(dp1855
sg70
g1019
sg63
(lp1856
g56
(g77
g58
NtRp1857
(dp1858
g61
(dp1859
g81
g82
ssg70
g1853
sg63
(lp1860
S'wsgi_version'
p1861
asbag56
(g77
g58
NtRp1862
(dp1863
g61
(dp1864
g88
g89
ssg70
g1853
sg63
(lp1865
S':'
asbag56
(g77
g58
NtRp1866
(dp1867
g61
(dp1868
sg70
g1853
sg63
(lp1869
g56
(g57
g58
NtRp1870
(dp1871
g61
(dp1872
g69
I4
ssg70
g1866
sg63
(lp1873
g56
(g65
g58
NtRp1874
(dp1875
g61
(dp1876
g69
I3
ssg70
Nsg63
(lp1877
g56
(g72
g58
NtRp1878
(dp1879
g61
(dp1880
sg70
g1874
sg63
(lp1881
g56
(g77
g58
NtRp1882
(dp1883
g61
(dp1884
sg70
g1878
sg63
(lp1885
g56
(g57
g58
NtRp1886
(dp1887
g61
(dp1888
g69
I3
ssg70
g1882
sg63
(lp1889
S'1'
asbasbasbag56
(g72
g58
NtRp1890
(dp1891
g61
(dp1892
sg70
g1874
sg63
(lp1893
g56
(g77
g58
NtRp1894
(dp1895
g61
(dp1896
sg70
g1890
sg63
(lp1897
g56
(g57
g58
NtRp1898
(dp1899
g61
(dp1900
g69
I3
ssg70
g1894
sg63
(lp1901
S'0'
asbasbasbasbasbasbasbasbasbasbasbag56
(g72
g58
NtRp1902
(dp1903
g61
(dp1904
sg70
g66
sg63
(lp1905
g56
(g77
g58
NtRp1906
(dp1907
g61
(dp1908
g81
g82
ssg70
g1902
sg63
(lp1909
S'extension'
p1910
asbag56
(g77
g58
NtRp1911
(dp1912
g61
(dp1913
g88
g89
ssg70
g1902
sg63
(lp1914
S':'
asbag56
(g77
g58
NtRp1915
(dp1916
g61
(dp1917
sg70
g1902
sg63
(lp1918
g56
(g57
g58
NtRp1919
(dp1920
g61
(dp1921
g69
I5
ssg70
g1915
sg63
(lp1922
S'html'
p1923
asbasbasbag56
(g72
g58
NtRp1924
(dp1925
g61
(dp1926
sg70
g66
sg63
(lp1927
g56
(g77
g58
NtRp1928
(dp1929
g61
(dp1930
g81
g82
ssg70
g1924
sg63
(lp1931
S'folder'
p1932
asbag56
(g77
g58
NtRp1933
(dp1934
g61
(dp1935
g88
g89
ssg70
g1924
sg63
(lp1936
S':'
asbag56
(g77
g58
NtRp1937
(dp1938
g61
(dp1939
sg70
g1924
sg63
(lp1940
g56
(g57
g58
NtRp1941
(dp1942
g61
(dp1943
g69
I5
ssg70
g1937
sg63
(lp1944
S'/Users/hellais/Documents/code/mygit/globaleaks/webapp/applications/globaleaks/'
p1945
asbasbasbag56
(g72
g58
NtRp1946
(dp1947
g61
(dp1948
sg70
g66
sg63
(lp1949
g56
(g77
g58
NtRp1950
(dp1951
g61
(dp1952
g81
g82
ssg70
g1946
sg63
(lp1953
S'function'
p1954
asbag56
(g77
g58
NtRp1955
(dp1956
g61
(dp1957
g88
g89
ssg70
g1946
sg63
(lp1958
S':'
asbag56
(g77
g58
NtRp1959
(dp1960
g61
(dp1961
sg70
g1946
sg63
(lp1962
g56
(g57
g58
NtRp1963
(dp1964
g61
(dp1965
g69
I5
ssg70
g1959
sg63
(lp1966
S'status'
p1967
asbasbasbag56
(g72
g58
NtRp1968
(dp1969
g61
(dp1970
sg70
g66
sg63
(lp1971
g56
(g77
g58
NtRp1972
(dp1973
g61
(dp1974
g81
g82
ssg70
g1968
sg63
(lp1975
S'get_vars'
p1976
asbag56
(g77
g58
NtRp1977
(dp1978
g61
(dp1979
g88
g89
ssg70
g1968
sg63
(lp1980
S':'
asbag56
(g77
g58
NtRp1981
(dp1982
g61
(dp1983
sg70
g1968
sg63
(lp1984
g56
(g57
g58
NtRp1985
(dp1986
g61
(dp1987
g69
I5
ssg70
g1981
sg63
(lp1988
g56
(g65
g58
NtRp1989
(dp1990
g61
(dp1991
g69
I4
ssg70
Nsg63
(lp1992
sbasbasbasbag56
(g72
g58
NtRp1993
(dp1994
g61
(dp1995
sg70
g66
sg63
(lp1996
g56
(g77
g58
NtRp1997
(dp1998
g61
(dp1999
g81
g82
ssg70
g1993
sg63
(lp2000
S'is_https'
p2001
asbag56
(g77
g58
NtRp2002
(dp2003
g61
(dp2004
g88
g89
ssg70
g1993
sg63
(lp2005
S':'
asbag56
(g77
g58
NtRp2006
(dp2007
g61
(dp2008
sg70
g1993
sg63
(lp2009
g56
(g57
g58
NtRp2010
(dp2011
g61
(dp2012
g69
I5
ssg70
g2006
sg63
(lp2013
g99
asbasbasbag56
(g72
g58
NtRp2014
(dp2015
g61
(dp2016
sg70
g66
sg63
(lp2017
g56
(g77
g58
NtRp2018
(dp2019
g61
(dp2020
g81
g82
ssg70
g2014
sg63
(lp2021
S'is_local'
p2022
asbag56
(g77
g58
NtRp2023
(dp2024
g61
(dp2025
g88
g89
ssg70
g2014
sg63
(lp2026
S':'
asbag56
(g77
g58
NtRp2027
(dp2028
g61
(dp2029
sg70
g2014
sg63
(lp2030
g56
(g57
g58
NtRp2031
(dp2032
g61
(dp2033
g69
I5
ssg70
g2027
sg63
(lp2034
g1809
asbasbasbag56
(g72
g58
NtRp2035
(dp2036
g61
(dp2037
sg70
g66
sg63
(lp2038
g56
(g77
g58
NtRp2039
(dp2040
g61
(dp2041
g81
g82
ssg70
g2035
sg63
(lp2042
S'is_restful'
p2043
asbag56
(g77
g58
NtRp2044
(dp2045
g61
(dp2046
g88
g89
ssg70
g2035
sg63
(lp2047
S':'
asbag56
(g77
g58
NtRp2048
(dp2049
g61
(dp2050
sg70
g2035
sg63
(lp2051
g56
(g57
g58
NtRp2052
(dp2053
g61
(dp2054
g69
I5
ssg70
g2048
sg63
(lp2055
g99
asbasbasbag56
(g72
g58
NtRp2056
(dp2057
g61
(dp2058
sg70
g66
sg63
(lp2059
g56
(g77
g58
NtRp2060
(dp2061
g61
(dp2062
g81
g82
ssg70
g2056
sg63
(lp2063
S'now'
p2064
asbag56
(g77
g58
NtRp2065
(dp2066
g61
(dp2067
g88
g89
ssg70
g2056
sg63
(lp2068
S':'
asbag56
(g77
g58
NtRp2069
(dp2070
g61
(dp2071
sg70
g2056
sg63
(lp2072
g56
(g57
g58
NtRp2073
(dp2074
g61
(dp2075
g69
I5
ssg70
g2069
sg63
(lp2076
S'datetime.datetime(2011, 8, 28, 15, 58, 33, 679139)'
p2077
asbasbasbag56
(g72
g58
NtRp2078
(dp2079
g61
(dp2080
sg70
g66
sg63
(lp2081
g56
(g77
g58
NtRp2082
(dp2083
g61
(dp2084
g81
g82
ssg70
g2078
sg63
(lp2085
S'post_vars'
p2086
asbag56
(g77
g58
NtRp2087
(dp2088
g61
(dp2089
g88
g89
ssg70
g2078
sg63
(lp2090
S':'
asbag56
(g77
g58
NtRp2091
(dp2092
g61
(dp2093
sg70
g2078
sg63
(lp2094
g56
(g57
g58
NtRp2095
(dp2096
g61
(dp2097
g69
I5
ssg70
g2091
sg63
(lp2098
g56
(g65
g58
NtRp2099
(dp2100
g61
(dp2101
g69
I4
ssg70
Nsg63
(lp2102
sbasbasbasbag56
(g72
g58
NtRp2103
(dp2104
g61
(dp2105
sg70
g66
sg63
(lp2106
g56
(g77
g58
NtRp2107
(dp2108
g61
(dp2109
g81
g82
ssg70
g2103
sg63
(lp2110
S'raw_args'
p2111
asbag56
(g77
g58
NtRp2112
(dp2113
g61
(dp2114
g88
g89
ssg70
g2103
sg63
(lp2115
S':'
asbag56
(g77
g58
NtRp2116
(dp2117
g61
(dp2118
sg70
g2103
sg63
(lp2119
g56
(g57
g58
NtRp2120
(dp2121
g61
(dp2122
g69
I5
ssg70
g2116
sg63
(lp2123
g158
asbasbasbag56
(g72
g58
NtRp2124
(dp2125
g61
(dp2126
sg70
g66
sg63
(lp2127
g56
(g77
g58
NtRp2128
(dp2129
g61
(dp2130
g81
g82
ssg70
g2124
sg63
(lp2131
S'url'
p2132
asbag56
(g77
g58
NtRp2133
(dp2134
g61
(dp2135
g88
g89
ssg70
g2124
sg63
(lp2136
S':'
asbag56
(g77
g58
NtRp2137
(dp2138
g61
(dp2139
sg70
g2124
sg63
(lp2140
g56
(g57
g58
NtRp2141
(dp2142
g61
(dp2143
g69
I5
ssg70
g2137
sg63
(lp2144
S'/globaleaks/tulip/status/asd'
p2145
asbasbasbag56
(g72
g58
NtRp2146
(dp2147
g61
(dp2148
sg70
g66
sg63
(lp2149
g56
(g77
g58
NtRp2150
(dp2151
g61
(dp2152
g81
g82
ssg70
g2146
sg63
(lp2153
S'uuid'
p2154
asbag56
(g77
g58
NtRp2155
(dp2156
g61
(dp2157
g88
g89
ssg70
g2146
sg63
(lp2158
S':'
asbag56
(g77
g58
NtRp2159
(dp2160
g61
(dp2161
sg70
g2146
sg63
(lp2162
g56
(g57
g58
NtRp2163
(dp2164
g61
(dp2165
g69
I5
ssg70
g2159
sg63
(lp2166
S'globaleaks/127.0.0.1.2011-08-28.15-58-33.3c75868b-94d7-4030-8452-1de3c00cc47b'
p2167
asbasbasbag56
(g72
g58
NtRp2168
(dp2169
g61
(dp2170
sg70
g66
sg63
(lp2171
g56
(g77
g58
NtRp2172
(dp2173
g61
(dp2174
g81
g82
ssg70
g2168
sg63
(lp2175
S'vars'
p2176
asbag56
(g77
g58
NtRp2177
(dp2178
g61
(dp2179
g88
g89
ssg70
g2168
sg63
(lp2180
S':'
asbag56
(g77
g58
NtRp2181
(dp2182
g61
(dp2183
sg70
g2168
sg63
(lp2184
g56
(g57
g58
NtRp2185
(dp2186
g61
(dp2187
g69
I5
ssg70
g2181
sg63
(lp2188
g56
(g65
g58
NtRp2189
(dp2190
g61
(dp2191
g69
I4
ssg70
Nsg63
(lp2192
sbasbasbasbag56
(g72
g58
NtRp2193
(dp2194
g61
(dp2195
sg70
g66
sg63
(lp2196
g56
(g77
g58
NtRp2197
(dp2198
g61
(dp2199
g81
g82
ssg70
g2193
sg63
(lp2200
S'wsgi'
p2201
asbag56
(g77
g58
NtRp2202
(dp2203
g61
(dp2204
g88
g89
ssg70
g2193
sg63
(lp2205
S':'
asbag56
(g77
g58
NtRp2206
(dp2207
g61
(dp2208
sg70
g2193
sg63
(lp2209
g56
(g57
g58
NtRp2210
(dp2211
g61
(dp2212
g69
I5
ssg70
g2206
sg63
(lp2213
g56
(g65
g58
NtRp2214
(dp2215
g61
(dp2216
g69
I4
ssg70
Nsg63
(lp2217
g56
(g72
g58
NtRp2218
(dp2219
g61
(dp2220
sg70
g2214
sg63
(lp2221
g56
(g77
g58
NtRp2222
(dp2223
g61
(dp2224
g81
g82
ssg70
g2218
sg63
(lp2225
S'environ'
p2226
asbag56
(g77
g58
NtRp2227
(dp2228
g61
(dp2229
g88
g89
ssg70
g2218
sg63
(lp2230
S':'
asbag56
(g77
g58
NtRp2231
(dp2232
g61
(dp2233
sg70
g2218
sg63
(lp2234
g56
(g57
g58
NtRp2235
(dp2236
g61
(dp2237
g69
I4
ssg70
g2231
sg63
(lp2238
g56
(g65
g58
NtRp2239
(dp2240
g61
(dp2241
g69
I3
ssg70
Nsg63
(lp2242
g56
(g72
g58
NtRp2243
(dp2244
g61
(dp2245
sg70
g2239
sg63
(lp2246
g56
(g77
g58
NtRp2247
(dp2248
g61
(dp2249
g81
g82
ssg70
g2243
sg63
(lp2250
S'HTTP_ACCEPT'
p2251
asbag56
(g77
g58
NtRp2252
(dp2253
g61
(dp2254
g88
g89
ssg70
g2243
sg63
(lp2255
S':'
asbag56
(g77
g58
NtRp2256
(dp2257
g61
(dp2258
sg70
g2243
sg63
(lp2259
g56
(g57
g58
NtRp2260
(dp2261
g61
(dp2262
g69
I3
ssg70
g2256
sg63
(lp2263
g1200
asbasbasbag56
(g72
g58
NtRp2264
(dp2265
g61
(dp2266
sg70
g2239
sg63
(lp2267
g56
(g77
g58
NtRp2268
(dp2269
g61
(dp2270
g81
g82
ssg70
g2264
sg63
(lp2271
S'HTTP_ACCEPT_CHARSET'
p2272
asbag56
(g77
g58
NtRp2273
(dp2274
g61
(dp2275
g88
g89
ssg70
g2264
sg63
(lp2276
S':'
asbag56
(g77
g58
NtRp2277
(dp2278
g61
(dp2279
sg70
g2264
sg63
(lp2280
g56
(g57
g58
NtRp2281
(dp2282
g61
(dp2283
g69
I3
ssg70
g2277
sg63
(lp2284
g1222
asbasbasbag56
(g72
g58
NtRp2285
(dp2286
g61
(dp2287
sg70
g2239
sg63
(lp2288
g56
(g77
g58
NtRp2289
(dp2290
g61
(dp2291
g81
g82
ssg70
g2285
sg63
(lp2292
S'HTTP_ACCEPT_ENCODING'
p2293
asbag56
(g77
g58
NtRp2294
(dp2295
g61
(dp2296
g88
g89
ssg70
g2285
sg63
(lp2297
S':'
asbag56
(g77
g58
NtRp2298
(dp2299
g61
(dp2300
sg70
g2285
sg63
(lp2301
g56
(g57
g58
NtRp2302
(dp2303
g61
(dp2304
g69
I3
ssg70
g2298
sg63
(lp2305
g1244
asbasbasbag56
(g72
g58
NtRp2306
(dp2307
g61
(dp2308
sg70
g2239
sg63
(lp2309
g56
(g77
g58
NtRp2310
(dp2311
g61
(dp2312
g81
g82
ssg70
g2306
sg63
(lp2313
S'HTTP_ACCEPT_LANGUAGE'
p2314
asbag56
(g77
g58
NtRp2315
(dp2316
g61
(dp2317
g88
g89
ssg70
g2306
sg63
(lp2318
S':'
asbag56
(g77
g58
NtRp2319
(dp2320
g61
(dp2321
sg70
g2306
sg63
(lp2322
g56
(g57
g58
NtRp2323
(dp2324
g61
(dp2325
g69
I3
ssg70
g2319
sg63
(lp2326
g1266
asbasbasbag56
(g72
g58
NtRp2327
(dp2328
g61
(dp2329
sg70
g2239
sg63
(lp2330
g56
(g77
g58
NtRp2331
(dp2332
g61
(dp2333
g81
g82
ssg70
g2327
sg63
(lp2334
S'HTTP_CONNECTION'
p2335
asbag56
(g77
g58
NtRp2336
(dp2337
g61
(dp2338
g88
g89
ssg70
g2327
sg63
(lp2339
S':'
asbag56
(g77
g58
NtRp2340
(dp2341
g61
(dp2342
sg70
g2327
sg63
(lp2343
g56
(g57
g58
NtRp2344
(dp2345
g61
(dp2346
g69
I3
ssg70
g2340
sg63
(lp2347
g1288
asbasbasbag56
(g72
g58
NtRp2348
(dp2349
g61
(dp2350
sg70
g2239
sg63
(lp2351
g56
(g77
g58
NtRp2352
(dp2353
g61
(dp2354
g81
g82
ssg70
g2348
sg63
(lp2355
S'HTTP_COOKIE'
p2356
asbag56
(g77
g58
NtRp2357
(dp2358
g61
(dp2359
g88
g89
ssg70
g2348
sg63
(lp2360
S':'
asbag56
(g77
g58
NtRp2361
(dp2362
g61
(dp2363
sg70
g2348
sg63
(lp2364
g56
(g57
g58
NtRp2365
(dp2366
g61
(dp2367
g69
I3
ssg70
g2361
sg63
(lp2368
g1310
asbasbasbag56
(g72
g58
NtRp2369
(dp2370
g61
(dp2371
sg70
g2239
sg63
(lp2372
g56
(g77
g58
NtRp2373
(dp2374
g61
(dp2375
g81
g82
ssg70
g2369
sg63
(lp2376
S'HTTP_HOST'
p2377
asbag56
(g77
g58
NtRp2378
(dp2379
g61
(dp2380
g88
g89
ssg70
g2369
sg63
(lp2381
S':'
asbag56
(g77
g58
NtRp2382
(dp2383
g61
(dp2384
sg70
g2369
sg63
(lp2385
g56
(g57
g58
NtRp2386
(dp2387
g61
(dp2388
g69
I3
ssg70
g2382
sg63
(lp2389
g1332
asbasbasbag56
(g72
g58
NtRp2390
(dp2391
g61
(dp2392
sg70
g2239
sg63
(lp2393
g56
(g77
g58
NtRp2394
(dp2395
g61
(dp2396
g81
g82
ssg70
g2390
sg63
(lp2397
S'HTTP_USER_AGENT'
p2398
asbag56
(g77
g58
NtRp2399
(dp2400
g61
(dp2401
g88
g89
ssg70
g2390
sg63
(lp2402
S':'
asbag56
(g77
g58
NtRp2403
(dp2404
g61
(dp2405
sg70
g2390
sg63
(lp2406
g56
(g57
g58
NtRp2407
(dp2408
g61
(dp2409
g69
I3
ssg70
g2403
sg63
(lp2410
g1354
asbasbasbag56
(g72
g58
NtRp2411
(dp2412
g61
(dp2413
sg70
g2239
sg63
(lp2414
g56
(g77
g58
NtRp2415
(dp2416
g61
(dp2417
g81
g82
ssg70
g2411
sg63
(lp2418
S'PATH_INFO'
p2419
asbag56
(g77
g58
NtRp2420
(dp2421
g61
(dp2422
g88
g89
ssg70
g2411
sg63
(lp2423
S':'
asbag56
(g77
g58
NtRp2424
(dp2425
g61
(dp2426
sg70
g2411
sg63
(lp2427
g56
(g57
g58
NtRp2428
(dp2429
g61
(dp2430
g69
I3
ssg70
g2424
sg63
(lp2431
g1397
asbasbasbag56
(g72
g58
NtRp2432
(dp2433
g61
(dp2434
sg70
g2239
sg63
(lp2435
g56
(g77
g58
NtRp2436
(dp2437
g61
(dp2438
g81
g82
ssg70
g2432
sg63
(lp2439
S'QUERY_STRING'
p2440
asbag56
(g77
g58
NtRp2441
(dp2442
g61
(dp2443
g88
g89
ssg70
g2432
sg63
(lp2444
S':'
asbag56
(g77
g58
NtRp2445
(dp2446
g61
(dp2447
sg70
g2432
sg63
(lp2448
g56
(g57
g58
NtRp2449
(dp2450
g61
(dp2451
g69
I3
ssg70
g2445
sg63
(lp2452
S''
asbasbasbag56
(g72
g58
NtRp2453
(dp2454
g61
(dp2455
sg70
g2239
sg63
(lp2456
g56
(g77
g58
NtRp2457
(dp2458
g61
(dp2459
g81
g82
ssg70
g2453
sg63
(lp2460
S'REMOTE_ADDR'
p2461
asbag56
(g77
g58
NtRp2462
(dp2463
g61
(dp2464
g88
g89
ssg70
g2453
sg63
(lp2465
S':'
asbag56
(g77
g58
NtRp2466
(dp2467
g61
(dp2468
sg70
g2453
sg63
(lp2469
g56
(g57
g58
NtRp2470
(dp2471
g61
(dp2472
g69
I3
ssg70
g2466
sg63
(lp2473
g202
asbasbasbag56
(g72
g58
NtRp2474
(dp2475
g61
(dp2476
sg70
g2239
sg63
(lp2477
g56
(g77
g58
NtRp2478
(dp2479
g61
(dp2480
g81
g82
ssg70
g2474
sg63
(lp2481
S'REMOTE_PORT'
p2482
asbag56
(g77
g58
NtRp2483
(dp2484
g61
(dp2485
g88
g89
ssg70
g2474
sg63
(lp2486
S':'
asbag56
(g77
g58
NtRp2487
(dp2488
g61
(dp2489
sg70
g2474
sg63
(lp2490
g56
(g57
g58
NtRp2491
(dp2492
g61
(dp2493
g69
I3
ssg70
g2487
sg63
(lp2494
g1461
asbasbasbag56
(g72
g58
NtRp2495
(dp2496
g61
(dp2497
sg70
g2239
sg63
(lp2498
g56
(g77
g58
NtRp2499
(dp2500
g61
(dp2501
g81
g82
ssg70
g2495
sg63
(lp2502
S'REQUEST_METHOD'
p2503
asbag56
(g77
g58
NtRp2504
(dp2505
g61
(dp2506
g88
g89
ssg70
g2495
sg63
(lp2507
S':'
asbag56
(g77
g58
NtRp2508
(dp2509
g61
(dp2510
sg70
g2495
sg63
(lp2511
g56
(g57
g58
NtRp2512
(dp2513
g61
(dp2514
g69
I3
ssg70
g2508
sg63
(lp2515
g1483
asbasbasbag56
(g72
g58
NtRp2516
(dp2517
g61
(dp2518
sg70
g2239
sg63
(lp2519
g56
(g77
g58
NtRp2520
(dp2521
g61
(dp2522
g81
g82
ssg70
g2516
sg63
(lp2523
S'REQUEST_URI'
p2524
asbag56
(g77
g58
NtRp2525
(dp2526
g61
(dp2527
g88
g89
ssg70
g2516
sg63
(lp2528
S':'
asbag56
(g77
g58
NtRp2529
(dp2530
g61
(dp2531
sg70
g2516
sg63
(lp2532
g56
(g57
g58
NtRp2533
(dp2534
g61
(dp2535
g69
I3
ssg70
g2529
sg63
(lp2536
g1397
asbasbasbag56
(g72
g58
NtRp2537
(dp2538
g61
(dp2539
sg70
g2239
sg63
(lp2540
g56
(g77
g58
NtRp2541
(dp2542
g61
(dp2543
g81
g82
ssg70
g2537
sg63
(lp2544
S'SCRIPT_NAME'
p2545
asbag56
(g77
g58
NtRp2546
(dp2547
g61
(dp2548
g88
g89
ssg70
g2537
sg63
(lp2549
S':'
asbag56
(g77
g58
NtRp2550
(dp2551
g61
(dp2552
sg70
g2537
sg63
(lp2553
g56
(g57
g58
NtRp2554
(dp2555
g61
(dp2556
g69
I3
ssg70
g2550
sg63
(lp2557
S''
asbasbasbag56
(g72
g58
NtRp2558
(dp2559
g61
(dp2560
sg70
g2239
sg63
(lp2561
g56
(g77
g58
NtRp2562
(dp2563
g61
(dp2564
g81
g82
ssg70
g2558
sg63
(lp2565
S'SERVER_NAME'
p2566
asbag56
(g77
g58
NtRp2567
(dp2568
g61
(dp2569
g88
g89
ssg70
g2558
sg63
(lp2570
S':'
asbag56
(g77
g58
NtRp2571
(dp2572
g61
(dp2573
sg70
g2558
sg63
(lp2574
g56
(g57
g58
NtRp2575
(dp2576
g61
(dp2577
g69
I3
ssg70
g2571
sg63
(lp2578
g1547
asbasbasbag56
(g72
g58
NtRp2579
(dp2580
g61
(dp2581
sg70
g2239
sg63
(lp2582
g56
(g77
g58
NtRp2583
(dp2584
g61
(dp2585
g81
g82
ssg70
g2579
sg63
(lp2586
S'SERVER_PORT'
p2587
asbag56
(g77
g58
NtRp2588
(dp2589
g61
(dp2590
g88
g89
ssg70
g2579
sg63
(lp2591
S':'
asbag56
(g77
g58
NtRp2592
(dp2593
g61
(dp2594
sg70
g2579
sg63
(lp2595
g56
(g57
g58
NtRp2596
(dp2597
g61
(dp2598
g69
I3
ssg70
g2592
sg63
(lp2599
g1569
asbasbasbag56
(g72
g58
NtRp2600
(dp2601
g61
(dp2602
sg70
g2239
sg63
(lp2603
g56
(g77
g58
NtRp2604
(dp2605
g61
(dp2606
g81
g82
ssg70
g2600
sg63
(lp2607
S'SERVER_PROTOCOL'
p2608
asbag56
(g77
g58
NtRp2609
(dp2610
g61
(dp2611
g88
g89
ssg70
g2600
sg63
(lp2612
S':'
asbag56
(g77
g58
NtRp2613
(dp2614
g61
(dp2615
sg70
g2600
sg63
(lp2616
g56
(g57
g58
NtRp2617
(dp2618
g61
(dp2619
g69
I3
ssg70
g2613
sg63
(lp2620
g1591
asbasbasbag56
(g72
g58
NtRp2621
(dp2622
g61
(dp2623
sg70
g2239
sg63
(lp2624
g56
(g77
g58
NtRp2625
(dp2626
g61
(dp2627
g81
g82
ssg70
g2621
sg63
(lp2628
S'SERVER_SOFTWARE'
p2629
asbag56
(g77
g58
NtRp2630
(dp2631
g61
(dp2632
g88
g89
ssg70
g2621
sg63
(lp2633
S':'
asbag56
(g77
g58
NtRp2634
(dp2635
g61
(dp2636
sg70
g2621
sg63
(lp2637
g56
(g57
g58
NtRp2638
(dp2639
g61
(dp2640
g69
I3
ssg70
g2634
sg63
(lp2641
g1613
asbasbasbag56
(g72
g58
NtRp2642
(dp2643
g61
(dp2644
sg70
g2239
sg63
(lp2645
g56
(g77
g58
NtRp2646
(dp2647
g61
(dp2648
g81
g82
ssg70
g2642
sg63
(lp2649
S'WEB2PY_ORIGINAL_URI'
p2650
asbag56
(g77
g58
NtRp2651
(dp2652
g61
(dp2653
g88
g89
ssg70
g2642
sg63
(lp2654
S':'
asbag56
(g77
g58
NtRp2655
(dp2656
g61
(dp2657
sg70
g2642
sg63
(lp2658
g56
(g57
g58
NtRp2659
(dp2660
g61
(dp2661
g69
I3
ssg70
g2655
sg63
(lp2662
g1657
asbasbasbag56
(g72
g58
NtRp2663
(dp2664
g61
(dp2665
sg70
g2239
sg63
(lp2666
g56
(g77
g58
NtRp2667
(dp2668
g61
(dp2669
g81
g82
ssg70
g2663
sg63
(lp2670
S'wsgi.errors'
p2671
asbag56
(g77
g58
NtRp2672
(dp2673
g61
(dp2674
g88
g89
ssg70
g2663
sg63
(lp2675
S':'
asbag56
(g77
g58
NtRp2676
(dp2677
g61
(dp2678
sg70
g2663
sg63
(lp2679
g56
(g57
g58
NtRp2680
(dp2681
g61
(dp2682
g69
I3
ssg70
g2676
sg63
(lp2683
S"<open file '<stderr>', mode 'w' at 0x100287270>"
p2684
asbasbasbag56
(g72
g58
NtRp2685
(dp2686
g61
(dp2687
sg70
g2239
sg63
(lp2688
g56
(g77
g58
NtRp2689
(dp2690
g61
(dp2691
g81
g82
ssg70
g2685
sg63
(lp2692
S'wsgi.file_wrapper'
p2693
asbag56
(g77
g58
NtRp2694
(dp2695
g61
(dp2696
g88
g89
ssg70
g2685
sg63
(lp2697
S':'
asbag56
(g77
g58
NtRp2698
(dp2699
g61
(dp2700
sg70
g2685
sg63
(lp2701
g56
(g57
g58
NtRp2702
(dp2703
g61
(dp2704
g69
I3
ssg70
g2698
sg63
(lp2705
S'<class gluon.rocket.FileWrapper at 0x1019dae88>'
p2706
asbasbasbag56
(g72
g58
NtRp2707
(dp2708
g61
(dp2709
sg70
g2239
sg63
(lp2710
g56
(g77
g58
NtRp2711
(dp2712
g61
(dp2713
g81
g82
ssg70
g2707
sg63
(lp2714
S'wsgi.input'
p2715
asbag56
(g77
g58
NtRp2716
(dp2717
g61
(dp2718
g88
g89
ssg70
g2707
sg63
(lp2719
S':'
asbag56
(g77
g58
NtRp2720
(dp2721
g61
(dp2722
sg70
g2707
sg63
(lp2723
g56
(g57
g58
NtRp2724
(dp2725
g61
(dp2726
g69
I3
ssg70
g2720
sg63
(lp2727
S'<cStringIO.StringO object at 0x101905dc0>'
p2728
asbasbasbag56
(g72
g58
NtRp2729
(dp2730
g61
(dp2731
sg70
g2239
sg63
(lp2732
g56
(g77
g58
NtRp2733
(dp2734
g61
(dp2735
g81
g82
ssg70
g2729
sg63
(lp2736
S'wsgi.multiprocess'
p2737
asbag56
(g77
g58
NtRp2738
(dp2739
g61
(dp2740
g88
g89
ssg70
g2729
sg63
(lp2741
S':'
asbag56
(g77
g58
NtRp2742
(dp2743
g61
(dp2744
sg70
g2729
sg63
(lp2745
g56
(g57
g58
NtRp2746
(dp2747
g61
(dp2748
g69
I3
ssg70
g2742
sg63
(lp2749
g99
asbasbasbag56
(g72
g58
NtRp2750
(dp2751
g61
(dp2752
sg70
g2239
sg63
(lp2753
g56
(g77
g58
NtRp2754
(dp2755
g61
(dp2756
g81
g82
ssg70
g2750
sg63
(lp2757
S'wsgi.multithread'
p2758
asbag56
(g77
g58
NtRp2759
(dp2760
g61
(dp2761
g88
g89
ssg70
g2750
sg63
(lp2762
S':'
asbag56
(g77
g58
NtRp2763
(dp2764
g61
(dp2765
sg70
g2750
sg63
(lp2766
g56
(g57
g58
NtRp2767
(dp2768
g61
(dp2769
g69
I3
ssg70
g2763
sg63
(lp2770
g1809
asbasbasbag56
(g72
g58
NtRp2771
(dp2772
g61
(dp2773
sg70
g2239
sg63
(lp2774
g56
(g77
g58
NtRp2775
(dp2776
g61
(dp2777
g81
g82
ssg70
g2771
sg63
(lp2778
S'wsgi.run_once'
p2779
asbag56
(g77
g58
NtRp2780
(dp2781
g61
(dp2782
g88
g89
ssg70
g2771
sg63
(lp2783
S':'
asbag56
(g77
g58
NtRp2784
(dp2785
g61
(dp2786
sg70
g2771
sg63
(lp2787
g56
(g57
g58
NtRp2788
(dp2789
g61
(dp2790
g69
I3
ssg70
g2784
sg63
(lp2791
g99
asbasbasbag56
(g72
g58
NtRp2792
(dp2793
g61
(dp2794
sg70
g2239
sg63
(lp2795
g56
(g77
g58
NtRp2796
(dp2797
g61
(dp2798
g81
g82
ssg70
g2792
sg63
(lp2799
S'wsgi.url_scheme'
p2800
asbag56
(g77
g58
NtRp2801
(dp2802
g61
(dp2803
g88
g89
ssg70
g2792
sg63
(lp2804
S':'
asbag56
(g77
g58
NtRp2805
(dp2806
g61
(dp2807
sg70
g2792
sg63
(lp2808
g56
(g57
g58
NtRp2809
(dp2810
g61
(dp2811
g69
I3
ssg70
g2805
sg63
(lp2812
g1852
asbasbasbag56
(g72
g58
NtRp2813
(dp2814
g61
(dp2815
sg70
g2239
sg63
(lp2816
g56
(g77
g58
NtRp2817
(dp2818
g61
(dp2819
g81
g82
ssg70
g2813
sg63
(lp2820
S'wsgi.version'
p2821
asbag56
(g77
g58
NtRp2822
(dp2823
g61
(dp2824
g88
g89
ssg70
g2813
sg63
(lp2825
S':'
asbag56
(g77
g58
NtRp2826
(dp2827
g61
(dp2828
sg70
g2813
sg63
(lp2829
g56
(g57
g58
NtRp2830
(dp2831
g61
(dp2832
g69
I3
ssg70
g2826
sg63
(lp2833
S'1'
asbasbasbasbasbasbasbasbasbasbasbasbasbsS'frames'
p2834
(lp2835
(dp2836
S'file'
p2837
S'/opt/local/Library/Frameworks/Python.framework/Versions/2.7/lib/python2.7/gluon/restricted.py'
p2838
sS'dump'
p2839
(dp2840
S'environment'
p2841
S"{'A': <class 'gluon.html.A'>, 'Auth': <class 'gluon.tools.Auth'>, 'B': <class 'gluon.html.B'>, 'BEAUTIFY': <class 'gluon.html.BEAUTIFY'>, 'BODY': <class 'gluon.html.BODY'>, 'BR': <class 'gluon.html.BR'>, 'BUTTON': <class 'gluon.html.BUTTON'>, 'CAT': <class 'gluon.html.CAT'>, 'CENTER': <class 'gluon.html.CENTER'>, 'CLEANUP': <class 'gluon.validators.CLEANUP'>, ...}"
p2842
sS'ccode'
p2843
S'<code object <module> at 0x101de99b0, file "/Use...cations/globaleaks/controllers/tulip.py", line 1>'
p2844
ssS'lnum'
p2845
I192
sS'lines'
p2846
(dp2847
I192
S'        exec ccode in environment'
p2848
sI193
S'    except HTTP:'
p2849
sI194
S'        raise'
p2850
sI195
S'    except Exception, error:'
p2851
sI196
S'        # XXX Show exception in Wing IDE if running in debugger'
p2852
sI187
S'    try:'
p2853
sI188
S'        if type(code) == types.CodeType:'
p2854
sI189
S'            ccode = code'
p2855
sI190
S'        else:'
p2856
sI191
S'            ccode = compile2(code,layer)'
p2857
ssS'call'
p2858
S"(code='def index():\\n    return dict(dead=False,\\n       ...t=None)\\n\\nresponse._vars=response._caller(status)\\n', environment={'A': <class 'gluon.html.A'>, 'Auth': <class 'gluon.tools.Auth'>, 'B': <class 'gluon.html.B'>, 'BEAUTIFY': <class 'gluon.html.BEAUTIFY'>, 'BODY': <class 'gluon.html.BODY'>, 'BR': <class 'gluon.html.BR'>, 'BUTTON': <class 'gluon.html.BUTTON'>, 'CAT': <class 'gluon.html.CAT'>, 'CENTER': <class 'gluon.html.CENTER'>, 'CLEANUP': <class 'gluon.validators.CLEANUP'>, ...}, layer='/Users/hellais/Documents/code/mygit/globaleaks/webapp/applications/globaleaks/controllers/tulip.py')"
p2859
sS'func'
p2860
S'restricted'
p2861
sa(dp2862
g2837
S'/Users/hellais/Documents/code/mygit/globaleaks/webapp/applications/globaleaks/controllers/tulip.py'
p2863
sg2839
(dp2864
sg2845
I58
sg2846
(dp2865
I47
S''
sI48
S'    return dict(dead=dead,'
p2866
sI49
S'                leak_title=leak.title,'
p2867
sI50
S'                leak_tags=leak.tags,'
p2868
sI51
S'                leak_desc=leak.desc,'
p2869
sI52
S'                leak_material=leak.material,'
p2870
sI53
S'                tulip_downloads=t.downloads_counter,'
p2871
sI54
S'                tulip_allowed_downloads=t.allowed_downloads,'
p2872
sI55
S'                comment_form=form,'
p2873
sI56
S'                comment=None)'
p2874
ssg2858
S'()'
p2875
sg2860
S'<module>'
p2876
sa(dp2877
g2837
S'/opt/local/Library/Frameworks/Python.framework/Versions/2.7/lib/python2.7/gluon/globals.py'
p2878
sg2839
(dp2879
S'self'
p2880
S'undefined'
p2881
sS'f'
S'<function status>'
p2882
ssg2845
I145
sg2846
(dp2883
I140
S'        self.meta = Storage()      # used by web2py_ajax.html'
p2884
sI141
S'        self.menu = []             # used by the default view layout'
p2885
sI142
S'        self.files = []            # used by web2py_ajax.html'
p2886
sI143
S'        self.generic_patterns = [] # patterns to allow generic views'
p2887
sI144
S'        self._vars = None'
p2888
sI145
S'        self._caller = lambda f: f()'
p2889
sI146
S'        self._view_environment = None'
p2890
sI147
S'        self._custom_commit = None'
p2891
sI148
S'        self._custom_rollback = None'
p2892
sI149
S''
ssg2858
S'(f=<function status>)'
p2893
sg2860
S'<lambda>'
p2894
sa(dp2895
g2837
S'/Users/hellais/Documents/code/mygit/globaleaks/webapp/applications/globaleaks/controllers/tulip.py'
p2896
sg2839
(dp2897
S'url'
p2898
g2881
sS'tulip_url'
p2899
S"'asd'"
p2900
sS't'
g2881
sS'global Tulip'
p2901
S"<class 'Tulip'>"
p2902
ssg2845
I15
sg2846
(dp2903
I10
S'                name=None,'
p2904
sI11
S'                comment_form=None)'
p2905
sI12
S''
sI13
S'def status():'
p2906
sI14
S'    tulip_url = request.args[0]'
p2907
sI15
S'    t = Tulip(url=tulip_url)'
p2908
sI16
S'    leak = t.get_leak()'
p2909
sI17
S'    dead = False'
p2910
sI18
S''
sI19
S"    form = SQLFORM.factory(Field('Comment', 'text', requires=IS_NOT_EMPTY()))"
p2911
ssg2858
S'()'
p2912
sg2860
S'status'
p2913
sa(dp2914
g2837
S'/Users/hellais/Documents/code/mygit/globaleaks/webapp/applications/globaleaks/models/datamodel.py'
p2915
sg2839
(dp2916
S'db.tulip.uri'
p2917
S'<gluon.dal.Field object>'
p2918
sS'url'
p2919
S"'asd'"
p2920
sS'self'
p2921
S'<Tulip object>'
p2922
sS').select'
p2923
g2881
sS'db.tulip'
p2924
S"<Table {'leak_id': <gluon.dal.Field object at 0x..., 'id': <gluon.dal.Field object at 0x10191a150>}>"
p2925
sS'global db'
p2926
S"<DAL {'comment': <Table {'leak_id': <gluon.dal.F...t 0x10191a150>}>, '_uri': 'sqlite://storage.db'}>"
p2927
sS'self._id'
p2928
g2881
ssg2845
I82
sg2846
(dp2929
I77
S''
sI78
S''
sI79
S'class Tulip(object):'
p2930
sI80
S'    def __init__(self, id=None, url=None):'
p2931
sI81
S'        if url:'
p2932
sI82
S'            self._id = db(db.tulip.uri==url).select().first().id'
p2933
sI83
S'        else:'
p2934
sI84
S'            self._id = id'
p2935
sI85
S''
sI86
S'    def get_id(self):'
p2936
ssg2858
S"(self=<Tulip object>, id=None, url='asd')"
p2937
sg2860
g49
sasS'pyver'
p2938
S'Python 2.7.1: /opt/local/Library/Frameworks/Python.framework/Versions/2.7/Resources/Python.app/Contents/MacOS/Python'
p2939
sS'session'
p2940
g56
(g57
g58
NtRp2941
(dp2942
g61
(dp2943
sg63
(lp2944
g56
(g65
g58
NtRp2945
(dp2946
g61
(dp2947
g69
I5
ssg70
Nsg63
(lp2948
sbasbsS'etype'
p2949
S"<type 'exceptions.AttributeError'>"
p2950
sS'date'
p2951
S'Sun Aug 28 15:58:33 2011'
p2952
sS'response'
p2953
g56
(g57
g58
NtRp2954
(dp2955
g61
(dp2956
sg63
(lp2957
g56
(g65
g58
NtRp2958
(dp2959
g61
(dp2960
g69
I5
ssg70
Nsg63
(lp2961
g56
(g72
g58
NtRp2962
(dp2963
g61
(dp2964
sg70
g2958
sg63
(lp2965
g56
(g77
g58
NtRp2966
(dp2967
g61
(dp2968
g81
g82
ssg70
g2962
sg63
(lp2969
g167
asbag56
(g77
g58
NtRp2970
(dp2971
g61
(dp2972
g88
g89
ssg70
g2962
sg63
(lp2973
S':'
asbag56
(g77
g58
NtRp2974
(dp2975
g61
(dp2976
sg70
g2962
sg63
(lp2977
g56
(g57
g58
NtRp2978
(dp2979
g61
(dp2980
g69
I5
ssg70
g2974
sg63
(lp2981
S'<cStringIO.StringO object at 0x101905960>'
p2982
asbasbasbag56
(g72
g58
NtRp2983
(dp2984
g61
(dp2985
sg70
g2958
sg63
(lp2986
g56
(g77
g58
NtRp2987
(dp2988
g61
(dp2989
g81
g82
ssg70
g2983
sg63
(lp2990
g233
asbag56
(g77
g58
NtRp2991
(dp2992
g61
(dp2993
g88
g89
ssg70
g2983
sg63
(lp2994
S':'
asbag56
(g77
g58
NtRp2995
(dp2996
g61
(dp2997
sg70
g2983
sg63
(lp2998
g56
(g57
g58
NtRp2999
(dp3000
g61
(dp3001
g69
I5
ssg70
g2995
sg63
(lp3002
g56
(g65
g58
NtRp3003
(dp3004
g61
(dp3005
g69
I4
ssg70
Nsg63
(lp3006
g56
(g72
g58
NtRp3007
(dp3008
g61
(dp3009
sg70
g3003
sg63
(lp3010
g56
(g77
g58
NtRp3011
(dp3012
g61
(dp3013
g81
g82
ssg70
g3007
sg63
(lp3014
S'session_id_globaleaks'
p3015
asbag56
(g77
g58
NtRp3016
(dp3017
g61
(dp3018
g88
g89
ssg70
g3007
sg63
(lp3019
S':'
asbag56
(g77
g58
NtRp3020
(dp3021
g61
(dp3022
sg70
g3007
sg63
(lp3023
g56
(g57
g58
NtRp3024
(dp3025
g61
(dp3026
g69
I4
ssg70
g3020
sg63
(lp3027
g56
(g65
g58
NtRp3028
(dp3029
g61
(dp3030
g69
I3
ssg70
Nsg63
(lp3031
g56
(g72
g58
NtRp3032
(dp3033
g61
(dp3034
sg70
g3028
sg63
(lp3035
g56
(g77
g58
NtRp3036
(dp3037
g61
(dp3038
g81
g82
ssg70
g3032
sg63
(lp3039
g283
asbag56
(g77
g58
NtRp3040
(dp3041
g61
(dp3042
g88
g89
ssg70
g3032
sg63
(lp3043
S':'
asbag56
(g77
g58
NtRp3044
(dp3045
g61
(dp3046
sg70
g3032
sg63
(lp3047
g56
(g57
g58
NtRp3048
(dp3049
g61
(dp3050
g69
I3
ssg70
g3044
sg63
(lp3051
S''
asbasbasbag56
(g72
g58
NtRp3052
(dp3053
g61
(dp3054
sg70
g3028
sg63
(lp3055
g56
(g77
g58
NtRp3056
(dp3057
g61
(dp3058
g81
g82
ssg70
g3052
sg63
(lp3059
g304
asbag56
(g77
g58
NtRp3060
(dp3061
g61
(dp3062
g88
g89
ssg70
g3052
sg63
(lp3063
S':'
asbag56
(g77
g58
NtRp3064
(dp3065
g61
(dp3066
sg70
g3052
sg63
(lp3067
g56
(g57
g58
NtRp3068
(dp3069
g61
(dp3070
g69
I3
ssg70
g3064
sg63
(lp3071
S''
asbasbasbag56
(g72
g58
NtRp3072
(dp3073
g61
(dp3074
sg70
g3028
sg63
(lp3075
g56
(g77
g58
NtRp3076
(dp3077
g61
(dp3078
g81
g82
ssg70
g3072
sg63
(lp3079
g325
asbag56
(g77
g58
NtRp3080
(dp3081
g61
(dp3082
g88
g89
ssg70
g3072
sg63
(lp3083
S':'
asbag56
(g77
g58
NtRp3084
(dp3085
g61
(dp3086
sg70
g3072
sg63
(lp3087
g56
(g57
g58
NtRp3088
(dp3089
g61
(dp3090
g69
I3
ssg70
g3084
sg63
(lp3091
S''
asbasbasbag56
(g72
g58
NtRp3092
(dp3093
g61
(dp3094
sg70
g3028
sg63
(lp3095
g56
(g77
g58
NtRp3096
(dp3097
g61
(dp3098
g81
g82
ssg70
g3092
sg63
(lp3099
g346
asbag56
(g77
g58
NtRp3100
(dp3101
g61
(dp3102
g88
g89
ssg70
g3092
sg63
(lp3103
S':'
asbag56
(g77
g58
NtRp3104
(dp3105
g61
(dp3106
sg70
g3092
sg63
(lp3107
g56
(g57
g58
NtRp3108
(dp3109
g61
(dp3110
g69
I3
ssg70
g3104
sg63
(lp3111
S''
asbasbasbag56
(g72
g58
NtRp3112
(dp3113
g61
(dp3114
sg70
g3028
sg63
(lp3115
g56
(g77
g58
NtRp3116
(dp3117
g61
(dp3118
g81
g82
ssg70
g3112
sg63
(lp3119
g367
asbag56
(g77
g58
NtRp3120
(dp3121
g61
(dp3122
g88
g89
ssg70
g3112
sg63
(lp3123
S':'
asbag56
(g77
g58
NtRp3124
(dp3125
g61
(dp3126
sg70
g3112
sg63
(lp3127
g56
(g57
g58
NtRp3128
(dp3129
g61
(dp3130
g69
I3
ssg70
g3124
sg63
(lp3131
S''
asbasbasbag56
(g72
g58
NtRp3132
(dp3133
g61
(dp3134
sg70
g3028
sg63
(lp3135
g56
(g77
g58
NtRp3136
(dp3137
g61
(dp3138
g81
g82
ssg70
g3132
sg63
(lp3139
g388
asbag56
(g77
g58
NtRp3140
(dp3141
g61
(dp3142
g88
g89
ssg70
g3132
sg63
(lp3143
S':'
asbag56
(g77
g58
NtRp3144
(dp3145
g61
(dp3146
sg70
g3132
sg63
(lp3147
g56
(g57
g58
NtRp3148
(dp3149
g61
(dp3150
g69
I3
ssg70
g3144
sg63
(lp3151
S'/'
asbasbasbag56
(g72
g58
NtRp3152
(dp3153
g61
(dp3154
sg70
g3028
sg63
(lp3155
g56
(g77
g58
NtRp3156
(dp3157
g61
(dp3158
g81
g82
ssg70
g3152
sg63
(lp3159
g409
asbag56
(g77
g58
NtRp3160
(dp3161
g61
(dp3162
g88
g89
ssg70
g3152
sg63
(lp3163
S':'
asbag56
(g77
g58
NtRp3164
(dp3165
g61
(dp3166
sg70
g3152
sg63
(lp3167
g56
(g57
g58
NtRp3168
(dp3169
g61
(dp3170
g69
I3
ssg70
g3164
sg63
(lp3171
S''
asbasbasbag56
(g72
g58
NtRp3172
(dp3173
g61
(dp3174
sg70
g3028
sg63
(lp3175
g56
(g77
g58
NtRp3176
(dp3177
g61
(dp3178
g81
g82
ssg70
g3172
sg63
(lp3179
g430
asbag56
(g77
g58
NtRp3180
(dp3181
g61
(dp3182
g88
g89
ssg70
g3172
sg63
(lp3183
S':'
asbag56
(g77
g58
NtRp3184
(dp3185
g61
(dp3186
sg70
g3172
sg63
(lp3187
g56
(g57
g58
NtRp3188
(dp3189
g61
(dp3190
g69
I3
ssg70
g3184
sg63
(lp3191
S''
asbasbasbasbasbasbasbasbasbasbasbag56
(g72
g58
NtRp3192
(dp3193
g61
(dp3194
sg70
g2958
sg63
(lp3195
g56
(g77
g58
NtRp3196
(dp3197
g61
(dp3198
g81
g82
ssg70
g3192
sg63
(lp3199
S'files'
p3200
asbag56
(g77
g58
NtRp3201
(dp3202
g61
(dp3203
g88
g89
ssg70
g3192
sg63
(lp3204
S':'
asbag56
(g77
g58
NtRp3205
(dp3206
g61
(dp3207
sg70
g3192
sg63
(lp3208
g56
(g57
g58
NtRp3209
(dp3210
g61
(dp3211
g69
I5
ssg70
g3205
sg63
(lp3212
g56
(g65
g58
NtRp3213
(dp3214
g61
(dp3215
g69
I4
ssg70
Nsg63
(lp3216
sbasbasbasbag56
(g72
g58
NtRp3217
(dp3218
g61
(dp3219
sg70
g2958
sg63
(lp3220
g56
(g77
g58
NtRp3221
(dp3222
g61
(dp3223
g81
g82
ssg70
g3217
sg63
(lp3224
S'flash'
p3225
asbag56
(g77
g58
NtRp3226
(dp3227
g61
(dp3228
g88
g89
ssg70
g3217
sg63
(lp3229
S':'
asbag56
(g77
g58
NtRp3230
(dp3231
g61
(dp3232
sg70
g3217
sg63
(lp3233
g56
(g57
g58
NtRp3234
(dp3235
g61
(dp3236
g69
I5
ssg70
g3230
sg63
(lp3237
S''
asbasbasbag56
(g72
g58
NtRp3238
(dp3239
g61
(dp3240
sg70
g2958
sg63
(lp3241
g56
(g77
g58
NtRp3242
(dp3243
g61
(dp3244
g81
g82
ssg70
g3238
sg63
(lp3245
S'generic_patterns'
p3246
asbag56
(g77
g58
NtRp3247
(dp3248
g61
(dp3249
g88
g89
ssg70
g3238
sg63
(lp3250
S':'
asbag56
(g77
g58
NtRp3251
(dp3252
g61
(dp3253
sg70
g3238
sg63
(lp3254
g56
(g57
g58
NtRp3255
(dp3256
g61
(dp3257
g69
I5
ssg70
g3251
sg63
(lp3258
g56
(g65
g58
NtRp3259
(dp3260
g61
(dp3261
g69
I4
ssg70
Nsg63
(lp3262
sbasbasbasbag56
(g72
g58
NtRp3263
(dp3264
g61
(dp3265
sg70
g2958
sg63
(lp3266
g56
(g77
g58
NtRp3267
(dp3268
g61
(dp3269
g81
g82
ssg70
g3263
sg63
(lp3270
S'headers'
p3271
asbag56
(g77
g58
NtRp3272
(dp3273
g61
(dp3274
g88
g89
ssg70
g3263
sg63
(lp3275
S':'
asbag56
(g77
g58
NtRp3276
(dp3277
g61
(dp3278
sg70
g3263
sg63
(lp3279
g56
(g57
g58
NtRp3280
(dp3281
g61
(dp3282
g69
I5
ssg70
g3276
sg63
(lp3283
g56
(g65
g58
NtRp3284
(dp3285
g61
(dp3286
g69
I4
ssg70
Nsg63
(lp3287
g56
(g72
g58
NtRp3288
(dp3289
g61
(dp3290
sg70
g3284
sg63
(lp3291
g56
(g77
g58
NtRp3292
(dp3293
g61
(dp3294
g81
g82
ssg70
g3288
sg63
(lp3295
S'Cache-Control'
p3296
asbag56
(g77
g58
NtRp3297
(dp3298
g61
(dp3299
g88
g89
ssg70
g3288
sg63
(lp3300
S':'
asbag56
(g77
g58
NtRp3301
(dp3302
g61
(dp3303
sg70
g3288
sg63
(lp3304
g56
(g57
g58
NtRp3305
(dp3306
g61
(dp3307
g69
I4
ssg70
g3301
sg63
(lp3308
S'no-store, no-cache, must-revalidate, post-check=0, pre-check=0'
p3309
asbasbasbag56
(g72
g58
NtRp3310
(dp3311
g61
(dp3312
sg70
g3284
sg63
(lp3313
g56
(g77
g58
NtRp3314
(dp3315
g61
(dp3316
g81
g82
ssg70
g3310
sg63
(lp3317
S'Content-Type'
p3318
asbag56
(g77
g58
NtRp3319
(dp3320
g61
(dp3321
g88
g89
ssg70
g3310
sg63
(lp3322
S':'
asbag56
(g77
g58
NtRp3323
(dp3324
g61
(dp3325
sg70
g3310
sg63
(lp3326
g56
(g57
g58
NtRp3327
(dp3328
g61
(dp3329
g69
I4
ssg70
g3323
sg63
(lp3330
S'text/html; charset=utf-8'
p3331
asbasbasbag56
(g72
g58
NtRp3332
(dp3333
g61
(dp3334
sg70
g3284
sg63
(lp3335
g56
(g77
g58
NtRp3336
(dp3337
g61
(dp3338
g81
g82
ssg70
g3332
sg63
(lp3339
S'Expires'
p3340
asbag56
(g77
g58
NtRp3341
(dp3342
g61
(dp3343
g88
g89
ssg70
g3332
sg63
(lp3344
S':'
asbag56
(g77
g58
NtRp3345
(dp3346
g61
(dp3347
sg70
g3332
sg63
(lp3348
g56
(g57
g58
NtRp3349
(dp3350
g61
(dp3351
g69
I4
ssg70
g3345
sg63
(lp3352
S'Sun, 28 Aug 2011 13:58:33 GMT'
p3353
asbasbasbag56
(g72
g58
NtRp3354
(dp3355
g61
(dp3356
sg70
g3284
sg63
(lp3357
g56
(g77
g58
NtRp3358
(dp3359
g61
(dp3360
g81
g82
ssg70
g3354
sg63
(lp3361
S'Pragma'
p3362
asbag56
(g77
g58
NtRp3363
(dp3364
g61
(dp3365
g88
g89
ssg70
g3354
sg63
(lp3366
S':'
asbag56
(g77
g58
NtRp3367
(dp3368
g61
(dp3369
sg70
g3354
sg63
(lp3370
g56
(g57
g58
NtRp3371
(dp3372
g61
(dp3373
g69
I4
ssg70
g3367
sg63
(lp3374
S'no-cache'
p3375
asbasbasbag56
(g72
g58
NtRp3376
(dp3377
g61
(dp3378
sg70
g3284
sg63
(lp3379
g56
(g77
g58
NtRp3380
(dp3381
g61
(dp3382
g81
g82
ssg70
g3376
sg63
(lp3383
S'X-Powered-By'
p3384
asbag56
(g77
g58
NtRp3385
(dp3386
g61
(dp3387
g88
g89
ssg70
g3376
sg63
(lp3388
S':'
asbag56
(g77
g58
NtRp3389
(dp3390
g61
(dp3391
sg70
g3376
sg63
(lp3392
g56
(g57
g58
NtRp3393
(dp3394
g61
(dp3395
g69
I4
ssg70
g3389
sg63
(lp3396
S'web2py'
p3397
asbasbasbasbasbasbasbag56
(g72
g58
NtRp3398
(dp3399
g61
(dp3400
sg70
g2958
sg63
(lp3401
g56
(g77
g58
NtRp3402
(dp3403
g61
(dp3404
g81
g82
ssg70
g3398
sg63
(lp3405
S'menu'
p3406
asbag56
(g77
g58
NtRp3407
(dp3408
g61
(dp3409
g88
g89
ssg70
g3398
sg63
(lp3410
S':'
asbag56
(g77
g58
NtRp3411
(dp3412
g61
(dp3413
sg70
g3398
sg63
(lp3414
g56
(g57
g58
NtRp3415
(dp3416
g61
(dp3417
g69
I5
ssg70
g3411
sg63
(lp3418
g56
(g65
g58
NtRp3419
(dp3420
g61
(dp3421
g69
I4
ssg70
Nsg63
(lp3422
g56
(g72
g58
NtRp3423
(dp3424
g61
(dp3425
sg70
g3419
sg63
(lp3426
g56
(g77
g58
NtRp3427
(dp3428
g61
(dp3429
sg70
g3423
sg63
(lp3430
g56
(g57
g58
NtRp3431
(dp3432
g61
(dp3433
g69
I4
ssg70
g3427
sg63
(lp3434
g56
(g65
g58
NtRp3435
(dp3436
g61
(dp3437
g69
I3
ssg70
Nsg63
(lp3438
g56
(g72
g58
NtRp3439
(dp3440
g61
(dp3441
sg70
g3435
sg63
(lp3442
g56
(g77
g58
NtRp3443
(dp3444
g61
(dp3445
sg70
g3439
sg63
(lp3446
g56
(g57
g58
NtRp3447
(dp3448
g61
(dp3449
g69
I3
ssg70
g3443
sg63
(lp3450
cgluon.languages
lazyT_unpickle
p3451
(S't\x05\x00\x00\x00Index'
tRp3452
asbasbasbag56
(g72
g58
NtRp3453
(dp3454
g61
(dp3455
sg70
g3435
sg63
(lp3456
g56
(g77
g58
NtRp3457
(dp3458
g61
(dp3459
sg70
g3453
sg63
(lp3460
g56
(g57
g58
NtRp3461
(dp3462
g61
(dp3463
g69
I3
ssg70
g3457
sg63
(lp3464
g99
asbasbasbag56
(g72
g58
NtRp3465
(dp3466
g61
(dp3467
sg70
g3435
sg63
(lp3468
g56
(g77
g58
NtRp3469
(dp3470
g61
(dp3471
sg70
g3465
sg63
(lp3472
g56
(g57
g58
NtRp3473
(dp3474
g61
(dp3475
g69
I3
ssg70
g3469
sg63
(lp3476
S'/globaleaks/default/index'
p3477
asbasbasbag56
(g72
g58
NtRp3478
(dp3479
g61
(dp3480
sg70
g3435
sg63
(lp3481
g56
(g77
g58
NtRp3482
(dp3483
g61
(dp3484
sg70
g3478
sg63
(lp3485
g56
(g57
g58
NtRp3486
(dp3487
g61
(dp3488
g69
I3
ssg70
g3482
sg63
(lp3489
g56
(g65
g58
NtRp3490
(dp3491
g61
(dp3492
g69
I2
ssg70
Nsg63
(lp3493
sbasbasbasbasbasbasbasbag56
(g72
g58
NtRp3494
(dp3495
g61
(dp3496
sg70
g3419
sg63
(lp3497
g56
(g77
g58
NtRp3498
(dp3499
g61
(dp3500
sg70
g3494
sg63
(lp3501
g56
(g57
g58
NtRp3502
(dp3503
g61
(dp3504
g69
I4
ssg70
g3498
sg63
(lp3505
g56
(g65
g58
NtRp3506
(dp3507
g61
(dp3508
g69
I3
ssg70
Nsg63
(lp3509
g56
(g72
g58
NtRp3510
(dp3511
g61
(dp3512
sg70
g3506
sg63
(lp3513
g56
(g77
g58
NtRp3514
(dp3515
g61
(dp3516
sg70
g3510
sg63
(lp3517
g56
(g57
g58
NtRp3518
(dp3519
g61
(dp3520
g69
I3
ssg70
g3514
sg63
(lp3521
g3451
(S't\n\x00\x00\x00Submission'
tRp3522
asbasbasbag56
(g72
g58
NtRp3523
(dp3524
g61
(dp3525
sg70
g3506
sg63
(lp3526
g56
(g77
g58
NtRp3527
(dp3528
g61
(dp3529
sg70
g3523
sg63
(lp3530
g56
(g57
g58
NtRp3531
(dp3532
g61
(dp3533
g69
I3
ssg70
g3527
sg63
(lp3534
g99
asbasbasbag56
(g72
g58
NtRp3535
(dp3536
g61
(dp3537
sg70
g3506
sg63
(lp3538
g56
(g77
g58
NtRp3539
(dp3540
g61
(dp3541
sg70
g3535
sg63
(lp3542
g56
(g57
g58
NtRp3543
(dp3544
g61
(dp3545
g69
I3
ssg70
g3539
sg63
(lp3546
S'/globaleaks/submission/index'
p3547
asbasbasbag56
(g72
g58
NtRp3548
(dp3549
g61
(dp3550
sg70
g3506
sg63
(lp3551
g56
(g77
g58
NtRp3552
(dp3553
g61
(dp3554
sg70
g3548
sg63
(lp3555
g56
(g57
g58
NtRp3556
(dp3557
g61
(dp3558
g69
I3
ssg70
g3552
sg63
(lp3559
g56
(g65
g58
NtRp3560
(dp3561
g61
(dp3562
g69
I2
ssg70
Nsg63
(lp3563
sbasbasbasbasbasbasbasbag56
(g72
g58
NtRp3564
(dp3565
g61
(dp3566
sg70
g3419
sg63
(lp3567
g56
(g77
g58
NtRp3568
(dp3569
g61
(dp3570
sg70
g3564
sg63
(lp3571
g56
(g57
g58
NtRp3572
(dp3573
g61
(dp3574
g69
I4
ssg70
g3568
sg63
(lp3575
g56
(g65
g58
NtRp3576
(dp3577
g61
(dp3578
g69
I3
ssg70
Nsg63
(lp3579
g56
(g72
g58
NtRp3580
(dp3581
g61
(dp3582
sg70
g3576
sg63
(lp3583
g56
(g77
g58
NtRp3584
(dp3585
g61
(dp3586
sg70
g3580
sg63
(lp3587
g56
(g57
g58
NtRp3588
(dp3589
g61
(dp3590
g69
I3
ssg70
g3584
sg63
(lp3591
g3451
(S't\x06\x00\x00\x00Tulips'
tRp3592
asbasbasbag56
(g72
g58
NtRp3593
(dp3594
g61
(dp3595
sg70
g3576
sg63
(lp3596
g56
(g77
g58
NtRp3597
(dp3598
g61
(dp3599
sg70
g3593
sg63
(lp3600
g56
(g57
g58
NtRp3601
(dp3602
g61
(dp3603
g69
I3
ssg70
g3597
sg63
(lp3604
g99
asbasbasbag56
(g72
g58
NtRp3605
(dp3606
g61
(dp3607
sg70
g3576
sg63
(lp3608
g56
(g77
g58
NtRp3609
(dp3610
g61
(dp3611
sg70
g3605
sg63
(lp3612
g56
(g57
g58
NtRp3613
(dp3614
g61
(dp3615
g69
I3
ssg70
g3609
sg63
(lp3616
S'/globaleaks/tulip/index'
p3617
asbasbasbag56
(g72
g58
NtRp3618
(dp3619
g61
(dp3620
sg70
g3576
sg63
(lp3621
g56
(g77
g58
NtRp3622
(dp3623
g61
(dp3624
sg70
g3618
sg63
(lp3625
g56
(g57
g58
NtRp3626
(dp3627
g61
(dp3628
g69
I3
ssg70
g3622
sg63
(lp3629
g56
(g65
g58
NtRp3630
(dp3631
g61
(dp3632
g69
I2
ssg70
Nsg63
(lp3633
sbasbasbasbasbasbasbasbasbasbasbasbag56
(g72
g58
NtRp3634
(dp3635
g61
(dp3636
sg70
g2958
sg63
(lp3637
g56
(g77
g58
NtRp3638
(dp3639
g61
(dp3640
g81
g82
ssg70
g3634
sg63
(lp3641
S'meta'
p3642
asbag56
(g77
g58
NtRp3643
(dp3644
g61
(dp3645
g88
g89
ssg70
g3634
sg63
(lp3646
S':'
asbag56
(g77
g58
NtRp3647
(dp3648
g61
(dp3649
sg70
g3634
sg63
(lp3650
g56
(g57
g58
NtRp3651
(dp3652
g61
(dp3653
g69
I5
ssg70
g3647
sg63
(lp3654
g56
(g65
g58
NtRp3655
(dp3656
g61
(dp3657
g69
I4
ssg70
Nsg63
(lp3658
g56
(g72
g58
NtRp3659
(dp3660
g61
(dp3661
sg70
g3655
sg63
(lp3662
g56
(g77
g58
NtRp3663
(dp3664
g61
(dp3665
g81
g82
ssg70
g3659
sg63
(lp3666
S'author'
p3667
asbag56
(g77
g58
NtRp3668
(dp3669
g61
(dp3670
g88
g89
ssg70
g3659
sg63
(lp3671
S':'
asbag56
(g77
g58
NtRp3672
(dp3673
g61
(dp3674
sg70
g3659
sg63
(lp3675
g56
(g57
g58
NtRp3676
(dp3677
g61
(dp3678
g69
I4
ssg70
g3672
sg63
(lp3679
S'RGC <info@globaleaks.org>'
p3680
asbasbasbag56
(g72
g58
NtRp3681
(dp3682
g61
(dp3683
sg70
g3655
sg63
(lp3684
g56
(g77
g58
NtRp3685
(dp3686
g61
(dp3687
g81
g82
ssg70
g3681
sg63
(lp3688
S'description'
p3689
asbag56
(g77
g58
NtRp3690
(dp3691
g61
(dp3692
g88
g89
ssg70
g3681
sg63
(lp3693
S':'
asbag56
(g77
g58
NtRp3694
(dp3695
g61
(dp3696
sg70
g3681
sg63
(lp3697
g56
(g57
g58
NtRp3698
(dp3699
g61
(dp3700
g69
I4
ssg70
g3694
sg63
(lp3701
S''
asbasbasbag56
(g72
g58
NtRp3702
(dp3703
g61
(dp3704
sg70
g3655
sg63
(lp3705
g56
(g77
g58
NtRp3706
(dp3707
g61
(dp3708
g81
g82
ssg70
g3702
sg63
(lp3709
S'keywords'
p3710
asbag56
(g77
g58
NtRp3711
(dp3712
g61
(dp3713
g88
g89
ssg70
g3702
sg63
(lp3714
S':'
asbag56
(g77
g58
NtRp3715
(dp3716
g61
(dp3717
sg70
g3702
sg63
(lp3718
g56
(g57
g58
NtRp3719
(dp3720
g61
(dp3721
g69
I4
ssg70
g3715
sg63
(lp3722
S''
asbasbasbasbasbasbasbag56
(g72
g58
NtRp3723
(dp3724
g61
(dp3725
sg70
g2958
sg63
(lp3726
g56
(g77
g58
NtRp3727
(dp3728
g61
(dp3729
g81
g82
ssg70
g3723
sg63
(lp3730
S'postprocessing'
p3731
asbag56
(g77
g58
NtRp3732
(dp3733
g61
(dp3734
g88
g89
ssg70
g3723
sg63
(lp3735
S':'
asbag56
(g77
g58
NtRp3736
(dp3737
g61
(dp3738
sg70
g3723
sg63
(lp3739
g56
(g57
g58
NtRp3740
(dp3741
g61
(dp3742
g69
I5
ssg70
g3736
sg63
(lp3743
g56
(g65
g58
NtRp3744
(dp3745
g61
(dp3746
g69
I4
ssg70
Nsg63
(lp3747
sbasbasbasbag56
(g72
g58
NtRp3748
(dp3749
g61
(dp3750
sg70
g2958
sg63
(lp3751
g56
(g77
g58
NtRp3752
(dp3753
g61
(dp3754
g81
g82
ssg70
g3748
sg63
(lp3755
S'session_file'
p3756
asbag56
(g77
g58
NtRp3757
(dp3758
g61
(dp3759
g88
g89
ssg70
g3748
sg63
(lp3760
S':'
asbag56
(g77
g58
NtRp3761
(dp3762
g61
(dp3763
sg70
g3748
sg63
(lp3764
g56
(g57
g58
NtRp3765
(dp3766
g61
(dp3767
g69
I5
ssg70
g3761
sg63
(lp3768
S"<open file '/Users/hellais/Documents/code/mygit/globaleaks/webapp/applications/globaleaks/sessions/127.0.0.1-c6d5b9b3-1ec7-41c1-8d72-04c21b7a6b11', mode 'rb+' at 0x101de75d0>"
p3769
asbasbasbag56
(g72
g58
NtRp3770
(dp3771
g61
(dp3772
sg70
g2958
sg63
(lp3773
g56
(g77
g58
NtRp3774
(dp3775
g61
(dp3776
g81
g82
ssg70
g3770
sg63
(lp3777
S'session_filename'
p3778
asbag56
(g77
g58
NtRp3779
(dp3780
g61
(dp3781
g88
g89
ssg70
g3770
sg63
(lp3782
S':'
asbag56
(g77
g58
NtRp3783
(dp3784
g61
(dp3785
sg70
g3770
sg63
(lp3786
g56
(g57
g58
NtRp3787
(dp3788
g61
(dp3789
g69
I5
ssg70
g3783
sg63
(lp3790
S'/Users/hellais/Documents/code/mygit/globaleaks/webapp/applications/globaleaks/sessions/127.0.0.1-c6d5b9b3-1ec7-41c1-8d72-04c21b7a6b11'
p3791
asbasbasbag56
(g72
g58
NtRp3792
(dp3793
g61
(dp3794
sg70
g2958
sg63
(lp3795
g56
(g77
g58
NtRp3796
(dp3797
g61
(dp3798
g81
g82
ssg70
g3792
sg63
(lp3799
S'session_id'
p3800
asbag56
(g77
g58
NtRp3801
(dp3802
g61
(dp3803
g88
g89
ssg70
g3792
sg63
(lp3804
S':'
asbag56
(g77
g58
NtRp3805
(dp3806
g61
(dp3807
sg70
g3792
sg63
(lp3808
g56
(g57
g58
NtRp3809
(dp3810
g61
(dp3811
g69
I5
ssg70
g3805
sg63
(lp3812
S'127.0.0.1-c6d5b9b3-1ec7-41c1-8d72-04c21b7a6b11'
p3813
asbasbasbag56
(g72
g58
NtRp3814
(dp3815
g61
(dp3816
sg70
g2958
sg63
(lp3817
g56
(g77
g58
NtRp3818
(dp3819
g61
(dp3820
g81
g82
ssg70
g3814
sg63
(lp3821
S'session_id_name'
p3822
asbag56
(g77
g58
NtRp3823
(dp3824
g61
(dp3825
g88
g89
ssg70
g3814
sg63
(lp3826
S':'
asbag56
(g77
g58
NtRp3827
(dp3828
g61
(dp3829
sg70
g3814
sg63
(lp3830
g56
(g57
g58
NtRp3831
(dp3832
g61
(dp3833
g69
I5
ssg70
g3827
sg63
(lp3834
g3015
asbasbasbag56
(g72
g58
NtRp3835
(dp3836
g61
(dp3837
sg70
g2958
sg63
(lp3838
g56
(g77
g58
NtRp3839
(dp3840
g61
(dp3841
g81
g82
ssg70
g3835
sg63
(lp3842
S'session_locked'
p3843
asbag56
(g77
g58
NtRp3844
(dp3845
g61
(dp3846
g88
g89
ssg70
g3835
sg63
(lp3847
S':'
asbag56
(g77
g58
NtRp3848
(dp3849
g61
(dp3850
sg70
g3835
sg63
(lp3851
g56
(g57
g58
NtRp3852
(dp3853
g61
(dp3854
g69
I5
ssg70
g3848
sg63
(lp3855
g1809
asbasbasbag56
(g72
g58
NtRp3856
(dp3857
g61
(dp3858
sg70
g2958
sg63
(lp3859
g56
(g77
g58
NtRp3860
(dp3861
g61
(dp3862
g81
g82
ssg70
g3856
sg63
(lp3863
S'session_new'
p3864
asbag56
(g77
g58
NtRp3865
(dp3866
g61
(dp3867
g88
g89
ssg70
g3856
sg63
(lp3868
S':'
asbag56
(g77
g58
NtRp3869
(dp3870
g61
(dp3871
sg70
g3856
sg63
(lp3872
g56
(g57
g58
NtRp3873
(dp3874
g61
(dp3875
g69
I5
ssg70
g3869
sg63
(lp3876
g99
asbasbasbag56
(g72
g58
NtRp3877
(dp3878
g61
(dp3879
sg70
g2958
sg63
(lp3880
g56
(g77
g58
NtRp3881
(dp3882
g61
(dp3883
g81
g82
ssg70
g3877
sg63
(lp3884
g2913
asbag56
(g77
g58
NtRp3885
(dp3886
g61
(dp3887
g88
g89
ssg70
g3877
sg63
(lp3888
S':'
asbag56
(g77
g58
NtRp3889
(dp3890
g61
(dp3891
sg70
g3877
sg63
(lp3892
g56
(g57
g58
NtRp3893
(dp3894
g61
(dp3895
g69
I5
ssg70
g3889
sg63
(lp3896
S'200'
p3897
asbasbasbag56
(g72
g58
NtRp3898
(dp3899
g61
(dp3900
sg70
g2958
sg63
(lp3901
g56
(g77
g58
NtRp3902
(dp3903
g61
(dp3904
g81
g82
ssg70
g3898
sg63
(lp3905
S'subtitle'
p3906
asbag56
(g77
g58
NtRp3907
(dp3908
g61
(dp3909
g88
g89
ssg70
g3898
sg63
(lp3910
S':'
asbag56
(g77
g58
NtRp3911
(dp3912
g61
(dp3913
sg70
g3898
sg63
(lp3914
g56
(g57
g58
NtRp3915
(dp3916
g61
(dp3917
g69
I5
ssg70
g3911
sg63
(lp3918
S'Open Source Whistleblowing Platform'
p3919
asbasbasbag56
(g72
g58
NtRp3920
(dp3921
g61
(dp3922
sg70
g2958
sg63
(lp3923
g56
(g77
g58
NtRp3924
(dp3925
g61
(dp3926
g81
g82
ssg70
g3920
sg63
(lp3927
S'title'
p3928
asbag56
(g77
g58
NtRp3929
(dp3930
g61
(dp3931
g88
g89
ssg70
g3920
sg63
(lp3932
S':'
asbag56
(g77
g58
NtRp3933
(dp3934
g61
(dp3935
sg70
g3920
sg63
(lp3936
g56
(g57
g58
NtRp3937
(dp3938
g61
(dp3939
g69
I5
ssg70
g3933
sg63
(lp3940
S'GlobaLeaks'
p3941
asbasbasbag56
(g72
g58
NtRp3942
(dp3943
g61
(dp3944
sg70
g2958
sg63
(lp3945
g56
(g77
g58
NtRp3946
(dp3947
g61
(dp3948
g81
g82
ssg70
g3942
sg63
(lp3949
g2154
asbag56
(g77
g58
NtRp3950
(dp3951
g61
(dp3952
g88
g89
ssg70
g3942
sg63
(lp3953
S':'
asbag56
(g77
g58
NtRp3954
(dp3955
g61
(dp3956
sg70
g3942
sg63
(lp3957
g56
(g57
g58
NtRp3958
(dp3959
g61
(dp3960
g69
I5
ssg70
g3954
sg63
(lp3961
g2167
asbasbasbag56
(g72
g58
NtRp3962
(dp3963
g61
(dp3964
sg70
g2958
sg63
(lp3965
g56
(g77
g58
NtRp3966
(dp3967
g61
(dp3968
g81
g82
ssg70
g3962
sg63
(lp3969
S'view'
p3970
asbag56
(g77
g58
NtRp3971
(dp3972
g61
(dp3973
g88
g89
ssg70
g3962
sg63
(lp3974
S':'
asbag56
(g77
g58
NtRp3975
(dp3976
g61
(dp3977
sg70
g3962
sg63
(lp3978
g56
(g57
g58
NtRp3979
(dp3980
g61
(dp3981
g69
I5
ssg70
g3975
sg63
(lp3982
S'tulip/status.html'
p3983
asbasbasbasbasbsS'locals'
p3984
(dp3985
g2132
S"'asd'"
p3986
sS'self'
p3987
S'<Tulip object>'
p3988
sS'id'
p3989
S'None'
p3990
sssS'traceback'
p3991
S'Traceback (most recent call last):\n  File "/opt/local/Library/Frameworks/Python.framework/Versions/2.7/lib/python2.7/gluon/restricted.py", line 192, in restricted\n    exec ccode in environment\n  File "/Users/hellais/Documents/code/mygit/globaleaks/webapp/applications/globaleaks/controllers/tulip.py", line 58, in <module>\n  File "/opt/local/Library/Frameworks/Python.framework/Versions/2.7/lib/python2.7/gluon/globals.py", line 145, in <lambda>\n    self._caller = lambda f: f()\n  File "/Users/hellais/Documents/code/mygit/globaleaks/webapp/applications/globaleaks/controllers/tulip.py", line 15, in status\n    t = Tulip(url=tulip_url)\n  File "/Users/hellais/Documents/code/mygit/globaleaks/webapp/applications/globaleaks/models/datamodel.py", line 82, in __init__\n    self._id = db(db.tulip.uri==url).select().first().id\nAttributeError: \'NoneType\' object has no attribute \'id\'\n'
p3992
s.