(dp1
S'output'
p2
S''
sS'layer'
p3
S'/Users/hellais/Documents/code/globaleaks/ddb/apps/applications/init/controllers/default.py'
p4
sS'code'
p5
S'# -*- coding: utf-8 -*-\n### required - do no delete\ndef user(): return dict(form=auth())\ndef download(): return response.download(request,db)\ndef call():\n    session.forget()\n    return service()\n### end requires\ndef index():\n    return dict(message=T("Diocane"))\n\ndef submission():\n    """form = FORM(\'Your name:\', INPUT(_name=\'Title\',requires=IS_NOT_EMPTY()),\n            \'Tags:\', INPUT(_name=\'Tags\',requires=IS_NOT_EMPTY()),\n            \'Description:\', INPUT(_name=\'Description\',requires=IS_NOT_EMPTY()),\n            \'Files:\', INPUT(_name=\'Files\'), \n            INPUT(_type=\'submit\')\n            )\n    \n    if form.accepts(request.vars, session):\n        response.flash = \'form accepted\'\n    elif form.errors:\n        response.flash = \'form has errors\'\n    else:\n        response.flash = \'please fill the form\'\n    """\n    \n    form = SQLFORM.factory(\n        Field(\'Title\', requires=IS_NOT_EMPTY()),\n        Field(\'Description\', \'text\', requires=IS_NOT_EMPTY()),\n        Field(\'Tags\'),\n        Field(\'your_image\', \'upload\'),\n        Field(\'I have read the disclaimer\', \'boolean\')\n        )\n        \n    if form.accepts(request.vars, session):\n        response.flash = \'form accepted\'\n    elif form.errors:\n        response.flash = \'form has errors\'\n    else:\n        response.flash = \'please fill the form\'        \n    \n    return dict(form=form)\n\ndef error():\n    return dict()\n\nresponse._vars=response._caller(submission)\n'
p6
sS'snapshot'
p7
(dp8
S'exception'
p9
(dp10
S'__getslice__'
p11
S"<method-wrapper '__getslice__' of exceptions.SyntaxError object>"
p12
sS'text'
p13
S'None'
p14
sS'__str__'
p15
S"<method-wrapper '__str__' of exceptions.SyntaxError object>"
p16
sS'__reduce__'
p17
S'<built-in method __reduce__ of exceptions.SyntaxError object>'
p18
sS'__dict__'
p19
S'{}'
p20
sS'__sizeof__'
p21
S'<built-in method __sizeof__ of exceptions.SyntaxError object>'
p22
sS'__init__'
p23
S"<method-wrapper '__init__' of exceptions.SyntaxError object>"
p24
sS'__setattr__'
p25
S"<method-wrapper '__setattr__' of exceptions.SyntaxError object>"
p26
sS'__reduce_ex__'
p27
S'<built-in method __reduce_ex__ of exceptions.SyntaxError object>'
p28
sS'__new__'
p29
S'<built-in method __new__ of type object>'
p30
sS'__format__'
p31
S'<built-in method __format__ of exceptions.SyntaxError object>'
p32
sS'__class__'
p33
S"<type 'exceptions.SyntaxError'>"
p34
sS'filename'
p35
S'None'
p36
sS'lineno'
p37
S'None'
p38
sS'msg'
p39
S"'only [0-9a-zA-Z_] allowed in table and field names, received I have read the disclaimer'"
p40
sS'__doc__'
p41
S"'Invalid syntax.'"
p42
sS'__getitem__'
p43
S"<method-wrapper '__getitem__' of exceptions.SyntaxError object>"
p44
sS'__setstate__'
p45
S'<built-in method __setstate__ of exceptions.SyntaxError object>'
p46
sS'__getattribute__'
p47
S"<method-wrapper '__getattribute__' of exceptions.SyntaxError object>"
p48
sS'print_file_and_line'
p49
S'None'
p50
sS'args'
p51
S"('only [0-9a-zA-Z_] allowed in table and field names, received I have read the disclaimer',)"
p52
sS'__subclasshook__'
p53
S'<built-in method __subclasshook__ of type object>'
p54
sS'offset'
p55
S'None'
p56
sS'__unicode__'
p57
S'<built-in method __unicode__ of exceptions.SyntaxError object>'
p58
sS'__delattr__'
p59
S"<method-wrapper '__delattr__' of exceptions.SyntaxError object>"
p60
sS'__repr__'
p61
S"<method-wrapper '__repr__' of exceptions.SyntaxError object>"
p62
sS'__hash__'
p63
S"<method-wrapper '__hash__' of exceptions.SyntaxError object>"
p64
ssS'evalue'
p65
S'only [0-9a-zA-Z_] allowed in table and field names, received I have read the disclaimer'
p66
sS'request'
p67
ccopy_reg
_reconstructor
p68
(cgluon.html
BEAUTIFY
p69
c__builtin__
object
p70
NtRp71
(dp72
S'attributes'
p73
(dp74
sS'components'
p75
(lp76
g68
(cgluon.html
TABLE
p77
g70
NtRp78
(dp79
g73
(dp80
S'level'
p81
I5
ssS'parent'
p82
Nsg75
(lp83
g68
(cgluon.html
TR
p84
g70
NtRp85
(dp86
g73
(dp87
sg82
g78
sg75
(lp88
g68
(cgluon.html
TD
p89
g70
NtRp90
(dp91
g73
(dp92
S'_style'
p93
S'font-weight:bold;'
p94
ssg82
g85
sg75
(lp95
S'ajax'
p96
asbag68
(g89
g70
NtRp97
(dp98
g73
(dp99
S'_valign'
p100
S'top'
p101
ssg82
g85
sg75
(lp102
S':'
asbag68
(g89
g70
NtRp103
(dp104
g73
(dp105
sg82
g85
sg75
(lp106
g68
(g69
g70
NtRp107
(dp108
g73
(dp109
g81
I5
ssg82
g103
sg75
(lp110
S'False'
p111
asbasbasbag68
(g84
g70
NtRp112
(dp113
g73
(dp114
sg82
g78
sg75
(lp115
g68
(g89
g70
NtRp116
(dp117
g73
(dp118
g93
g94
ssg82
g112
sg75
(lp119
S'application'
p120
asbag68
(g89
g70
NtRp121
(dp122
g73
(dp123
g100
g101
ssg82
g112
sg75
(lp124
S':'
asbag68
(g89
g70
NtRp125
(dp126
g73
(dp127
sg82
g112
sg75
(lp128
g68
(g69
g70
NtRp129
(dp130
g73
(dp131
g81
I5
ssg82
g125
sg75
(lp132
S'init'
p133
asbasbasbag68
(g84
g70
NtRp134
(dp135
g73
(dp136
sg82
g78
sg75
(lp137
g68
(g89
g70
NtRp138
(dp139
g73
(dp140
g93
g94
ssg82
g134
sg75
(lp141
g51
asbag68
(g89
g70
NtRp142
(dp143
g73
(dp144
g100
g101
ssg82
g134
sg75
(lp145
S':'
asbag68
(g89
g70
NtRp146
(dp147
g73
(dp148
sg82
g134
sg75
(lp149
g68
(g69
g70
NtRp150
(dp151
g73
(dp152
g81
I5
ssg82
g146
sg75
(lp153
g68
(g77
g70
NtRp154
(dp155
g73
(dp156
g81
I4
ssg82
Nsg75
(lp157
sbasbasbasbag68
(g84
g70
NtRp158
(dp159
g73
(dp160
sg82
g78
sg75
(lp161
g68
(g89
g70
NtRp162
(dp163
g73
(dp164
g93
g94
ssg82
g158
sg75
(lp165
S'body'
p166
asbag68
(g89
g70
NtRp167
(dp168
g73
(dp169
g100
g101
ssg82
g158
sg75
(lp170
S':'
asbag68
(g89
g70
NtRp171
(dp172
g73
(dp173
sg82
g158
sg75
(lp174
g68
(g69
g70
NtRp175
(dp176
g73
(dp177
g81
I5
ssg82
g171
sg75
(lp178
S'<cStringIO.StringO object at 0x101dee688>'
p179
asbasbasbag68
(g84
g70
NtRp180
(dp181
g73
(dp182
sg82
g78
sg75
(lp183
g68
(g89
g70
NtRp184
(dp185
g73
(dp186
g93
g94
ssg82
g180
sg75
(lp187
S'client'
p188
asbag68
(g89
g70
NtRp189
(dp190
g73
(dp191
g100
g101
ssg82
g180
sg75
(lp192
S':'
asbag68
(g89
g70
NtRp193
(dp194
g73
(dp195
sg82
g180
sg75
(lp196
g68
(g69
g70
NtRp197
(dp198
g73
(dp199
g81
I5
ssg82
g193
sg75
(lp200
S'127.0.0.1'
p201
asbasbasbag68
(g84
g70
NtRp202
(dp203
g73
(dp204
sg82
g78
sg75
(lp205
g68
(g89
g70
NtRp206
(dp207
g73
(dp208
g93
g94
ssg82
g202
sg75
(lp209
S'controller'
p210
asbag68
(g89
g70
NtRp211
(dp212
g73
(dp213
g100
g101
ssg82
g202
sg75
(lp214
S':'
asbag68
(g89
g70
NtRp215
(dp216
g73
(dp217
sg82
g202
sg75
(lp218
g68
(g69
g70
NtRp219
(dp220
g73
(dp221
g81
I5
ssg82
g215
sg75
(lp222
S'default'
p223
asbasbasbag68
(g84
g70
NtRp224
(dp225
g73
(dp226
sg82
g78
sg75
(lp227
g68
(g89
g70
NtRp228
(dp229
g73
(dp230
g93
g94
ssg82
g224
sg75
(lp231
S'cookies'
p232
asbag68
(g89
g70
NtRp233
(dp234
g73
(dp235
g100
g101
ssg82
g224
sg75
(lp236
S':'
asbag68
(g89
g70
NtRp237
(dp238
g73
(dp239
sg82
g224
sg75
(lp240
g68
(g69
g70
NtRp241
(dp242
g73
(dp243
g81
I5
ssg82
g237
sg75
(lp244
g68
(g77
g70
NtRp245
(dp246
g73
(dp247
g81
I4
ssg82
Nsg75
(lp248
g68
(g84
g70
NtRp249
(dp250
g73
(dp251
sg82
g245
sg75
(lp252
g68
(g89
g70
NtRp253
(dp254
g73
(dp255
g93
g94
ssg82
g249
sg75
(lp256
S'session_id_admin'
p257
asbag68
(g89
g70
NtRp258
(dp259
g73
(dp260
g100
g101
ssg82
g249
sg75
(lp261
S':'
asbag68
(g89
g70
NtRp262
(dp263
g73
(dp264
sg82
g249
sg75
(lp265
g68
(g69
g70
NtRp266
(dp267
g73
(dp268
g81
I4
ssg82
g262
sg75
(lp269
g68
(g77
g70
NtRp270
(dp271
g73
(dp272
g81
I3
ssg82
Nsg75
(lp273
g68
(g84
g70
NtRp274
(dp275
g73
(dp276
sg82
g270
sg75
(lp277
g68
(g89
g70
NtRp278
(dp279
g73
(dp280
g93
g94
ssg82
g274
sg75
(lp281
S'comment'
p282
asbag68
(g89
g70
NtRp283
(dp284
g73
(dp285
g100
g101
ssg82
g274
sg75
(lp286
S':'
asbag68
(g89
g70
NtRp287
(dp288
g73
(dp289
sg82
g274
sg75
(lp290
g68
(g69
g70
NtRp291
(dp292
g73
(dp293
g81
I3
ssg82
g287
sg75
(lp294
S''
asbasbasbag68
(g84
g70
NtRp295
(dp296
g73
(dp297
sg82
g270
sg75
(lp298
g68
(g89
g70
NtRp299
(dp300
g73
(dp301
g93
g94
ssg82
g295
sg75
(lp302
S'domain'
p303
asbag68
(g89
g70
NtRp304
(dp305
g73
(dp306
g100
g101
ssg82
g295
sg75
(lp307
S':'
asbag68
(g89
g70
NtRp308
(dp309
g73
(dp310
sg82
g295
sg75
(lp311
g68
(g69
g70
NtRp312
(dp313
g73
(dp314
g81
I3
ssg82
g308
sg75
(lp315
S''
asbasbasbag68
(g84
g70
NtRp316
(dp317
g73
(dp318
sg82
g270
sg75
(lp319
g68
(g89
g70
NtRp320
(dp321
g73
(dp322
g93
g94
ssg82
g316
sg75
(lp323
S'expires'
p324
asbag68
(g89
g70
NtRp325
(dp326
g73
(dp327
g100
g101
ssg82
g316
sg75
(lp328
S':'
asbag68
(g89
g70
NtRp329
(dp330
g73
(dp331
sg82
g316
sg75
(lp332
g68
(g69
g70
NtRp333
(dp334
g73
(dp335
g81
I3
ssg82
g329
sg75
(lp336
S''
asbasbasbag68
(g84
g70
NtRp337
(dp338
g73
(dp339
sg82
g270
sg75
(lp340
g68
(g89
g70
NtRp341
(dp342
g73
(dp343
g93
g94
ssg82
g337
sg75
(lp344
S'httponly'
p345
asbag68
(g89
g70
NtRp346
(dp347
g73
(dp348
g100
g101
ssg82
g337
sg75
(lp349
S':'
asbag68
(g89
g70
NtRp350
(dp351
g73
(dp352
sg82
g337
sg75
(lp353
g68
(g69
g70
NtRp354
(dp355
g73
(dp356
g81
I3
ssg82
g350
sg75
(lp357
S''
asbasbasbag68
(g84
g70
NtRp358
(dp359
g73
(dp360
sg82
g270
sg75
(lp361
g68
(g89
g70
NtRp362
(dp363
g73
(dp364
g93
g94
ssg82
g358
sg75
(lp365
S'max-age'
p366
asbag68
(g89
g70
NtRp367
(dp368
g73
(dp369
g100
g101
ssg82
g358
sg75
(lp370
S':'
asbag68
(g89
g70
NtRp371
(dp372
g73
(dp373
sg82
g358
sg75
(lp374
g68
(g69
g70
NtRp375
(dp376
g73
(dp377
g81
I3
ssg82
g371
sg75
(lp378
S''
asbasbasbag68
(g84
g70
NtRp379
(dp380
g73
(dp381
sg82
g270
sg75
(lp382
g68
(g89
g70
NtRp383
(dp384
g73
(dp385
g93
g94
ssg82
g379
sg75
(lp386
S'path'
p387
asbag68
(g89
g70
NtRp388
(dp389
g73
(dp390
g100
g101
ssg82
g379
sg75
(lp391
S':'
asbag68
(g89
g70
NtRp392
(dp393
g73
(dp394
sg82
g379
sg75
(lp395
g68
(g69
g70
NtRp396
(dp397
g73
(dp398
g81
I3
ssg82
g392
sg75
(lp399
S''
asbasbasbag68
(g84
g70
NtRp400
(dp401
g73
(dp402
sg82
g270
sg75
(lp403
g68
(g89
g70
NtRp404
(dp405
g73
(dp406
g93
g94
ssg82
g400
sg75
(lp407
S'secure'
p408
asbag68
(g89
g70
NtRp409
(dp410
g73
(dp411
g100
g101
ssg82
g400
sg75
(lp412
S':'
asbag68
(g89
g70
NtRp413
(dp414
g73
(dp415
sg82
g400
sg75
(lp416
g68
(g69
g70
NtRp417
(dp418
g73
(dp419
g81
I3
ssg82
g413
sg75
(lp420
S''
asbasbasbag68
(g84
g70
NtRp421
(dp422
g73
(dp423
sg82
g270
sg75
(lp424
g68
(g89
g70
NtRp425
(dp426
g73
(dp427
g93
g94
ssg82
g421
sg75
(lp428
S'version'
p429
asbag68
(g89
g70
NtRp430
(dp431
g73
(dp432
g100
g101
ssg82
g421
sg75
(lp433
S':'
asbag68
(g89
g70
NtRp434
(dp435
g73
(dp436
sg82
g421
sg75
(lp437
g68
(g69
g70
NtRp438
(dp439
g73
(dp440
g81
I3
ssg82
g434
sg75
(lp441
S''
asbasbasbasbasbasbasbag68
(g84
g70
NtRp442
(dp443
g73
(dp444
sg82
g245
sg75
(lp445
g68
(g89
g70
NtRp446
(dp447
g73
(dp448
g93
g94
ssg82
g442
sg75
(lp449
S'session_id_blabla'
p450
asbag68
(g89
g70
NtRp451
(dp452
g73
(dp453
g100
g101
ssg82
g442
sg75
(lp454
S':'
asbag68
(g89
g70
NtRp455
(dp456
g73
(dp457
sg82
g442
sg75
(lp458
g68
(g69
g70
NtRp459
(dp460
g73
(dp461
g81
I4
ssg82
g455
sg75
(lp462
g68
(g77
g70
NtRp463
(dp464
g73
(dp465
g81
I3
ssg82
Nsg75
(lp466
g68
(g84
g70
NtRp467
(dp468
g73
(dp469
sg82
g463
sg75
(lp470
g68
(g89
g70
NtRp471
(dp472
g73
(dp473
g93
g94
ssg82
g467
sg75
(lp474
g282
asbag68
(g89
g70
NtRp475
(dp476
g73
(dp477
g100
g101
ssg82
g467
sg75
(lp478
S':'
asbag68
(g89
g70
NtRp479
(dp480
g73
(dp481
sg82
g467
sg75
(lp482
g68
(g69
g70
NtRp483
(dp484
g73
(dp485
g81
I3
ssg82
g479
sg75
(lp486
S''
asbasbasbag68
(g84
g70
NtRp487
(dp488
g73
(dp489
sg82
g463
sg75
(lp490
g68
(g89
g70
NtRp491
(dp492
g73
(dp493
g93
g94
ssg82
g487
sg75
(lp494
g303
asbag68
(g89
g70
NtRp495
(dp496
g73
(dp497
g100
g101
ssg82
g487
sg75
(lp498
S':'
asbag68
(g89
g70
NtRp499
(dp500
g73
(dp501
sg82
g487
sg75
(lp502
g68
(g69
g70
NtRp503
(dp504
g73
(dp505
g81
I3
ssg82
g499
sg75
(lp506
S''
asbasbasbag68
(g84
g70
NtRp507
(dp508
g73
(dp509
sg82
g463
sg75
(lp510
g68
(g89
g70
NtRp511
(dp512
g73
(dp513
g93
g94
ssg82
g507
sg75
(lp514
g324
asbag68
(g89
g70
NtRp515
(dp516
g73
(dp517
g100
g101
ssg82
g507
sg75
(lp518
S':'
asbag68
(g89
g70
NtRp519
(dp520
g73
(dp521
sg82
g507
sg75
(lp522
g68
(g69
g70
NtRp523
(dp524
g73
(dp525
g81
I3
ssg82
g519
sg75
(lp526
S''
asbasbasbag68
(g84
g70
NtRp527
(dp528
g73
(dp529
sg82
g463
sg75
(lp530
g68
(g89
g70
NtRp531
(dp532
g73
(dp533
g93
g94
ssg82
g527
sg75
(lp534
g345
asbag68
(g89
g70
NtRp535
(dp536
g73
(dp537
g100
g101
ssg82
g527
sg75
(lp538
S':'
asbag68
(g89
g70
NtRp539
(dp540
g73
(dp541
sg82
g527
sg75
(lp542
g68
(g69
g70
NtRp543
(dp544
g73
(dp545
g81
I3
ssg82
g539
sg75
(lp546
S''
asbasbasbag68
(g84
g70
NtRp547
(dp548
g73
(dp549
sg82
g463
sg75
(lp550
g68
(g89
g70
NtRp551
(dp552
g73
(dp553
g93
g94
ssg82
g547
sg75
(lp554
g366
asbag68
(g89
g70
NtRp555
(dp556
g73
(dp557
g100
g101
ssg82
g547
sg75
(lp558
S':'
asbag68
(g89
g70
NtRp559
(dp560
g73
(dp561
sg82
g547
sg75
(lp562
g68
(g69
g70
NtRp563
(dp564
g73
(dp565
g81
I3
ssg82
g559
sg75
(lp566
S''
asbasbasbag68
(g84
g70
NtRp567
(dp568
g73
(dp569
sg82
g463
sg75
(lp570
g68
(g89
g70
NtRp571
(dp572
g73
(dp573
g93
g94
ssg82
g567
sg75
(lp574
g387
asbag68
(g89
g70
NtRp575
(dp576
g73
(dp577
g100
g101
ssg82
g567
sg75
(lp578
S':'
asbag68
(g89
g70
NtRp579
(dp580
g73
(dp581
sg82
g567
sg75
(lp582
g68
(g69
g70
NtRp583
(dp584
g73
(dp585
g81
I3
ssg82
g579
sg75
(lp586
S''
asbasbasbag68
(g84
g70
NtRp587
(dp588
g73
(dp589
sg82
g463
sg75
(lp590
g68
(g89
g70
NtRp591
(dp592
g73
(dp593
g93
g94
ssg82
g587
sg75
(lp594
g408
asbag68
(g89
g70
NtRp595
(dp596
g73
(dp597
g100
g101
ssg82
g587
sg75
(lp598
S':'
asbag68
(g89
g70
NtRp599
(dp600
g73
(dp601
sg82
g587
sg75
(lp602
g68
(g69
g70
NtRp603
(dp604
g73
(dp605
g81
I3
ssg82
g599
sg75
(lp606
S''
asbasbasbag68
(g84
g70
NtRp607
(dp608
g73
(dp609
sg82
g463
sg75
(lp610
g68
(g89
g70
NtRp611
(dp612
g73
(dp613
g93
g94
ssg82
g607
sg75
(lp614
g429
asbag68
(g89
g70
NtRp615
(dp616
g73
(dp617
g100
g101
ssg82
g607
sg75
(lp618
S':'
asbag68
(g89
g70
NtRp619
(dp620
g73
(dp621
sg82
g607
sg75
(lp622
g68
(g69
g70
NtRp623
(dp624
g73
(dp625
g81
I3
ssg82
g619
sg75
(lp626
S''
asbasbasbasbasbasbasbag68
(g84
g70
NtRp627
(dp628
g73
(dp629
sg82
g245
sg75
(lp630
g68
(g89
g70
NtRp631
(dp632
g73
(dp633
g93
g94
ssg82
g627
sg75
(lp634
S'session_id_globaleaks'
p635
asbag68
(g89
g70
NtRp636
(dp637
g73
(dp638
g100
g101
ssg82
g627
sg75
(lp639
S':'
asbag68
(g89
g70
NtRp640
(dp641
g73
(dp642
sg82
g627
sg75
(lp643
g68
(g69
g70
NtRp644
(dp645
g73
(dp646
g81
I4
ssg82
g640
sg75
(lp647
g68
(g77
g70
NtRp648
(dp649
g73
(dp650
g81
I3
ssg82
Nsg75
(lp651
g68
(g84
g70
NtRp652
(dp653
g73
(dp654
sg82
g648
sg75
(lp655
g68
(g89
g70
NtRp656
(dp657
g73
(dp658
g93
g94
ssg82
g652
sg75
(lp659
g282
asbag68
(g89
g70
NtRp660
(dp661
g73
(dp662
g100
g101
ssg82
g652
sg75
(lp663
S':'
asbag68
(g89
g70
NtRp664
(dp665
g73
(dp666
sg82
g652
sg75
(lp667
g68
(g69
g70
NtRp668
(dp669
g73
(dp670
g81
I3
ssg82
g664
sg75
(lp671
S''
asbasbasbag68
(g84
g70
NtRp672
(dp673
g73
(dp674
sg82
g648
sg75
(lp675
g68
(g89
g70
NtRp676
(dp677
g73
(dp678
g93
g94
ssg82
g672
sg75
(lp679
g303
asbag68
(g89
g70
NtRp680
(dp681
g73
(dp682
g100
g101
ssg82
g672
sg75
(lp683
S':'
asbag68
(g89
g70
NtRp684
(dp685
g73
(dp686
sg82
g672
sg75
(lp687
g68
(g69
g70
NtRp688
(dp689
g73
(dp690
g81
I3
ssg82
g684
sg75
(lp691
S''
asbasbasbag68
(g84
g70
NtRp692
(dp693
g73
(dp694
sg82
g648
sg75
(lp695
g68
(g89
g70
NtRp696
(dp697
g73
(dp698
g93
g94
ssg82
g692
sg75
(lp699
g324
asbag68
(g89
g70
NtRp700
(dp701
g73
(dp702
g100
g101
ssg82
g692
sg75
(lp703
S':'
asbag68
(g89
g70
NtRp704
(dp705
g73
(dp706
sg82
g692
sg75
(lp707
g68
(g69
g70
NtRp708
(dp709
g73
(dp710
g81
I3
ssg82
g704
sg75
(lp711
S''
asbasbasbag68
(g84
g70
NtRp712
(dp713
g73
(dp714
sg82
g648
sg75
(lp715
g68
(g89
g70
NtRp716
(dp717
g73
(dp718
g93
g94
ssg82
g712
sg75
(lp719
g345
asbag68
(g89
g70
NtRp720
(dp721
g73
(dp722
g100
g101
ssg82
g712
sg75
(lp723
S':'
asbag68
(g89
g70
NtRp724
(dp725
g73
(dp726
sg82
g712
sg75
(lp727
g68
(g69
g70
NtRp728
(dp729
g73
(dp730
g81
I3
ssg82
g724
sg75
(lp731
S''
asbasbasbag68
(g84
g70
NtRp732
(dp733
g73
(dp734
sg82
g648
sg75
(lp735
g68
(g89
g70
NtRp736
(dp737
g73
(dp738
g93
g94
ssg82
g732
sg75
(lp739
g366
asbag68
(g89
g70
NtRp740
(dp741
g73
(dp742
g100
g101
ssg82
g732
sg75
(lp743
S':'
asbag68
(g89
g70
NtRp744
(dp745
g73
(dp746
sg82
g732
sg75
(lp747
g68
(g69
g70
NtRp748
(dp749
g73
(dp750
g81
I3
ssg82
g744
sg75
(lp751
S''
asbasbasbag68
(g84
g70
NtRp752
(dp753
g73
(dp754
sg82
g648
sg75
(lp755
g68
(g89
g70
NtRp756
(dp757
g73
(dp758
g93
g94
ssg82
g752
sg75
(lp759
g387
asbag68
(g89
g70
NtRp760
(dp761
g73
(dp762
g100
g101
ssg82
g752
sg75
(lp763
S':'
asbag68
(g89
g70
NtRp764
(dp765
g73
(dp766
sg82
g752
sg75
(lp767
g68
(g69
g70
NtRp768
(dp769
g73
(dp770
g81
I3
ssg82
g764
sg75
(lp771
S''
asbasbasbag68
(g84
g70
NtRp772
(dp773
g73
(dp774
sg82
g648
sg75
(lp775
g68
(g89
g70
NtRp776
(dp777
g73
(dp778
g93
g94
ssg82
g772
sg75
(lp779
g408
asbag68
(g89
g70
NtRp780
(dp781
g73
(dp782
g100
g101
ssg82
g772
sg75
(lp783
S':'
asbag68
(g89
g70
NtRp784
(dp785
g73
(dp786
sg82
g772
sg75
(lp787
g68
(g69
g70
NtRp788
(dp789
g73
(dp790
g81
I3
ssg82
g784
sg75
(lp791
S''
asbasbasbag68
(g84
g70
NtRp792
(dp793
g73
(dp794
sg82
g648
sg75
(lp795
g68
(g89
g70
NtRp796
(dp797
g73
(dp798
g93
g94
ssg82
g792
sg75
(lp799
g429
asbag68
(g89
g70
NtRp800
(dp801
g73
(dp802
g100
g101
ssg82
g792
sg75
(lp803
S':'
asbag68
(g89
g70
NtRp804
(dp805
g73
(dp806
sg82
g792
sg75
(lp807
g68
(g69
g70
NtRp808
(dp809
g73
(dp810
g81
I3
ssg82
g804
sg75
(lp811
S''
asbasbasbasbasbasbasbag68
(g84
g70
NtRp812
(dp813
g73
(dp814
sg82
g245
sg75
(lp815
g68
(g89
g70
NtRp816
(dp817
g73
(dp818
g93
g94
ssg82
g812
sg75
(lp819
S'session_id_init'
p820
asbag68
(g89
g70
NtRp821
(dp822
g73
(dp823
g100
g101
ssg82
g812
sg75
(lp824
S':'
asbag68
(g89
g70
NtRp825
(dp826
g73
(dp827
sg82
g812
sg75
(lp828
g68
(g69
g70
NtRp829
(dp830
g73
(dp831
g81
I4
ssg82
g825
sg75
(lp832
g68
(g77
g70
NtRp833
(dp834
g73
(dp835
g81
I3
ssg82
Nsg75
(lp836
g68
(g84
g70
NtRp837
(dp838
g73
(dp839
sg82
g833
sg75
(lp840
g68
(g89
g70
NtRp841
(dp842
g73
(dp843
g93
g94
ssg82
g837
sg75
(lp844
g282
asbag68
(g89
g70
NtRp845
(dp846
g73
(dp847
g100
g101
ssg82
g837
sg75
(lp848
S':'
asbag68
(g89
g70
NtRp849
(dp850
g73
(dp851
sg82
g837
sg75
(lp852
g68
(g69
g70
NtRp853
(dp854
g73
(dp855
g81
I3
ssg82
g849
sg75
(lp856
S''
asbasbasbag68
(g84
g70
NtRp857
(dp858
g73
(dp859
sg82
g833
sg75
(lp860
g68
(g89
g70
NtRp861
(dp862
g73
(dp863
g93
g94
ssg82
g857
sg75
(lp864
g303
asbag68
(g89
g70
NtRp865
(dp866
g73
(dp867
g100
g101
ssg82
g857
sg75
(lp868
S':'
asbag68
(g89
g70
NtRp869
(dp870
g73
(dp871
sg82
g857
sg75
(lp872
g68
(g69
g70
NtRp873
(dp874
g73
(dp875
g81
I3
ssg82
g869
sg75
(lp876
S''
asbasbasbag68
(g84
g70
NtRp877
(dp878
g73
(dp879
sg82
g833
sg75
(lp880
g68
(g89
g70
NtRp881
(dp882
g73
(dp883
g93
g94
ssg82
g877
sg75
(lp884
g324
asbag68
(g89
g70
NtRp885
(dp886
g73
(dp887
g100
g101
ssg82
g877
sg75
(lp888
S':'
asbag68
(g89
g70
NtRp889
(dp890
g73
(dp891
sg82
g877
sg75
(lp892
g68
(g69
g70
NtRp893
(dp894
g73
(dp895
g81
I3
ssg82
g889
sg75
(lp896
S''
asbasbasbag68
(g84
g70
NtRp897
(dp898
g73
(dp899
sg82
g833
sg75
(lp900
g68
(g89
g70
NtRp901
(dp902
g73
(dp903
g93
g94
ssg82
g897
sg75
(lp904
g345
asbag68
(g89
g70
NtRp905
(dp906
g73
(dp907
g100
g101
ssg82
g897
sg75
(lp908
S':'
asbag68
(g89
g70
NtRp909
(dp910
g73
(dp911
sg82
g897
sg75
(lp912
g68
(g69
g70
NtRp913
(dp914
g73
(dp915
g81
I3
ssg82
g909
sg75
(lp916
S''
asbasbasbag68
(g84
g70
NtRp917
(dp918
g73
(dp919
sg82
g833
sg75
(lp920
g68
(g89
g70
NtRp921
(dp922
g73
(dp923
g93
g94
ssg82
g917
sg75
(lp924
g366
asbag68
(g89
g70
NtRp925
(dp926
g73
(dp927
g100
g101
ssg82
g917
sg75
(lp928
S':'
asbag68
(g89
g70
NtRp929
(dp930
g73
(dp931
sg82
g917
sg75
(lp932
g68
(g69
g70
NtRp933
(dp934
g73
(dp935
g81
I3
ssg82
g929
sg75
(lp936
S''
asbasbasbag68
(g84
g70
NtRp937
(dp938
g73
(dp939
sg82
g833
sg75
(lp940
g68
(g89
g70
NtRp941
(dp942
g73
(dp943
g93
g94
ssg82
g937
sg75
(lp944
g387
asbag68
(g89
g70
NtRp945
(dp946
g73
(dp947
g100
g101
ssg82
g937
sg75
(lp948
S':'
asbag68
(g89
g70
NtRp949
(dp950
g73
(dp951
sg82
g937
sg75
(lp952
g68
(g69
g70
NtRp953
(dp954
g73
(dp955
g81
I3
ssg82
g949
sg75
(lp956
S''
asbasbasbag68
(g84
g70
NtRp957
(dp958
g73
(dp959
sg82
g833
sg75
(lp960
g68
(g89
g70
NtRp961
(dp962
g73
(dp963
g93
g94
ssg82
g957
sg75
(lp964
g408
asbag68
(g89
g70
NtRp965
(dp966
g73
(dp967
g100
g101
ssg82
g957
sg75
(lp968
S':'
asbag68
(g89
g70
NtRp969
(dp970
g73
(dp971
sg82
g957
sg75
(lp972
g68
(g69
g70
NtRp973
(dp974
g73
(dp975
g81
I3
ssg82
g969
sg75
(lp976
S''
asbasbasbag68
(g84
g70
NtRp977
(dp978
g73
(dp979
sg82
g833
sg75
(lp980
g68
(g89
g70
NtRp981
(dp982
g73
(dp983
g93
g94
ssg82
g977
sg75
(lp984
g429
asbag68
(g89
g70
NtRp985
(dp986
g73
(dp987
g100
g101
ssg82
g977
sg75
(lp988
S':'
asbag68
(g89
g70
NtRp989
(dp990
g73
(dp991
sg82
g977
sg75
(lp992
g68
(g69
g70
NtRp993
(dp994
g73
(dp995
g81
I3
ssg82
g989
sg75
(lp996
S''
asbasbasbasbasbasbasbasbasbasbasbag68
(g84
g70
NtRp997
(dp998
g73
(dp999
sg82
g78
sg75
(lp1000
g68
(g89
g70
NtRp1001
(dp1002
g73
(dp1003
g93
g94
ssg82
g997
sg75
(lp1004
S'env'
p1005
asbag68
(g89
g70
NtRp1006
(dp1007
g73
(dp1008
g100
g101
ssg82
g997
sg75
(lp1009
S':'
asbag68
(g89
g70
NtRp1010
(dp1011
g73
(dp1012
sg82
g997
sg75
(lp1013
g68
(g69
g70
NtRp1014
(dp1015
g73
(dp1016
g81
I5
ssg82
g1010
sg75
(lp1017
g68
(g77
g70
NtRp1018
(dp1019
g73
(dp1020
g81
I4
ssg82
Nsg75
(lp1021
g68
(g84
g70
NtRp1022
(dp1023
g73
(dp1024
sg82
g1018
sg75
(lp1025
g68
(g89
g70
NtRp1026
(dp1027
g73
(dp1028
g93
g94
ssg82
g1022
sg75
(lp1029
S'app_folders'
p1030
asbag68
(g89
g70
NtRp1031
(dp1032
g73
(dp1033
g100
g101
ssg82
g1022
sg75
(lp1034
S':'
asbag68
(g89
g70
NtRp1035
(dp1036
g73
(dp1037
sg82
g1022
sg75
(lp1038
g68
(g69
g70
NtRp1039
(dp1040
g73
(dp1041
g81
I4
ssg82
g1035
sg75
(lp1042
S"set(['/Users/hellais/Documents/code/globaleaks/ddb/apps/applications/admin/', '/Users/hellais/Documents/code/globaleaks/ddb/apps/applications/init/'])"
p1043
asbasbasbag68
(g84
g70
NtRp1044
(dp1045
g73
(dp1046
sg82
g1018
sg75
(lp1047
g68
(g89
g70
NtRp1048
(dp1049
g73
(dp1050
g93
g94
ssg82
g1044
sg75
(lp1051
S'applications_parent'
p1052
asbag68
(g89
g70
NtRp1053
(dp1054
g73
(dp1055
g100
g101
ssg82
g1044
sg75
(lp1056
S':'
asbag68
(g89
g70
NtRp1057
(dp1058
g73
(dp1059
sg82
g1044
sg75
(lp1060
g68
(g69
g70
NtRp1061
(dp1062
g73
(dp1063
g81
I4
ssg82
g1057
sg75
(lp1064
S'/Users/hellais/Documents/code/globaleaks/ddb/apps'
p1065
asbasbasbag68
(g84
g70
NtRp1066
(dp1067
g73
(dp1068
sg82
g1018
sg75
(lp1069
g68
(g89
g70
NtRp1070
(dp1071
g73
(dp1072
g93
g94
ssg82
g1066
sg75
(lp1073
S'cmd_args'
p1074
asbag68
(g89
g70
NtRp1075
(dp1076
g73
(dp1077
g100
g101
ssg82
g1066
sg75
(lp1078
S':'
asbag68
(g89
g70
NtRp1079
(dp1080
g73
(dp1081
sg82
g1066
sg75
(lp1082
g68
(g69
g70
NtRp1083
(dp1084
g73
(dp1085
g81
I4
ssg82
g1079
sg75
(lp1086
g68
(g77
g70
NtRp1087
(dp1088
g73
(dp1089
g81
I3
ssg82
Nsg75
(lp1090
sbasbasbasbag68
(g84
g70
NtRp1091
(dp1092
g73
(dp1093
sg82
g1018
sg75
(lp1094
g68
(g89
g70
NtRp1095
(dp1096
g73
(dp1097
g93
g94
ssg82
g1091
sg75
(lp1098
S'cmd_options'
p1099
asbag68
(g89
g70
NtRp1100
(dp1101
g73
(dp1102
g100
g101
ssg82
g1091
sg75
(lp1103
S':'
asbag68
(g89
g70
NtRp1104
(dp1105
g73
(dp1106
sg82
g1091
sg75
(lp1107
g68
(g69
g70
NtRp1108
(dp1109
g73
(dp1110
g81
I4
ssg82
g1104
sg75
(lp1111
S"<Values at 0x1015f5320: {'verbose': False, 'ip': '127.0.0.1', 'shutdown_timeout': 5, 'taskbar': False, 'port': 8000, 'maxthreads': None, 'softcron': False, 'server_name': 'Jeanne.local', 'bpython': False, 'nogui': False, 'nocron': False, 'extcron': False, 'debuglevel': 30, 'test': None, 'folder': '/Users/hellais/Documents/code/globaleaks/ddb/apps', 'config': '', 'import_models': False, 'winservice': '', 'shell': None, 'run': '', 'log_filename': 'httpserver.log', 'args': [''], 'profiler_filename': None, 'ssl_private_key': '', 'password': '<ask>', 'request_queue_size': 5, 'ssl_certificate': '', 'cronjob': False, 'plain': False, 'quiet': False, 'interfaces': None, 'minthreads': None, 'timeout': 10, 'numthreads': None, 'nobanner': False, 'pid_filename': 'httpserver.pid'}>"
p1112
asbasbasbag68
(g84
g70
NtRp1113
(dp1114
g73
(dp1115
sg82
g1018
sg75
(lp1116
g68
(g89
g70
NtRp1117
(dp1118
g73
(dp1119
g93
g94
ssg82
g1113
sg75
(lp1120
S'db_sessions'
p1121
asbag68
(g89
g70
NtRp1122
(dp1123
g73
(dp1124
g100
g101
ssg82
g1113
sg75
(lp1125
S':'
asbag68
(g89
g70
NtRp1126
(dp1127
g73
(dp1128
sg82
g1113
sg75
(lp1129
g68
(g69
g70
NtRp1130
(dp1131
g73
(dp1132
g81
I4
ssg82
g1126
sg75
(lp1133
S'set([])'
p1134
asbasbasbag68
(g84
g70
NtRp1135
(dp1136
g73
(dp1137
sg82
g1018
sg75
(lp1138
g68
(g89
g70
NtRp1139
(dp1140
g73
(dp1141
g93
g94
ssg82
g1135
sg75
(lp1142
S'debugging'
p1143
asbag68
(g89
g70
NtRp1144
(dp1145
g73
(dp1146
g100
g101
ssg82
g1135
sg75
(lp1147
S':'
asbag68
(g89
g70
NtRp1148
(dp1149
g73
(dp1150
sg82
g1135
sg75
(lp1151
g68
(g69
g70
NtRp1152
(dp1153
g73
(dp1154
g81
I4
ssg82
g1148
sg75
(lp1155
g111
asbasbasbag68
(g84
g70
NtRp1156
(dp1157
g73
(dp1158
sg82
g1018
sg75
(lp1159
g68
(g89
g70
NtRp1160
(dp1161
g73
(dp1162
g93
g94
ssg82
g1156
sg75
(lp1163
S'gluon_parent'
p1164
asbag68
(g89
g70
NtRp1165
(dp1166
g73
(dp1167
g100
g101
ssg82
g1156
sg75
(lp1168
S':'
asbag68
(g89
g70
NtRp1169
(dp1170
g73
(dp1171
sg82
g1156
sg75
(lp1172
g68
(g69
g70
NtRp1173
(dp1174
g73
(dp1175
g81
I4
ssg82
g1169
sg75
(lp1176
S'/Users/hellais/Documents/code/globaleaks/ddb/apps'
p1177
asbasbasbag68
(g84
g70
NtRp1178
(dp1179
g73
(dp1180
sg82
g1018
sg75
(lp1181
g68
(g89
g70
NtRp1182
(dp1183
g73
(dp1184
g93
g94
ssg82
g1178
sg75
(lp1185
S'http_accept'
p1186
asbag68
(g89
g70
NtRp1187
(dp1188
g73
(dp1189
g100
g101
ssg82
g1178
sg75
(lp1190
S':'
asbag68
(g89
g70
NtRp1191
(dp1192
g73
(dp1193
sg82
g1178
sg75
(lp1194
g68
(g69
g70
NtRp1195
(dp1196
g73
(dp1197
g81
I4
ssg82
g1191
sg75
(lp1198
S'text/html,application/xhtml+xml,application/xml;q=0.9,*/*;q=0.8'
p1199
asbasbasbag68
(g84
g70
NtRp1200
(dp1201
g73
(dp1202
sg82
g1018
sg75
(lp1203
g68
(g89
g70
NtRp1204
(dp1205
g73
(dp1206
g93
g94
ssg82
g1200
sg75
(lp1207
S'http_accept_charset'
p1208
asbag68
(g89
g70
NtRp1209
(dp1210
g73
(dp1211
g100
g101
ssg82
g1200
sg75
(lp1212
S':'
asbag68
(g89
g70
NtRp1213
(dp1214
g73
(dp1215
sg82
g1200
sg75
(lp1216
g68
(g69
g70
NtRp1217
(dp1218
g73
(dp1219
g81
I4
ssg82
g1213
sg75
(lp1220
S'ISO-8859-1,utf-8;q=0.7,*;q=0.7'
p1221
asbasbasbag68
(g84
g70
NtRp1222
(dp1223
g73
(dp1224
sg82
g1018
sg75
(lp1225
g68
(g89
g70
NtRp1226
(dp1227
g73
(dp1228
g93
g94
ssg82
g1222
sg75
(lp1229
S'http_accept_encoding'
p1230
asbag68
(g89
g70
NtRp1231
(dp1232
g73
(dp1233
g100
g101
ssg82
g1222
sg75
(lp1234
S':'
asbag68
(g89
g70
NtRp1235
(dp1236
g73
(dp1237
sg82
g1222
sg75
(lp1238
g68
(g69
g70
NtRp1239
(dp1240
g73
(dp1241
g81
I4
ssg82
g1235
sg75
(lp1242
S'gzip, deflate'
p1243
asbasbasbag68
(g84
g70
NtRp1244
(dp1245
g73
(dp1246
sg82
g1018
sg75
(lp1247
g68
(g89
g70
NtRp1248
(dp1249
g73
(dp1250
g93
g94
ssg82
g1244
sg75
(lp1251
S'http_accept_language'
p1252
asbag68
(g89
g70
NtRp1253
(dp1254
g73
(dp1255
g100
g101
ssg82
g1244
sg75
(lp1256
S':'
asbag68
(g89
g70
NtRp1257
(dp1258
g73
(dp1259
sg82
g1244
sg75
(lp1260
g68
(g69
g70
NtRp1261
(dp1262
g73
(dp1263
g81
I4
ssg82
g1257
sg75
(lp1264
S'en-us,en;q=0.5'
p1265
asbasbasbag68
(g84
g70
NtRp1266
(dp1267
g73
(dp1268
sg82
g1018
sg75
(lp1269
g68
(g89
g70
NtRp1270
(dp1271
g73
(dp1272
g93
g94
ssg82
g1266
sg75
(lp1273
S'http_connection'
p1274
asbag68
(g89
g70
NtRp1275
(dp1276
g73
(dp1277
g100
g101
ssg82
g1266
sg75
(lp1278
S':'
asbag68
(g89
g70
NtRp1279
(dp1280
g73
(dp1281
sg82
g1266
sg75
(lp1282
g68
(g69
g70
NtRp1283
(dp1284
g73
(dp1285
g81
I4
ssg82
g1279
sg75
(lp1286
S'keep-alive'
p1287
asbasbasbag68
(g84
g70
NtRp1288
(dp1289
g73
(dp1290
sg82
g1018
sg75
(lp1291
g68
(g89
g70
NtRp1292
(dp1293
g73
(dp1294
g93
g94
ssg82
g1288
sg75
(lp1295
S'http_cookie'
p1296
asbag68
(g89
g70
NtRp1297
(dp1298
g73
(dp1299
g100
g101
ssg82
g1288
sg75
(lp1300
S':'
asbag68
(g89
g70
NtRp1301
(dp1302
g73
(dp1303
sg82
g1288
sg75
(lp1304
g68
(g69
g70
NtRp1305
(dp1306
g73
(dp1307
g81
I4
ssg82
g1301
sg75
(lp1308
S'session_id_admin=127.0.0.1-67122ce4-50b2-4acf-b28e-7a14feeff4d9; session_id_globaleaks=127.0.0.1-c6d5b9b3-1ec7-41c1-8d72-04c21b7a6b11; session_id_blabla=127.0.0.1-c445384e-a3ea-4484-8fe2-52f3295bbb7c; session_id_init=127.0.0.1-a8551263-bc3c-430c-abb2-8711fac671c1'
p1309
asbasbasbag68
(g84
g70
NtRp1310
(dp1311
g73
(dp1312
sg82
g1018
sg75
(lp1313
g68
(g89
g70
NtRp1314
(dp1315
g73
(dp1316
g93
g94
ssg82
g1310
sg75
(lp1317
S'http_host'
p1318
asbag68
(g89
g70
NtRp1319
(dp1320
g73
(dp1321
g100
g101
ssg82
g1310
sg75
(lp1322
S':'
asbag68
(g89
g70
NtRp1323
(dp1324
g73
(dp1325
sg82
g1310
sg75
(lp1326
g68
(g69
g70
NtRp1327
(dp1328
g73
(dp1329
g81
I4
ssg82
g1323
sg75
(lp1330
S'127.0.0.1:8000'
p1331
asbasbasbag68
(g84
g70
NtRp1332
(dp1333
g73
(dp1334
sg82
g1018
sg75
(lp1335
g68
(g89
g70
NtRp1336
(dp1337
g73
(dp1338
g93
g94
ssg82
g1332
sg75
(lp1339
S'http_user_agent'
p1340
asbag68
(g89
g70
NtRp1341
(dp1342
g73
(dp1343
g100
g101
ssg82
g1332
sg75
(lp1344
S':'
asbag68
(g89
g70
NtRp1345
(dp1346
g73
(dp1347
sg82
g1332
sg75
(lp1348
g68
(g69
g70
NtRp1349
(dp1350
g73
(dp1351
g81
I4
ssg82
g1345
sg75
(lp1352
S'Mozilla/5.0 (Macintosh; Intel Mac OS X 10.6; rv:5.0.1) Gecko/20100101 Firefox/5.0.1'
p1353
asbasbasbag68
(g84
g70
NtRp1354
(dp1355
g73
(dp1356
sg82
g1018
sg75
(lp1357
g68
(g89
g70
NtRp1358
(dp1359
g73
(dp1360
g93
g94
ssg82
g1354
sg75
(lp1361
S'is_jython'
p1362
asbag68
(g89
g70
NtRp1363
(dp1364
g73
(dp1365
g100
g101
ssg82
g1354
sg75
(lp1366
S':'
asbag68
(g89
g70
NtRp1367
(dp1368
g73
(dp1369
sg82
g1354
sg75
(lp1370
g68
(g69
g70
NtRp1371
(dp1372
g73
(dp1373
g81
I4
ssg82
g1367
sg75
(lp1374
g111
asbasbasbag68
(g84
g70
NtRp1375
(dp1376
g73
(dp1377
sg82
g1018
sg75
(lp1378
g68
(g89
g70
NtRp1379
(dp1380
g73
(dp1381
g93
g94
ssg82
g1375
sg75
(lp1382
S'path_info'
p1383
asbag68
(g89
g70
NtRp1384
(dp1385
g73
(dp1386
g100
g101
ssg82
g1375
sg75
(lp1387
S':'
asbag68
(g89
g70
NtRp1388
(dp1389
g73
(dp1390
sg82
g1375
sg75
(lp1391
g68
(g69
g70
NtRp1392
(dp1393
g73
(dp1394
g81
I4
ssg82
g1388
sg75
(lp1395
S'/init/default/submission'
p1396
asbasbasbag68
(g84
g70
NtRp1397
(dp1398
g73
(dp1399
sg82
g1018
sg75
(lp1400
g68
(g89
g70
NtRp1401
(dp1402
g73
(dp1403
g93
g94
ssg82
g1397
sg75
(lp1404
S'query_string'
p1405
asbag68
(g89
g70
NtRp1406
(dp1407
g73
(dp1408
g100
g101
ssg82
g1397
sg75
(lp1409
S':'
asbag68
(g89
g70
NtRp1410
(dp1411
g73
(dp1412
sg82
g1397
sg75
(lp1413
g68
(g69
g70
NtRp1414
(dp1415
g73
(dp1416
g81
I4
ssg82
g1410
sg75
(lp1417
S''
asbasbasbag68
(g84
g70
NtRp1418
(dp1419
g73
(dp1420
sg82
g1018
sg75
(lp1421
g68
(g89
g70
NtRp1422
(dp1423
g73
(dp1424
g93
g94
ssg82
g1418
sg75
(lp1425
S'remote_addr'
p1426
asbag68
(g89
g70
NtRp1427
(dp1428
g73
(dp1429
g100
g101
ssg82
g1418
sg75
(lp1430
S':'
asbag68
(g89
g70
NtRp1431
(dp1432
g73
(dp1433
sg82
g1418
sg75
(lp1434
g68
(g69
g70
NtRp1435
(dp1436
g73
(dp1437
g81
I4
ssg82
g1431
sg75
(lp1438
g201
asbasbasbag68
(g84
g70
NtRp1439
(dp1440
g73
(dp1441
sg82
g1018
sg75
(lp1442
g68
(g89
g70
NtRp1443
(dp1444
g73
(dp1445
g93
g94
ssg82
g1439
sg75
(lp1446
S'remote_port'
p1447
asbag68
(g89
g70
NtRp1448
(dp1449
g73
(dp1450
g100
g101
ssg82
g1439
sg75
(lp1451
S':'
asbag68
(g89
g70
NtRp1452
(dp1453
g73
(dp1454
sg82
g1439
sg75
(lp1455
g68
(g69
g70
NtRp1456
(dp1457
g73
(dp1458
g81
I4
ssg82
g1452
sg75
(lp1459
S'53454'
p1460
asbasbasbag68
(g84
g70
NtRp1461
(dp1462
g73
(dp1463
sg82
g1018
sg75
(lp1464
g68
(g89
g70
NtRp1465
(dp1466
g73
(dp1467
g93
g94
ssg82
g1461
sg75
(lp1468
S'request_method'
p1469
asbag68
(g89
g70
NtRp1470
(dp1471
g73
(dp1472
g100
g101
ssg82
g1461
sg75
(lp1473
S':'
asbag68
(g89
g70
NtRp1474
(dp1475
g73
(dp1476
sg82
g1461
sg75
(lp1477
g68
(g69
g70
NtRp1478
(dp1479
g73
(dp1480
g81
I4
ssg82
g1474
sg75
(lp1481
S'GET'
p1482
asbasbasbag68
(g84
g70
NtRp1483
(dp1484
g73
(dp1485
sg82
g1018
sg75
(lp1486
g68
(g89
g70
NtRp1487
(dp1488
g73
(dp1489
g93
g94
ssg82
g1483
sg75
(lp1490
S'script_name'
p1491
asbag68
(g89
g70
NtRp1492
(dp1493
g73
(dp1494
g100
g101
ssg82
g1483
sg75
(lp1495
S':'
asbag68
(g89
g70
NtRp1496
(dp1497
g73
(dp1498
sg82
g1483
sg75
(lp1499
g68
(g69
g70
NtRp1500
(dp1501
g73
(dp1502
g81
I4
ssg82
g1496
sg75
(lp1503
S''
asbasbasbag68
(g84
g70
NtRp1504
(dp1505
g73
(dp1506
sg82
g1018
sg75
(lp1507
g68
(g89
g70
NtRp1508
(dp1509
g73
(dp1510
g93
g94
ssg82
g1504
sg75
(lp1511
S'server_name'
p1512
asbag68
(g89
g70
NtRp1513
(dp1514
g73
(dp1515
g100
g101
ssg82
g1504
sg75
(lp1516
S':'
asbag68
(g89
g70
NtRp1517
(dp1518
g73
(dp1519
sg82
g1504
sg75
(lp1520
g68
(g69
g70
NtRp1521
(dp1522
g73
(dp1523
g81
I4
ssg82
g1517
sg75
(lp1524
S'Jeanne.local'
p1525
asbasbasbag68
(g84
g70
NtRp1526
(dp1527
g73
(dp1528
sg82
g1018
sg75
(lp1529
g68
(g89
g70
NtRp1530
(dp1531
g73
(dp1532
g93
g94
ssg82
g1526
sg75
(lp1533
S'server_port'
p1534
asbag68
(g89
g70
NtRp1535
(dp1536
g73
(dp1537
g100
g101
ssg82
g1526
sg75
(lp1538
S':'
asbag68
(g89
g70
NtRp1539
(dp1540
g73
(dp1541
sg82
g1526
sg75
(lp1542
g68
(g69
g70
NtRp1543
(dp1544
g73
(dp1545
g81
I4
ssg82
g1539
sg75
(lp1546
S'8000'
p1547
asbasbasbag68
(g84
g70
NtRp1548
(dp1549
g73
(dp1550
sg82
g1018
sg75
(lp1551
g68
(g89
g70
NtRp1552
(dp1553
g73
(dp1554
g93
g94
ssg82
g1548
sg75
(lp1555
S'server_protocol'
p1556
asbag68
(g89
g70
NtRp1557
(dp1558
g73
(dp1559
g100
g101
ssg82
g1548
sg75
(lp1560
S':'
asbag68
(g89
g70
NtRp1561
(dp1562
g73
(dp1563
sg82
g1548
sg75
(lp1564
g68
(g69
g70
NtRp1565
(dp1566
g73
(dp1567
g81
I4
ssg82
g1561
sg75
(lp1568
S'HTTP/1.1'
p1569
asbasbasbag68
(g84
g70
NtRp1570
(dp1571
g73
(dp1572
sg82
g1018
sg75
(lp1573
g68
(g89
g70
NtRp1574
(dp1575
g73
(dp1576
g93
g94
ssg82
g1570
sg75
(lp1577
S'server_software'
p1578
asbag68
(g89
g70
NtRp1579
(dp1580
g73
(dp1581
g100
g101
ssg82
g1570
sg75
(lp1582
S':'
asbag68
(g89
g70
NtRp1583
(dp1584
g73
(dp1585
sg82
g1570
sg75
(lp1586
g68
(g69
g70
NtRp1587
(dp1588
g73
(dp1589
g81
I4
ssg82
g1583
sg75
(lp1590
S'Rocket 1.2.2'
p1591
asbasbasbag68
(g84
g70
NtRp1592
(dp1593
g73
(dp1594
sg82
g1018
sg75
(lp1595
g68
(g89
g70
NtRp1596
(dp1597
g73
(dp1598
g93
g94
ssg82
g1592
sg75
(lp1599
S'web2py_crontype'
p1600
asbag68
(g89
g70
NtRp1601
(dp1602
g73
(dp1603
g100
g101
ssg82
g1592
sg75
(lp1604
S':'
asbag68
(g89
g70
NtRp1605
(dp1606
g73
(dp1607
sg82
g1592
sg75
(lp1608
g68
(g69
g70
NtRp1609
(dp1610
g73
(dp1611
g81
I4
ssg82
g1605
sg75
(lp1612
S'hard'
p1613
asbasbasbag68
(g84
g70
NtRp1614
(dp1615
g73
(dp1616
sg82
g1018
sg75
(lp1617
g68
(g89
g70
NtRp1618
(dp1619
g73
(dp1620
g93
g94
ssg82
g1614
sg75
(lp1621
S'web2py_path'
p1622
asbag68
(g89
g70
NtRp1623
(dp1624
g73
(dp1625
g100
g101
ssg82
g1614
sg75
(lp1626
S':'
asbag68
(g89
g70
NtRp1627
(dp1628
g73
(dp1629
sg82
g1614
sg75
(lp1630
g68
(g69
g70
NtRp1631
(dp1632
g73
(dp1633
g81
I4
ssg82
g1627
sg75
(lp1634
g1065
asbasbasbag68
(g84
g70
NtRp1635
(dp1636
g73
(dp1637
sg82
g1018
sg75
(lp1638
g68
(g89
g70
NtRp1639
(dp1640
g73
(dp1641
g93
g94
ssg82
g1635
sg75
(lp1642
S'web2py_version'
p1643
asbag68
(g89
g70
NtRp1644
(dp1645
g73
(dp1646
g100
g101
ssg82
g1635
sg75
(lp1647
S':'
asbag68
(g89
g70
NtRp1648
(dp1649
g73
(dp1650
sg82
g1635
sg75
(lp1651
g68
(g69
g70
NtRp1652
(dp1653
g73
(dp1654
g81
I4
ssg82
g1648
sg75
(lp1655
S'Version 1.98.2 (2011-08-04 00:47:09)\n'
p1656
asbasbasbag68
(g84
g70
NtRp1657
(dp1658
g73
(dp1659
sg82
g1018
sg75
(lp1660
g68
(g89
g70
NtRp1661
(dp1662
g73
(dp1663
g93
g94
ssg82
g1657
sg75
(lp1664
S'wsgi_errors'
p1665
asbag68
(g89
g70
NtRp1666
(dp1667
g73
(dp1668
g100
g101
ssg82
g1657
sg75
(lp1669
S':'
asbag68
(g89
g70
NtRp1670
(dp1671
g73
(dp1672
sg82
g1657
sg75
(lp1673
g68
(g69
g70
NtRp1674
(dp1675
g73
(dp1676
g81
I4
ssg82
g1670
sg75
(lp1677
S"<open file '<stderr>', mode 'w' at 0x100287270>"
p1678
asbasbasbag68
(g84
g70
NtRp1679
(dp1680
g73
(dp1681
sg82
g1018
sg75
(lp1682
g68
(g89
g70
NtRp1683
(dp1684
g73
(dp1685
g93
g94
ssg82
g1679
sg75
(lp1686
S'wsgi_file_wrapper'
p1687
asbag68
(g89
g70
NtRp1688
(dp1689
g73
(dp1690
g100
g101
ssg82
g1679
sg75
(lp1691
S':'
asbag68
(g89
g70
NtRp1692
(dp1693
g73
(dp1694
sg82
g1679
sg75
(lp1695
g68
(g69
g70
NtRp1696
(dp1697
g73
(dp1698
g81
I4
ssg82
g1692
sg75
(lp1699
S'<class gluon.rocket.FileWrapper at 0x101665db8>'
p1700
asbasbasbag68
(g84
g70
NtRp1701
(dp1702
g73
(dp1703
sg82
g1018
sg75
(lp1704
g68
(g89
g70
NtRp1705
(dp1706
g73
(dp1707
g93
g94
ssg82
g1701
sg75
(lp1708
S'wsgi_input'
p1709
asbag68
(g89
g70
NtRp1710
(dp1711
g73
(dp1712
g100
g101
ssg82
g1701
sg75
(lp1713
S':'
asbag68
(g89
g70
NtRp1714
(dp1715
g73
(dp1716
sg82
g1701
sg75
(lp1717
g68
(g69
g70
NtRp1718
(dp1719
g73
(dp1720
g81
I4
ssg82
g1714
sg75
(lp1721
S'<socket._fileobject object at 0x101e93dd0>'
p1722
asbasbasbag68
(g84
g70
NtRp1723
(dp1724
g73
(dp1725
sg82
g1018
sg75
(lp1726
g68
(g89
g70
NtRp1727
(dp1728
g73
(dp1729
g93
g94
ssg82
g1723
sg75
(lp1730
S'wsgi_multiprocess'
p1731
asbag68
(g89
g70
NtRp1732
(dp1733
g73
(dp1734
g100
g101
ssg82
g1723
sg75
(lp1735
S':'
asbag68
(g89
g70
NtRp1736
(dp1737
g73
(dp1738
sg82
g1723
sg75
(lp1739
g68
(g69
g70
NtRp1740
(dp1741
g73
(dp1742
g81
I4
ssg82
g1736
sg75
(lp1743
g111
asbasbasbag68
(g84
g70
NtRp1744
(dp1745
g73
(dp1746
sg82
g1018
sg75
(lp1747
g68
(g89
g70
NtRp1748
(dp1749
g73
(dp1750
g93
g94
ssg82
g1744
sg75
(lp1751
S'wsgi_multithread'
p1752
asbag68
(g89
g70
NtRp1753
(dp1754
g73
(dp1755
g100
g101
ssg82
g1744
sg75
(lp1756
S':'
asbag68
(g89
g70
NtRp1757
(dp1758
g73
(dp1759
sg82
g1744
sg75
(lp1760
g68
(g69
g70
NtRp1761
(dp1762
g73
(dp1763
g81
I4
ssg82
g1757
sg75
(lp1764
S'True'
p1765
asbasbasbag68
(g84
g70
NtRp1766
(dp1767
g73
(dp1768
sg82
g1018
sg75
(lp1769
g68
(g89
g70
NtRp1770
(dp1771
g73
(dp1772
g93
g94
ssg82
g1766
sg75
(lp1773
S'wsgi_run_once'
p1774
asbag68
(g89
g70
NtRp1775
(dp1776
g73
(dp1777
g100
g101
ssg82
g1766
sg75
(lp1778
S':'
asbag68
(g89
g70
NtRp1779
(dp1780
g73
(dp1781
sg82
g1766
sg75
(lp1782
g68
(g69
g70
NtRp1783
(dp1784
g73
(dp1785
g81
I4
ssg82
g1779
sg75
(lp1786
g111
asbasbasbag68
(g84
g70
NtRp1787
(dp1788
g73
(dp1789
sg82
g1018
sg75
(lp1790
g68
(g89
g70
NtRp1791
(dp1792
g73
(dp1793
g93
g94
ssg82
g1787
sg75
(lp1794
S'wsgi_url_scheme'
p1795
asbag68
(g89
g70
NtRp1796
(dp1797
g73
(dp1798
g100
g101
ssg82
g1787
sg75
(lp1799
S':'
asbag68
(g89
g70
NtRp1800
(dp1801
g73
(dp1802
sg82
g1787
sg75
(lp1803
g68
(g69
g70
NtRp1804
(dp1805
g73
(dp1806
g81
I4
ssg82
g1800
sg75
(lp1807
S'http'
p1808
asbasbasbag68
(g84
g70
NtRp1809
(dp1810
g73
(dp1811
sg82
g1018
sg75
(lp1812
g68
(g89
g70
NtRp1813
(dp1814
g73
(dp1815
g93
g94
ssg82
g1809
sg75
(lp1816
S'wsgi_version'
p1817
asbag68
(g89
g70
NtRp1818
(dp1819
g73
(dp1820
g100
g101
ssg82
g1809
sg75
(lp1821
S':'
asbag68
(g89
g70
NtRp1822
(dp1823
g73
(dp1824
sg82
g1809
sg75
(lp1825
g68
(g69
g70
NtRp1826
(dp1827
g73
(dp1828
g81
I4
ssg82
g1822
sg75
(lp1829
g68
(g77
g70
NtRp1830
(dp1831
g73
(dp1832
g81
I3
ssg82
Nsg75
(lp1833
g68
(g84
g70
NtRp1834
(dp1835
g73
(dp1836
sg82
g1830
sg75
(lp1837
g68
(g89
g70
NtRp1838
(dp1839
g73
(dp1840
sg82
g1834
sg75
(lp1841
g68
(g69
g70
NtRp1842
(dp1843
g73
(dp1844
g81
I3
ssg82
g1838
sg75
(lp1845
S'1'
asbasbasbag68
(g84
g70
NtRp1846
(dp1847
g73
(dp1848
sg82
g1830
sg75
(lp1849
g68
(g89
g70
NtRp1850
(dp1851
g73
(dp1852
sg82
g1846
sg75
(lp1853
g68
(g69
g70
NtRp1854
(dp1855
g73
(dp1856
g81
I3
ssg82
g1850
sg75
(lp1857
S'0'
asbasbasbasbasbasbasbasbasbasbasbag68
(g84
g70
NtRp1858
(dp1859
g73
(dp1860
sg82
g78
sg75
(lp1861
g68
(g89
g70
NtRp1862
(dp1863
g73
(dp1864
g93
g94
ssg82
g1858
sg75
(lp1865
S'extension'
p1866
asbag68
(g89
g70
NtRp1867
(dp1868
g73
(dp1869
g100
g101
ssg82
g1858
sg75
(lp1870
S':'
asbag68
(g89
g70
NtRp1871
(dp1872
g73
(dp1873
sg82
g1858
sg75
(lp1874
g68
(g69
g70
NtRp1875
(dp1876
g73
(dp1877
g81
I5
ssg82
g1871
sg75
(lp1878
S'html'
p1879
asbasbasbag68
(g84
g70
NtRp1880
(dp1881
g73
(dp1882
sg82
g78
sg75
(lp1883
g68
(g89
g70
NtRp1884
(dp1885
g73
(dp1886
g93
g94
ssg82
g1880
sg75
(lp1887
S'folder'
p1888
asbag68
(g89
g70
NtRp1889
(dp1890
g73
(dp1891
g100
g101
ssg82
g1880
sg75
(lp1892
S':'
asbag68
(g89
g70
NtRp1893
(dp1894
g73
(dp1895
sg82
g1880
sg75
(lp1896
g68
(g69
g70
NtRp1897
(dp1898
g73
(dp1899
g81
I5
ssg82
g1893
sg75
(lp1900
S'/Users/hellais/Documents/code/globaleaks/ddb/apps/applications/init/'
p1901
asbasbasbag68
(g84
g70
NtRp1902
(dp1903
g73
(dp1904
sg82
g78
sg75
(lp1905
g68
(g89
g70
NtRp1906
(dp1907
g73
(dp1908
g93
g94
ssg82
g1902
sg75
(lp1909
S'function'
p1910
asbag68
(g89
g70
NtRp1911
(dp1912
g73
(dp1913
g100
g101
ssg82
g1902
sg75
(lp1914
S':'
asbag68
(g89
g70
NtRp1915
(dp1916
g73
(dp1917
sg82
g1902
sg75
(lp1918
g68
(g69
g70
NtRp1919
(dp1920
g73
(dp1921
g81
I5
ssg82
g1915
sg75
(lp1922
S'submission'
p1923
asbasbasbag68
(g84
g70
NtRp1924
(dp1925
g73
(dp1926
sg82
g78
sg75
(lp1927
g68
(g89
g70
NtRp1928
(dp1929
g73
(dp1930
g93
g94
ssg82
g1924
sg75
(lp1931
S'get_vars'
p1932
asbag68
(g89
g70
NtRp1933
(dp1934
g73
(dp1935
g100
g101
ssg82
g1924
sg75
(lp1936
S':'
asbag68
(g89
g70
NtRp1937
(dp1938
g73
(dp1939
sg82
g1924
sg75
(lp1940
g68
(g69
g70
NtRp1941
(dp1942
g73
(dp1943
g81
I5
ssg82
g1937
sg75
(lp1944
g68
(g77
g70
NtRp1945
(dp1946
g73
(dp1947
g81
I4
ssg82
Nsg75
(lp1948
sbasbasbasbag68
(g84
g70
NtRp1949
(dp1950
g73
(dp1951
sg82
g78
sg75
(lp1952
g68
(g89
g70
NtRp1953
(dp1954
g73
(dp1955
g93
g94
ssg82
g1949
sg75
(lp1956
S'is_https'
p1957
asbag68
(g89
g70
NtRp1958
(dp1959
g73
(dp1960
g100
g101
ssg82
g1949
sg75
(lp1961
S':'
asbag68
(g89
g70
NtRp1962
(dp1963
g73
(dp1964
sg82
g1949
sg75
(lp1965
g68
(g69
g70
NtRp1966
(dp1967
g73
(dp1968
g81
I5
ssg82
g1962
sg75
(lp1969
g111
asbasbasbag68
(g84
g70
NtRp1970
(dp1971
g73
(dp1972
sg82
g78
sg75
(lp1973
g68
(g89
g70
NtRp1974
(dp1975
g73
(dp1976
g93
g94
ssg82
g1970
sg75
(lp1977
S'is_local'
p1978
asbag68
(g89
g70
NtRp1979
(dp1980
g73
(dp1981
g100
g101
ssg82
g1970
sg75
(lp1982
S':'
asbag68
(g89
g70
NtRp1983
(dp1984
g73
(dp1985
sg82
g1970
sg75
(lp1986
g68
(g69
g70
NtRp1987
(dp1988
g73
(dp1989
g81
I5
ssg82
g1983
sg75
(lp1990
g1765
asbasbasbag68
(g84
g70
NtRp1991
(dp1992
g73
(dp1993
sg82
g78
sg75
(lp1994
g68
(g89
g70
NtRp1995
(dp1996
g73
(dp1997
g93
g94
ssg82
g1991
sg75
(lp1998
S'is_restful'
p1999
asbag68
(g89
g70
NtRp2000
(dp2001
g73
(dp2002
g100
g101
ssg82
g1991
sg75
(lp2003
S':'
asbag68
(g89
g70
NtRp2004
(dp2005
g73
(dp2006
sg82
g1991
sg75
(lp2007
g68
(g69
g70
NtRp2008
(dp2009
g73
(dp2010
g81
I5
ssg82
g2004
sg75
(lp2011
g111
asbasbasbag68
(g84
g70
NtRp2012
(dp2013
g73
(dp2014
sg82
g78
sg75
(lp2015
g68
(g89
g70
NtRp2016
(dp2017
g73
(dp2018
g93
g94
ssg82
g2012
sg75
(lp2019
S'now'
p2020
asbag68
(g89
g70
NtRp2021
(dp2022
g73
(dp2023
g100
g101
ssg82
g2012
sg75
(lp2024
S':'
asbag68
(g89
g70
NtRp2025
(dp2026
g73
(dp2027
sg82
g2012
sg75
(lp2028
g68
(g69
g70
NtRp2029
(dp2030
g73
(dp2031
g81
I5
ssg82
g2025
sg75
(lp2032
S'datetime.datetime(2011, 8, 27, 18, 23, 8, 144025)'
p2033
asbasbasbag68
(g84
g70
NtRp2034
(dp2035
g73
(dp2036
sg82
g78
sg75
(lp2037
g68
(g89
g70
NtRp2038
(dp2039
g73
(dp2040
g93
g94
ssg82
g2034
sg75
(lp2041
S'post_vars'
p2042
asbag68
(g89
g70
NtRp2043
(dp2044
g73
(dp2045
g100
g101
ssg82
g2034
sg75
(lp2046
S':'
asbag68
(g89
g70
NtRp2047
(dp2048
g73
(dp2049
sg82
g2034
sg75
(lp2050
g68
(g69
g70
NtRp2051
(dp2052
g73
(dp2053
g81
I5
ssg82
g2047
sg75
(lp2054
g68
(g77
g70
NtRp2055
(dp2056
g73
(dp2057
g81
I4
ssg82
Nsg75
(lp2058
sbasbasbasbag68
(g84
g70
NtRp2059
(dp2060
g73
(dp2061
sg82
g78
sg75
(lp2062
g68
(g89
g70
NtRp2063
(dp2064
g73
(dp2065
g93
g94
ssg82
g2059
sg75
(lp2066
S'url'
p2067
asbag68
(g89
g70
NtRp2068
(dp2069
g73
(dp2070
g100
g101
ssg82
g2059
sg75
(lp2071
S':'
asbag68
(g89
g70
NtRp2072
(dp2073
g73
(dp2074
sg82
g2059
sg75
(lp2075
g68
(g69
g70
NtRp2076
(dp2077
g73
(dp2078
g81
I5
ssg82
g2072
sg75
(lp2079
S'/init/default/submission'
p2080
asbasbasbag68
(g84
g70
NtRp2081
(dp2082
g73
(dp2083
sg82
g78
sg75
(lp2084
g68
(g89
g70
NtRp2085
(dp2086
g73
(dp2087
g93
g94
ssg82
g2081
sg75
(lp2088
S'uuid'
p2089
asbag68
(g89
g70
NtRp2090
(dp2091
g73
(dp2092
g100
g101
ssg82
g2081
sg75
(lp2093
S':'
asbag68
(g89
g70
NtRp2094
(dp2095
g73
(dp2096
sg82
g2081
sg75
(lp2097
g68
(g69
g70
NtRp2098
(dp2099
g73
(dp2100
g81
I5
ssg82
g2094
sg75
(lp2101
S'init/127.0.0.1.2011-08-27.18-23-08.85e7d636-0e50-45ff-9f0b-5c7139d9c403'
p2102
asbasbasbag68
(g84
g70
NtRp2103
(dp2104
g73
(dp2105
sg82
g78
sg75
(lp2106
g68
(g89
g70
NtRp2107
(dp2108
g73
(dp2109
g93
g94
ssg82
g2103
sg75
(lp2110
S'vars'
p2111
asbag68
(g89
g70
NtRp2112
(dp2113
g73
(dp2114
g100
g101
ssg82
g2103
sg75
(lp2115
S':'
asbag68
(g89
g70
NtRp2116
(dp2117
g73
(dp2118
sg82
g2103
sg75
(lp2119
g68
(g69
g70
NtRp2120
(dp2121
g73
(dp2122
g81
I5
ssg82
g2116
sg75
(lp2123
g68
(g77
g70
NtRp2124
(dp2125
g73
(dp2126
g81
I4
ssg82
Nsg75
(lp2127
sbasbasbasbag68
(g84
g70
NtRp2128
(dp2129
g73
(dp2130
sg82
g78
sg75
(lp2131
g68
(g89
g70
NtRp2132
(dp2133
g73
(dp2134
g93
g94
ssg82
g2128
sg75
(lp2135
S'wsgi'
p2136
asbag68
(g89
g70
NtRp2137
(dp2138
g73
(dp2139
g100
g101
ssg82
g2128
sg75
(lp2140
S':'
asbag68
(g89
g70
NtRp2141
(dp2142
g73
(dp2143
sg82
g2128
sg75
(lp2144
g68
(g69
g70
NtRp2145
(dp2146
g73
(dp2147
g81
I5
ssg82
g2141
sg75
(lp2148
g68
(g77
g70
NtRp2149
(dp2150
g73
(dp2151
g81
I4
ssg82
Nsg75
(lp2152
g68
(g84
g70
NtRp2153
(dp2154
g73
(dp2155
sg82
g2149
sg75
(lp2156
g68
(g89
g70
NtRp2157
(dp2158
g73
(dp2159
g93
g94
ssg82
g2153
sg75
(lp2160
S'environ'
p2161
asbag68
(g89
g70
NtRp2162
(dp2163
g73
(dp2164
g100
g101
ssg82
g2153
sg75
(lp2165
S':'
asbag68
(g89
g70
NtRp2166
(dp2167
g73
(dp2168
sg82
g2153
sg75
(lp2169
g68
(g69
g70
NtRp2170
(dp2171
g73
(dp2172
g81
I4
ssg82
g2166
sg75
(lp2173
g68
(g77
g70
NtRp2174
(dp2175
g73
(dp2176
g81
I3
ssg82
Nsg75
(lp2177
g68
(g84
g70
NtRp2178
(dp2179
g73
(dp2180
sg82
g2174
sg75
(lp2181
g68
(g89
g70
NtRp2182
(dp2183
g73
(dp2184
g93
g94
ssg82
g2178
sg75
(lp2185
S'HTTP_ACCEPT'
p2186
asbag68
(g89
g70
NtRp2187
(dp2188
g73
(dp2189
g100
g101
ssg82
g2178
sg75
(lp2190
S':'
asbag68
(g89
g70
NtRp2191
(dp2192
g73
(dp2193
sg82
g2178
sg75
(lp2194
g68
(g69
g70
NtRp2195
(dp2196
g73
(dp2197
g81
I3
ssg82
g2191
sg75
(lp2198
g1199
asbasbasbag68
(g84
g70
NtRp2199
(dp2200
g73
(dp2201
sg82
g2174
sg75
(lp2202
g68
(g89
g70
NtRp2203
(dp2204
g73
(dp2205
g93
g94
ssg82
g2199
sg75
(lp2206
S'HTTP_ACCEPT_CHARSET'
p2207
asbag68
(g89
g70
NtRp2208
(dp2209
g73
(dp2210
g100
g101
ssg82
g2199
sg75
(lp2211
S':'
asbag68
(g89
g70
NtRp2212
(dp2213
g73
(dp2214
sg82
g2199
sg75
(lp2215
g68
(g69
g70
NtRp2216
(dp2217
g73
(dp2218
g81
I3
ssg82
g2212
sg75
(lp2219
g1221
asbasbasbag68
(g84
g70
NtRp2220
(dp2221
g73
(dp2222
sg82
g2174
sg75
(lp2223
g68
(g89
g70
NtRp2224
(dp2225
g73
(dp2226
g93
g94
ssg82
g2220
sg75
(lp2227
S'HTTP_ACCEPT_ENCODING'
p2228
asbag68
(g89
g70
NtRp2229
(dp2230
g73
(dp2231
g100
g101
ssg82
g2220
sg75
(lp2232
S':'
asbag68
(g89
g70
NtRp2233
(dp2234
g73
(dp2235
sg82
g2220
sg75
(lp2236
g68
(g69
g70
NtRp2237
(dp2238
g73
(dp2239
g81
I3
ssg82
g2233
sg75
(lp2240
g1243
asbasbasbag68
(g84
g70
NtRp2241
(dp2242
g73
(dp2243
sg82
g2174
sg75
(lp2244
g68
(g89
g70
NtRp2245
(dp2246
g73
(dp2247
g93
g94
ssg82
g2241
sg75
(lp2248
S'HTTP_ACCEPT_LANGUAGE'
p2249
asbag68
(g89
g70
NtRp2250
(dp2251
g73
(dp2252
g100
g101
ssg82
g2241
sg75
(lp2253
S':'
asbag68
(g89
g70
NtRp2254
(dp2255
g73
(dp2256
sg82
g2241
sg75
(lp2257
g68
(g69
g70
NtRp2258
(dp2259
g73
(dp2260
g81
I3
ssg82
g2254
sg75
(lp2261
g1265
asbasbasbag68
(g84
g70
NtRp2262
(dp2263
g73
(dp2264
sg82
g2174
sg75
(lp2265
g68
(g89
g70
NtRp2266
(dp2267
g73
(dp2268
g93
g94
ssg82
g2262
sg75
(lp2269
S'HTTP_CONNECTION'
p2270
asbag68
(g89
g70
NtRp2271
(dp2272
g73
(dp2273
g100
g101
ssg82
g2262
sg75
(lp2274
S':'
asbag68
(g89
g70
NtRp2275
(dp2276
g73
(dp2277
sg82
g2262
sg75
(lp2278
g68
(g69
g70
NtRp2279
(dp2280
g73
(dp2281
g81
I3
ssg82
g2275
sg75
(lp2282
g1287
asbasbasbag68
(g84
g70
NtRp2283
(dp2284
g73
(dp2285
sg82
g2174
sg75
(lp2286
g68
(g89
g70
NtRp2287
(dp2288
g73
(dp2289
g93
g94
ssg82
g2283
sg75
(lp2290
S'HTTP_COOKIE'
p2291
asbag68
(g89
g70
NtRp2292
(dp2293
g73
(dp2294
g100
g101
ssg82
g2283
sg75
(lp2295
S':'
asbag68
(g89
g70
NtRp2296
(dp2297
g73
(dp2298
sg82
g2283
sg75
(lp2299
g68
(g69
g70
NtRp2300
(dp2301
g73
(dp2302
g81
I3
ssg82
g2296
sg75
(lp2303
g1309
asbasbasbag68
(g84
g70
NtRp2304
(dp2305
g73
(dp2306
sg82
g2174
sg75
(lp2307
g68
(g89
g70
NtRp2308
(dp2309
g73
(dp2310
g93
g94
ssg82
g2304
sg75
(lp2311
S'HTTP_HOST'
p2312
asbag68
(g89
g70
NtRp2313
(dp2314
g73
(dp2315
g100
g101
ssg82
g2304
sg75
(lp2316
S':'
asbag68
(g89
g70
NtRp2317
(dp2318
g73
(dp2319
sg82
g2304
sg75
(lp2320
g68
(g69
g70
NtRp2321
(dp2322
g73
(dp2323
g81
I3
ssg82
g2317
sg75
(lp2324
g1331
asbasbasbag68
(g84
g70
NtRp2325
(dp2326
g73
(dp2327
sg82
g2174
sg75
(lp2328
g68
(g89
g70
NtRp2329
(dp2330
g73
(dp2331
g93
g94
ssg82
g2325
sg75
(lp2332
S'HTTP_USER_AGENT'
p2333
asbag68
(g89
g70
NtRp2334
(dp2335
g73
(dp2336
g100
g101
ssg82
g2325
sg75
(lp2337
S':'
asbag68
(g89
g70
NtRp2338
(dp2339
g73
(dp2340
sg82
g2325
sg75
(lp2341
g68
(g69
g70
NtRp2342
(dp2343
g73
(dp2344
g81
I3
ssg82
g2338
sg75
(lp2345
g1353
asbasbasbag68
(g84
g70
NtRp2346
(dp2347
g73
(dp2348
sg82
g2174
sg75
(lp2349
g68
(g89
g70
NtRp2350
(dp2351
g73
(dp2352
g93
g94
ssg82
g2346
sg75
(lp2353
S'PATH_INFO'
p2354
asbag68
(g89
g70
NtRp2355
(dp2356
g73
(dp2357
g100
g101
ssg82
g2346
sg75
(lp2358
S':'
asbag68
(g89
g70
NtRp2359
(dp2360
g73
(dp2361
sg82
g2346
sg75
(lp2362
g68
(g69
g70
NtRp2363
(dp2364
g73
(dp2365
g81
I3
ssg82
g2359
sg75
(lp2366
g1396
asbasbasbag68
(g84
g70
NtRp2367
(dp2368
g73
(dp2369
sg82
g2174
sg75
(lp2370
g68
(g89
g70
NtRp2371
(dp2372
g73
(dp2373
g93
g94
ssg82
g2367
sg75
(lp2374
S'QUERY_STRING'
p2375
asbag68
(g89
g70
NtRp2376
(dp2377
g73
(dp2378
g100
g101
ssg82
g2367
sg75
(lp2379
S':'
asbag68
(g89
g70
NtRp2380
(dp2381
g73
(dp2382
sg82
g2367
sg75
(lp2383
g68
(g69
g70
NtRp2384
(dp2385
g73
(dp2386
g81
I3
ssg82
g2380
sg75
(lp2387
S''
asbasbasbag68
(g84
g70
NtRp2388
(dp2389
g73
(dp2390
sg82
g2174
sg75
(lp2391
g68
(g89
g70
NtRp2392
(dp2393
g73
(dp2394
g93
g94
ssg82
g2388
sg75
(lp2395
S'REMOTE_ADDR'
p2396
asbag68
(g89
g70
NtRp2397
(dp2398
g73
(dp2399
g100
g101
ssg82
g2388
sg75
(lp2400
S':'
asbag68
(g89
g70
NtRp2401
(dp2402
g73
(dp2403
sg82
g2388
sg75
(lp2404
g68
(g69
g70
NtRp2405
(dp2406
g73
(dp2407
g81
I3
ssg82
g2401
sg75
(lp2408
g201
asbasbasbag68
(g84
g70
NtRp2409
(dp2410
g73
(dp2411
sg82
g2174
sg75
(lp2412
g68
(g89
g70
NtRp2413
(dp2414
g73
(dp2415
g93
g94
ssg82
g2409
sg75
(lp2416
S'REMOTE_PORT'
p2417
asbag68
(g89
g70
NtRp2418
(dp2419
g73
(dp2420
g100
g101
ssg82
g2409
sg75
(lp2421
S':'
asbag68
(g89
g70
NtRp2422
(dp2423
g73
(dp2424
sg82
g2409
sg75
(lp2425
g68
(g69
g70
NtRp2426
(dp2427
g73
(dp2428
g81
I3
ssg82
g2422
sg75
(lp2429
g1460
asbasbasbag68
(g84
g70
NtRp2430
(dp2431
g73
(dp2432
sg82
g2174
sg75
(lp2433
g68
(g89
g70
NtRp2434
(dp2435
g73
(dp2436
g93
g94
ssg82
g2430
sg75
(lp2437
S'REQUEST_METHOD'
p2438
asbag68
(g89
g70
NtRp2439
(dp2440
g73
(dp2441
g100
g101
ssg82
g2430
sg75
(lp2442
S':'
asbag68
(g89
g70
NtRp2443
(dp2444
g73
(dp2445
sg82
g2430
sg75
(lp2446
g68
(g69
g70
NtRp2447
(dp2448
g73
(dp2449
g81
I3
ssg82
g2443
sg75
(lp2450
g1482
asbasbasbag68
(g84
g70
NtRp2451
(dp2452
g73
(dp2453
sg82
g2174
sg75
(lp2454
g68
(g89
g70
NtRp2455
(dp2456
g73
(dp2457
g93
g94
ssg82
g2451
sg75
(lp2458
S'SCRIPT_NAME'
p2459
asbag68
(g89
g70
NtRp2460
(dp2461
g73
(dp2462
g100
g101
ssg82
g2451
sg75
(lp2463
S':'
asbag68
(g89
g70
NtRp2464
(dp2465
g73
(dp2466
sg82
g2451
sg75
(lp2467
g68
(g69
g70
NtRp2468
(dp2469
g73
(dp2470
g81
I3
ssg82
g2464
sg75
(lp2471
S''
asbasbasbag68
(g84
g70
NtRp2472
(dp2473
g73
(dp2474
sg82
g2174
sg75
(lp2475
g68
(g89
g70
NtRp2476
(dp2477
g73
(dp2478
g93
g94
ssg82
g2472
sg75
(lp2479
S'SERVER_NAME'
p2480
asbag68
(g89
g70
NtRp2481
(dp2482
g73
(dp2483
g100
g101
ssg82
g2472
sg75
(lp2484
S':'
asbag68
(g89
g70
NtRp2485
(dp2486
g73
(dp2487
sg82
g2472
sg75
(lp2488
g68
(g69
g70
NtRp2489
(dp2490
g73
(dp2491
g81
I3
ssg82
g2485
sg75
(lp2492
g1525
asbasbasbag68
(g84
g70
NtRp2493
(dp2494
g73
(dp2495
sg82
g2174
sg75
(lp2496
g68
(g89
g70
NtRp2497
(dp2498
g73
(dp2499
g93
g94
ssg82
g2493
sg75
(lp2500
S'SERVER_PORT'
p2501
asbag68
(g89
g70
NtRp2502
(dp2503
g73
(dp2504
g100
g101
ssg82
g2493
sg75
(lp2505
S':'
asbag68
(g89
g70
NtRp2506
(dp2507
g73
(dp2508
sg82
g2493
sg75
(lp2509
g68
(g69
g70
NtRp2510
(dp2511
g73
(dp2512
g81
I3
ssg82
g2506
sg75
(lp2513
g1547
asbasbasbag68
(g84
g70
NtRp2514
(dp2515
g73
(dp2516
sg82
g2174
sg75
(lp2517
g68
(g89
g70
NtRp2518
(dp2519
g73
(dp2520
g93
g94
ssg82
g2514
sg75
(lp2521
S'SERVER_PROTOCOL'
p2522
asbag68
(g89
g70
NtRp2523
(dp2524
g73
(dp2525
g100
g101
ssg82
g2514
sg75
(lp2526
S':'
asbag68
(g89
g70
NtRp2527
(dp2528
g73
(dp2529
sg82
g2514
sg75
(lp2530
g68
(g69
g70
NtRp2531
(dp2532
g73
(dp2533
g81
I3
ssg82
g2527
sg75
(lp2534
g1569
asbasbasbag68
(g84
g70
NtRp2535
(dp2536
g73
(dp2537
sg82
g2174
sg75
(lp2538
g68
(g89
g70
NtRp2539
(dp2540
g73
(dp2541
g93
g94
ssg82
g2535
sg75
(lp2542
S'SERVER_SOFTWARE'
p2543
asbag68
(g89
g70
NtRp2544
(dp2545
g73
(dp2546
g100
g101
ssg82
g2535
sg75
(lp2547
S':'
asbag68
(g89
g70
NtRp2548
(dp2549
g73
(dp2550
sg82
g2535
sg75
(lp2551
g68
(g69
g70
NtRp2552
(dp2553
g73
(dp2554
g81
I3
ssg82
g2548
sg75
(lp2555
g1591
asbasbasbag68
(g84
g70
NtRp2556
(dp2557
g73
(dp2558
sg82
g2174
sg75
(lp2559
g68
(g89
g70
NtRp2560
(dp2561
g73
(dp2562
g93
g94
ssg82
g2556
sg75
(lp2563
S'wsgi.errors'
p2564
asbag68
(g89
g70
NtRp2565
(dp2566
g73
(dp2567
g100
g101
ssg82
g2556
sg75
(lp2568
S':'
asbag68
(g89
g70
NtRp2569
(dp2570
g73
(dp2571
sg82
g2556
sg75
(lp2572
g68
(g69
g70
NtRp2573
(dp2574
g73
(dp2575
g81
I3
ssg82
g2569
sg75
(lp2576
S"<open file '<stderr>', mode 'w' at 0x100287270>"
p2577
asbasbasbag68
(g84
g70
NtRp2578
(dp2579
g73
(dp2580
sg82
g2174
sg75
(lp2581
g68
(g89
g70
NtRp2582
(dp2583
g73
(dp2584
g93
g94
ssg82
g2578
sg75
(lp2585
S'wsgi.file_wrapper'
p2586
asbag68
(g89
g70
NtRp2587
(dp2588
g73
(dp2589
g100
g101
ssg82
g2578
sg75
(lp2590
S':'
asbag68
(g89
g70
NtRp2591
(dp2592
g73
(dp2593
sg82
g2578
sg75
(lp2594
g68
(g69
g70
NtRp2595
(dp2596
g73
(dp2597
g81
I3
ssg82
g2591
sg75
(lp2598
S'<class gluon.rocket.FileWrapper at 0x101665db8>'
p2599
asbasbasbag68
(g84
g70
NtRp2600
(dp2601
g73
(dp2602
sg82
g2174
sg75
(lp2603
g68
(g89
g70
NtRp2604
(dp2605
g73
(dp2606
g93
g94
ssg82
g2600
sg75
(lp2607
S'wsgi.input'
p2608
asbag68
(g89
g70
NtRp2609
(dp2610
g73
(dp2611
g100
g101
ssg82
g2600
sg75
(lp2612
S':'
asbag68
(g89
g70
NtRp2613
(dp2614
g73
(dp2615
sg82
g2600
sg75
(lp2616
g68
(g69
g70
NtRp2617
(dp2618
g73
(dp2619
g81
I3
ssg82
g2613
sg75
(lp2620
S'<cStringIO.StringO object at 0x101dee688>'
p2621
asbasbasbag68
(g84
g70
NtRp2622
(dp2623
g73
(dp2624
sg82
g2174
sg75
(lp2625
g68
(g89
g70
NtRp2626
(dp2627
g73
(dp2628
g93
g94
ssg82
g2622
sg75
(lp2629
S'wsgi.multiprocess'
p2630
asbag68
(g89
g70
NtRp2631
(dp2632
g73
(dp2633
g100
g101
ssg82
g2622
sg75
(lp2634
S':'
asbag68
(g89
g70
NtRp2635
(dp2636
g73
(dp2637
sg82
g2622
sg75
(lp2638
g68
(g69
g70
NtRp2639
(dp2640
g73
(dp2641
g81
I3
ssg82
g2635
sg75
(lp2642
g111
asbasbasbag68
(g84
g70
NtRp2643
(dp2644
g73
(dp2645
sg82
g2174
sg75
(lp2646
g68
(g89
g70
NtRp2647
(dp2648
g73
(dp2649
g93
g94
ssg82
g2643
sg75
(lp2650
S'wsgi.multithread'
p2651
asbag68
(g89
g70
NtRp2652
(dp2653
g73
(dp2654
g100
g101
ssg82
g2643
sg75
(lp2655
S':'
asbag68
(g89
g70
NtRp2656
(dp2657
g73
(dp2658
sg82
g2643
sg75
(lp2659
g68
(g69
g70
NtRp2660
(dp2661
g73
(dp2662
g81
I3
ssg82
g2656
sg75
(lp2663
g1765
asbasbasbag68
(g84
g70
NtRp2664
(dp2665
g73
(dp2666
sg82
g2174
sg75
(lp2667
g68
(g89
g70
NtRp2668
(dp2669
g73
(dp2670
g93
g94
ssg82
g2664
sg75
(lp2671
S'wsgi.run_once'
p2672
asbag68
(g89
g70
NtRp2673
(dp2674
g73
(dp2675
g100
g101
ssg82
g2664
sg75
(lp2676
S':'
asbag68
(g89
g70
NtRp2677
(dp2678
g73
(dp2679
sg82
g2664
sg75
(lp2680
g68
(g69
g70
NtRp2681
(dp2682
g73
(dp2683
g81
I3
ssg82
g2677
sg75
(lp2684
g111
asbasbasbag68
(g84
g70
NtRp2685
(dp2686
g73
(dp2687
sg82
g2174
sg75
(lp2688
g68
(g89
g70
NtRp2689
(dp2690
g73
(dp2691
g93
g94
ssg82
g2685
sg75
(lp2692
S'wsgi.url_scheme'
p2693
asbag68
(g89
g70
NtRp2694
(dp2695
g73
(dp2696
g100
g101
ssg82
g2685
sg75
(lp2697
S':'
asbag68
(g89
g70
NtRp2698
(dp2699
g73
(dp2700
sg82
g2685
sg75
(lp2701
g68
(g69
g70
NtRp2702
(dp2703
g73
(dp2704
g81
I3
ssg82
g2698
sg75
(lp2705
g1808
asbasbasbag68
(g84
g70
NtRp2706
(dp2707
g73
(dp2708
sg82
g2174
sg75
(lp2709
g68
(g89
g70
NtRp2710
(dp2711
g73
(dp2712
g93
g94
ssg82
g2706
sg75
(lp2713
S'wsgi.version'
p2714
asbag68
(g89
g70
NtRp2715
(dp2716
g73
(dp2717
g100
g101
ssg82
g2706
sg75
(lp2718
S':'
asbag68
(g89
g70
NtRp2719
(dp2720
g73
(dp2721
sg82
g2706
sg75
(lp2722
g68
(g69
g70
NtRp2723
(dp2724
g73
(dp2725
g81
I3
ssg82
g2719
sg75
(lp2726
S'1'
asbasbasbasbasbasbasbasbasbasbasbasbasbsS'frames'
p2727
(lp2728
(dp2729
S'file'
p2730
S'/opt/local/Library/Frameworks/Python.framework/Versions/2.7/lib/python2.7/gluon/restricted.py'
p2731
sS'dump'
p2732
(dp2733
S'environment'
p2734
S"{'A': <class 'gluon.html.A'>, 'Auth': <class 'gluon.tools.Auth'>, 'B': <class 'gluon.html.B'>, 'BEAUTIFY': <class 'gluon.html.BEAUTIFY'>, 'BODY': <class 'gluon.html.BODY'>, 'BR': <class 'gluon.html.BR'>, 'BUTTON': <class 'gluon.html.BUTTON'>, 'CAT': <class 'gluon.html.CAT'>, 'CENTER': <class 'gluon.html.CENTER'>, 'CLEANUP': <class 'gluon.validators.CLEANUP'>, ...}"
p2735
sS'ccode'
p2736
S'<code object <module> at 0x10263f930, file "/Use...pplications/init/controllers/default.py", line 3>'
p2737
ssS'lnum'
p2738
I192
sS'lines'
p2739
(dp2740
I192
S'        exec ccode in environment'
p2741
sI193
S'    except HTTP:'
p2742
sI194
S'        raise'
p2743
sI195
S'    except Exception, error:'
p2744
sI196
S'        # XXX Show exception in Wing IDE if running in debugger'
p2745
sI187
S'    try:'
p2746
sI188
S'        if type(code) == types.CodeType:'
p2747
sI189
S'            ccode = code'
p2748
sI190
S'        else:'
p2749
sI191
S'            ccode = compile2(code,layer)'
p2750
ssS'call'
p2751
S"(code='# -*- coding: utf-8 -*-\\n### required - do no del...t()\\n\\nresponse._vars=response._caller(submission)\\n', environment={'A': <class 'gluon.html.A'>, 'Auth': <class 'gluon.tools.Auth'>, 'B': <class 'gluon.html.B'>, 'BEAUTIFY': <class 'gluon.html.BEAUTIFY'>, 'BODY': <class 'gluon.html.BODY'>, 'BR': <class 'gluon.html.BR'>, 'BUTTON': <class 'gluon.html.BUTTON'>, 'CAT': <class 'gluon.html.CAT'>, 'CENTER': <class 'gluon.html.CENTER'>, 'CLEANUP': <class 'gluon.validators.CLEANUP'>, ...}, layer='/Users/hellais/Documents/code/globaleaks/ddb/apps/applications/init/controllers/default.py')"
p2752
sS'func'
p2753
S'restricted'
p2754
sa(dp2755
g2730
S'/Users/hellais/Documents/code/globaleaks/ddb/apps/applications/init/controllers/default.py'
p2756
sg2732
(dp2757
sg2738
I48
sg2739
(dp2758
I37
S"        response.flash = 'form accepted'"
p2759
sI38
S'    elif form.errors:'
p2760
sI39
S"        response.flash = 'form has errors'"
p2761
sI40
S'    else:'
p2762
sI41
S"        response.flash = 'please fill the form'"
p2763
sI42
S''
sI43
S'    return dict(form=form)'
p2764
sI44
S''
sI45
S'def error():'
p2765
sI46
S'    return dict()'
p2766
ssg2751
S'()'
p2767
sg2753
S'<module>'
p2768
sa(dp2769
g2730
S'/opt/local/Library/Frameworks/Python.framework/Versions/2.7/lib/python2.7/gluon/globals.py'
p2770
sg2732
(dp2771
S'self'
p2772
S'undefined'
p2773
sS'f'
S'<function submission>'
p2774
ssg2738
I145
sg2739
(dp2775
I140
S'        self.meta = Storage()      # used by web2py_ajax.html'
p2776
sI141
S'        self.menu = []             # used by the default view layout'
p2777
sI142
S'        self.files = []            # used by web2py_ajax.html'
p2778
sI143
S'        self.generic_patterns = [] # patterns to allow generic views'
p2779
sI144
S'        self._vars = None'
p2780
sI145
S'        self._caller = lambda f: f()'
p2781
sI146
S'        self._view_environment = None'
p2782
sI147
S'        self._custom_commit = None'
p2783
sI148
S'        self._custom_rollback = None'
p2784
sI149
S''
ssg2751
S'(f=<function submission>)'
p2785
sg2753
S'<lambda>'
p2786
sa(dp2787
g2730
S'/Users/hellais/Documents/code/globaleaks/ddb/apps/applications/init/controllers/default.py'
p2788
sg2732
(dp2789
S'global Field'
p2790
S"<class 'gluon.dal.Field'>"
p2791
ssg2738
I33
sg2739
(dp2792
I32
S"        Field('your_image', 'upload'),"
p2793
sI33
S"        Field('I have read the disclaimer', 'boolean')"
p2794
sI34
S'        )'
p2795
sI35
S''
sI36
S'    if form.accepts(request.vars, session):'
p2796
sI37
S"        response.flash = 'form accepted'"
p2797
sI28
S'    form = SQLFORM.factory('
p2798
sI29
S"        Field('Title', requires=IS_NOT_EMPTY()),"
p2799
sI30
S"        Field('Description', 'text', requires=IS_NOT_EMPTY()),"
p2800
sI31
S"        Field('Tags'),"
p2801
ssg2751
S'()'
p2802
sg2753
S'submission'
p2803
sa(dp2804
g2730
S'/opt/local/Library/Frameworks/Python.framework/Versions/2.7/lib/python2.7/gluon/dal.py'
p2805
sg2732
(dp2806
S'fieldname'
p2807
S"'I have read the disclaimer'"
p2808
sS'self'
p2809
S'<gluon.dal.Field object>'
p2810
sS'self.name'
p2811
g2773
sS'global cleanup'
p2812
S'<function cleanup>'
p2813
ssg2738
I5211
sg2739
(dp2814
I5206
S'            fieldname,readable,writable=fieldname[1:],False,False'
p2815
sI5207
S"        elif fieldname.startswith('.'):"
p2816
sI5208
S'            fieldname,readable,writable=fieldname[1:],False,False'
p2817
sI5209
S"        if '=' in fieldname:"
p2818
sI5210
S"            fieldname,default = fieldname.split('=',1)"
p2819
sI5211
S'        self.name = fieldname = cleanup(fieldname)'
p2820
sI5212
S"        if hasattr(Table,fieldname) or fieldname[0] == '_' or \\"
p2821
sI5213
S'                regex_python_keywords.match(fieldname):'
p2822
sI5214
S"            raise SyntaxError, 'Field: invalid field name: %s' % fieldname"
p2823
sI5215
S'        if isinstance(type, Table):'
p2824
ssg2751
S"(self=<gluon.dal.Field object>, fieldname='I have read the disclaimer', type='boolean', length=None, default=<function <lambda>>, required=False, requires=<function <lambda>>, ondelete='CASCADE', notnull=False, unique=False, uploadfield=True, widget=None, label=None, comment=None, writable=True, readable=True, update=None, authorize=None, autodelete=False, represent=None, uploadfolder=None, uploadseparate=False, compute=None, custom_store=None, custom_retrieve=None, custom_delete=None)"
p2825
sg2753
g23
sa(dp2826
g2730
S'/opt/local/Library/Frameworks/Python.framework/Versions/2.7/lib/python2.7/gluon/dal.py'
p2827
sg2732
(dp2828
S'text'
p2829
S"'I have read the disclaimer'"
p2830
ssg2738
I3557
sg2739
(dp2831
I3552
S'    """'
p2832
sI3553
S''
sI3554
S"    if re.compile('[^0-9a-zA-Z_]').findall(text):"
p2833
sI3555
S'        raise SyntaxError, \\'
p2834
sI3556
S"            'only [0-9a-zA-Z_] allowed in table and field names, received %s' \\"
p2835
sI3557
S'            % text'
p2836
sI3558
S'    return text'
p2837
sI3559
S''
sI3560
S''
sI3561
S'class MongoDBAdapter(NoSQLAdapter):'
p2838
ssg2751
S"(text='I have read the disclaimer')"
p2839
sg2753
S'cleanup'
p2840
sasS'pyver'
p2841
S'Python 2.7.1: /opt/local/Library/Frameworks/Python.framework/Versions/2.7/Resources/Python.app/Contents/MacOS/Python'
p2842
sS'session'
p2843
g68
(g69
g70
NtRp2844
(dp2845
g73
(dp2846
sg75
(lp2847
g68
(g77
g70
NtRp2848
(dp2849
g73
(dp2850
g81
I5
ssg82
Nsg75
(lp2851
sbasbsS'etype'
p2852
S"<type 'exceptions.SyntaxError'>"
p2853
sS'date'
p2854
S'Sat Aug 27 18:23:08 2011'
p2855
sS'response'
p2856
g68
(g69
g70
NtRp2857
(dp2858
g73
(dp2859
sg75
(lp2860
g68
(g77
g70
NtRp2861
(dp2862
g73
(dp2863
g81
I5
ssg82
Nsg75
(lp2864
g68
(g84
g70
NtRp2865
(dp2866
g73
(dp2867
sg82
g2861
sg75
(lp2868
g68
(g89
g70
NtRp2869
(dp2870
g73
(dp2871
g93
g94
ssg82
g2865
sg75
(lp2872
g166
asbag68
(g89
g70
NtRp2873
(dp2874
g73
(dp2875
g100
g101
ssg82
g2865
sg75
(lp2876
S':'
asbag68
(g89
g70
NtRp2877
(dp2878
g73
(dp2879
sg82
g2865
sg75
(lp2880
g68
(g69
g70
NtRp2881
(dp2882
g73
(dp2883
g81
I5
ssg82
g2877
sg75
(lp2884
S'<cStringIO.StringO object at 0x101e8a110>'
p2885
asbasbasbag68
(g84
g70
NtRp2886
(dp2887
g73
(dp2888
sg82
g2861
sg75
(lp2889
g68
(g89
g70
NtRp2890
(dp2891
g73
(dp2892
g93
g94
ssg82
g2886
sg75
(lp2893
g232
asbag68
(g89
g70
NtRp2894
(dp2895
g73
(dp2896
g100
g101
ssg82
g2886
sg75
(lp2897
S':'
asbag68
(g89
g70
NtRp2898
(dp2899
g73
(dp2900
sg82
g2886
sg75
(lp2901
g68
(g69
g70
NtRp2902
(dp2903
g73
(dp2904
g81
I5
ssg82
g2898
sg75
(lp2905
g68
(g77
g70
NtRp2906
(dp2907
g73
(dp2908
g81
I4
ssg82
Nsg75
(lp2909
g68
(g84
g70
NtRp2910
(dp2911
g73
(dp2912
sg82
g2906
sg75
(lp2913
g68
(g89
g70
NtRp2914
(dp2915
g73
(dp2916
g93
g94
ssg82
g2910
sg75
(lp2917
S'session_id_init'
p2918
asbag68
(g89
g70
NtRp2919
(dp2920
g73
(dp2921
g100
g101
ssg82
g2910
sg75
(lp2922
S':'
asbag68
(g89
g70
NtRp2923
(dp2924
g73
(dp2925
sg82
g2910
sg75
(lp2926
g68
(g69
g70
NtRp2927
(dp2928
g73
(dp2929
g81
I4
ssg82
g2923
sg75
(lp2930
g68
(g77
g70
NtRp2931
(dp2932
g73
(dp2933
g81
I3
ssg82
Nsg75
(lp2934
g68
(g84
g70
NtRp2935
(dp2936
g73
(dp2937
sg82
g2931
sg75
(lp2938
g68
(g89
g70
NtRp2939
(dp2940
g73
(dp2941
g93
g94
ssg82
g2935
sg75
(lp2942
g282
asbag68
(g89
g70
NtRp2943
(dp2944
g73
(dp2945
g100
g101
ssg82
g2935
sg75
(lp2946
S':'
asbag68
(g89
g70
NtRp2947
(dp2948
g73
(dp2949
sg82
g2935
sg75
(lp2950
g68
(g69
g70
NtRp2951
(dp2952
g73
(dp2953
g81
I3
ssg82
g2947
sg75
(lp2954
S''
asbasbasbag68
(g84
g70
NtRp2955
(dp2956
g73
(dp2957
sg82
g2931
sg75
(lp2958
g68
(g89
g70
NtRp2959
(dp2960
g73
(dp2961
g93
g94
ssg82
g2955
sg75
(lp2962
g303
asbag68
(g89
g70
NtRp2963
(dp2964
g73
(dp2965
g100
g101
ssg82
g2955
sg75
(lp2966
S':'
asbag68
(g89
g70
NtRp2967
(dp2968
g73
(dp2969
sg82
g2955
sg75
(lp2970
g68
(g69
g70
NtRp2971
(dp2972
g73
(dp2973
g81
I3
ssg82
g2967
sg75
(lp2974
S''
asbasbasbag68
(g84
g70
NtRp2975
(dp2976
g73
(dp2977
sg82
g2931
sg75
(lp2978
g68
(g89
g70
NtRp2979
(dp2980
g73
(dp2981
g93
g94
ssg82
g2975
sg75
(lp2982
g324
asbag68
(g89
g70
NtRp2983
(dp2984
g73
(dp2985
g100
g101
ssg82
g2975
sg75
(lp2986
S':'
asbag68
(g89
g70
NtRp2987
(dp2988
g73
(dp2989
sg82
g2975
sg75
(lp2990
g68
(g69
g70
NtRp2991
(dp2992
g73
(dp2993
g81
I3
ssg82
g2987
sg75
(lp2994
S''
asbasbasbag68
(g84
g70
NtRp2995
(dp2996
g73
(dp2997
sg82
g2931
sg75
(lp2998
g68
(g89
g70
NtRp2999
(dp3000
g73
(dp3001
g93
g94
ssg82
g2995
sg75
(lp3002
g345
asbag68
(g89
g70
NtRp3003
(dp3004
g73
(dp3005
g100
g101
ssg82
g2995
sg75
(lp3006
S':'
asbag68
(g89
g70
NtRp3007
(dp3008
g73
(dp3009
sg82
g2995
sg75
(lp3010
g68
(g69
g70
NtRp3011
(dp3012
g73
(dp3013
g81
I3
ssg82
g3007
sg75
(lp3014
S''
asbasbasbag68
(g84
g70
NtRp3015
(dp3016
g73
(dp3017
sg82
g2931
sg75
(lp3018
g68
(g89
g70
NtRp3019
(dp3020
g73
(dp3021
g93
g94
ssg82
g3015
sg75
(lp3022
g366
asbag68
(g89
g70
NtRp3023
(dp3024
g73
(dp3025
g100
g101
ssg82
g3015
sg75
(lp3026
S':'
asbag68
(g89
g70
NtRp3027
(dp3028
g73
(dp3029
sg82
g3015
sg75
(lp3030
g68
(g69
g70
NtRp3031
(dp3032
g73
(dp3033
g81
I3
ssg82
g3027
sg75
(lp3034
S''
asbasbasbag68
(g84
g70
NtRp3035
(dp3036
g73
(dp3037
sg82
g2931
sg75
(lp3038
g68
(g89
g70
NtRp3039
(dp3040
g73
(dp3041
g93
g94
ssg82
g3035
sg75
(lp3042
g387
asbag68
(g89
g70
NtRp3043
(dp3044
g73
(dp3045
g100
g101
ssg82
g3035
sg75
(lp3046
S':'
asbag68
(g89
g70
NtRp3047
(dp3048
g73
(dp3049
sg82
g3035
sg75
(lp3050
g68
(g69
g70
NtRp3051
(dp3052
g73
(dp3053
g81
I3
ssg82
g3047
sg75
(lp3054
S'/'
asbasbasbag68
(g84
g70
NtRp3055
(dp3056
g73
(dp3057
sg82
g2931
sg75
(lp3058
g68
(g89
g70
NtRp3059
(dp3060
g73
(dp3061
g93
g94
ssg82
g3055
sg75
(lp3062
g408
asbag68
(g89
g70
NtRp3063
(dp3064
g73
(dp3065
g100
g101
ssg82
g3055
sg75
(lp3066
S':'
asbag68
(g89
g70
NtRp3067
(dp3068
g73
(dp3069
sg82
g3055
sg75
(lp3070
g68
(g69
g70
NtRp3071
(dp3072
g73
(dp3073
g81
I3
ssg82
g3067
sg75
(lp3074
S''
asbasbasbag68
(g84
g70
NtRp3075
(dp3076
g73
(dp3077
sg82
g2931
sg75
(lp3078
g68
(g89
g70
NtRp3079
(dp3080
g73
(dp3081
g93
g94
ssg82
g3075
sg75
(lp3082
g429
asbag68
(g89
g70
NtRp3083
(dp3084
g73
(dp3085
g100
g101
ssg82
g3075
sg75
(lp3086
S':'
asbag68
(g89
g70
NtRp3087
(dp3088
g73
(dp3089
sg82
g3075
sg75
(lp3090
g68
(g69
g70
NtRp3091
(dp3092
g73
(dp3093
g81
I3
ssg82
g3087
sg75
(lp3094
S''
asbasbasbasbasbasbasbasbasbasbasbag68
(g84
g70
NtRp3095
(dp3096
g73
(dp3097
sg82
g2861
sg75
(lp3098
g68
(g89
g70
NtRp3099
(dp3100
g73
(dp3101
g93
g94
ssg82
g3095
sg75
(lp3102
S'files'
p3103
asbag68
(g89
g70
NtRp3104
(dp3105
g73
(dp3106
g100
g101
ssg82
g3095
sg75
(lp3107
S':'
asbag68
(g89
g70
NtRp3108
(dp3109
g73
(dp3110
sg82
g3095
sg75
(lp3111
g68
(g69
g70
NtRp3112
(dp3113
g73
(dp3114
g81
I5
ssg82
g3108
sg75
(lp3115
g68
(g77
g70
NtRp3116
(dp3117
g73
(dp3118
g81
I4
ssg82
Nsg75
(lp3119
sbasbasbasbag68
(g84
g70
NtRp3120
(dp3121
g73
(dp3122
sg82
g2861
sg75
(lp3123
g68
(g89
g70
NtRp3124
(dp3125
g73
(dp3126
g93
g94
ssg82
g3120
sg75
(lp3127
S'flash'
p3128
asbag68
(g89
g70
NtRp3129
(dp3130
g73
(dp3131
g100
g101
ssg82
g3120
sg75
(lp3132
S':'
asbag68
(g89
g70
NtRp3133
(dp3134
g73
(dp3135
sg82
g3120
sg75
(lp3136
g68
(g69
g70
NtRp3137
(dp3138
g73
(dp3139
g81
I5
ssg82
g3133
sg75
(lp3140
S''
asbasbasbag68
(g84
g70
NtRp3141
(dp3142
g73
(dp3143
sg82
g2861
sg75
(lp3144
g68
(g89
g70
NtRp3145
(dp3146
g73
(dp3147
g93
g94
ssg82
g3141
sg75
(lp3148
S'generic_patterns'
p3149
asbag68
(g89
g70
NtRp3150
(dp3151
g73
(dp3152
g100
g101
ssg82
g3141
sg75
(lp3153
S':'
asbag68
(g89
g70
NtRp3154
(dp3155
g73
(dp3156
sg82
g3141
sg75
(lp3157
g68
(g69
g70
NtRp3158
(dp3159
g73
(dp3160
g81
I5
ssg82
g3154
sg75
(lp3161
g68
(g77
g70
NtRp3162
(dp3163
g73
(dp3164
g81
I4
ssg82
Nsg75
(lp3165
sbasbasbasbag68
(g84
g70
NtRp3166
(dp3167
g73
(dp3168
sg82
g2861
sg75
(lp3169
g68
(g89
g70
NtRp3170
(dp3171
g73
(dp3172
g93
g94
ssg82
g3166
sg75
(lp3173
S'headers'
p3174
asbag68
(g89
g70
NtRp3175
(dp3176
g73
(dp3177
g100
g101
ssg82
g3166
sg75
(lp3178
S':'
asbag68
(g89
g70
NtRp3179
(dp3180
g73
(dp3181
sg82
g3166
sg75
(lp3182
g68
(g69
g70
NtRp3183
(dp3184
g73
(dp3185
g81
I5
ssg82
g3179
sg75
(lp3186
g68
(g77
g70
NtRp3187
(dp3188
g73
(dp3189
g81
I4
ssg82
Nsg75
(lp3190
g68
(g84
g70
NtRp3191
(dp3192
g73
(dp3193
sg82
g3187
sg75
(lp3194
g68
(g89
g70
NtRp3195
(dp3196
g73
(dp3197
g93
g94
ssg82
g3191
sg75
(lp3198
S'Cache-Control'
p3199
asbag68
(g89
g70
NtRp3200
(dp3201
g73
(dp3202
g100
g101
ssg82
g3191
sg75
(lp3203
S':'
asbag68
(g89
g70
NtRp3204
(dp3205
g73
(dp3206
sg82
g3191
sg75
(lp3207
g68
(g69
g70
NtRp3208
(dp3209
g73
(dp3210
g81
I4
ssg82
g3204
sg75
(lp3211
S'no-store, no-cache, must-revalidate, post-check=0, pre-check=0'
p3212
asbasbasbag68
(g84
g70
NtRp3213
(dp3214
g73
(dp3215
sg82
g3187
sg75
(lp3216
g68
(g89
g70
NtRp3217
(dp3218
g73
(dp3219
g93
g94
ssg82
g3213
sg75
(lp3220
S'Content-Type'
p3221
asbag68
(g89
g70
NtRp3222
(dp3223
g73
(dp3224
g100
g101
ssg82
g3213
sg75
(lp3225
S':'
asbag68
(g89
g70
NtRp3226
(dp3227
g73
(dp3228
sg82
g3213
sg75
(lp3229
g68
(g69
g70
NtRp3230
(dp3231
g73
(dp3232
g81
I4
ssg82
g3226
sg75
(lp3233
S'text/html; charset=utf-8'
p3234
asbasbasbag68
(g84
g70
NtRp3235
(dp3236
g73
(dp3237
sg82
g3187
sg75
(lp3238
g68
(g89
g70
NtRp3239
(dp3240
g73
(dp3241
g93
g94
ssg82
g3235
sg75
(lp3242
S'Expires'
p3243
asbag68
(g89
g70
NtRp3244
(dp3245
g73
(dp3246
g100
g101
ssg82
g3235
sg75
(lp3247
S':'
asbag68
(g89
g70
NtRp3248
(dp3249
g73
(dp3250
sg82
g3235
sg75
(lp3251
g68
(g69
g70
NtRp3252
(dp3253
g73
(dp3254
g81
I4
ssg82
g3248
sg75
(lp3255
S'Sat, 27 Aug 2011 16:23:08 GMT'
p3256
asbasbasbag68
(g84
g70
NtRp3257
(dp3258
g73
(dp3259
sg82
g3187
sg75
(lp3260
g68
(g89
g70
NtRp3261
(dp3262
g73
(dp3263
g93
g94
ssg82
g3257
sg75
(lp3264
S'Pragma'
p3265
asbag68
(g89
g70
NtRp3266
(dp3267
g73
(dp3268
g100
g101
ssg82
g3257
sg75
(lp3269
S':'
asbag68
(g89
g70
NtRp3270
(dp3271
g73
(dp3272
sg82
g3257
sg75
(lp3273
g68
(g69
g70
NtRp3274
(dp3275
g73
(dp3276
g81
I4
ssg82
g3270
sg75
(lp3277
S'no-cache'
p3278
asbasbasbag68
(g84
g70
NtRp3279
(dp3280
g73
(dp3281
sg82
g3187
sg75
(lp3282
g68
(g89
g70
NtRp3283
(dp3284
g73
(dp3285
g93
g94
ssg82
g3279
sg75
(lp3286
S'X-Powered-By'
p3287
asbag68
(g89
g70
NtRp3288
(dp3289
g73
(dp3290
g100
g101
ssg82
g3279
sg75
(lp3291
S':'
asbag68
(g89
g70
NtRp3292
(dp3293
g73
(dp3294
sg82
g3279
sg75
(lp3295
g68
(g69
g70
NtRp3296
(dp3297
g73
(dp3298
g81
I4
ssg82
g3292
sg75
(lp3299
S'web2py'
p3300
asbasbasbasbasbasbasbag68
(g84
g70
NtRp3301
(dp3302
g73
(dp3303
sg82
g2861
sg75
(lp3304
g68
(g89
g70
NtRp3305
(dp3306
g73
(dp3307
g93
g94
ssg82
g3301
sg75
(lp3308
S'menu'
p3309
asbag68
(g89
g70
NtRp3310
(dp3311
g73
(dp3312
g100
g101
ssg82
g3301
sg75
(lp3313
S':'
asbag68
(g89
g70
NtRp3314
(dp3315
g73
(dp3316
sg82
g3301
sg75
(lp3317
g68
(g69
g70
NtRp3318
(dp3319
g73
(dp3320
g81
I5
ssg82
g3314
sg75
(lp3321
g68
(g77
g70
NtRp3322
(dp3323
g73
(dp3324
g81
I4
ssg82
Nsg75
(lp3325
g68
(g84
g70
NtRp3326
(dp3327
g73
(dp3328
sg82
g3322
sg75
(lp3329
g68
(g89
g70
NtRp3330
(dp3331
g73
(dp3332
sg82
g3326
sg75
(lp3333
g68
(g69
g70
NtRp3334
(dp3335
g73
(dp3336
g81
I4
ssg82
g3330
sg75
(lp3337
g68
(g77
g70
NtRp3338
(dp3339
g73
(dp3340
g81
I3
ssg82
Nsg75
(lp3341
g68
(g84
g70
NtRp3342
(dp3343
g73
(dp3344
sg82
g3338
sg75
(lp3345
g68
(g89
g70
NtRp3346
(dp3347
g73
(dp3348
sg82
g3342
sg75
(lp3349
g68
(g69
g70
NtRp3350
(dp3351
g73
(dp3352
g81
I3
ssg82
g3346
sg75
(lp3353
cgluon.languages
lazyT_unpickle
p3354
(S't\x05\x00\x00\x00Index'
tRp3355
asbasbasbag68
(g84
g70
NtRp3356
(dp3357
g73
(dp3358
sg82
g3338
sg75
(lp3359
g68
(g89
g70
NtRp3360
(dp3361
g73
(dp3362
sg82
g3356
sg75
(lp3363
g68
(g69
g70
NtRp3364
(dp3365
g73
(dp3366
g81
I3
ssg82
g3360
sg75
(lp3367
g111
asbasbasbag68
(g84
g70
NtRp3368
(dp3369
g73
(dp3370
sg82
g3338
sg75
(lp3371
g68
(g89
g70
NtRp3372
(dp3373
g73
(dp3374
sg82
g3368
sg75
(lp3375
g68
(g69
g70
NtRp3376
(dp3377
g73
(dp3378
g81
I3
ssg82
g3372
sg75
(lp3379
S'/init/default/index'
p3380
asbasbasbag68
(g84
g70
NtRp3381
(dp3382
g73
(dp3383
sg82
g3338
sg75
(lp3384
g68
(g89
g70
NtRp3385
(dp3386
g73
(dp3387
sg82
g3381
sg75
(lp3388
g68
(g69
g70
NtRp3389
(dp3390
g73
(dp3391
g81
I3
ssg82
g3385
sg75
(lp3392
g68
(g77
g70
NtRp3393
(dp3394
g73
(dp3395
g81
I2
ssg82
Nsg75
(lp3396
sbasbasbasbasbasbasbasbasbasbasbasbag68
(g84
g70
NtRp3397
(dp3398
g73
(dp3399
sg82
g2861
sg75
(lp3400
g68
(g89
g70
NtRp3401
(dp3402
g73
(dp3403
g93
g94
ssg82
g3397
sg75
(lp3404
S'meta'
p3405
asbag68
(g89
g70
NtRp3406
(dp3407
g73
(dp3408
g100
g101
ssg82
g3397
sg75
(lp3409
S':'
asbag68
(g89
g70
NtRp3410
(dp3411
g73
(dp3412
sg82
g3397
sg75
(lp3413
g68
(g69
g70
NtRp3414
(dp3415
g73
(dp3416
g81
I5
ssg82
g3410
sg75
(lp3417
g68
(g77
g70
NtRp3418
(dp3419
g73
(dp3420
g81
I4
ssg82
Nsg75
(lp3421
g68
(g84
g70
NtRp3422
(dp3423
g73
(dp3424
sg82
g3418
sg75
(lp3425
g68
(g89
g70
NtRp3426
(dp3427
g73
(dp3428
g93
g94
ssg82
g3422
sg75
(lp3429
S'author'
p3430
asbag68
(g89
g70
NtRp3431
(dp3432
g73
(dp3433
g100
g101
ssg82
g3422
sg75
(lp3434
S':'
asbag68
(g89
g70
NtRp3435
(dp3436
g73
(dp3437
sg82
g3422
sg75
(lp3438
g68
(g69
g70
NtRp3439
(dp3440
g73
(dp3441
g81
I4
ssg82
g3435
sg75
(lp3442
S'RGC <info@globaleaks.org>'
p3443
asbasbasbag68
(g84
g70
NtRp3444
(dp3445
g73
(dp3446
sg82
g3418
sg75
(lp3447
g68
(g89
g70
NtRp3448
(dp3449
g73
(dp3450
g93
g94
ssg82
g3444
sg75
(lp3451
S'description'
p3452
asbag68
(g89
g70
NtRp3453
(dp3454
g73
(dp3455
g100
g101
ssg82
g3444
sg75
(lp3456
S':'
asbag68
(g89
g70
NtRp3457
(dp3458
g73
(dp3459
sg82
g3444
sg75
(lp3460
g68
(g69
g70
NtRp3461
(dp3462
g73
(dp3463
g81
I4
ssg82
g3457
sg75
(lp3464
S''
asbasbasbag68
(g84
g70
NtRp3465
(dp3466
g73
(dp3467
sg82
g3418
sg75
(lp3468
g68
(g89
g70
NtRp3469
(dp3470
g73
(dp3471
g93
g94
ssg82
g3465
sg75
(lp3472
S'keywords'
p3473
asbag68
(g89
g70
NtRp3474
(dp3475
g73
(dp3476
g100
g101
ssg82
g3465
sg75
(lp3477
S':'
asbag68
(g89
g70
NtRp3478
(dp3479
g73
(dp3480
sg82
g3465
sg75
(lp3481
g68
(g69
g70
NtRp3482
(dp3483
g73
(dp3484
g81
I4
ssg82
g3478
sg75
(lp3485
S''
asbasbasbasbasbasbasbag68
(g84
g70
NtRp3486
(dp3487
g73
(dp3488
sg82
g2861
sg75
(lp3489
g68
(g89
g70
NtRp3490
(dp3491
g73
(dp3492
g93
g94
ssg82
g3486
sg75
(lp3493
S'postprocessing'
p3494
asbag68
(g89
g70
NtRp3495
(dp3496
g73
(dp3497
g100
g101
ssg82
g3486
sg75
(lp3498
S':'
asbag68
(g89
g70
NtRp3499
(dp3500
g73
(dp3501
sg82
g3486
sg75
(lp3502
g68
(g69
g70
NtRp3503
(dp3504
g73
(dp3505
g81
I5
ssg82
g3499
sg75
(lp3506
g68
(g77
g70
NtRp3507
(dp3508
g73
(dp3509
g81
I4
ssg82
Nsg75
(lp3510
sbasbasbasbag68
(g84
g70
NtRp3511
(dp3512
g73
(dp3513
sg82
g2861
sg75
(lp3514
g68
(g89
g70
NtRp3515
(dp3516
g73
(dp3517
g93
g94
ssg82
g3511
sg75
(lp3518
S'session_file'
p3519
asbag68
(g89
g70
NtRp3520
(dp3521
g73
(dp3522
g100
g101
ssg82
g3511
sg75
(lp3523
S':'
asbag68
(g89
g70
NtRp3524
(dp3525
g73
(dp3526
sg82
g3511
sg75
(lp3527
g68
(g69
g70
NtRp3528
(dp3529
g73
(dp3530
g81
I5
ssg82
g3524
sg75
(lp3531
S"<open file '/Users/hellais/Documents/code/globaleaks/ddb/apps/applications/init/sessions/127.0.0.1-a8551263-bc3c-430c-abb2-8711fac671c1', mode 'rb+' at 0x103ba39c0>"
p3532
asbasbasbag68
(g84
g70
NtRp3533
(dp3534
g73
(dp3535
sg82
g2861
sg75
(lp3536
g68
(g89
g70
NtRp3537
(dp3538
g73
(dp3539
g93
g94
ssg82
g3533
sg75
(lp3540
S'session_filename'
p3541
asbag68
(g89
g70
NtRp3542
(dp3543
g73
(dp3544
g100
g101
ssg82
g3533
sg75
(lp3545
S':'
asbag68
(g89
g70
NtRp3546
(dp3547
g73
(dp3548
sg82
g3533
sg75
(lp3549
g68
(g69
g70
NtRp3550
(dp3551
g73
(dp3552
g81
I5
ssg82
g3546
sg75
(lp3553
S'/Users/hellais/Documents/code/globaleaks/ddb/apps/applications/init/sessions/127.0.0.1-a8551263-bc3c-430c-abb2-8711fac671c1'
p3554
asbasbasbag68
(g84
g70
NtRp3555
(dp3556
g73
(dp3557
sg82
g2861
sg75
(lp3558
g68
(g89
g70
NtRp3559
(dp3560
g73
(dp3561
g93
g94
ssg82
g3555
sg75
(lp3562
S'session_id'
p3563
asbag68
(g89
g70
NtRp3564
(dp3565
g73
(dp3566
g100
g101
ssg82
g3555
sg75
(lp3567
S':'
asbag68
(g89
g70
NtRp3568
(dp3569
g73
(dp3570
sg82
g3555
sg75
(lp3571
g68
(g69
g70
NtRp3572
(dp3573
g73
(dp3574
g81
I5
ssg82
g3568
sg75
(lp3575
S'127.0.0.1-a8551263-bc3c-430c-abb2-8711fac671c1'
p3576
asbasbasbag68
(g84
g70
NtRp3577
(dp3578
g73
(dp3579
sg82
g2861
sg75
(lp3580
g68
(g89
g70
NtRp3581
(dp3582
g73
(dp3583
g93
g94
ssg82
g3577
sg75
(lp3584
S'session_id_name'
p3585
asbag68
(g89
g70
NtRp3586
(dp3587
g73
(dp3588
g100
g101
ssg82
g3577
sg75
(lp3589
S':'
asbag68
(g89
g70
NtRp3590
(dp3591
g73
(dp3592
sg82
g3577
sg75
(lp3593
g68
(g69
g70
NtRp3594
(dp3595
g73
(dp3596
g81
I5
ssg82
g3590
sg75
(lp3597
g2918
asbasbasbag68
(g84
g70
NtRp3598
(dp3599
g73
(dp3600
sg82
g2861
sg75
(lp3601
g68
(g89
g70
NtRp3602
(dp3603
g73
(dp3604
g93
g94
ssg82
g3598
sg75
(lp3605
S'session_locked'
p3606
asbag68
(g89
g70
NtRp3607
(dp3608
g73
(dp3609
g100
g101
ssg82
g3598
sg75
(lp3610
S':'
asbag68
(g89
g70
NtRp3611
(dp3612
g73
(dp3613
sg82
g3598
sg75
(lp3614
g68
(g69
g70
NtRp3615
(dp3616
g73
(dp3617
g81
I5
ssg82
g3611
sg75
(lp3618
g1765
asbasbasbag68
(g84
g70
NtRp3619
(dp3620
g73
(dp3621
sg82
g2861
sg75
(lp3622
g68
(g89
g70
NtRp3623
(dp3624
g73
(dp3625
g93
g94
ssg82
g3619
sg75
(lp3626
S'session_new'
p3627
asbag68
(g89
g70
NtRp3628
(dp3629
g73
(dp3630
g100
g101
ssg82
g3619
sg75
(lp3631
S':'
asbag68
(g89
g70
NtRp3632
(dp3633
g73
(dp3634
sg82
g3619
sg75
(lp3635
g68
(g69
g70
NtRp3636
(dp3637
g73
(dp3638
g81
I5
ssg82
g3632
sg75
(lp3639
g111
asbasbasbag68
(g84
g70
NtRp3640
(dp3641
g73
(dp3642
sg82
g2861
sg75
(lp3643
g68
(g89
g70
NtRp3644
(dp3645
g73
(dp3646
g93
g94
ssg82
g3640
sg75
(lp3647
S'status'
p3648
asbag68
(g89
g70
NtRp3649
(dp3650
g73
(dp3651
g100
g101
ssg82
g3640
sg75
(lp3652
S':'
asbag68
(g89
g70
NtRp3653
(dp3654
g73
(dp3655
sg82
g3640
sg75
(lp3656
g68
(g69
g70
NtRp3657
(dp3658
g73
(dp3659
g81
I5
ssg82
g3653
sg75
(lp3660
S'200'
p3661
asbasbasbag68
(g84
g70
NtRp3662
(dp3663
g73
(dp3664
sg82
g2861
sg75
(lp3665
g68
(g89
g70
NtRp3666
(dp3667
g73
(dp3668
g93
g94
ssg82
g3662
sg75
(lp3669
S'subtitle'
p3670
asbag68
(g89
g70
NtRp3671
(dp3672
g73
(dp3673
g100
g101
ssg82
g3662
sg75
(lp3674
S':'
asbag68
(g89
g70
NtRp3675
(dp3676
g73
(dp3677
sg82
g3662
sg75
(lp3678
g68
(g69
g70
NtRp3679
(dp3680
g73
(dp3681
g81
I5
ssg82
g3675
sg75
(lp3682
S'Open Source Whistleblowing Platform'
p3683
asbasbasbag68
(g84
g70
NtRp3684
(dp3685
g73
(dp3686
sg82
g2861
sg75
(lp3687
g68
(g89
g70
NtRp3688
(dp3689
g73
(dp3690
g93
g94
ssg82
g3684
sg75
(lp3691
S'title'
p3692
asbag68
(g89
g70
NtRp3693
(dp3694
g73
(dp3695
g100
g101
ssg82
g3684
sg75
(lp3696
S':'
asbag68
(g89
g70
NtRp3697
(dp3698
g73
(dp3699
sg82
g3684
sg75
(lp3700
g68
(g69
g70
NtRp3701
(dp3702
g73
(dp3703
g81
I5
ssg82
g3697
sg75
(lp3704
S'GlobaLeaks'
p3705
asbasbasbag68
(g84
g70
NtRp3706
(dp3707
g73
(dp3708
sg82
g2861
sg75
(lp3709
g68
(g89
g70
NtRp3710
(dp3711
g73
(dp3712
g93
g94
ssg82
g3706
sg75
(lp3713
g2089
asbag68
(g89
g70
NtRp3714
(dp3715
g73
(dp3716
g100
g101
ssg82
g3706
sg75
(lp3717
S':'
asbag68
(g89
g70
NtRp3718
(dp3719
g73
(dp3720
sg82
g3706
sg75
(lp3721
g68
(g69
g70
NtRp3722
(dp3723
g73
(dp3724
g81
I5
ssg82
g3718
sg75
(lp3725
g2102
asbasbasbag68
(g84
g70
NtRp3726
(dp3727
g73
(dp3728
sg82
g2861
sg75
(lp3729
g68
(g89
g70
NtRp3730
(dp3731
g73
(dp3732
g93
g94
ssg82
g3726
sg75
(lp3733
S'view'
p3734
asbag68
(g89
g70
NtRp3735
(dp3736
g73
(dp3737
g100
g101
ssg82
g3726
sg75
(lp3738
S':'
asbag68
(g89
g70
NtRp3739
(dp3740
g73
(dp3741
sg82
g3726
sg75
(lp3742
g68
(g69
g70
NtRp3743
(dp3744
g73
(dp3745
g81
I5
ssg82
g3739
sg75
(lp3746
S'default/submission.html'
p3747
asbasbasbasbasbsS'locals'
p3748
(dp3749
g13
S"'I have read the disclaimer'"
p3750
sssS'traceback'
p3751
S'Traceback (most recent call last):\n  File "/opt/local/Library/Frameworks/Python.framework/Versions/2.7/lib/python2.7/gluon/restricted.py", line 192, in restricted\n    exec ccode in environment\n  File "/Users/hellais/Documents/code/globaleaks/ddb/apps/applications/init/controllers/default.py", line 48, in <module>\n  File "/opt/local/Library/Frameworks/Python.framework/Versions/2.7/lib/python2.7/gluon/globals.py", line 145, in <lambda>\n    self._caller = lambda f: f()\n  File "/Users/hellais/Documents/code/globaleaks/ddb/apps/applications/init/controllers/default.py", line 33, in submission\n    Field(\'I have read the disclaimer\', \'boolean\')\n  File "/opt/local/Library/Frameworks/Python.framework/Versions/2.7/lib/python2.7/gluon/dal.py", line 5211, in __init__\n    self.name = fieldname = cleanup(fieldname)\n  File "/opt/local/Library/Frameworks/Python.framework/Versions/2.7/lib/python2.7/gluon/dal.py", line 3557, in cleanup\n    % text\nSyntaxError: only [0-9a-zA-Z_] allowed in table and field names, received I have read the disclaimer\n'
p3752
s.