(dp1
S'output'
p2
S''
sS'layer'
p3
S'/Users/hellais/Documents/code/mygit/globaleaks/webapp/applications/init/controllers/default.py'
p4
sS'code'
p5
S'# -*- coding: utf-8 -*-\n### required - do no delete\ndef gen_form():\n    return Field(\'Title\', requires=IS_NOT_EMPTY()),\n        Field(\'Description\', \'text\', requires=IS_NOT_EMPTY()),\n        Field(\'Tags\'),\n        Field(\'material\', \'upload\', uploadfolder="uploads/"),\n        Field(\'dislaimer\', \'boolean\', requires=IS_EQUAL_TO("on", error_message="Please read the disclaimer"))\n \ndef user(): return dict(form=auth())\ndef download(): return response.download(request,db)\ndef call():\n    session.forget()\n    return service()\n### end requires\ndef index():\n    return dict(message=T("Diocane"))\n\ndef submission():\n    """form = FORM(\'Your name:\', INPUT(_name=\'Title\',requires=IS_NOT_EMPTY()),\n            \'Tags:\', INPUT(_name=\'Tags\',requires=IS_NOT_EMPTY()),\n            \'Description:\', INPUT(_name=\'Description\',requires=IS_NOT_EMPTY()),\n            \'Files:\', INPUT(_name=\'Files\'), \n            INPUT(_type=\'submit\')\n            )\n    \n    if form.accepts(request.vars, session):\n        response.flash = \'form accepted\'\n    elif form.errors:\n        response.flash = \'form has errors\'\n    else:\n        response.flash = \'please fill the form\'\n    """\n    form = SQLFORM.factory(gen_form())\n        \n    if form.accepts(request.vars, session):\n        response.flash = \'form accepted\'\n    elif form.errors:\n        response.flash = \'form has errors\'\n    else:\n        response.flash = \'please fill the form\'        \n    \n    return dict(form=form)\n\ndef error():\n    return dict()\n\nresponse._vars=response._caller(submission)\n'
p6
sS'snapshot'
p7
(dp8
S'exception'
p9
(dp10
S'__getslice__'
p11
S"<method-wrapper '__getslice__' of exceptions.IndentationError object>"
p12
sS'text'
p13
S'"        Field(\'Description\', \'text\', requires=IS_NOT_EMPTY()),\\n"'
p14
sS'__str__'
p15
S"<method-wrapper '__str__' of exceptions.IndentationError object>"
p16
sS'__reduce__'
p17
S'<built-in method __reduce__ of exceptions.IndentationError object>'
p18
sS'__dict__'
p19
S'{}'
p20
sS'__sizeof__'
p21
S'<built-in method __sizeof__ of exceptions.IndentationError object>'
p22
sS'__init__'
p23
S"<method-wrapper '__init__' of exceptions.IndentationError object>"
p24
sS'__setattr__'
p25
S"<method-wrapper '__setattr__' of exceptions.IndentationError object>"
p26
sS'__reduce_ex__'
p27
S'<built-in method __reduce_ex__ of exceptions.IndentationError object>'
p28
sS'__new__'
p29
S'<built-in method __new__ of type object>'
p30
sS'__format__'
p31
S'<built-in method __format__ of exceptions.IndentationError object>'
p32
sS'__class__'
p33
S"<type 'exceptions.IndentationError'>"
p34
sS'filename'
p35
S"'/Users/hellais/Documents/code/mygit/globaleaks/webapp/applications/init/controllers/default.py'"
p36
sS'lineno'
p37
S'5'
sS'msg'
p38
S"'unexpected indent'"
p39
sS'__doc__'
p40
S"'Improper indentation.'"
p41
sS'__getitem__'
p42
S"<method-wrapper '__getitem__' of exceptions.IndentationError object>"
p43
sS'__setstate__'
p44
S'<built-in method __setstate__ of exceptions.IndentationError object>'
p45
sS'__getattribute__'
p46
S"<method-wrapper '__getattribute__' of exceptions.IndentationError object>"
p47
sS'print_file_and_line'
p48
S'None'
p49
sS'args'
p50
S'(\'unexpected indent\', (\'/Users/hellais/Documents/code/mygit/globaleaks/webapp/applications/init/controllers/default.py\', 5, 8, "        Field(\'Description\', \'text\', requires=IS_NOT_EMPTY()),\\n"))'
p51
sS'__subclasshook__'
p52
S'<built-in method __subclasshook__ of type object>'
p53
sS'offset'
p54
S'8'
sS'__unicode__'
p55
S'<built-in method __unicode__ of exceptions.IndentationError object>'
p56
sS'__delattr__'
p57
S"<method-wrapper '__delattr__' of exceptions.IndentationError object>"
p58
sS'__repr__'
p59
S"<method-wrapper '__repr__' of exceptions.IndentationError object>"
p60
sS'__hash__'
p61
S"<method-wrapper '__hash__' of exceptions.IndentationError object>"
p62
ssS'evalue'
p63
S'unexpected indent (default.py, line 5)'
p64
sS'request'
p65
ccopy_reg
_reconstructor
p66
(cgluon.html
BEAUTIFY
p67
c__builtin__
object
p68
NtRp69
(dp70
S'attributes'
p71
(dp72
sS'components'
p73
(lp74
g66
(cgluon.html
TABLE
p75
g68
NtRp76
(dp77
g71
(dp78
S'level'
p79
I5
ssS'parent'
p80
Nsg73
(lp81
g66
(cgluon.html
TR
p82
g68
NtRp83
(dp84
g71
(dp85
sg80
g76
sg73
(lp86
g66
(cgluon.html
TD
p87
g68
NtRp88
(dp89
g71
(dp90
S'_style'
p91
S'font-weight:bold;'
p92
ssg80
g83
sg73
(lp93
S'ajax'
p94
asbag66
(g87
g68
NtRp95
(dp96
g71
(dp97
S'_valign'
p98
S'top'
p99
ssg80
g83
sg73
(lp100
S':'
asbag66
(g87
g68
NtRp101
(dp102
g71
(dp103
sg80
g83
sg73
(lp104
g66
(g67
g68
NtRp105
(dp106
g71
(dp107
g79
I5
ssg80
g101
sg73
(lp108
S'False'
p109
asbasbasbag66
(g82
g68
NtRp110
(dp111
g71
(dp112
sg80
g76
sg73
(lp113
g66
(g87
g68
NtRp114
(dp115
g71
(dp116
g91
g92
ssg80
g110
sg73
(lp117
S'application'
p118
asbag66
(g87
g68
NtRp119
(dp120
g71
(dp121
g98
g99
ssg80
g110
sg73
(lp122
S':'
asbag66
(g87
g68
NtRp123
(dp124
g71
(dp125
sg80
g110
sg73
(lp126
g66
(g67
g68
NtRp127
(dp128
g71
(dp129
g79
I5
ssg80
g123
sg73
(lp130
S'init'
p131
asbasbasbag66
(g82
g68
NtRp132
(dp133
g71
(dp134
sg80
g76
sg73
(lp135
g66
(g87
g68
NtRp136
(dp137
g71
(dp138
g91
g92
ssg80
g132
sg73
(lp139
g50
asbag66
(g87
g68
NtRp140
(dp141
g71
(dp142
g98
g99
ssg80
g132
sg73
(lp143
S':'
asbag66
(g87
g68
NtRp144
(dp145
g71
(dp146
sg80
g132
sg73
(lp147
g66
(g67
g68
NtRp148
(dp149
g71
(dp150
g79
I5
ssg80
g144
sg73
(lp151
g66
(g75
g68
NtRp152
(dp153
g71
(dp154
g79
I4
ssg80
Nsg73
(lp155
sbasbasbasbag66
(g82
g68
NtRp156
(dp157
g71
(dp158
sg80
g76
sg73
(lp159
g66
(g87
g68
NtRp160
(dp161
g71
(dp162
g91
g92
ssg80
g156
sg73
(lp163
S'body'
p164
asbag66
(g87
g68
NtRp165
(dp166
g71
(dp167
g98
g99
ssg80
g156
sg73
(lp168
S':'
asbag66
(g87
g68
NtRp169
(dp170
g71
(dp171
sg80
g156
sg73
(lp172
g66
(g67
g68
NtRp173
(dp174
g71
(dp175
g79
I5
ssg80
g169
sg73
(lp176
S'<cStringIO.StringO object at 0x1021d5928>'
p177
asbasbasbag66
(g82
g68
NtRp178
(dp179
g71
(dp180
sg80
g76
sg73
(lp181
g66
(g87
g68
NtRp182
(dp183
g71
(dp184
g91
g92
ssg80
g178
sg73
(lp185
S'client'
p186
asbag66
(g87
g68
NtRp187
(dp188
g71
(dp189
g98
g99
ssg80
g178
sg73
(lp190
S':'
asbag66
(g87
g68
NtRp191
(dp192
g71
(dp193
sg80
g178
sg73
(lp194
g66
(g67
g68
NtRp195
(dp196
g71
(dp197
g79
I5
ssg80
g191
sg73
(lp198
S'127.0.0.1'
p199
asbasbasbag66
(g82
g68
NtRp200
(dp201
g71
(dp202
sg80
g76
sg73
(lp203
g66
(g87
g68
NtRp204
(dp205
g71
(dp206
g91
g92
ssg80
g200
sg73
(lp207
S'controller'
p208
asbag66
(g87
g68
NtRp209
(dp210
g71
(dp211
g98
g99
ssg80
g200
sg73
(lp212
S':'
asbag66
(g87
g68
NtRp213
(dp214
g71
(dp215
sg80
g200
sg73
(lp216
g66
(g67
g68
NtRp217
(dp218
g71
(dp219
g79
I5
ssg80
g213
sg73
(lp220
S'default'
p221
asbasbasbag66
(g82
g68
NtRp222
(dp223
g71
(dp224
sg80
g76
sg73
(lp225
g66
(g87
g68
NtRp226
(dp227
g71
(dp228
g91
g92
ssg80
g222
sg73
(lp229
S'cookies'
p230
asbag66
(g87
g68
NtRp231
(dp232
g71
(dp233
g98
g99
ssg80
g222
sg73
(lp234
S':'
asbag66
(g87
g68
NtRp235
(dp236
g71
(dp237
sg80
g222
sg73
(lp238
g66
(g67
g68
NtRp239
(dp240
g71
(dp241
g79
I5
ssg80
g235
sg73
(lp242
g66
(g75
g68
NtRp243
(dp244
g71
(dp245
g79
I4
ssg80
Nsg73
(lp246
g66
(g82
g68
NtRp247
(dp248
g71
(dp249
sg80
g243
sg73
(lp250
g66
(g87
g68
NtRp251
(dp252
g71
(dp253
g91
g92
ssg80
g247
sg73
(lp254
S'session_id_admin'
p255
asbag66
(g87
g68
NtRp256
(dp257
g71
(dp258
g98
g99
ssg80
g247
sg73
(lp259
S':'
asbag66
(g87
g68
NtRp260
(dp261
g71
(dp262
sg80
g247
sg73
(lp263
g66
(g67
g68
NtRp264
(dp265
g71
(dp266
g79
I4
ssg80
g260
sg73
(lp267
g66
(g75
g68
NtRp268
(dp269
g71
(dp270
g79
I3
ssg80
Nsg73
(lp271
g66
(g82
g68
NtRp272
(dp273
g71
(dp274
sg80
g268
sg73
(lp275
g66
(g87
g68
NtRp276
(dp277
g71
(dp278
g91
g92
ssg80
g272
sg73
(lp279
S'comment'
p280
asbag66
(g87
g68
NtRp281
(dp282
g71
(dp283
g98
g99
ssg80
g272
sg73
(lp284
S':'
asbag66
(g87
g68
NtRp285
(dp286
g71
(dp287
sg80
g272
sg73
(lp288
g66
(g67
g68
NtRp289
(dp290
g71
(dp291
g79
I3
ssg80
g285
sg73
(lp292
S''
asbasbasbag66
(g82
g68
NtRp293
(dp294
g71
(dp295
sg80
g268
sg73
(lp296
g66
(g87
g68
NtRp297
(dp298
g71
(dp299
g91
g92
ssg80
g293
sg73
(lp300
S'domain'
p301
asbag66
(g87
g68
NtRp302
(dp303
g71
(dp304
g98
g99
ssg80
g293
sg73
(lp305
S':'
asbag66
(g87
g68
NtRp306
(dp307
g71
(dp308
sg80
g293
sg73
(lp309
g66
(g67
g68
NtRp310
(dp311
g71
(dp312
g79
I3
ssg80
g306
sg73
(lp313
S''
asbasbasbag66
(g82
g68
NtRp314
(dp315
g71
(dp316
sg80
g268
sg73
(lp317
g66
(g87
g68
NtRp318
(dp319
g71
(dp320
g91
g92
ssg80
g314
sg73
(lp321
S'expires'
p322
asbag66
(g87
g68
NtRp323
(dp324
g71
(dp325
g98
g99
ssg80
g314
sg73
(lp326
S':'
asbag66
(g87
g68
NtRp327
(dp328
g71
(dp329
sg80
g314
sg73
(lp330
g66
(g67
g68
NtRp331
(dp332
g71
(dp333
g79
I3
ssg80
g327
sg73
(lp334
S''
asbasbasbag66
(g82
g68
NtRp335
(dp336
g71
(dp337
sg80
g268
sg73
(lp338
g66
(g87
g68
NtRp339
(dp340
g71
(dp341
g91
g92
ssg80
g335
sg73
(lp342
S'httponly'
p343
asbag66
(g87
g68
NtRp344
(dp345
g71
(dp346
g98
g99
ssg80
g335
sg73
(lp347
S':'
asbag66
(g87
g68
NtRp348
(dp349
g71
(dp350
sg80
g335
sg73
(lp351
g66
(g67
g68
NtRp352
(dp353
g71
(dp354
g79
I3
ssg80
g348
sg73
(lp355
S''
asbasbasbag66
(g82
g68
NtRp356
(dp357
g71
(dp358
sg80
g268
sg73
(lp359
g66
(g87
g68
NtRp360
(dp361
g71
(dp362
g91
g92
ssg80
g356
sg73
(lp363
S'max-age'
p364
asbag66
(g87
g68
NtRp365
(dp366
g71
(dp367
g98
g99
ssg80
g356
sg73
(lp368
S':'
asbag66
(g87
g68
NtRp369
(dp370
g71
(dp371
sg80
g356
sg73
(lp372
g66
(g67
g68
NtRp373
(dp374
g71
(dp375
g79
I3
ssg80
g369
sg73
(lp376
S''
asbasbasbag66
(g82
g68
NtRp377
(dp378
g71
(dp379
sg80
g268
sg73
(lp380
g66
(g87
g68
NtRp381
(dp382
g71
(dp383
g91
g92
ssg80
g377
sg73
(lp384
S'path'
p385
asbag66
(g87
g68
NtRp386
(dp387
g71
(dp388
g98
g99
ssg80
g377
sg73
(lp389
S':'
asbag66
(g87
g68
NtRp390
(dp391
g71
(dp392
sg80
g377
sg73
(lp393
g66
(g67
g68
NtRp394
(dp395
g71
(dp396
g79
I3
ssg80
g390
sg73
(lp397
S''
asbasbasbag66
(g82
g68
NtRp398
(dp399
g71
(dp400
sg80
g268
sg73
(lp401
g66
(g87
g68
NtRp402
(dp403
g71
(dp404
g91
g92
ssg80
g398
sg73
(lp405
S'secure'
p406
asbag66
(g87
g68
NtRp407
(dp408
g71
(dp409
g98
g99
ssg80
g398
sg73
(lp410
S':'
asbag66
(g87
g68
NtRp411
(dp412
g71
(dp413
sg80
g398
sg73
(lp414
g66
(g67
g68
NtRp415
(dp416
g71
(dp417
g79
I3
ssg80
g411
sg73
(lp418
S''
asbasbasbag66
(g82
g68
NtRp419
(dp420
g71
(dp421
sg80
g268
sg73
(lp422
g66
(g87
g68
NtRp423
(dp424
g71
(dp425
g91
g92
ssg80
g419
sg73
(lp426
S'version'
p427
asbag66
(g87
g68
NtRp428
(dp429
g71
(dp430
g98
g99
ssg80
g419
sg73
(lp431
S':'
asbag66
(g87
g68
NtRp432
(dp433
g71
(dp434
sg80
g419
sg73
(lp435
g66
(g67
g68
NtRp436
(dp437
g71
(dp438
g79
I3
ssg80
g432
sg73
(lp439
S''
asbasbasbasbasbasbasbag66
(g82
g68
NtRp440
(dp441
g71
(dp442
sg80
g243
sg73
(lp443
g66
(g87
g68
NtRp444
(dp445
g71
(dp446
g91
g92
ssg80
g440
sg73
(lp447
S'session_id_blabla'
p448
asbag66
(g87
g68
NtRp449
(dp450
g71
(dp451
g98
g99
ssg80
g440
sg73
(lp452
S':'
asbag66
(g87
g68
NtRp453
(dp454
g71
(dp455
sg80
g440
sg73
(lp456
g66
(g67
g68
NtRp457
(dp458
g71
(dp459
g79
I4
ssg80
g453
sg73
(lp460
g66
(g75
g68
NtRp461
(dp462
g71
(dp463
g79
I3
ssg80
Nsg73
(lp464
g66
(g82
g68
NtRp465
(dp466
g71
(dp467
sg80
g461
sg73
(lp468
g66
(g87
g68
NtRp469
(dp470
g71
(dp471
g91
g92
ssg80
g465
sg73
(lp472
g280
asbag66
(g87
g68
NtRp473
(dp474
g71
(dp475
g98
g99
ssg80
g465
sg73
(lp476
S':'
asbag66
(g87
g68
NtRp477
(dp478
g71
(dp479
sg80
g465
sg73
(lp480
g66
(g67
g68
NtRp481
(dp482
g71
(dp483
g79
I3
ssg80
g477
sg73
(lp484
S''
asbasbasbag66
(g82
g68
NtRp485
(dp486
g71
(dp487
sg80
g461
sg73
(lp488
g66
(g87
g68
NtRp489
(dp490
g71
(dp491
g91
g92
ssg80
g485
sg73
(lp492
g301
asbag66
(g87
g68
NtRp493
(dp494
g71
(dp495
g98
g99
ssg80
g485
sg73
(lp496
S':'
asbag66
(g87
g68
NtRp497
(dp498
g71
(dp499
sg80
g485
sg73
(lp500
g66
(g67
g68
NtRp501
(dp502
g71
(dp503
g79
I3
ssg80
g497
sg73
(lp504
S''
asbasbasbag66
(g82
g68
NtRp505
(dp506
g71
(dp507
sg80
g461
sg73
(lp508
g66
(g87
g68
NtRp509
(dp510
g71
(dp511
g91
g92
ssg80
g505
sg73
(lp512
g322
asbag66
(g87
g68
NtRp513
(dp514
g71
(dp515
g98
g99
ssg80
g505
sg73
(lp516
S':'
asbag66
(g87
g68
NtRp517
(dp518
g71
(dp519
sg80
g505
sg73
(lp520
g66
(g67
g68
NtRp521
(dp522
g71
(dp523
g79
I3
ssg80
g517
sg73
(lp524
S''
asbasbasbag66
(g82
g68
NtRp525
(dp526
g71
(dp527
sg80
g461
sg73
(lp528
g66
(g87
g68
NtRp529
(dp530
g71
(dp531
g91
g92
ssg80
g525
sg73
(lp532
g343
asbag66
(g87
g68
NtRp533
(dp534
g71
(dp535
g98
g99
ssg80
g525
sg73
(lp536
S':'
asbag66
(g87
g68
NtRp537
(dp538
g71
(dp539
sg80
g525
sg73
(lp540
g66
(g67
g68
NtRp541
(dp542
g71
(dp543
g79
I3
ssg80
g537
sg73
(lp544
S''
asbasbasbag66
(g82
g68
NtRp545
(dp546
g71
(dp547
sg80
g461
sg73
(lp548
g66
(g87
g68
NtRp549
(dp550
g71
(dp551
g91
g92
ssg80
g545
sg73
(lp552
g364
asbag66
(g87
g68
NtRp553
(dp554
g71
(dp555
g98
g99
ssg80
g545
sg73
(lp556
S':'
asbag66
(g87
g68
NtRp557
(dp558
g71
(dp559
sg80
g545
sg73
(lp560
g66
(g67
g68
NtRp561
(dp562
g71
(dp563
g79
I3
ssg80
g557
sg73
(lp564
S''
asbasbasbag66
(g82
g68
NtRp565
(dp566
g71
(dp567
sg80
g461
sg73
(lp568
g66
(g87
g68
NtRp569
(dp570
g71
(dp571
g91
g92
ssg80
g565
sg73
(lp572
g385
asbag66
(g87
g68
NtRp573
(dp574
g71
(dp575
g98
g99
ssg80
g565
sg73
(lp576
S':'
asbag66
(g87
g68
NtRp577
(dp578
g71
(dp579
sg80
g565
sg73
(lp580
g66
(g67
g68
NtRp581
(dp582
g71
(dp583
g79
I3
ssg80
g577
sg73
(lp584
S''
asbasbasbag66
(g82
g68
NtRp585
(dp586
g71
(dp587
sg80
g461
sg73
(lp588
g66
(g87
g68
NtRp589
(dp590
g71
(dp591
g91
g92
ssg80
g585
sg73
(lp592
g406
asbag66
(g87
g68
NtRp593
(dp594
g71
(dp595
g98
g99
ssg80
g585
sg73
(lp596
S':'
asbag66
(g87
g68
NtRp597
(dp598
g71
(dp599
sg80
g585
sg73
(lp600
g66
(g67
g68
NtRp601
(dp602
g71
(dp603
g79
I3
ssg80
g597
sg73
(lp604
S''
asbasbasbag66
(g82
g68
NtRp605
(dp606
g71
(dp607
sg80
g461
sg73
(lp608
g66
(g87
g68
NtRp609
(dp610
g71
(dp611
g91
g92
ssg80
g605
sg73
(lp612
g427
asbag66
(g87
g68
NtRp613
(dp614
g71
(dp615
g98
g99
ssg80
g605
sg73
(lp616
S':'
asbag66
(g87
g68
NtRp617
(dp618
g71
(dp619
sg80
g605
sg73
(lp620
g66
(g67
g68
NtRp621
(dp622
g71
(dp623
g79
I3
ssg80
g617
sg73
(lp624
S''
asbasbasbasbasbasbasbag66
(g82
g68
NtRp625
(dp626
g71
(dp627
sg80
g243
sg73
(lp628
g66
(g87
g68
NtRp629
(dp630
g71
(dp631
g91
g92
ssg80
g625
sg73
(lp632
S'session_id_globaleaks'
p633
asbag66
(g87
g68
NtRp634
(dp635
g71
(dp636
g98
g99
ssg80
g625
sg73
(lp637
S':'
asbag66
(g87
g68
NtRp638
(dp639
g71
(dp640
sg80
g625
sg73
(lp641
g66
(g67
g68
NtRp642
(dp643
g71
(dp644
g79
I4
ssg80
g638
sg73
(lp645
g66
(g75
g68
NtRp646
(dp647
g71
(dp648
g79
I3
ssg80
Nsg73
(lp649
g66
(g82
g68
NtRp650
(dp651
g71
(dp652
sg80
g646
sg73
(lp653
g66
(g87
g68
NtRp654
(dp655
g71
(dp656
g91
g92
ssg80
g650
sg73
(lp657
g280
asbag66
(g87
g68
NtRp658
(dp659
g71
(dp660
g98
g99
ssg80
g650
sg73
(lp661
S':'
asbag66
(g87
g68
NtRp662
(dp663
g71
(dp664
sg80
g650
sg73
(lp665
g66
(g67
g68
NtRp666
(dp667
g71
(dp668
g79
I3
ssg80
g662
sg73
(lp669
S''
asbasbasbag66
(g82
g68
NtRp670
(dp671
g71
(dp672
sg80
g646
sg73
(lp673
g66
(g87
g68
NtRp674
(dp675
g71
(dp676
g91
g92
ssg80
g670
sg73
(lp677
g301
asbag66
(g87
g68
NtRp678
(dp679
g71
(dp680
g98
g99
ssg80
g670
sg73
(lp681
S':'
asbag66
(g87
g68
NtRp682
(dp683
g71
(dp684
sg80
g670
sg73
(lp685
g66
(g67
g68
NtRp686
(dp687
g71
(dp688
g79
I3
ssg80
g682
sg73
(lp689
S''
asbasbasbag66
(g82
g68
NtRp690
(dp691
g71
(dp692
sg80
g646
sg73
(lp693
g66
(g87
g68
NtRp694
(dp695
g71
(dp696
g91
g92
ssg80
g690
sg73
(lp697
g322
asbag66
(g87
g68
NtRp698
(dp699
g71
(dp700
g98
g99
ssg80
g690
sg73
(lp701
S':'
asbag66
(g87
g68
NtRp702
(dp703
g71
(dp704
sg80
g690
sg73
(lp705
g66
(g67
g68
NtRp706
(dp707
g71
(dp708
g79
I3
ssg80
g702
sg73
(lp709
S''
asbasbasbag66
(g82
g68
NtRp710
(dp711
g71
(dp712
sg80
g646
sg73
(lp713
g66
(g87
g68
NtRp714
(dp715
g71
(dp716
g91
g92
ssg80
g710
sg73
(lp717
g343
asbag66
(g87
g68
NtRp718
(dp719
g71
(dp720
g98
g99
ssg80
g710
sg73
(lp721
S':'
asbag66
(g87
g68
NtRp722
(dp723
g71
(dp724
sg80
g710
sg73
(lp725
g66
(g67
g68
NtRp726
(dp727
g71
(dp728
g79
I3
ssg80
g722
sg73
(lp729
S''
asbasbasbag66
(g82
g68
NtRp730
(dp731
g71
(dp732
sg80
g646
sg73
(lp733
g66
(g87
g68
NtRp734
(dp735
g71
(dp736
g91
g92
ssg80
g730
sg73
(lp737
g364
asbag66
(g87
g68
NtRp738
(dp739
g71
(dp740
g98
g99
ssg80
g730
sg73
(lp741
S':'
asbag66
(g87
g68
NtRp742
(dp743
g71
(dp744
sg80
g730
sg73
(lp745
g66
(g67
g68
NtRp746
(dp747
g71
(dp748
g79
I3
ssg80
g742
sg73
(lp749
S''
asbasbasbag66
(g82
g68
NtRp750
(dp751
g71
(dp752
sg80
g646
sg73
(lp753
g66
(g87
g68
NtRp754
(dp755
g71
(dp756
g91
g92
ssg80
g750
sg73
(lp757
g385
asbag66
(g87
g68
NtRp758
(dp759
g71
(dp760
g98
g99
ssg80
g750
sg73
(lp761
S':'
asbag66
(g87
g68
NtRp762
(dp763
g71
(dp764
sg80
g750
sg73
(lp765
g66
(g67
g68
NtRp766
(dp767
g71
(dp768
g79
I3
ssg80
g762
sg73
(lp769
S''
asbasbasbag66
(g82
g68
NtRp770
(dp771
g71
(dp772
sg80
g646
sg73
(lp773
g66
(g87
g68
NtRp774
(dp775
g71
(dp776
g91
g92
ssg80
g770
sg73
(lp777
g406
asbag66
(g87
g68
NtRp778
(dp779
g71
(dp780
g98
g99
ssg80
g770
sg73
(lp781
S':'
asbag66
(g87
g68
NtRp782
(dp783
g71
(dp784
sg80
g770
sg73
(lp785
g66
(g67
g68
NtRp786
(dp787
g71
(dp788
g79
I3
ssg80
g782
sg73
(lp789
S''
asbasbasbag66
(g82
g68
NtRp790
(dp791
g71
(dp792
sg80
g646
sg73
(lp793
g66
(g87
g68
NtRp794
(dp795
g71
(dp796
g91
g92
ssg80
g790
sg73
(lp797
g427
asbag66
(g87
g68
NtRp798
(dp799
g71
(dp800
g98
g99
ssg80
g790
sg73
(lp801
S':'
asbag66
(g87
g68
NtRp802
(dp803
g71
(dp804
sg80
g790
sg73
(lp805
g66
(g67
g68
NtRp806
(dp807
g71
(dp808
g79
I3
ssg80
g802
sg73
(lp809
S''
asbasbasbasbasbasbasbag66
(g82
g68
NtRp810
(dp811
g71
(dp812
sg80
g243
sg73
(lp813
g66
(g87
g68
NtRp814
(dp815
g71
(dp816
g91
g92
ssg80
g810
sg73
(lp817
S'session_id_init'
p818
asbag66
(g87
g68
NtRp819
(dp820
g71
(dp821
g98
g99
ssg80
g810
sg73
(lp822
S':'
asbag66
(g87
g68
NtRp823
(dp824
g71
(dp825
sg80
g810
sg73
(lp826
g66
(g67
g68
NtRp827
(dp828
g71
(dp829
g79
I4
ssg80
g823
sg73
(lp830
g66
(g75
g68
NtRp831
(dp832
g71
(dp833
g79
I3
ssg80
Nsg73
(lp834
g66
(g82
g68
NtRp835
(dp836
g71
(dp837
sg80
g831
sg73
(lp838
g66
(g87
g68
NtRp839
(dp840
g71
(dp841
g91
g92
ssg80
g835
sg73
(lp842
g280
asbag66
(g87
g68
NtRp843
(dp844
g71
(dp845
g98
g99
ssg80
g835
sg73
(lp846
S':'
asbag66
(g87
g68
NtRp847
(dp848
g71
(dp849
sg80
g835
sg73
(lp850
g66
(g67
g68
NtRp851
(dp852
g71
(dp853
g79
I3
ssg80
g847
sg73
(lp854
S''
asbasbasbag66
(g82
g68
NtRp855
(dp856
g71
(dp857
sg80
g831
sg73
(lp858
g66
(g87
g68
NtRp859
(dp860
g71
(dp861
g91
g92
ssg80
g855
sg73
(lp862
g301
asbag66
(g87
g68
NtRp863
(dp864
g71
(dp865
g98
g99
ssg80
g855
sg73
(lp866
S':'
asbag66
(g87
g68
NtRp867
(dp868
g71
(dp869
sg80
g855
sg73
(lp870
g66
(g67
g68
NtRp871
(dp872
g71
(dp873
g79
I3
ssg80
g867
sg73
(lp874
S''
asbasbasbag66
(g82
g68
NtRp875
(dp876
g71
(dp877
sg80
g831
sg73
(lp878
g66
(g87
g68
NtRp879
(dp880
g71
(dp881
g91
g92
ssg80
g875
sg73
(lp882
g322
asbag66
(g87
g68
NtRp883
(dp884
g71
(dp885
g98
g99
ssg80
g875
sg73
(lp886
S':'
asbag66
(g87
g68
NtRp887
(dp888
g71
(dp889
sg80
g875
sg73
(lp890
g66
(g67
g68
NtRp891
(dp892
g71
(dp893
g79
I3
ssg80
g887
sg73
(lp894
S''
asbasbasbag66
(g82
g68
NtRp895
(dp896
g71
(dp897
sg80
g831
sg73
(lp898
g66
(g87
g68
NtRp899
(dp900
g71
(dp901
g91
g92
ssg80
g895
sg73
(lp902
g343
asbag66
(g87
g68
NtRp903
(dp904
g71
(dp905
g98
g99
ssg80
g895
sg73
(lp906
S':'
asbag66
(g87
g68
NtRp907
(dp908
g71
(dp909
sg80
g895
sg73
(lp910
g66
(g67
g68
NtRp911
(dp912
g71
(dp913
g79
I3
ssg80
g907
sg73
(lp914
S''
asbasbasbag66
(g82
g68
NtRp915
(dp916
g71
(dp917
sg80
g831
sg73
(lp918
g66
(g87
g68
NtRp919
(dp920
g71
(dp921
g91
g92
ssg80
g915
sg73
(lp922
g364
asbag66
(g87
g68
NtRp923
(dp924
g71
(dp925
g98
g99
ssg80
g915
sg73
(lp926
S':'
asbag66
(g87
g68
NtRp927
(dp928
g71
(dp929
sg80
g915
sg73
(lp930
g66
(g67
g68
NtRp931
(dp932
g71
(dp933
g79
I3
ssg80
g927
sg73
(lp934
S''
asbasbasbag66
(g82
g68
NtRp935
(dp936
g71
(dp937
sg80
g831
sg73
(lp938
g66
(g87
g68
NtRp939
(dp940
g71
(dp941
g91
g92
ssg80
g935
sg73
(lp942
g385
asbag66
(g87
g68
NtRp943
(dp944
g71
(dp945
g98
g99
ssg80
g935
sg73
(lp946
S':'
asbag66
(g87
g68
NtRp947
(dp948
g71
(dp949
sg80
g935
sg73
(lp950
g66
(g67
g68
NtRp951
(dp952
g71
(dp953
g79
I3
ssg80
g947
sg73
(lp954
S''
asbasbasbag66
(g82
g68
NtRp955
(dp956
g71
(dp957
sg80
g831
sg73
(lp958
g66
(g87
g68
NtRp959
(dp960
g71
(dp961
g91
g92
ssg80
g955
sg73
(lp962
g406
asbag66
(g87
g68
NtRp963
(dp964
g71
(dp965
g98
g99
ssg80
g955
sg73
(lp966
S':'
asbag66
(g87
g68
NtRp967
(dp968
g71
(dp969
sg80
g955
sg73
(lp970
g66
(g67
g68
NtRp971
(dp972
g71
(dp973
g79
I3
ssg80
g967
sg73
(lp974
S''
asbasbasbag66
(g82
g68
NtRp975
(dp976
g71
(dp977
sg80
g831
sg73
(lp978
g66
(g87
g68
NtRp979
(dp980
g71
(dp981
g91
g92
ssg80
g975
sg73
(lp982
g427
asbag66
(g87
g68
NtRp983
(dp984
g71
(dp985
g98
g99
ssg80
g975
sg73
(lp986
S':'
asbag66
(g87
g68
NtRp987
(dp988
g71
(dp989
sg80
g975
sg73
(lp990
g66
(g67
g68
NtRp991
(dp992
g71
(dp993
g79
I3
ssg80
g987
sg73
(lp994
S''
asbasbasbasbasbasbasbasbasbasbasbag66
(g82
g68
NtRp995
(dp996
g71
(dp997
sg80
g76
sg73
(lp998
g66
(g87
g68
NtRp999
(dp1000
g71
(dp1001
g91
g92
ssg80
g995
sg73
(lp1002
S'env'
p1003
asbag66
(g87
g68
NtRp1004
(dp1005
g71
(dp1006
g98
g99
ssg80
g995
sg73
(lp1007
S':'
asbag66
(g87
g68
NtRp1008
(dp1009
g71
(dp1010
sg80
g995
sg73
(lp1011
g66
(g67
g68
NtRp1012
(dp1013
g71
(dp1014
g79
I5
ssg80
g1008
sg73
(lp1015
g66
(g75
g68
NtRp1016
(dp1017
g71
(dp1018
g79
I4
ssg80
Nsg73
(lp1019
g66
(g82
g68
NtRp1020
(dp1021
g71
(dp1022
sg80
g1016
sg73
(lp1023
g66
(g87
g68
NtRp1024
(dp1025
g71
(dp1026
g91
g92
ssg80
g1020
sg73
(lp1027
S'app_folders'
p1028
asbag66
(g87
g68
NtRp1029
(dp1030
g71
(dp1031
g98
g99
ssg80
g1020
sg73
(lp1032
S':'
asbag66
(g87
g68
NtRp1033
(dp1034
g71
(dp1035
sg80
g1020
sg73
(lp1036
g66
(g67
g68
NtRp1037
(dp1038
g71
(dp1039
g79
I4
ssg80
g1033
sg73
(lp1040
S"set(['/Users/hellais/Documents/code/mygit/globaleaks/webapp/applications/init/', '/Users/hellais/Documents/code/mygit/globaleaks/webapp/applications/admin/'])"
p1041
asbasbasbag66
(g82
g68
NtRp1042
(dp1043
g71
(dp1044
sg80
g1016
sg73
(lp1045
g66
(g87
g68
NtRp1046
(dp1047
g71
(dp1048
g91
g92
ssg80
g1042
sg73
(lp1049
S'applications_parent'
p1050
asbag66
(g87
g68
NtRp1051
(dp1052
g71
(dp1053
g98
g99
ssg80
g1042
sg73
(lp1054
S':'
asbag66
(g87
g68
NtRp1055
(dp1056
g71
(dp1057
sg80
g1042
sg73
(lp1058
g66
(g67
g68
NtRp1059
(dp1060
g71
(dp1061
g79
I4
ssg80
g1055
sg73
(lp1062
S'/Users/hellais/Documents/code/mygit/globaleaks/webapp'
p1063
asbasbasbag66
(g82
g68
NtRp1064
(dp1065
g71
(dp1066
sg80
g1016
sg73
(lp1067
g66
(g87
g68
NtRp1068
(dp1069
g71
(dp1070
g91
g92
ssg80
g1064
sg73
(lp1071
S'cmd_args'
p1072
asbag66
(g87
g68
NtRp1073
(dp1074
g71
(dp1075
g98
g99
ssg80
g1064
sg73
(lp1076
S':'
asbag66
(g87
g68
NtRp1077
(dp1078
g71
(dp1079
sg80
g1064
sg73
(lp1080
g66
(g67
g68
NtRp1081
(dp1082
g71
(dp1083
g79
I4
ssg80
g1077
sg73
(lp1084
g66
(g75
g68
NtRp1085
(dp1086
g71
(dp1087
g79
I3
ssg80
Nsg73
(lp1088
sbasbasbasbag66
(g82
g68
NtRp1089
(dp1090
g71
(dp1091
sg80
g1016
sg73
(lp1092
g66
(g87
g68
NtRp1093
(dp1094
g71
(dp1095
g91
g92
ssg80
g1089
sg73
(lp1096
S'cmd_options'
p1097
asbag66
(g87
g68
NtRp1098
(dp1099
g71
(dp1100
g98
g99
ssg80
g1089
sg73
(lp1101
S':'
asbag66
(g87
g68
NtRp1102
(dp1103
g71
(dp1104
sg80
g1089
sg73
(lp1105
g66
(g67
g68
NtRp1106
(dp1107
g71
(dp1108
g79
I4
ssg80
g1102
sg73
(lp1109
S"<Values at 0x1015f1320: {'verbose': False, 'ip': '127.0.0.1', 'shutdown_timeout': 5, 'taskbar': False, 'port': 8000, 'maxthreads': None, 'softcron': False, 'server_name': 'Jeanne.local', 'bpython': False, 'nogui': False, 'nocron': False, 'extcron': False, 'debuglevel': 30, 'test': None, 'folder': '/Users/hellais/Documents/code/mygit/globaleaks/webapp', 'config': '', 'import_models': False, 'winservice': '', 'shell': None, 'run': '', 'log_filename': 'httpserver.log', 'args': [''], 'profiler_filename': None, 'ssl_private_key': '', 'password': 'antani', 'request_queue_size': 5, 'ssl_certificate': '', 'cronjob': False, 'plain': False, 'quiet': False, 'interfaces': None, 'minthreads': None, 'timeout': 10, 'numthreads': None, 'nobanner': False, 'pid_filename': 'httpserver.pid'}>"
p1110
asbasbasbag66
(g82
g68
NtRp1111
(dp1112
g71
(dp1113
sg80
g1016
sg73
(lp1114
g66
(g87
g68
NtRp1115
(dp1116
g71
(dp1117
g91
g92
ssg80
g1111
sg73
(lp1118
S'db_sessions'
p1119
asbag66
(g87
g68
NtRp1120
(dp1121
g71
(dp1122
g98
g99
ssg80
g1111
sg73
(lp1123
S':'
asbag66
(g87
g68
NtRp1124
(dp1125
g71
(dp1126
sg80
g1111
sg73
(lp1127
g66
(g67
g68
NtRp1128
(dp1129
g71
(dp1130
g79
I4
ssg80
g1124
sg73
(lp1131
S'set([])'
p1132
asbasbasbag66
(g82
g68
NtRp1133
(dp1134
g71
(dp1135
sg80
g1016
sg73
(lp1136
g66
(g87
g68
NtRp1137
(dp1138
g71
(dp1139
g91
g92
ssg80
g1133
sg73
(lp1140
S'debugging'
p1141
asbag66
(g87
g68
NtRp1142
(dp1143
g71
(dp1144
g98
g99
ssg80
g1133
sg73
(lp1145
S':'
asbag66
(g87
g68
NtRp1146
(dp1147
g71
(dp1148
sg80
g1133
sg73
(lp1149
g66
(g67
g68
NtRp1150
(dp1151
g71
(dp1152
g79
I4
ssg80
g1146
sg73
(lp1153
g109
asbasbasbag66
(g82
g68
NtRp1154
(dp1155
g71
(dp1156
sg80
g1016
sg73
(lp1157
g66
(g87
g68
NtRp1158
(dp1159
g71
(dp1160
g91
g92
ssg80
g1154
sg73
(lp1161
S'gluon_parent'
p1162
asbag66
(g87
g68
NtRp1163
(dp1164
g71
(dp1165
g98
g99
ssg80
g1154
sg73
(lp1166
S':'
asbag66
(g87
g68
NtRp1167
(dp1168
g71
(dp1169
sg80
g1154
sg73
(lp1170
g66
(g67
g68
NtRp1171
(dp1172
g71
(dp1173
g79
I4
ssg80
g1167
sg73
(lp1174
S'/Users/hellais/Documents/code/mygit/globaleaks/webapp'
p1175
asbasbasbag66
(g82
g68
NtRp1176
(dp1177
g71
(dp1178
sg80
g1016
sg73
(lp1179
g66
(g87
g68
NtRp1180
(dp1181
g71
(dp1182
g91
g92
ssg80
g1176
sg73
(lp1183
S'http_accept'
p1184
asbag66
(g87
g68
NtRp1185
(dp1186
g71
(dp1187
g98
g99
ssg80
g1176
sg73
(lp1188
S':'
asbag66
(g87
g68
NtRp1189
(dp1190
g71
(dp1191
sg80
g1176
sg73
(lp1192
g66
(g67
g68
NtRp1193
(dp1194
g71
(dp1195
g79
I4
ssg80
g1189
sg73
(lp1196
S'text/html,application/xhtml+xml,application/xml;q=0.9,*/*;q=0.8'
p1197
asbasbasbag66
(g82
g68
NtRp1198
(dp1199
g71
(dp1200
sg80
g1016
sg73
(lp1201
g66
(g87
g68
NtRp1202
(dp1203
g71
(dp1204
g91
g92
ssg80
g1198
sg73
(lp1205
S'http_accept_charset'
p1206
asbag66
(g87
g68
NtRp1207
(dp1208
g71
(dp1209
g98
g99
ssg80
g1198
sg73
(lp1210
S':'
asbag66
(g87
g68
NtRp1211
(dp1212
g71
(dp1213
sg80
g1198
sg73
(lp1214
g66
(g67
g68
NtRp1215
(dp1216
g71
(dp1217
g79
I4
ssg80
g1211
sg73
(lp1218
S'ISO-8859-1,utf-8;q=0.7,*;q=0.7'
p1219
asbasbasbag66
(g82
g68
NtRp1220
(dp1221
g71
(dp1222
sg80
g1016
sg73
(lp1223
g66
(g87
g68
NtRp1224
(dp1225
g71
(dp1226
g91
g92
ssg80
g1220
sg73
(lp1227
S'http_accept_encoding'
p1228
asbag66
(g87
g68
NtRp1229
(dp1230
g71
(dp1231
g98
g99
ssg80
g1220
sg73
(lp1232
S':'
asbag66
(g87
g68
NtRp1233
(dp1234
g71
(dp1235
sg80
g1220
sg73
(lp1236
g66
(g67
g68
NtRp1237
(dp1238
g71
(dp1239
g79
I4
ssg80
g1233
sg73
(lp1240
S'gzip, deflate'
p1241
asbasbasbag66
(g82
g68
NtRp1242
(dp1243
g71
(dp1244
sg80
g1016
sg73
(lp1245
g66
(g87
g68
NtRp1246
(dp1247
g71
(dp1248
g91
g92
ssg80
g1242
sg73
(lp1249
S'http_accept_language'
p1250
asbag66
(g87
g68
NtRp1251
(dp1252
g71
(dp1253
g98
g99
ssg80
g1242
sg73
(lp1254
S':'
asbag66
(g87
g68
NtRp1255
(dp1256
g71
(dp1257
sg80
g1242
sg73
(lp1258
g66
(g67
g68
NtRp1259
(dp1260
g71
(dp1261
g79
I4
ssg80
g1255
sg73
(lp1262
S'en-us,en;q=0.5'
p1263
asbasbasbag66
(g82
g68
NtRp1264
(dp1265
g71
(dp1266
sg80
g1016
sg73
(lp1267
g66
(g87
g68
NtRp1268
(dp1269
g71
(dp1270
g91
g92
ssg80
g1264
sg73
(lp1271
S'http_cache_control'
p1272
asbag66
(g87
g68
NtRp1273
(dp1274
g71
(dp1275
g98
g99
ssg80
g1264
sg73
(lp1276
S':'
asbag66
(g87
g68
NtRp1277
(dp1278
g71
(dp1279
sg80
g1264
sg73
(lp1280
g66
(g67
g68
NtRp1281
(dp1282
g71
(dp1283
g79
I4
ssg80
g1277
sg73
(lp1284
S'max-age=0'
p1285
asbasbasbag66
(g82
g68
NtRp1286
(dp1287
g71
(dp1288
sg80
g1016
sg73
(lp1289
g66
(g87
g68
NtRp1290
(dp1291
g71
(dp1292
g91
g92
ssg80
g1286
sg73
(lp1293
S'http_connection'
p1294
asbag66
(g87
g68
NtRp1295
(dp1296
g71
(dp1297
g98
g99
ssg80
g1286
sg73
(lp1298
S':'
asbag66
(g87
g68
NtRp1299
(dp1300
g71
(dp1301
sg80
g1286
sg73
(lp1302
g66
(g67
g68
NtRp1303
(dp1304
g71
(dp1305
g79
I4
ssg80
g1299
sg73
(lp1306
S'keep-alive'
p1307
asbasbasbag66
(g82
g68
NtRp1308
(dp1309
g71
(dp1310
sg80
g1016
sg73
(lp1311
g66
(g87
g68
NtRp1312
(dp1313
g71
(dp1314
g91
g92
ssg80
g1308
sg73
(lp1315
S'http_cookie'
p1316
asbag66
(g87
g68
NtRp1317
(dp1318
g71
(dp1319
g98
g99
ssg80
g1308
sg73
(lp1320
S':'
asbag66
(g87
g68
NtRp1321
(dp1322
g71
(dp1323
sg80
g1308
sg73
(lp1324
g66
(g67
g68
NtRp1325
(dp1326
g71
(dp1327
g79
I4
ssg80
g1321
sg73
(lp1328
S'session_id_admin=127.0.0.1-67122ce4-50b2-4acf-b28e-7a14feeff4d9; session_id_globaleaks=127.0.0.1-c6d5b9b3-1ec7-41c1-8d72-04c21b7a6b11; session_id_blabla=127.0.0.1-c445384e-a3ea-4484-8fe2-52f3295bbb7c; session_id_init=127.0.0.1-a8551263-bc3c-430c-abb2-8711fac671c1'
p1329
asbasbasbag66
(g82
g68
NtRp1330
(dp1331
g71
(dp1332
sg80
g1016
sg73
(lp1333
g66
(g87
g68
NtRp1334
(dp1335
g71
(dp1336
g91
g92
ssg80
g1330
sg73
(lp1337
S'http_host'
p1338
asbag66
(g87
g68
NtRp1339
(dp1340
g71
(dp1341
g98
g99
ssg80
g1330
sg73
(lp1342
S':'
asbag66
(g87
g68
NtRp1343
(dp1344
g71
(dp1345
sg80
g1330
sg73
(lp1346
g66
(g67
g68
NtRp1347
(dp1348
g71
(dp1349
g79
I4
ssg80
g1343
sg73
(lp1350
S'127.0.0.1:8000'
p1351
asbasbasbag66
(g82
g68
NtRp1352
(dp1353
g71
(dp1354
sg80
g1016
sg73
(lp1355
g66
(g87
g68
NtRp1356
(dp1357
g71
(dp1358
g91
g92
ssg80
g1352
sg73
(lp1359
S'http_referer'
p1360
asbag66
(g87
g68
NtRp1361
(dp1362
g71
(dp1363
g98
g99
ssg80
g1352
sg73
(lp1364
S':'
asbag66
(g87
g68
NtRp1365
(dp1366
g71
(dp1367
sg80
g1352
sg73
(lp1368
g66
(g67
g68
NtRp1369
(dp1370
g71
(dp1371
g79
I4
ssg80
g1365
sg73
(lp1372
S'http://127.0.0.1:8000/'
p1373
asbasbasbag66
(g82
g68
NtRp1374
(dp1375
g71
(dp1376
sg80
g1016
sg73
(lp1377
g66
(g87
g68
NtRp1378
(dp1379
g71
(dp1380
g91
g92
ssg80
g1374
sg73
(lp1381
S'http_user_agent'
p1382
asbag66
(g87
g68
NtRp1383
(dp1384
g71
(dp1385
g98
g99
ssg80
g1374
sg73
(lp1386
S':'
asbag66
(g87
g68
NtRp1387
(dp1388
g71
(dp1389
sg80
g1374
sg73
(lp1390
g66
(g67
g68
NtRp1391
(dp1392
g71
(dp1393
g79
I4
ssg80
g1387
sg73
(lp1394
S'Mozilla/5.0 (Macintosh; Intel Mac OS X 10.6; rv:5.0.1) Gecko/20100101 Firefox/5.0.1'
p1395
asbasbasbag66
(g82
g68
NtRp1396
(dp1397
g71
(dp1398
sg80
g1016
sg73
(lp1399
g66
(g87
g68
NtRp1400
(dp1401
g71
(dp1402
g91
g92
ssg80
g1396
sg73
(lp1403
S'is_jython'
p1404
asbag66
(g87
g68
NtRp1405
(dp1406
g71
(dp1407
g98
g99
ssg80
g1396
sg73
(lp1408
S':'
asbag66
(g87
g68
NtRp1409
(dp1410
g71
(dp1411
sg80
g1396
sg73
(lp1412
g66
(g67
g68
NtRp1413
(dp1414
g71
(dp1415
g79
I4
ssg80
g1409
sg73
(lp1416
g109
asbasbasbag66
(g82
g68
NtRp1417
(dp1418
g71
(dp1419
sg80
g1016
sg73
(lp1420
g66
(g87
g68
NtRp1421
(dp1422
g71
(dp1423
g91
g92
ssg80
g1417
sg73
(lp1424
S'path_info'
p1425
asbag66
(g87
g68
NtRp1426
(dp1427
g71
(dp1428
g98
g99
ssg80
g1417
sg73
(lp1429
S':'
asbag66
(g87
g68
NtRp1430
(dp1431
g71
(dp1432
sg80
g1417
sg73
(lp1433
g66
(g67
g68
NtRp1434
(dp1435
g71
(dp1436
g79
I4
ssg80
g1430
sg73
(lp1437
S'/init/default/submission'
p1438
asbasbasbag66
(g82
g68
NtRp1439
(dp1440
g71
(dp1441
sg80
g1016
sg73
(lp1442
g66
(g87
g68
NtRp1443
(dp1444
g71
(dp1445
g91
g92
ssg80
g1439
sg73
(lp1446
S'query_string'
p1447
asbag66
(g87
g68
NtRp1448
(dp1449
g71
(dp1450
g98
g99
ssg80
g1439
sg73
(lp1451
S':'
asbag66
(g87
g68
NtRp1452
(dp1453
g71
(dp1454
sg80
g1439
sg73
(lp1455
g66
(g67
g68
NtRp1456
(dp1457
g71
(dp1458
g79
I4
ssg80
g1452
sg73
(lp1459
S''
asbasbasbag66
(g82
g68
NtRp1460
(dp1461
g71
(dp1462
sg80
g1016
sg73
(lp1463
g66
(g87
g68
NtRp1464
(dp1465
g71
(dp1466
g91
g92
ssg80
g1460
sg73
(lp1467
S'remote_addr'
p1468
asbag66
(g87
g68
NtRp1469
(dp1470
g71
(dp1471
g98
g99
ssg80
g1460
sg73
(lp1472
S':'
asbag66
(g87
g68
NtRp1473
(dp1474
g71
(dp1475
sg80
g1460
sg73
(lp1476
g66
(g67
g68
NtRp1477
(dp1478
g71
(dp1479
g79
I4
ssg80
g1473
sg73
(lp1480
g199
asbasbasbag66
(g82
g68
NtRp1481
(dp1482
g71
(dp1483
sg80
g1016
sg73
(lp1484
g66
(g87
g68
NtRp1485
(dp1486
g71
(dp1487
g91
g92
ssg80
g1481
sg73
(lp1488
S'remote_port'
p1489
asbag66
(g87
g68
NtRp1490
(dp1491
g71
(dp1492
g98
g99
ssg80
g1481
sg73
(lp1493
S':'
asbag66
(g87
g68
NtRp1494
(dp1495
g71
(dp1496
sg80
g1481
sg73
(lp1497
g66
(g67
g68
NtRp1498
(dp1499
g71
(dp1500
g79
I4
ssg80
g1494
sg73
(lp1501
S'54796'
p1502
asbasbasbag66
(g82
g68
NtRp1503
(dp1504
g71
(dp1505
sg80
g1016
sg73
(lp1506
g66
(g87
g68
NtRp1507
(dp1508
g71
(dp1509
g91
g92
ssg80
g1503
sg73
(lp1510
S'request_method'
p1511
asbag66
(g87
g68
NtRp1512
(dp1513
g71
(dp1514
g98
g99
ssg80
g1503
sg73
(lp1515
S':'
asbag66
(g87
g68
NtRp1516
(dp1517
g71
(dp1518
sg80
g1503
sg73
(lp1519
g66
(g67
g68
NtRp1520
(dp1521
g71
(dp1522
g79
I4
ssg80
g1516
sg73
(lp1523
S'GET'
p1524
asbasbasbag66
(g82
g68
NtRp1525
(dp1526
g71
(dp1527
sg80
g1016
sg73
(lp1528
g66
(g87
g68
NtRp1529
(dp1530
g71
(dp1531
g91
g92
ssg80
g1525
sg73
(lp1532
S'script_name'
p1533
asbag66
(g87
g68
NtRp1534
(dp1535
g71
(dp1536
g98
g99
ssg80
g1525
sg73
(lp1537
S':'
asbag66
(g87
g68
NtRp1538
(dp1539
g71
(dp1540
sg80
g1525
sg73
(lp1541
g66
(g67
g68
NtRp1542
(dp1543
g71
(dp1544
g79
I4
ssg80
g1538
sg73
(lp1545
S''
asbasbasbag66
(g82
g68
NtRp1546
(dp1547
g71
(dp1548
sg80
g1016
sg73
(lp1549
g66
(g87
g68
NtRp1550
(dp1551
g71
(dp1552
g91
g92
ssg80
g1546
sg73
(lp1553
S'server_name'
p1554
asbag66
(g87
g68
NtRp1555
(dp1556
g71
(dp1557
g98
g99
ssg80
g1546
sg73
(lp1558
S':'
asbag66
(g87
g68
NtRp1559
(dp1560
g71
(dp1561
sg80
g1546
sg73
(lp1562
g66
(g67
g68
NtRp1563
(dp1564
g71
(dp1565
g79
I4
ssg80
g1559
sg73
(lp1566
S'Jeanne.local'
p1567
asbasbasbag66
(g82
g68
NtRp1568
(dp1569
g71
(dp1570
sg80
g1016
sg73
(lp1571
g66
(g87
g68
NtRp1572
(dp1573
g71
(dp1574
g91
g92
ssg80
g1568
sg73
(lp1575
S'server_port'
p1576
asbag66
(g87
g68
NtRp1577
(dp1578
g71
(dp1579
g98
g99
ssg80
g1568
sg73
(lp1580
S':'
asbag66
(g87
g68
NtRp1581
(dp1582
g71
(dp1583
sg80
g1568
sg73
(lp1584
g66
(g67
g68
NtRp1585
(dp1586
g71
(dp1587
g79
I4
ssg80
g1581
sg73
(lp1588
S'8000'
p1589
asbasbasbag66
(g82
g68
NtRp1590
(dp1591
g71
(dp1592
sg80
g1016
sg73
(lp1593
g66
(g87
g68
NtRp1594
(dp1595
g71
(dp1596
g91
g92
ssg80
g1590
sg73
(lp1597
S'server_protocol'
p1598
asbag66
(g87
g68
NtRp1599
(dp1600
g71
(dp1601
g98
g99
ssg80
g1590
sg73
(lp1602
S':'
asbag66
(g87
g68
NtRp1603
(dp1604
g71
(dp1605
sg80
g1590
sg73
(lp1606
g66
(g67
g68
NtRp1607
(dp1608
g71
(dp1609
g79
I4
ssg80
g1603
sg73
(lp1610
S'HTTP/1.1'
p1611
asbasbasbag66
(g82
g68
NtRp1612
(dp1613
g71
(dp1614
sg80
g1016
sg73
(lp1615
g66
(g87
g68
NtRp1616
(dp1617
g71
(dp1618
g91
g92
ssg80
g1612
sg73
(lp1619
S'server_software'
p1620
asbag66
(g87
g68
NtRp1621
(dp1622
g71
(dp1623
g98
g99
ssg80
g1612
sg73
(lp1624
S':'
asbag66
(g87
g68
NtRp1625
(dp1626
g71
(dp1627
sg80
g1612
sg73
(lp1628
g66
(g67
g68
NtRp1629
(dp1630
g71
(dp1631
g79
I4
ssg80
g1625
sg73
(lp1632
S'Rocket 1.2.2'
p1633
asbasbasbag66
(g82
g68
NtRp1634
(dp1635
g71
(dp1636
sg80
g1016
sg73
(lp1637
g66
(g87
g68
NtRp1638
(dp1639
g71
(dp1640
g91
g92
ssg80
g1634
sg73
(lp1641
S'web2py_crontype'
p1642
asbag66
(g87
g68
NtRp1643
(dp1644
g71
(dp1645
g98
g99
ssg80
g1634
sg73
(lp1646
S':'
asbag66
(g87
g68
NtRp1647
(dp1648
g71
(dp1649
sg80
g1634
sg73
(lp1650
g66
(g67
g68
NtRp1651
(dp1652
g71
(dp1653
g79
I4
ssg80
g1647
sg73
(lp1654
S'hard'
p1655
asbasbasbag66
(g82
g68
NtRp1656
(dp1657
g71
(dp1658
sg80
g1016
sg73
(lp1659
g66
(g87
g68
NtRp1660
(dp1661
g71
(dp1662
g91
g92
ssg80
g1656
sg73
(lp1663
S'web2py_path'
p1664
asbag66
(g87
g68
NtRp1665
(dp1666
g71
(dp1667
g98
g99
ssg80
g1656
sg73
(lp1668
S':'
asbag66
(g87
g68
NtRp1669
(dp1670
g71
(dp1671
sg80
g1656
sg73
(lp1672
g66
(g67
g68
NtRp1673
(dp1674
g71
(dp1675
g79
I4
ssg80
g1669
sg73
(lp1676
g1063
asbasbasbag66
(g82
g68
NtRp1677
(dp1678
g71
(dp1679
sg80
g1016
sg73
(lp1680
g66
(g87
g68
NtRp1681
(dp1682
g71
(dp1683
g91
g92
ssg80
g1677
sg73
(lp1684
S'web2py_version'
p1685
asbag66
(g87
g68
NtRp1686
(dp1687
g71
(dp1688
g98
g99
ssg80
g1677
sg73
(lp1689
S':'
asbag66
(g87
g68
NtRp1690
(dp1691
g71
(dp1692
sg80
g1677
sg73
(lp1693
g66
(g67
g68
NtRp1694
(dp1695
g71
(dp1696
g79
I4
ssg80
g1690
sg73
(lp1697
S'Version 1.98.2 (2011-08-04 00:47:09)\n'
p1698
asbasbasbag66
(g82
g68
NtRp1699
(dp1700
g71
(dp1701
sg80
g1016
sg73
(lp1702
g66
(g87
g68
NtRp1703
(dp1704
g71
(dp1705
g91
g92
ssg80
g1699
sg73
(lp1706
S'wsgi_errors'
p1707
asbag66
(g87
g68
NtRp1708
(dp1709
g71
(dp1710
g98
g99
ssg80
g1699
sg73
(lp1711
S':'
asbag66
(g87
g68
NtRp1712
(dp1713
g71
(dp1714
sg80
g1699
sg73
(lp1715
g66
(g67
g68
NtRp1716
(dp1717
g71
(dp1718
g79
I4
ssg80
g1712
sg73
(lp1719
S"<open file '<stderr>', mode 'w' at 0x100287270>"
p1720
asbasbasbag66
(g82
g68
NtRp1721
(dp1722
g71
(dp1723
sg80
g1016
sg73
(lp1724
g66
(g87
g68
NtRp1725
(dp1726
g71
(dp1727
g91
g92
ssg80
g1721
sg73
(lp1728
S'wsgi_file_wrapper'
p1729
asbag66
(g87
g68
NtRp1730
(dp1731
g71
(dp1732
g98
g99
ssg80
g1721
sg73
(lp1733
S':'
asbag66
(g87
g68
NtRp1734
(dp1735
g71
(dp1736
sg80
g1721
sg73
(lp1737
g66
(g67
g68
NtRp1738
(dp1739
g71
(dp1740
g79
I4
ssg80
g1734
sg73
(lp1741
S'<class gluon.rocket.FileWrapper at 0x101668e20>'
p1742
asbasbasbag66
(g82
g68
NtRp1743
(dp1744
g71
(dp1745
sg80
g1016
sg73
(lp1746
g66
(g87
g68
NtRp1747
(dp1748
g71
(dp1749
g91
g92
ssg80
g1743
sg73
(lp1750
S'wsgi_input'
p1751
asbag66
(g87
g68
NtRp1752
(dp1753
g71
(dp1754
g98
g99
ssg80
g1743
sg73
(lp1755
S':'
asbag66
(g87
g68
NtRp1756
(dp1757
g71
(dp1758
sg80
g1743
sg73
(lp1759
g66
(g67
g68
NtRp1760
(dp1761
g71
(dp1762
g79
I4
ssg80
g1756
sg73
(lp1763
S'<socket._fileobject object at 0x1021e26d0>'
p1764
asbasbasbag66
(g82
g68
NtRp1765
(dp1766
g71
(dp1767
sg80
g1016
sg73
(lp1768
g66
(g87
g68
NtRp1769
(dp1770
g71
(dp1771
g91
g92
ssg80
g1765
sg73
(lp1772
S'wsgi_multiprocess'
p1773
asbag66
(g87
g68
NtRp1774
(dp1775
g71
(dp1776
g98
g99
ssg80
g1765
sg73
(lp1777
S':'
asbag66
(g87
g68
NtRp1778
(dp1779
g71
(dp1780
sg80
g1765
sg73
(lp1781
g66
(g67
g68
NtRp1782
(dp1783
g71
(dp1784
g79
I4
ssg80
g1778
sg73
(lp1785
g109
asbasbasbag66
(g82
g68
NtRp1786
(dp1787
g71
(dp1788
sg80
g1016
sg73
(lp1789
g66
(g87
g68
NtRp1790
(dp1791
g71
(dp1792
g91
g92
ssg80
g1786
sg73
(lp1793
S'wsgi_multithread'
p1794
asbag66
(g87
g68
NtRp1795
(dp1796
g71
(dp1797
g98
g99
ssg80
g1786
sg73
(lp1798
S':'
asbag66
(g87
g68
NtRp1799
(dp1800
g71
(dp1801
sg80
g1786
sg73
(lp1802
g66
(g67
g68
NtRp1803
(dp1804
g71
(dp1805
g79
I4
ssg80
g1799
sg73
(lp1806
S'True'
p1807
asbasbasbag66
(g82
g68
NtRp1808
(dp1809
g71
(dp1810
sg80
g1016
sg73
(lp1811
g66
(g87
g68
NtRp1812
(dp1813
g71
(dp1814
g91
g92
ssg80
g1808
sg73
(lp1815
S'wsgi_run_once'
p1816
asbag66
(g87
g68
NtRp1817
(dp1818
g71
(dp1819
g98
g99
ssg80
g1808
sg73
(lp1820
S':'
asbag66
(g87
g68
NtRp1821
(dp1822
g71
(dp1823
sg80
g1808
sg73
(lp1824
g66
(g67
g68
NtRp1825
(dp1826
g71
(dp1827
g79
I4
ssg80
g1821
sg73
(lp1828
g109
asbasbasbag66
(g82
g68
NtRp1829
(dp1830
g71
(dp1831
sg80
g1016
sg73
(lp1832
g66
(g87
g68
NtRp1833
(dp1834
g71
(dp1835
g91
g92
ssg80
g1829
sg73
(lp1836
S'wsgi_url_scheme'
p1837
asbag66
(g87
g68
NtRp1838
(dp1839
g71
(dp1840
g98
g99
ssg80
g1829
sg73
(lp1841
S':'
asbag66
(g87
g68
NtRp1842
(dp1843
g71
(dp1844
sg80
g1829
sg73
(lp1845
g66
(g67
g68
NtRp1846
(dp1847
g71
(dp1848
g79
I4
ssg80
g1842
sg73
(lp1849
S'http'
p1850
asbasbasbag66
(g82
g68
NtRp1851
(dp1852
g71
(dp1853
sg80
g1016
sg73
(lp1854
g66
(g87
g68
NtRp1855
(dp1856
g71
(dp1857
g91
g92
ssg80
g1851
sg73
(lp1858
S'wsgi_version'
p1859
asbag66
(g87
g68
NtRp1860
(dp1861
g71
(dp1862
g98
g99
ssg80
g1851
sg73
(lp1863
S':'
asbag66
(g87
g68
NtRp1864
(dp1865
g71
(dp1866
sg80
g1851
sg73
(lp1867
g66
(g67
g68
NtRp1868
(dp1869
g71
(dp1870
g79
I4
ssg80
g1864
sg73
(lp1871
g66
(g75
g68
NtRp1872
(dp1873
g71
(dp1874
g79
I3
ssg80
Nsg73
(lp1875
g66
(g82
g68
NtRp1876
(dp1877
g71
(dp1878
sg80
g1872
sg73
(lp1879
g66
(g87
g68
NtRp1880
(dp1881
g71
(dp1882
sg80
g1876
sg73
(lp1883
g66
(g67
g68
NtRp1884
(dp1885
g71
(dp1886
g79
I3
ssg80
g1880
sg73
(lp1887
S'1'
asbasbasbag66
(g82
g68
NtRp1888
(dp1889
g71
(dp1890
sg80
g1872
sg73
(lp1891
g66
(g87
g68
NtRp1892
(dp1893
g71
(dp1894
sg80
g1888
sg73
(lp1895
g66
(g67
g68
NtRp1896
(dp1897
g71
(dp1898
g79
I3
ssg80
g1892
sg73
(lp1899
S'0'
asbasbasbasbasbasbasbasbasbasbasbag66
(g82
g68
NtRp1900
(dp1901
g71
(dp1902
sg80
g76
sg73
(lp1903
g66
(g87
g68
NtRp1904
(dp1905
g71
(dp1906
g91
g92
ssg80
g1900
sg73
(lp1907
S'extension'
p1908
asbag66
(g87
g68
NtRp1909
(dp1910
g71
(dp1911
g98
g99
ssg80
g1900
sg73
(lp1912
S':'
asbag66
(g87
g68
NtRp1913
(dp1914
g71
(dp1915
sg80
g1900
sg73
(lp1916
g66
(g67
g68
NtRp1917
(dp1918
g71
(dp1919
g79
I5
ssg80
g1913
sg73
(lp1920
S'html'
p1921
asbasbasbag66
(g82
g68
NtRp1922
(dp1923
g71
(dp1924
sg80
g76
sg73
(lp1925
g66
(g87
g68
NtRp1926
(dp1927
g71
(dp1928
g91
g92
ssg80
g1922
sg73
(lp1929
S'folder'
p1930
asbag66
(g87
g68
NtRp1931
(dp1932
g71
(dp1933
g98
g99
ssg80
g1922
sg73
(lp1934
S':'
asbag66
(g87
g68
NtRp1935
(dp1936
g71
(dp1937
sg80
g1922
sg73
(lp1938
g66
(g67
g68
NtRp1939
(dp1940
g71
(dp1941
g79
I5
ssg80
g1935
sg73
(lp1942
S'/Users/hellais/Documents/code/mygit/globaleaks/webapp/applications/init/'
p1943
asbasbasbag66
(g82
g68
NtRp1944
(dp1945
g71
(dp1946
sg80
g76
sg73
(lp1947
g66
(g87
g68
NtRp1948
(dp1949
g71
(dp1950
g91
g92
ssg80
g1944
sg73
(lp1951
S'function'
p1952
asbag66
(g87
g68
NtRp1953
(dp1954
g71
(dp1955
g98
g99
ssg80
g1944
sg73
(lp1956
S':'
asbag66
(g87
g68
NtRp1957
(dp1958
g71
(dp1959
sg80
g1944
sg73
(lp1960
g66
(g67
g68
NtRp1961
(dp1962
g71
(dp1963
g79
I5
ssg80
g1957
sg73
(lp1964
S'submission'
p1965
asbasbasbag66
(g82
g68
NtRp1966
(dp1967
g71
(dp1968
sg80
g76
sg73
(lp1969
g66
(g87
g68
NtRp1970
(dp1971
g71
(dp1972
g91
g92
ssg80
g1966
sg73
(lp1973
S'get_vars'
p1974
asbag66
(g87
g68
NtRp1975
(dp1976
g71
(dp1977
g98
g99
ssg80
g1966
sg73
(lp1978
S':'
asbag66
(g87
g68
NtRp1979
(dp1980
g71
(dp1981
sg80
g1966
sg73
(lp1982
g66
(g67
g68
NtRp1983
(dp1984
g71
(dp1985
g79
I5
ssg80
g1979
sg73
(lp1986
g66
(g75
g68
NtRp1987
(dp1988
g71
(dp1989
g79
I4
ssg80
Nsg73
(lp1990
sbasbasbasbag66
(g82
g68
NtRp1991
(dp1992
g71
(dp1993
sg80
g76
sg73
(lp1994
g66
(g87
g68
NtRp1995
(dp1996
g71
(dp1997
g91
g92
ssg80
g1991
sg73
(lp1998
S'is_https'
p1999
asbag66
(g87
g68
NtRp2000
(dp2001
g71
(dp2002
g98
g99
ssg80
g1991
sg73
(lp2003
S':'
asbag66
(g87
g68
NtRp2004
(dp2005
g71
(dp2006
sg80
g1991
sg73
(lp2007
g66
(g67
g68
NtRp2008
(dp2009
g71
(dp2010
g79
I5
ssg80
g2004
sg73
(lp2011
g109
asbasbasbag66
(g82
g68
NtRp2012
(dp2013
g71
(dp2014
sg80
g76
sg73
(lp2015
g66
(g87
g68
NtRp2016
(dp2017
g71
(dp2018
g91
g92
ssg80
g2012
sg73
(lp2019
S'is_local'
p2020
asbag66
(g87
g68
NtRp2021
(dp2022
g71
(dp2023
g98
g99
ssg80
g2012
sg73
(lp2024
S':'
asbag66
(g87
g68
NtRp2025
(dp2026
g71
(dp2027
sg80
g2012
sg73
(lp2028
g66
(g67
g68
NtRp2029
(dp2030
g71
(dp2031
g79
I5
ssg80
g2025
sg73
(lp2032
g1807
asbasbasbag66
(g82
g68
NtRp2033
(dp2034
g71
(dp2035
sg80
g76
sg73
(lp2036
g66
(g87
g68
NtRp2037
(dp2038
g71
(dp2039
g91
g92
ssg80
g2033
sg73
(lp2040
S'is_restful'
p2041
asbag66
(g87
g68
NtRp2042
(dp2043
g71
(dp2044
g98
g99
ssg80
g2033
sg73
(lp2045
S':'
asbag66
(g87
g68
NtRp2046
(dp2047
g71
(dp2048
sg80
g2033
sg73
(lp2049
g66
(g67
g68
NtRp2050
(dp2051
g71
(dp2052
g79
I5
ssg80
g2046
sg73
(lp2053
g109
asbasbasbag66
(g82
g68
NtRp2054
(dp2055
g71
(dp2056
sg80
g76
sg73
(lp2057
g66
(g87
g68
NtRp2058
(dp2059
g71
(dp2060
g91
g92
ssg80
g2054
sg73
(lp2061
S'now'
p2062
asbag66
(g87
g68
NtRp2063
(dp2064
g71
(dp2065
g98
g99
ssg80
g2054
sg73
(lp2066
S':'
asbag66
(g87
g68
NtRp2067
(dp2068
g71
(dp2069
sg80
g2054
sg73
(lp2070
g66
(g67
g68
NtRp2071
(dp2072
g71
(dp2073
g79
I5
ssg80
g2067
sg73
(lp2074
S'datetime.datetime(2011, 8, 27, 23, 53, 3, 193495)'
p2075
asbasbasbag66
(g82
g68
NtRp2076
(dp2077
g71
(dp2078
sg80
g76
sg73
(lp2079
g66
(g87
g68
NtRp2080
(dp2081
g71
(dp2082
g91
g92
ssg80
g2076
sg73
(lp2083
S'post_vars'
p2084
asbag66
(g87
g68
NtRp2085
(dp2086
g71
(dp2087
g98
g99
ssg80
g2076
sg73
(lp2088
S':'
asbag66
(g87
g68
NtRp2089
(dp2090
g71
(dp2091
sg80
g2076
sg73
(lp2092
g66
(g67
g68
NtRp2093
(dp2094
g71
(dp2095
g79
I5
ssg80
g2089
sg73
(lp2096
g66
(g75
g68
NtRp2097
(dp2098
g71
(dp2099
g79
I4
ssg80
Nsg73
(lp2100
sbasbasbasbag66
(g82
g68
NtRp2101
(dp2102
g71
(dp2103
sg80
g76
sg73
(lp2104
g66
(g87
g68
NtRp2105
(dp2106
g71
(dp2107
g91
g92
ssg80
g2101
sg73
(lp2108
S'url'
p2109
asbag66
(g87
g68
NtRp2110
(dp2111
g71
(dp2112
g98
g99
ssg80
g2101
sg73
(lp2113
S':'
asbag66
(g87
g68
NtRp2114
(dp2115
g71
(dp2116
sg80
g2101
sg73
(lp2117
g66
(g67
g68
NtRp2118
(dp2119
g71
(dp2120
g79
I5
ssg80
g2114
sg73
(lp2121
S'/init/default/submission'
p2122
asbasbasbag66
(g82
g68
NtRp2123
(dp2124
g71
(dp2125
sg80
g76
sg73
(lp2126
g66
(g87
g68
NtRp2127
(dp2128
g71
(dp2129
g91
g92
ssg80
g2123
sg73
(lp2130
S'uuid'
p2131
asbag66
(g87
g68
NtRp2132
(dp2133
g71
(dp2134
g98
g99
ssg80
g2123
sg73
(lp2135
S':'
asbag66
(g87
g68
NtRp2136
(dp2137
g71
(dp2138
sg80
g2123
sg73
(lp2139
g66
(g67
g68
NtRp2140
(dp2141
g71
(dp2142
g79
I5
ssg80
g2136
sg73
(lp2143
S'init/127.0.0.1.2011-08-27.23-53-03.dfb1b581-d287-4ae1-8b9a-2d6097679896'
p2144
asbasbasbag66
(g82
g68
NtRp2145
(dp2146
g71
(dp2147
sg80
g76
sg73
(lp2148
g66
(g87
g68
NtRp2149
(dp2150
g71
(dp2151
g91
g92
ssg80
g2145
sg73
(lp2152
S'vars'
p2153
asbag66
(g87
g68
NtRp2154
(dp2155
g71
(dp2156
g98
g99
ssg80
g2145
sg73
(lp2157
S':'
asbag66
(g87
g68
NtRp2158
(dp2159
g71
(dp2160
sg80
g2145
sg73
(lp2161
g66
(g67
g68
NtRp2162
(dp2163
g71
(dp2164
g79
I5
ssg80
g2158
sg73
(lp2165
g66
(g75
g68
NtRp2166
(dp2167
g71
(dp2168
g79
I4
ssg80
Nsg73
(lp2169
sbasbasbasbag66
(g82
g68
NtRp2170
(dp2171
g71
(dp2172
sg80
g76
sg73
(lp2173
g66
(g87
g68
NtRp2174
(dp2175
g71
(dp2176
g91
g92
ssg80
g2170
sg73
(lp2177
S'wsgi'
p2178
asbag66
(g87
g68
NtRp2179
(dp2180
g71
(dp2181
g98
g99
ssg80
g2170
sg73
(lp2182
S':'
asbag66
(g87
g68
NtRp2183
(dp2184
g71
(dp2185
sg80
g2170
sg73
(lp2186
g66
(g67
g68
NtRp2187
(dp2188
g71
(dp2189
g79
I5
ssg80
g2183
sg73
(lp2190
g66
(g75
g68
NtRp2191
(dp2192
g71
(dp2193
g79
I4
ssg80
Nsg73
(lp2194
g66
(g82
g68
NtRp2195
(dp2196
g71
(dp2197
sg80
g2191
sg73
(lp2198
g66
(g87
g68
NtRp2199
(dp2200
g71
(dp2201
g91
g92
ssg80
g2195
sg73
(lp2202
S'environ'
p2203
asbag66
(g87
g68
NtRp2204
(dp2205
g71
(dp2206
g98
g99
ssg80
g2195
sg73
(lp2207
S':'
asbag66
(g87
g68
NtRp2208
(dp2209
g71
(dp2210
sg80
g2195
sg73
(lp2211
g66
(g67
g68
NtRp2212
(dp2213
g71
(dp2214
g79
I4
ssg80
g2208
sg73
(lp2215
g66
(g75
g68
NtRp2216
(dp2217
g71
(dp2218
g79
I3
ssg80
Nsg73
(lp2219
g66
(g82
g68
NtRp2220
(dp2221
g71
(dp2222
sg80
g2216
sg73
(lp2223
g66
(g87
g68
NtRp2224
(dp2225
g71
(dp2226
g91
g92
ssg80
g2220
sg73
(lp2227
S'HTTP_ACCEPT'
p2228
asbag66
(g87
g68
NtRp2229
(dp2230
g71
(dp2231
g98
g99
ssg80
g2220
sg73
(lp2232
S':'
asbag66
(g87
g68
NtRp2233
(dp2234
g71
(dp2235
sg80
g2220
sg73
(lp2236
g66
(g67
g68
NtRp2237
(dp2238
g71
(dp2239
g79
I3
ssg80
g2233
sg73
(lp2240
g1197
asbasbasbag66
(g82
g68
NtRp2241
(dp2242
g71
(dp2243
sg80
g2216
sg73
(lp2244
g66
(g87
g68
NtRp2245
(dp2246
g71
(dp2247
g91
g92
ssg80
g2241
sg73
(lp2248
S'HTTP_ACCEPT_CHARSET'
p2249
asbag66
(g87
g68
NtRp2250
(dp2251
g71
(dp2252
g98
g99
ssg80
g2241
sg73
(lp2253
S':'
asbag66
(g87
g68
NtRp2254
(dp2255
g71
(dp2256
sg80
g2241
sg73
(lp2257
g66
(g67
g68
NtRp2258
(dp2259
g71
(dp2260
g79
I3
ssg80
g2254
sg73
(lp2261
g1219
asbasbasbag66
(g82
g68
NtRp2262
(dp2263
g71
(dp2264
sg80
g2216
sg73
(lp2265
g66
(g87
g68
NtRp2266
(dp2267
g71
(dp2268
g91
g92
ssg80
g2262
sg73
(lp2269
S'HTTP_ACCEPT_ENCODING'
p2270
asbag66
(g87
g68
NtRp2271
(dp2272
g71
(dp2273
g98
g99
ssg80
g2262
sg73
(lp2274
S':'
asbag66
(g87
g68
NtRp2275
(dp2276
g71
(dp2277
sg80
g2262
sg73
(lp2278
g66
(g67
g68
NtRp2279
(dp2280
g71
(dp2281
g79
I3
ssg80
g2275
sg73
(lp2282
g1241
asbasbasbag66
(g82
g68
NtRp2283
(dp2284
g71
(dp2285
sg80
g2216
sg73
(lp2286
g66
(g87
g68
NtRp2287
(dp2288
g71
(dp2289
g91
g92
ssg80
g2283
sg73
(lp2290
S'HTTP_ACCEPT_LANGUAGE'
p2291
asbag66
(g87
g68
NtRp2292
(dp2293
g71
(dp2294
g98
g99
ssg80
g2283
sg73
(lp2295
S':'
asbag66
(g87
g68
NtRp2296
(dp2297
g71
(dp2298
sg80
g2283
sg73
(lp2299
g66
(g67
g68
NtRp2300
(dp2301
g71
(dp2302
g79
I3
ssg80
g2296
sg73
(lp2303
g1263
asbasbasbag66
(g82
g68
NtRp2304
(dp2305
g71
(dp2306
sg80
g2216
sg73
(lp2307
g66
(g87
g68
NtRp2308
(dp2309
g71
(dp2310
g91
g92
ssg80
g2304
sg73
(lp2311
S'HTTP_CACHE_CONTROL'
p2312
asbag66
(g87
g68
NtRp2313
(dp2314
g71
(dp2315
g98
g99
ssg80
g2304
sg73
(lp2316
S':'
asbag66
(g87
g68
NtRp2317
(dp2318
g71
(dp2319
sg80
g2304
sg73
(lp2320
g66
(g67
g68
NtRp2321
(dp2322
g71
(dp2323
g79
I3
ssg80
g2317
sg73
(lp2324
g1285
asbasbasbag66
(g82
g68
NtRp2325
(dp2326
g71
(dp2327
sg80
g2216
sg73
(lp2328
g66
(g87
g68
NtRp2329
(dp2330
g71
(dp2331
g91
g92
ssg80
g2325
sg73
(lp2332
S'HTTP_CONNECTION'
p2333
asbag66
(g87
g68
NtRp2334
(dp2335
g71
(dp2336
g98
g99
ssg80
g2325
sg73
(lp2337
S':'
asbag66
(g87
g68
NtRp2338
(dp2339
g71
(dp2340
sg80
g2325
sg73
(lp2341
g66
(g67
g68
NtRp2342
(dp2343
g71
(dp2344
g79
I3
ssg80
g2338
sg73
(lp2345
g1307
asbasbasbag66
(g82
g68
NtRp2346
(dp2347
g71
(dp2348
sg80
g2216
sg73
(lp2349
g66
(g87
g68
NtRp2350
(dp2351
g71
(dp2352
g91
g92
ssg80
g2346
sg73
(lp2353
S'HTTP_COOKIE'
p2354
asbag66
(g87
g68
NtRp2355
(dp2356
g71
(dp2357
g98
g99
ssg80
g2346
sg73
(lp2358
S':'
asbag66
(g87
g68
NtRp2359
(dp2360
g71
(dp2361
sg80
g2346
sg73
(lp2362
g66
(g67
g68
NtRp2363
(dp2364
g71
(dp2365
g79
I3
ssg80
g2359
sg73
(lp2366
g1329
asbasbasbag66
(g82
g68
NtRp2367
(dp2368
g71
(dp2369
sg80
g2216
sg73
(lp2370
g66
(g87
g68
NtRp2371
(dp2372
g71
(dp2373
g91
g92
ssg80
g2367
sg73
(lp2374
S'HTTP_HOST'
p2375
asbag66
(g87
g68
NtRp2376
(dp2377
g71
(dp2378
g98
g99
ssg80
g2367
sg73
(lp2379
S':'
asbag66
(g87
g68
NtRp2380
(dp2381
g71
(dp2382
sg80
g2367
sg73
(lp2383
g66
(g67
g68
NtRp2384
(dp2385
g71
(dp2386
g79
I3
ssg80
g2380
sg73
(lp2387
g1351
asbasbasbag66
(g82
g68
NtRp2388
(dp2389
g71
(dp2390
sg80
g2216
sg73
(lp2391
g66
(g87
g68
NtRp2392
(dp2393
g71
(dp2394
g91
g92
ssg80
g2388
sg73
(lp2395
S'HTTP_REFERER'
p2396
asbag66
(g87
g68
NtRp2397
(dp2398
g71
(dp2399
g98
g99
ssg80
g2388
sg73
(lp2400
S':'
asbag66
(g87
g68
NtRp2401
(dp2402
g71
(dp2403
sg80
g2388
sg73
(lp2404
g66
(g67
g68
NtRp2405
(dp2406
g71
(dp2407
g79
I3
ssg80
g2401
sg73
(lp2408
g1373
asbasbasbag66
(g82
g68
NtRp2409
(dp2410
g71
(dp2411
sg80
g2216
sg73
(lp2412
g66
(g87
g68
NtRp2413
(dp2414
g71
(dp2415
g91
g92
ssg80
g2409
sg73
(lp2416
S'HTTP_USER_AGENT'
p2417
asbag66
(g87
g68
NtRp2418
(dp2419
g71
(dp2420
g98
g99
ssg80
g2409
sg73
(lp2421
S':'
asbag66
(g87
g68
NtRp2422
(dp2423
g71
(dp2424
sg80
g2409
sg73
(lp2425
g66
(g67
g68
NtRp2426
(dp2427
g71
(dp2428
g79
I3
ssg80
g2422
sg73
(lp2429
g1395
asbasbasbag66
(g82
g68
NtRp2430
(dp2431
g71
(dp2432
sg80
g2216
sg73
(lp2433
g66
(g87
g68
NtRp2434
(dp2435
g71
(dp2436
g91
g92
ssg80
g2430
sg73
(lp2437
S'PATH_INFO'
p2438
asbag66
(g87
g68
NtRp2439
(dp2440
g71
(dp2441
g98
g99
ssg80
g2430
sg73
(lp2442
S':'
asbag66
(g87
g68
NtRp2443
(dp2444
g71
(dp2445
sg80
g2430
sg73
(lp2446
g66
(g67
g68
NtRp2447
(dp2448
g71
(dp2449
g79
I3
ssg80
g2443
sg73
(lp2450
g1438
asbasbasbag66
(g82
g68
NtRp2451
(dp2452
g71
(dp2453
sg80
g2216
sg73
(lp2454
g66
(g87
g68
NtRp2455
(dp2456
g71
(dp2457
g91
g92
ssg80
g2451
sg73
(lp2458
S'QUERY_STRING'
p2459
asbag66
(g87
g68
NtRp2460
(dp2461
g71
(dp2462
g98
g99
ssg80
g2451
sg73
(lp2463
S':'
asbag66
(g87
g68
NtRp2464
(dp2465
g71
(dp2466
sg80
g2451
sg73
(lp2467
g66
(g67
g68
NtRp2468
(dp2469
g71
(dp2470
g79
I3
ssg80
g2464
sg73
(lp2471
S''
asbasbasbag66
(g82
g68
NtRp2472
(dp2473
g71
(dp2474
sg80
g2216
sg73
(lp2475
g66
(g87
g68
NtRp2476
(dp2477
g71
(dp2478
g91
g92
ssg80
g2472
sg73
(lp2479
S'REMOTE_ADDR'
p2480
asbag66
(g87
g68
NtRp2481
(dp2482
g71
(dp2483
g98
g99
ssg80
g2472
sg73
(lp2484
S':'
asbag66
(g87
g68
NtRp2485
(dp2486
g71
(dp2487
sg80
g2472
sg73
(lp2488
g66
(g67
g68
NtRp2489
(dp2490
g71
(dp2491
g79
I3
ssg80
g2485
sg73
(lp2492
g199
asbasbasbag66
(g82
g68
NtRp2493
(dp2494
g71
(dp2495
sg80
g2216
sg73
(lp2496
g66
(g87
g68
NtRp2497
(dp2498
g71
(dp2499
g91
g92
ssg80
g2493
sg73
(lp2500
S'REMOTE_PORT'
p2501
asbag66
(g87
g68
NtRp2502
(dp2503
g71
(dp2504
g98
g99
ssg80
g2493
sg73
(lp2505
S':'
asbag66
(g87
g68
NtRp2506
(dp2507
g71
(dp2508
sg80
g2493
sg73
(lp2509
g66
(g67
g68
NtRp2510
(dp2511
g71
(dp2512
g79
I3
ssg80
g2506
sg73
(lp2513
g1502
asbasbasbag66
(g82
g68
NtRp2514
(dp2515
g71
(dp2516
sg80
g2216
sg73
(lp2517
g66
(g87
g68
NtRp2518
(dp2519
g71
(dp2520
g91
g92
ssg80
g2514
sg73
(lp2521
S'REQUEST_METHOD'
p2522
asbag66
(g87
g68
NtRp2523
(dp2524
g71
(dp2525
g98
g99
ssg80
g2514
sg73
(lp2526
S':'
asbag66
(g87
g68
NtRp2527
(dp2528
g71
(dp2529
sg80
g2514
sg73
(lp2530
g66
(g67
g68
NtRp2531
(dp2532
g71
(dp2533
g79
I3
ssg80
g2527
sg73
(lp2534
g1524
asbasbasbag66
(g82
g68
NtRp2535
(dp2536
g71
(dp2537
sg80
g2216
sg73
(lp2538
g66
(g87
g68
NtRp2539
(dp2540
g71
(dp2541
g91
g92
ssg80
g2535
sg73
(lp2542
S'SCRIPT_NAME'
p2543
asbag66
(g87
g68
NtRp2544
(dp2545
g71
(dp2546
g98
g99
ssg80
g2535
sg73
(lp2547
S':'
asbag66
(g87
g68
NtRp2548
(dp2549
g71
(dp2550
sg80
g2535
sg73
(lp2551
g66
(g67
g68
NtRp2552
(dp2553
g71
(dp2554
g79
I3
ssg80
g2548
sg73
(lp2555
S''
asbasbasbag66
(g82
g68
NtRp2556
(dp2557
g71
(dp2558
sg80
g2216
sg73
(lp2559
g66
(g87
g68
NtRp2560
(dp2561
g71
(dp2562
g91
g92
ssg80
g2556
sg73
(lp2563
S'SERVER_NAME'
p2564
asbag66
(g87
g68
NtRp2565
(dp2566
g71
(dp2567
g98
g99
ssg80
g2556
sg73
(lp2568
S':'
asbag66
(g87
g68
NtRp2569
(dp2570
g71
(dp2571
sg80
g2556
sg73
(lp2572
g66
(g67
g68
NtRp2573
(dp2574
g71
(dp2575
g79
I3
ssg80
g2569
sg73
(lp2576
g1567
asbasbasbag66
(g82
g68
NtRp2577
(dp2578
g71
(dp2579
sg80
g2216
sg73
(lp2580
g66
(g87
g68
NtRp2581
(dp2582
g71
(dp2583
g91
g92
ssg80
g2577
sg73
(lp2584
S'SERVER_PORT'
p2585
asbag66
(g87
g68
NtRp2586
(dp2587
g71
(dp2588
g98
g99
ssg80
g2577
sg73
(lp2589
S':'
asbag66
(g87
g68
NtRp2590
(dp2591
g71
(dp2592
sg80
g2577
sg73
(lp2593
g66
(g67
g68
NtRp2594
(dp2595
g71
(dp2596
g79
I3
ssg80
g2590
sg73
(lp2597
g1589
asbasbasbag66
(g82
g68
NtRp2598
(dp2599
g71
(dp2600
sg80
g2216
sg73
(lp2601
g66
(g87
g68
NtRp2602
(dp2603
g71
(dp2604
g91
g92
ssg80
g2598
sg73
(lp2605
S'SERVER_PROTOCOL'
p2606
asbag66
(g87
g68
NtRp2607
(dp2608
g71
(dp2609
g98
g99
ssg80
g2598
sg73
(lp2610
S':'
asbag66
(g87
g68
NtRp2611
(dp2612
g71
(dp2613
sg80
g2598
sg73
(lp2614
g66
(g67
g68
NtRp2615
(dp2616
g71
(dp2617
g79
I3
ssg80
g2611
sg73
(lp2618
g1611
asbasbasbag66
(g82
g68
NtRp2619
(dp2620
g71
(dp2621
sg80
g2216
sg73
(lp2622
g66
(g87
g68
NtRp2623
(dp2624
g71
(dp2625
g91
g92
ssg80
g2619
sg73
(lp2626
S'SERVER_SOFTWARE'
p2627
asbag66
(g87
g68
NtRp2628
(dp2629
g71
(dp2630
g98
g99
ssg80
g2619
sg73
(lp2631
S':'
asbag66
(g87
g68
NtRp2632
(dp2633
g71
(dp2634
sg80
g2619
sg73
(lp2635
g66
(g67
g68
NtRp2636
(dp2637
g71
(dp2638
g79
I3
ssg80
g2632
sg73
(lp2639
g1633
asbasbasbag66
(g82
g68
NtRp2640
(dp2641
g71
(dp2642
sg80
g2216
sg73
(lp2643
g66
(g87
g68
NtRp2644
(dp2645
g71
(dp2646
g91
g92
ssg80
g2640
sg73
(lp2647
S'wsgi.errors'
p2648
asbag66
(g87
g68
NtRp2649
(dp2650
g71
(dp2651
g98
g99
ssg80
g2640
sg73
(lp2652
S':'
asbag66
(g87
g68
NtRp2653
(dp2654
g71
(dp2655
sg80
g2640
sg73
(lp2656
g66
(g67
g68
NtRp2657
(dp2658
g71
(dp2659
g79
I3
ssg80
g2653
sg73
(lp2660
S"<open file '<stderr>', mode 'w' at 0x100287270>"
p2661
asbasbasbag66
(g82
g68
NtRp2662
(dp2663
g71
(dp2664
sg80
g2216
sg73
(lp2665
g66
(g87
g68
NtRp2666
(dp2667
g71
(dp2668
g91
g92
ssg80
g2662
sg73
(lp2669
S'wsgi.file_wrapper'
p2670
asbag66
(g87
g68
NtRp2671
(dp2672
g71
(dp2673
g98
g99
ssg80
g2662
sg73
(lp2674
S':'
asbag66
(g87
g68
NtRp2675
(dp2676
g71
(dp2677
sg80
g2662
sg73
(lp2678
g66
(g67
g68
NtRp2679
(dp2680
g71
(dp2681
g79
I3
ssg80
g2675
sg73
(lp2682
S'<class gluon.rocket.FileWrapper at 0x101668e20>'
p2683
asbasbasbag66
(g82
g68
NtRp2684
(dp2685
g71
(dp2686
sg80
g2216
sg73
(lp2687
g66
(g87
g68
NtRp2688
(dp2689
g71
(dp2690
g91
g92
ssg80
g2684
sg73
(lp2691
S'wsgi.input'
p2692
asbag66
(g87
g68
NtRp2693
(dp2694
g71
(dp2695
g98
g99
ssg80
g2684
sg73
(lp2696
S':'
asbag66
(g87
g68
NtRp2697
(dp2698
g71
(dp2699
sg80
g2684
sg73
(lp2700
g66
(g67
g68
NtRp2701
(dp2702
g71
(dp2703
g79
I3
ssg80
g2697
sg73
(lp2704
S'<cStringIO.StringO object at 0x1021d5928>'
p2705
asbasbasbag66
(g82
g68
NtRp2706
(dp2707
g71
(dp2708
sg80
g2216
sg73
(lp2709
g66
(g87
g68
NtRp2710
(dp2711
g71
(dp2712
g91
g92
ssg80
g2706
sg73
(lp2713
S'wsgi.multiprocess'
p2714
asbag66
(g87
g68
NtRp2715
(dp2716
g71
(dp2717
g98
g99
ssg80
g2706
sg73
(lp2718
S':'
asbag66
(g87
g68
NtRp2719
(dp2720
g71
(dp2721
sg80
g2706
sg73
(lp2722
g66
(g67
g68
NtRp2723
(dp2724
g71
(dp2725
g79
I3
ssg80
g2719
sg73
(lp2726
g109
asbasbasbag66
(g82
g68
NtRp2727
(dp2728
g71
(dp2729
sg80
g2216
sg73
(lp2730
g66
(g87
g68
NtRp2731
(dp2732
g71
(dp2733
g91
g92
ssg80
g2727
sg73
(lp2734
S'wsgi.multithread'
p2735
asbag66
(g87
g68
NtRp2736
(dp2737
g71
(dp2738
g98
g99
ssg80
g2727
sg73
(lp2739
S':'
asbag66
(g87
g68
NtRp2740
(dp2741
g71
(dp2742
sg80
g2727
sg73
(lp2743
g66
(g67
g68
NtRp2744
(dp2745
g71
(dp2746
g79
I3
ssg80
g2740
sg73
(lp2747
g1807
asbasbasbag66
(g82
g68
NtRp2748
(dp2749
g71
(dp2750
sg80
g2216
sg73
(lp2751
g66
(g87
g68
NtRp2752
(dp2753
g71
(dp2754
g91
g92
ssg80
g2748
sg73
(lp2755
S'wsgi.run_once'
p2756
asbag66
(g87
g68
NtRp2757
(dp2758
g71
(dp2759
g98
g99
ssg80
g2748
sg73
(lp2760
S':'
asbag66
(g87
g68
NtRp2761
(dp2762
g71
(dp2763
sg80
g2748
sg73
(lp2764
g66
(g67
g68
NtRp2765
(dp2766
g71
(dp2767
g79
I3
ssg80
g2761
sg73
(lp2768
g109
asbasbasbag66
(g82
g68
NtRp2769
(dp2770
g71
(dp2771
sg80
g2216
sg73
(lp2772
g66
(g87
g68
NtRp2773
(dp2774
g71
(dp2775
g91
g92
ssg80
g2769
sg73
(lp2776
S'wsgi.url_scheme'
p2777
asbag66
(g87
g68
NtRp2778
(dp2779
g71
(dp2780
g98
g99
ssg80
g2769
sg73
(lp2781
S':'
asbag66
(g87
g68
NtRp2782
(dp2783
g71
(dp2784
sg80
g2769
sg73
(lp2785
g66
(g67
g68
NtRp2786
(dp2787
g71
(dp2788
g79
I3
ssg80
g2782
sg73
(lp2789
g1850
asbasbasbag66
(g82
g68
NtRp2790
(dp2791
g71
(dp2792
sg80
g2216
sg73
(lp2793
g66
(g87
g68
NtRp2794
(dp2795
g71
(dp2796
g91
g92
ssg80
g2790
sg73
(lp2797
S'wsgi.version'
p2798
asbag66
(g87
g68
NtRp2799
(dp2800
g71
(dp2801
g98
g99
ssg80
g2790
sg73
(lp2802
S':'
asbag66
(g87
g68
NtRp2803
(dp2804
g71
(dp2805
sg80
g2790
sg73
(lp2806
g66
(g67
g68
NtRp2807
(dp2808
g71
(dp2809
g79
I3
ssg80
g2803
sg73
(lp2810
S'1'
asbasbasbasbasbasbasbasbasbasbasbasbasbsS'frames'
p2811
(lp2812
(dp2813
S'file'
p2814
S'/opt/local/Library/Frameworks/Python.framework/Versions/2.7/lib/python2.7/gluon/restricted.py'
p2815
sS'dump'
p2816
(dp2817
S'code'
p2818
S"'# -*- coding: utf-8 -*-\\n### required - do no del...t()\\n\\nresponse._vars=response._caller(submission)\\n'"
p2819
sS'layer'
p2820
S"'/Users/hellais/Documents/code/mygit/globaleaks/webapp/applications/init/controllers/default.py'"
p2821
sS'global compile2'
p2822
S'<function compile2>'
p2823
sS'ccode'
p2824
S'undefined'
p2825
ssS'lnum'
p2826
I191
sS'lines'
p2827
(dp2828
I192
S'        exec ccode in environment'
p2829
sI193
S'    except HTTP:'
p2830
sI194
S'        raise'
p2831
sI195
S'    except Exception, error:'
p2832
sI186
S"    environment['__file__'] = layer"
p2833
sI187
S'    try:'
p2834
sI188
S'        if type(code) == types.CodeType:'
p2835
sI189
S'            ccode = code'
p2836
sI190
S'        else:'
p2837
sI191
S'            ccode = compile2(code,layer)'
p2838
ssS'call'
p2839
S"(code='# -*- coding: utf-8 -*-\\n### required - do no del...t()\\n\\nresponse._vars=response._caller(submission)\\n', environment={'A': <class 'gluon.html.A'>, 'Auth': <class 'gluon.tools.Auth'>, 'B': <class 'gluon.html.B'>, 'BEAUTIFY': <class 'gluon.html.BEAUTIFY'>, 'BODY': <class 'gluon.html.BODY'>, 'BR': <class 'gluon.html.BR'>, 'BUTTON': <class 'gluon.html.BUTTON'>, 'CAT': <class 'gluon.html.CAT'>, 'CENTER': <class 'gluon.html.CENTER'>, 'CLEANUP': <class 'gluon.validators.CLEANUP'>, ...}, layer='/Users/hellais/Documents/code/mygit/globaleaks/webapp/applications/init/controllers/default.py')"
p2840
sS'func'
p2841
S'restricted'
p2842
sa(dp2843
g2814
S'/opt/local/Library/Frameworks/Python.framework/Versions/2.7/lib/python2.7/gluon/restricted.py'
p2844
sg2816
(dp2845
S'builtincompile'
p2846
S'<built-in function compile>'
p2847
sS'code'
p2848
S"'# -*- coding: utf-8 -*-\\n### required - do no del...t()\\n\\nresponse._vars=response._caller(submission)\\n'"
p2849
sS'code.rstrip'
p2850
S'<built-in method rstrip of str object>'
p2851
sS').replace'
p2852
g2825
sS'layer'
p2853
S"'/Users/hellais/Documents/code/mygit/globaleaks/webapp/applications/init/controllers/default.py'"
p2854
ssg2826
I178
sg2827
(dp2855
I173
S''
sI174
S'def compile2(code,layer):'
p2856
sI175
S'    """'
p2857
sI176
S"    The +'\\n' is necessary else compile fails when code ends in a comment."
p2858
sI177
S'    """'
p2859
sI178
S"    return compile(code.rstrip().replace('\\r\\n','\\n')+'\\n', layer, 'exec')"
p2860
sI179
S''
sI180
S"def restricted(code, environment={}, layer='Unknown'):"
p2861
sI181
S'    """'
p2862
sI182
S'    runs code in environment and returns the output. if an exception occurs'
p2863
ssg2839
S"(code='# -*- coding: utf-8 -*-\\n### required - do no del...t()\\n\\nresponse._vars=response._caller(submission)\\n', layer='/Users/hellais/Documents/code/mygit/globaleaks/webapp/applications/init/controllers/default.py')"
p2864
sg2841
S'compile2'
p2865
sasS'pyver'
p2866
S'Python 2.7.1: /opt/local/Library/Frameworks/Python.framework/Versions/2.7/Resources/Python.app/Contents/MacOS/Python'
p2867
sS'session'
p2868
g66
(g67
g68
NtRp2869
(dp2870
g71
(dp2871
sg73
(lp2872
g66
(g75
g68
NtRp2873
(dp2874
g71
(dp2875
g79
I5
ssg80
Nsg73
(lp2876
sbasbsS'etype'
p2877
S"<type 'exceptions.IndentationError'>"
p2878
sS'date'
p2879
S'Sat Aug 27 23:53:03 2011'
p2880
sS'response'
p2881
g66
(g67
g68
NtRp2882
(dp2883
g71
(dp2884
sg73
(lp2885
g66
(g75
g68
NtRp2886
(dp2887
g71
(dp2888
g79
I5
ssg80
Nsg73
(lp2889
g66
(g82
g68
NtRp2890
(dp2891
g71
(dp2892
sg80
g2886
sg73
(lp2893
g66
(g87
g68
NtRp2894
(dp2895
g71
(dp2896
g91
g92
ssg80
g2890
sg73
(lp2897
g164
asbag66
(g87
g68
NtRp2898
(dp2899
g71
(dp2900
g98
g99
ssg80
g2890
sg73
(lp2901
S':'
asbag66
(g87
g68
NtRp2902
(dp2903
g71
(dp2904
sg80
g2890
sg73
(lp2905
g66
(g67
g68
NtRp2906
(dp2907
g71
(dp2908
g79
I5
ssg80
g2902
sg73
(lp2909
S'<cStringIO.StringO object at 0x101e26960>'
p2910
asbasbasbag66
(g82
g68
NtRp2911
(dp2912
g71
(dp2913
sg80
g2886
sg73
(lp2914
g66
(g87
g68
NtRp2915
(dp2916
g71
(dp2917
g91
g92
ssg80
g2911
sg73
(lp2918
g230
asbag66
(g87
g68
NtRp2919
(dp2920
g71
(dp2921
g98
g99
ssg80
g2911
sg73
(lp2922
S':'
asbag66
(g87
g68
NtRp2923
(dp2924
g71
(dp2925
sg80
g2911
sg73
(lp2926
g66
(g67
g68
NtRp2927
(dp2928
g71
(dp2929
g79
I5
ssg80
g2923
sg73
(lp2930
g66
(g75
g68
NtRp2931
(dp2932
g71
(dp2933
g79
I4
ssg80
Nsg73
(lp2934
g66
(g82
g68
NtRp2935
(dp2936
g71
(dp2937
sg80
g2931
sg73
(lp2938
g66
(g87
g68
NtRp2939
(dp2940
g71
(dp2941
g91
g92
ssg80
g2935
sg73
(lp2942
S'session_id_init'
p2943
asbag66
(g87
g68
NtRp2944
(dp2945
g71
(dp2946
g98
g99
ssg80
g2935
sg73
(lp2947
S':'
asbag66
(g87
g68
NtRp2948
(dp2949
g71
(dp2950
sg80
g2935
sg73
(lp2951
g66
(g67
g68
NtRp2952
(dp2953
g71
(dp2954
g79
I4
ssg80
g2948
sg73
(lp2955
g66
(g75
g68
NtRp2956
(dp2957
g71
(dp2958
g79
I3
ssg80
Nsg73
(lp2959
g66
(g82
g68
NtRp2960
(dp2961
g71
(dp2962
sg80
g2956
sg73
(lp2963
g66
(g87
g68
NtRp2964
(dp2965
g71
(dp2966
g91
g92
ssg80
g2960
sg73
(lp2967
g280
asbag66
(g87
g68
NtRp2968
(dp2969
g71
(dp2970
g98
g99
ssg80
g2960
sg73
(lp2971
S':'
asbag66
(g87
g68
NtRp2972
(dp2973
g71
(dp2974
sg80
g2960
sg73
(lp2975
g66
(g67
g68
NtRp2976
(dp2977
g71
(dp2978
g79
I3
ssg80
g2972
sg73
(lp2979
S''
asbasbasbag66
(g82
g68
NtRp2980
(dp2981
g71
(dp2982
sg80
g2956
sg73
(lp2983
g66
(g87
g68
NtRp2984
(dp2985
g71
(dp2986
g91
g92
ssg80
g2980
sg73
(lp2987
g301
asbag66
(g87
g68
NtRp2988
(dp2989
g71
(dp2990
g98
g99
ssg80
g2980
sg73
(lp2991
S':'
asbag66
(g87
g68
NtRp2992
(dp2993
g71
(dp2994
sg80
g2980
sg73
(lp2995
g66
(g67
g68
NtRp2996
(dp2997
g71
(dp2998
g79
I3
ssg80
g2992
sg73
(lp2999
S''
asbasbasbag66
(g82
g68
NtRp3000
(dp3001
g71
(dp3002
sg80
g2956
sg73
(lp3003
g66
(g87
g68
NtRp3004
(dp3005
g71
(dp3006
g91
g92
ssg80
g3000
sg73
(lp3007
g322
asbag66
(g87
g68
NtRp3008
(dp3009
g71
(dp3010
g98
g99
ssg80
g3000
sg73
(lp3011
S':'
asbag66
(g87
g68
NtRp3012
(dp3013
g71
(dp3014
sg80
g3000
sg73
(lp3015
g66
(g67
g68
NtRp3016
(dp3017
g71
(dp3018
g79
I3
ssg80
g3012
sg73
(lp3019
S''
asbasbasbag66
(g82
g68
NtRp3020
(dp3021
g71
(dp3022
sg80
g2956
sg73
(lp3023
g66
(g87
g68
NtRp3024
(dp3025
g71
(dp3026
g91
g92
ssg80
g3020
sg73
(lp3027
g343
asbag66
(g87
g68
NtRp3028
(dp3029
g71
(dp3030
g98
g99
ssg80
g3020
sg73
(lp3031
S':'
asbag66
(g87
g68
NtRp3032
(dp3033
g71
(dp3034
sg80
g3020
sg73
(lp3035
g66
(g67
g68
NtRp3036
(dp3037
g71
(dp3038
g79
I3
ssg80
g3032
sg73
(lp3039
S''
asbasbasbag66
(g82
g68
NtRp3040
(dp3041
g71
(dp3042
sg80
g2956
sg73
(lp3043
g66
(g87
g68
NtRp3044
(dp3045
g71
(dp3046
g91
g92
ssg80
g3040
sg73
(lp3047
g364
asbag66
(g87
g68
NtRp3048
(dp3049
g71
(dp3050
g98
g99
ssg80
g3040
sg73
(lp3051
S':'
asbag66
(g87
g68
NtRp3052
(dp3053
g71
(dp3054
sg80
g3040
sg73
(lp3055
g66
(g67
g68
NtRp3056
(dp3057
g71
(dp3058
g79
I3
ssg80
g3052
sg73
(lp3059
S''
asbasbasbag66
(g82
g68
NtRp3060
(dp3061
g71
(dp3062
sg80
g2956
sg73
(lp3063
g66
(g87
g68
NtRp3064
(dp3065
g71
(dp3066
g91
g92
ssg80
g3060
sg73
(lp3067
g385
asbag66
(g87
g68
NtRp3068
(dp3069
g71
(dp3070
g98
g99
ssg80
g3060
sg73
(lp3071
S':'
asbag66
(g87
g68
NtRp3072
(dp3073
g71
(dp3074
sg80
g3060
sg73
(lp3075
g66
(g67
g68
NtRp3076
(dp3077
g71
(dp3078
g79
I3
ssg80
g3072
sg73
(lp3079
S'/'
asbasbasbag66
(g82
g68
NtRp3080
(dp3081
g71
(dp3082
sg80
g2956
sg73
(lp3083
g66
(g87
g68
NtRp3084
(dp3085
g71
(dp3086
g91
g92
ssg80
g3080
sg73
(lp3087
g406
asbag66
(g87
g68
NtRp3088
(dp3089
g71
(dp3090
g98
g99
ssg80
g3080
sg73
(lp3091
S':'
asbag66
(g87
g68
NtRp3092
(dp3093
g71
(dp3094
sg80
g3080
sg73
(lp3095
g66
(g67
g68
NtRp3096
(dp3097
g71
(dp3098
g79
I3
ssg80
g3092
sg73
(lp3099
S''
asbasbasbag66
(g82
g68
NtRp3100
(dp3101
g71
(dp3102
sg80
g2956
sg73
(lp3103
g66
(g87
g68
NtRp3104
(dp3105
g71
(dp3106
g91
g92
ssg80
g3100
sg73
(lp3107
g427
asbag66
(g87
g68
NtRp3108
(dp3109
g71
(dp3110
g98
g99
ssg80
g3100
sg73
(lp3111
S':'
asbag66
(g87
g68
NtRp3112
(dp3113
g71
(dp3114
sg80
g3100
sg73
(lp3115
g66
(g67
g68
NtRp3116
(dp3117
g71
(dp3118
g79
I3
ssg80
g3112
sg73
(lp3119
S''
asbasbasbasbasbasbasbasbasbasbasbag66
(g82
g68
NtRp3120
(dp3121
g71
(dp3122
sg80
g2886
sg73
(lp3123
g66
(g87
g68
NtRp3124
(dp3125
g71
(dp3126
g91
g92
ssg80
g3120
sg73
(lp3127
S'files'
p3128
asbag66
(g87
g68
NtRp3129
(dp3130
g71
(dp3131
g98
g99
ssg80
g3120
sg73
(lp3132
S':'
asbag66
(g87
g68
NtRp3133
(dp3134
g71
(dp3135
sg80
g3120
sg73
(lp3136
g66
(g67
g68
NtRp3137
(dp3138
g71
(dp3139
g79
I5
ssg80
g3133
sg73
(lp3140
g66
(g75
g68
NtRp3141
(dp3142
g71
(dp3143
g79
I4
ssg80
Nsg73
(lp3144
sbasbasbasbag66
(g82
g68
NtRp3145
(dp3146
g71
(dp3147
sg80
g2886
sg73
(lp3148
g66
(g87
g68
NtRp3149
(dp3150
g71
(dp3151
g91
g92
ssg80
g3145
sg73
(lp3152
S'flash'
p3153
asbag66
(g87
g68
NtRp3154
(dp3155
g71
(dp3156
g98
g99
ssg80
g3145
sg73
(lp3157
S':'
asbag66
(g87
g68
NtRp3158
(dp3159
g71
(dp3160
sg80
g3145
sg73
(lp3161
g66
(g67
g68
NtRp3162
(dp3163
g71
(dp3164
g79
I5
ssg80
g3158
sg73
(lp3165
S''
asbasbasbag66
(g82
g68
NtRp3166
(dp3167
g71
(dp3168
sg80
g2886
sg73
(lp3169
g66
(g87
g68
NtRp3170
(dp3171
g71
(dp3172
g91
g92
ssg80
g3166
sg73
(lp3173
S'generic_patterns'
p3174
asbag66
(g87
g68
NtRp3175
(dp3176
g71
(dp3177
g98
g99
ssg80
g3166
sg73
(lp3178
S':'
asbag66
(g87
g68
NtRp3179
(dp3180
g71
(dp3181
sg80
g3166
sg73
(lp3182
g66
(g67
g68
NtRp3183
(dp3184
g71
(dp3185
g79
I5
ssg80
g3179
sg73
(lp3186
g66
(g75
g68
NtRp3187
(dp3188
g71
(dp3189
g79
I4
ssg80
Nsg73
(lp3190
sbasbasbasbag66
(g82
g68
NtRp3191
(dp3192
g71
(dp3193
sg80
g2886
sg73
(lp3194
g66
(g87
g68
NtRp3195
(dp3196
g71
(dp3197
g91
g92
ssg80
g3191
sg73
(lp3198
S'headers'
p3199
asbag66
(g87
g68
NtRp3200
(dp3201
g71
(dp3202
g98
g99
ssg80
g3191
sg73
(lp3203
S':'
asbag66
(g87
g68
NtRp3204
(dp3205
g71
(dp3206
sg80
g3191
sg73
(lp3207
g66
(g67
g68
NtRp3208
(dp3209
g71
(dp3210
g79
I5
ssg80
g3204
sg73
(lp3211
g66
(g75
g68
NtRp3212
(dp3213
g71
(dp3214
g79
I4
ssg80
Nsg73
(lp3215
g66
(g82
g68
NtRp3216
(dp3217
g71
(dp3218
sg80
g3212
sg73
(lp3219
g66
(g87
g68
NtRp3220
(dp3221
g71
(dp3222
g91
g92
ssg80
g3216
sg73
(lp3223
S'Cache-Control'
p3224
asbag66
(g87
g68
NtRp3225
(dp3226
g71
(dp3227
g98
g99
ssg80
g3216
sg73
(lp3228
S':'
asbag66
(g87
g68
NtRp3229
(dp3230
g71
(dp3231
sg80
g3216
sg73
(lp3232
g66
(g67
g68
NtRp3233
(dp3234
g71
(dp3235
g79
I4
ssg80
g3229
sg73
(lp3236
S'no-store, no-cache, must-revalidate, post-check=0, pre-check=0'
p3237
asbasbasbag66
(g82
g68
NtRp3238
(dp3239
g71
(dp3240
sg80
g3212
sg73
(lp3241
g66
(g87
g68
NtRp3242
(dp3243
g71
(dp3244
g91
g92
ssg80
g3238
sg73
(lp3245
S'Content-Type'
p3246
asbag66
(g87
g68
NtRp3247
(dp3248
g71
(dp3249
g98
g99
ssg80
g3238
sg73
(lp3250
S':'
asbag66
(g87
g68
NtRp3251
(dp3252
g71
(dp3253
sg80
g3238
sg73
(lp3254
g66
(g67
g68
NtRp3255
(dp3256
g71
(dp3257
g79
I4
ssg80
g3251
sg73
(lp3258
S'text/html; charset=utf-8'
p3259
asbasbasbag66
(g82
g68
NtRp3260
(dp3261
g71
(dp3262
sg80
g3212
sg73
(lp3263
g66
(g87
g68
NtRp3264
(dp3265
g71
(dp3266
g91
g92
ssg80
g3260
sg73
(lp3267
S'Expires'
p3268
asbag66
(g87
g68
NtRp3269
(dp3270
g71
(dp3271
g98
g99
ssg80
g3260
sg73
(lp3272
S':'
asbag66
(g87
g68
NtRp3273
(dp3274
g71
(dp3275
sg80
g3260
sg73
(lp3276
g66
(g67
g68
NtRp3277
(dp3278
g71
(dp3279
g79
I4
ssg80
g3273
sg73
(lp3280
S'Sat, 27 Aug 2011 21:53:03 GMT'
p3281
asbasbasbag66
(g82
g68
NtRp3282
(dp3283
g71
(dp3284
sg80
g3212
sg73
(lp3285
g66
(g87
g68
NtRp3286
(dp3287
g71
(dp3288
g91
g92
ssg80
g3282
sg73
(lp3289
S'Pragma'
p3290
asbag66
(g87
g68
NtRp3291
(dp3292
g71
(dp3293
g98
g99
ssg80
g3282
sg73
(lp3294
S':'
asbag66
(g87
g68
NtRp3295
(dp3296
g71
(dp3297
sg80
g3282
sg73
(lp3298
g66
(g67
g68
NtRp3299
(dp3300
g71
(dp3301
g79
I4
ssg80
g3295
sg73
(lp3302
S'no-cache'
p3303
asbasbasbag66
(g82
g68
NtRp3304
(dp3305
g71
(dp3306
sg80
g3212
sg73
(lp3307
g66
(g87
g68
NtRp3308
(dp3309
g71
(dp3310
g91
g92
ssg80
g3304
sg73
(lp3311
S'X-Powered-By'
p3312
asbag66
(g87
g68
NtRp3313
(dp3314
g71
(dp3315
g98
g99
ssg80
g3304
sg73
(lp3316
S':'
asbag66
(g87
g68
NtRp3317
(dp3318
g71
(dp3319
sg80
g3304
sg73
(lp3320
g66
(g67
g68
NtRp3321
(dp3322
g71
(dp3323
g79
I4
ssg80
g3317
sg73
(lp3324
S'web2py'
p3325
asbasbasbasbasbasbasbag66
(g82
g68
NtRp3326
(dp3327
g71
(dp3328
sg80
g2886
sg73
(lp3329
g66
(g87
g68
NtRp3330
(dp3331
g71
(dp3332
g91
g92
ssg80
g3326
sg73
(lp3333
S'menu'
p3334
asbag66
(g87
g68
NtRp3335
(dp3336
g71
(dp3337
g98
g99
ssg80
g3326
sg73
(lp3338
S':'
asbag66
(g87
g68
NtRp3339
(dp3340
g71
(dp3341
sg80
g3326
sg73
(lp3342
g66
(g67
g68
NtRp3343
(dp3344
g71
(dp3345
g79
I5
ssg80
g3339
sg73
(lp3346
g66
(g75
g68
NtRp3347
(dp3348
g71
(dp3349
g79
I4
ssg80
Nsg73
(lp3350
g66
(g82
g68
NtRp3351
(dp3352
g71
(dp3353
sg80
g3347
sg73
(lp3354
g66
(g87
g68
NtRp3355
(dp3356
g71
(dp3357
sg80
g3351
sg73
(lp3358
g66
(g67
g68
NtRp3359
(dp3360
g71
(dp3361
g79
I4
ssg80
g3355
sg73
(lp3362
g66
(g75
g68
NtRp3363
(dp3364
g71
(dp3365
g79
I3
ssg80
Nsg73
(lp3366
g66
(g82
g68
NtRp3367
(dp3368
g71
(dp3369
sg80
g3363
sg73
(lp3370
g66
(g87
g68
NtRp3371
(dp3372
g71
(dp3373
sg80
g3367
sg73
(lp3374
g66
(g67
g68
NtRp3375
(dp3376
g71
(dp3377
g79
I3
ssg80
g3371
sg73
(lp3378
cgluon.languages
lazyT_unpickle
p3379
(S't\x05\x00\x00\x00Index'
tRp3380
asbasbasbag66
(g82
g68
NtRp3381
(dp3382
g71
(dp3383
sg80
g3363
sg73
(lp3384
g66
(g87
g68
NtRp3385
(dp3386
g71
(dp3387
sg80
g3381
sg73
(lp3388
g66
(g67
g68
NtRp3389
(dp3390
g71
(dp3391
g79
I3
ssg80
g3385
sg73
(lp3392
g109
asbasbasbag66
(g82
g68
NtRp3393
(dp3394
g71
(dp3395
sg80
g3363
sg73
(lp3396
g66
(g87
g68
NtRp3397
(dp3398
g71
(dp3399
sg80
g3393
sg73
(lp3400
g66
(g67
g68
NtRp3401
(dp3402
g71
(dp3403
g79
I3
ssg80
g3397
sg73
(lp3404
S'/init/default/index'
p3405
asbasbasbag66
(g82
g68
NtRp3406
(dp3407
g71
(dp3408
sg80
g3363
sg73
(lp3409
g66
(g87
g68
NtRp3410
(dp3411
g71
(dp3412
sg80
g3406
sg73
(lp3413
g66
(g67
g68
NtRp3414
(dp3415
g71
(dp3416
g79
I3
ssg80
g3410
sg73
(lp3417
g66
(g75
g68
NtRp3418
(dp3419
g71
(dp3420
g79
I2
ssg80
Nsg73
(lp3421
sbasbasbasbasbasbasbasbasbasbasbasbag66
(g82
g68
NtRp3422
(dp3423
g71
(dp3424
sg80
g2886
sg73
(lp3425
g66
(g87
g68
NtRp3426
(dp3427
g71
(dp3428
g91
g92
ssg80
g3422
sg73
(lp3429
S'meta'
p3430
asbag66
(g87
g68
NtRp3431
(dp3432
g71
(dp3433
g98
g99
ssg80
g3422
sg73
(lp3434
S':'
asbag66
(g87
g68
NtRp3435
(dp3436
g71
(dp3437
sg80
g3422
sg73
(lp3438
g66
(g67
g68
NtRp3439
(dp3440
g71
(dp3441
g79
I5
ssg80
g3435
sg73
(lp3442
g66
(g75
g68
NtRp3443
(dp3444
g71
(dp3445
g79
I4
ssg80
Nsg73
(lp3446
g66
(g82
g68
NtRp3447
(dp3448
g71
(dp3449
sg80
g3443
sg73
(lp3450
g66
(g87
g68
NtRp3451
(dp3452
g71
(dp3453
g91
g92
ssg80
g3447
sg73
(lp3454
S'author'
p3455
asbag66
(g87
g68
NtRp3456
(dp3457
g71
(dp3458
g98
g99
ssg80
g3447
sg73
(lp3459
S':'
asbag66
(g87
g68
NtRp3460
(dp3461
g71
(dp3462
sg80
g3447
sg73
(lp3463
g66
(g67
g68
NtRp3464
(dp3465
g71
(dp3466
g79
I4
ssg80
g3460
sg73
(lp3467
S'RGC <info@globaleaks.org>'
p3468
asbasbasbag66
(g82
g68
NtRp3469
(dp3470
g71
(dp3471
sg80
g3443
sg73
(lp3472
g66
(g87
g68
NtRp3473
(dp3474
g71
(dp3475
g91
g92
ssg80
g3469
sg73
(lp3476
S'description'
p3477
asbag66
(g87
g68
NtRp3478
(dp3479
g71
(dp3480
g98
g99
ssg80
g3469
sg73
(lp3481
S':'
asbag66
(g87
g68
NtRp3482
(dp3483
g71
(dp3484
sg80
g3469
sg73
(lp3485
g66
(g67
g68
NtRp3486
(dp3487
g71
(dp3488
g79
I4
ssg80
g3482
sg73
(lp3489
S''
asbasbasbag66
(g82
g68
NtRp3490
(dp3491
g71
(dp3492
sg80
g3443
sg73
(lp3493
g66
(g87
g68
NtRp3494
(dp3495
g71
(dp3496
g91
g92
ssg80
g3490
sg73
(lp3497
S'keywords'
p3498
asbag66
(g87
g68
NtRp3499
(dp3500
g71
(dp3501
g98
g99
ssg80
g3490
sg73
(lp3502
S':'
asbag66
(g87
g68
NtRp3503
(dp3504
g71
(dp3505
sg80
g3490
sg73
(lp3506
g66
(g67
g68
NtRp3507
(dp3508
g71
(dp3509
g79
I4
ssg80
g3503
sg73
(lp3510
S''
asbasbasbasbasbasbasbag66
(g82
g68
NtRp3511
(dp3512
g71
(dp3513
sg80
g2886
sg73
(lp3514
g66
(g87
g68
NtRp3515
(dp3516
g71
(dp3517
g91
g92
ssg80
g3511
sg73
(lp3518
S'postprocessing'
p3519
asbag66
(g87
g68
NtRp3520
(dp3521
g71
(dp3522
g98
g99
ssg80
g3511
sg73
(lp3523
S':'
asbag66
(g87
g68
NtRp3524
(dp3525
g71
(dp3526
sg80
g3511
sg73
(lp3527
g66
(g67
g68
NtRp3528
(dp3529
g71
(dp3530
g79
I5
ssg80
g3524
sg73
(lp3531
g66
(g75
g68
NtRp3532
(dp3533
g71
(dp3534
g79
I4
ssg80
Nsg73
(lp3535
sbasbasbasbag66
(g82
g68
NtRp3536
(dp3537
g71
(dp3538
sg80
g2886
sg73
(lp3539
g66
(g87
g68
NtRp3540
(dp3541
g71
(dp3542
g91
g92
ssg80
g3536
sg73
(lp3543
S'session_file'
p3544
asbag66
(g87
g68
NtRp3545
(dp3546
g71
(dp3547
g98
g99
ssg80
g3536
sg73
(lp3548
S':'
asbag66
(g87
g68
NtRp3549
(dp3550
g71
(dp3551
sg80
g3536
sg73
(lp3552
g66
(g67
g68
NtRp3553
(dp3554
g71
(dp3555
g79
I5
ssg80
g3549
sg73
(lp3556
S"<open file '/Users/hellais/Documents/code/mygit/globaleaks/webapp/applications/init/sessions/127.0.0.1-a8551263-bc3c-430c-abb2-8711fac671c1', mode 'rb+' at 0x1019a3c00>"
p3557
asbasbasbag66
(g82
g68
NtRp3558
(dp3559
g71
(dp3560
sg80
g2886
sg73
(lp3561
g66
(g87
g68
NtRp3562
(dp3563
g71
(dp3564
g91
g92
ssg80
g3558
sg73
(lp3565
S'session_filename'
p3566
asbag66
(g87
g68
NtRp3567
(dp3568
g71
(dp3569
g98
g99
ssg80
g3558
sg73
(lp3570
S':'
asbag66
(g87
g68
NtRp3571
(dp3572
g71
(dp3573
sg80
g3558
sg73
(lp3574
g66
(g67
g68
NtRp3575
(dp3576
g71
(dp3577
g79
I5
ssg80
g3571
sg73
(lp3578
S'/Users/hellais/Documents/code/mygit/globaleaks/webapp/applications/init/sessions/127.0.0.1-a8551263-bc3c-430c-abb2-8711fac671c1'
p3579
asbasbasbag66
(g82
g68
NtRp3580
(dp3581
g71
(dp3582
sg80
g2886
sg73
(lp3583
g66
(g87
g68
NtRp3584
(dp3585
g71
(dp3586
g91
g92
ssg80
g3580
sg73
(lp3587
S'session_id'
p3588
asbag66
(g87
g68
NtRp3589
(dp3590
g71
(dp3591
g98
g99
ssg80
g3580
sg73
(lp3592
S':'
asbag66
(g87
g68
NtRp3593
(dp3594
g71
(dp3595
sg80
g3580
sg73
(lp3596
g66
(g67
g68
NtRp3597
(dp3598
g71
(dp3599
g79
I5
ssg80
g3593
sg73
(lp3600
S'127.0.0.1-a8551263-bc3c-430c-abb2-8711fac671c1'
p3601
asbasbasbag66
(g82
g68
NtRp3602
(dp3603
g71
(dp3604
sg80
g2886
sg73
(lp3605
g66
(g87
g68
NtRp3606
(dp3607
g71
(dp3608
g91
g92
ssg80
g3602
sg73
(lp3609
S'session_id_name'
p3610
asbag66
(g87
g68
NtRp3611
(dp3612
g71
(dp3613
g98
g99
ssg80
g3602
sg73
(lp3614
S':'
asbag66
(g87
g68
NtRp3615
(dp3616
g71
(dp3617
sg80
g3602
sg73
(lp3618
g66
(g67
g68
NtRp3619
(dp3620
g71
(dp3621
g79
I5
ssg80
g3615
sg73
(lp3622
g2943
asbasbasbag66
(g82
g68
NtRp3623
(dp3624
g71
(dp3625
sg80
g2886
sg73
(lp3626
g66
(g87
g68
NtRp3627
(dp3628
g71
(dp3629
g91
g92
ssg80
g3623
sg73
(lp3630
S'session_locked'
p3631
asbag66
(g87
g68
NtRp3632
(dp3633
g71
(dp3634
g98
g99
ssg80
g3623
sg73
(lp3635
S':'
asbag66
(g87
g68
NtRp3636
(dp3637
g71
(dp3638
sg80
g3623
sg73
(lp3639
g66
(g67
g68
NtRp3640
(dp3641
g71
(dp3642
g79
I5
ssg80
g3636
sg73
(lp3643
g1807
asbasbasbag66
(g82
g68
NtRp3644
(dp3645
g71
(dp3646
sg80
g2886
sg73
(lp3647
g66
(g87
g68
NtRp3648
(dp3649
g71
(dp3650
g91
g92
ssg80
g3644
sg73
(lp3651
S'session_new'
p3652
asbag66
(g87
g68
NtRp3653
(dp3654
g71
(dp3655
g98
g99
ssg80
g3644
sg73
(lp3656
S':'
asbag66
(g87
g68
NtRp3657
(dp3658
g71
(dp3659
sg80
g3644
sg73
(lp3660
g66
(g67
g68
NtRp3661
(dp3662
g71
(dp3663
g79
I5
ssg80
g3657
sg73
(lp3664
g109
asbasbasbag66
(g82
g68
NtRp3665
(dp3666
g71
(dp3667
sg80
g2886
sg73
(lp3668
g66
(g87
g68
NtRp3669
(dp3670
g71
(dp3671
g91
g92
ssg80
g3665
sg73
(lp3672
S'status'
p3673
asbag66
(g87
g68
NtRp3674
(dp3675
g71
(dp3676
g98
g99
ssg80
g3665
sg73
(lp3677
S':'
asbag66
(g87
g68
NtRp3678
(dp3679
g71
(dp3680
sg80
g3665
sg73
(lp3681
g66
(g67
g68
NtRp3682
(dp3683
g71
(dp3684
g79
I5
ssg80
g3678
sg73
(lp3685
S'200'
p3686
asbasbasbag66
(g82
g68
NtRp3687
(dp3688
g71
(dp3689
sg80
g2886
sg73
(lp3690
g66
(g87
g68
NtRp3691
(dp3692
g71
(dp3693
g91
g92
ssg80
g3687
sg73
(lp3694
S'subtitle'
p3695
asbag66
(g87
g68
NtRp3696
(dp3697
g71
(dp3698
g98
g99
ssg80
g3687
sg73
(lp3699
S':'
asbag66
(g87
g68
NtRp3700
(dp3701
g71
(dp3702
sg80
g3687
sg73
(lp3703
g66
(g67
g68
NtRp3704
(dp3705
g71
(dp3706
g79
I5
ssg80
g3700
sg73
(lp3707
S'Open Source Whistleblowing Platform'
p3708
asbasbasbag66
(g82
g68
NtRp3709
(dp3710
g71
(dp3711
sg80
g2886
sg73
(lp3712
g66
(g87
g68
NtRp3713
(dp3714
g71
(dp3715
g91
g92
ssg80
g3709
sg73
(lp3716
S'title'
p3717
asbag66
(g87
g68
NtRp3718
(dp3719
g71
(dp3720
g98
g99
ssg80
g3709
sg73
(lp3721
S':'
asbag66
(g87
g68
NtRp3722
(dp3723
g71
(dp3724
sg80
g3709
sg73
(lp3725
g66
(g67
g68
NtRp3726
(dp3727
g71
(dp3728
g79
I5
ssg80
g3722
sg73
(lp3729
S'GlobaLeaks'
p3730
asbasbasbag66
(g82
g68
NtRp3731
(dp3732
g71
(dp3733
sg80
g2886
sg73
(lp3734
g66
(g87
g68
NtRp3735
(dp3736
g71
(dp3737
g91
g92
ssg80
g3731
sg73
(lp3738
g2131
asbag66
(g87
g68
NtRp3739
(dp3740
g71
(dp3741
g98
g99
ssg80
g3731
sg73
(lp3742
S':'
asbag66
(g87
g68
NtRp3743
(dp3744
g71
(dp3745
sg80
g3731
sg73
(lp3746
g66
(g67
g68
NtRp3747
(dp3748
g71
(dp3749
g79
I5
ssg80
g3743
sg73
(lp3750
g2144
asbasbasbag66
(g82
g68
NtRp3751
(dp3752
g71
(dp3753
sg80
g2886
sg73
(lp3754
g66
(g87
g68
NtRp3755
(dp3756
g71
(dp3757
g91
g92
ssg80
g3751
sg73
(lp3758
S'view'
p3759
asbag66
(g87
g68
NtRp3760
(dp3761
g71
(dp3762
g98
g99
ssg80
g3751
sg73
(lp3763
S':'
asbag66
(g87
g68
NtRp3764
(dp3765
g71
(dp3766
sg80
g3751
sg73
(lp3767
g66
(g67
g68
NtRp3768
(dp3769
g71
(dp3770
g79
I5
ssg80
g3764
sg73
(lp3771
S'default/submission.html'
p3772
asbasbasbasbasbsS'locals'
p3773
(dp3774
g3
S"'/Users/hellais/Documents/code/mygit/globaleaks/webapp/applications/init/controllers/default.py'"
p3775
sg5
S"'# -*- coding: utf-8 -*-\\n### required - do no del...t()\\n\\nresponse._vars=response._caller(submission)\\n'"
p3776
sssS'traceback'
p3777
S'Traceback (most recent call last):\n  File "/opt/local/Library/Frameworks/Python.framework/Versions/2.7/lib/python2.7/gluon/restricted.py", line 191, in restricted\n    ccode = compile2(code,layer)\n  File "/opt/local/Library/Frameworks/Python.framework/Versions/2.7/lib/python2.7/gluon/restricted.py", line 178, in compile2\n    return compile(code.rstrip().replace(\'\\r\\n\',\'\\n\')+\'\\n\', layer, \'exec\')\n  File "/Users/hellais/Documents/code/mygit/globaleaks/webapp/applications/init/controllers/default.py", line 5\n    Field(\'Description\', \'text\', requires=IS_NOT_EMPTY()),\n   ^\nIndentationError: unexpected indent\n'
p3778
s.