(dp1
S'output'
p2
S''
sS'layer'
p3
S'/Users/hellais/Documents/code/mygit/globaleaks/webapp/applications/init/models/db.py'
p4
sS'code'
p5
S'# -*- coding: utf-8 -*-\n# this file is released under public domain and you can use without limitations\n\n#########################################################################\n## This scaffolding model makes your app work on Google App Engine too\n#########################################################################\n\n"""\nif request.env.web2py_runtime_gae:            # if running on Google App Engine\n    db = DAL(\'google:datastore\')              # connect to Google BigTable\n                                              # optional DAL(\'gae://namespace\')\n    session.connect(request, response, db = db) # and store sessions and tickets there\n    ### or use the following lines to store sessions in Memcache\n    # from gluon.contrib.memdb import MEMDB\n    # from google.appengine.api.memcache import Client\n    # session.connect(request, response, db = MEMDB(Client()))\nelse:                                         # else use a normal relational database\n    db = DAL(\'sqlite://storage.sqlite\')       # if not, use SQLite or other DB\n"""\n\ndb = local_import(\'sql\').db\n\n\n####\n# The main GlobaLeaks Class\n###\n\nclass Globaleaks(object):\n\n    def __init__(self):\n        pass\n        \n    def create_target(self):\n        pass\n        \n    def get_targets(self):\n        pass\n        \n    def get_target(self, target_id):\n        pass\n        \n    def create_leak(self, title, desc, leaker, material, targets = {}, tags =[]):\n        #FIXME insert new tags into DB first\n        \n        #Create leak and insert into DB\n        leak_id = db.leak.insert(title = title, desc = desc,\n            submission_timestamp = time.time(),\n            leaker_id = 0)\n        \n        #Create a tulip for each target and insert into DB\n        for target_uri, allowed_downloads in targets.iteritems():\n            db.tulip.insert(uri = randomizer.generate_tulip_url(),\n                leak_id = leak_id,\n                target_id = target_uri, #FIXME get target_id_properly\n                downloads_counter = 0,\n                allowed_downloads = allowed_downloads,\n                expiry_time = 0)\n        \n        db.commit()\n        return leak_id\n        \n    def get_leaks(self):\n        pass\n        \n    def get_leak(self, leak_id):\n        pass\n        \n    def get_tulips(self, leak_id):\n        pass\n        \n    def get_tulip(self, tulip_id):\n        pass\n\n\n\n\n####\n# For the time being just use sqlite\n###\n\n# db = DAL(\'sqlite://storage.sqlite\')\n\n# by default give a view/generic.extension to all actions from localhost\n# none otherwise. a pattern can be \'controller/function.extension\'\n\n\n# Waste of time and useless piece of shit\n# response.generic_patterns = [\'*\'] if request.is_local else []\n\n#########################################################################\n## Here is sample code if you need for\n## - email capabilities\n## - authentication (registration, login, logout, ... )\n## - authorization (role based authorization)\n## - services (xml, csv, json, xmlrpc, jsonrpc, amf, rss)\n## - crud actions\n## (more options discussed in gluon/tools.py)\n#########################################################################\n\nfrom gluon.tools import Mail, Auth, Crud, Service, PluginManager, prettydate\nmail = Mail()                                  # mailer\nauth = Auth(db)                                # authentication/authorization\ncrud = Crud(db)                                # for CRUD helpers using auth\nservice = Service()                            # for json, xml, jsonrpc, xmlrpc, amfrpc\nplugins = PluginManager()                      # for configuring plugins\n\n# mail.settings.server = \'logging\' or \'smtp.gmail.com:587\'  # your SMTP server\n# mail.settings.sender = \'you@gmail.com\'         # your email\n# mail.settings.login = \'username:password\'      # your credentials or None\n\n# auth.settings.hmac_key = \'sha512:7a716c8b015b5caca119e195533717fe9a3095d67b3f97114e30256b27392977\'   # before define_tables()\n# auth.define_tables()                           # creates all needed tables\n# auth.settings.mailer = mail                    # for user email verification\n# auth.settings.registration_requires_verification = False\n# auth.settings.registration_requires_approval = False\n# auth.messages.verify_email = \'Click on the link http://\'+request.env.http_host+URL(\'default\',\'user\',args=[\'verify_email\'])+\'/%(key)s to verify your email\'\n# auth.settings.reset_password_requires_verification = True\n# auth.messages.reset_password = \'Click on the link http://\'+request.env.http_host+URL(\'default\',\'user\',args=[\'reset_password\'])+\'/%(key)s to reset your password\'\n\n\n\n#########################################################################\n## If you need to use OpenID, Facebook, MySpace, Twitter, Linkedin, etc.\n## register with janrain.com, uncomment and customize following\n# from gluon.contrib.login_methods.rpx_account import RPXAccount\n# auth.settings.actions_disabled = \\\n#    [\'register\',\'change_password\',\'request_reset_password\']\n# auth.settings.login_form = RPXAccount(request, api_key=\'...\',domain=\'...\',\n#    url = "http://localhost:8000/%s/default/user/login" % request.application)\n## other login methods are in gluon/contrib/login_methods\n#########################################################################\n\n\n# XXX\n# Don\'t know\n# crud.settings.auth = None        # =auth to enforce authorization on crud\n\n#########################################################################\n## Define your tables below (or better in another model file) for example\n##\n## >>> db.define_table(\'mytable\',Field(\'myfield\',\'string\'))\n##\n## Fields can be \'string\',\'text\',\'password\',\'integer\',\'double\',\'boolean\'\n##       \'date\',\'time\',\'datetime\',\'blob\',\'upload\', \'reference TABLENAME\'\n## There is an implicit \'id integer autoincrement\' field\n## Consult manual for more options, validators, etc.\n##\n## More API examples for controllers:\n##\n## >>> db.mytable.insert(myfield=\'value\')\n## >>> rows=db(db.mytable.myfield==\'value\').select(db.mytable.ALL)\n## >>> for row in rows: print row.id, row.myfield\n#########################################################################\n\n# mail.settings.server = settings.email_server\n# mail.settings.sender = settings.email_sender\n# mail.settings.login = settings.email_login\n\nGlobaleaks = local_import(\'globaleaks\')\n\ngl = Globaleaks()\n\nid = gl.create_leak("First Leak", "A sample leak on how DDB is working with the FBI",\n        None, None, {"Al Jazeera":10 , "CNN":20})\n\n'
p6
sS'snapshot'
p7
(dp8
S'exception'
p9
(dp10
S'__module__'
p11
S"'sqlite3'"
p12
sS'__getslice__'
p13
S"<method-wrapper '__getslice__' of ProgrammingError object>"
p14
sS'__str__'
p15
S"<method-wrapper '__str__' of ProgrammingError object>"
p16
sS'__reduce__'
p17
S'<built-in method __reduce__ of ProgrammingError object>'
p18
sS'__dict__'
p19
S'{}'
p20
sS'__sizeof__'
p21
S'<built-in method __sizeof__ of ProgrammingError object>'
p22
sS'__weakref__'
p23
S'None'
p24
sS'__init__'
p25
S"<method-wrapper '__init__' of ProgrammingError object>"
p26
sS'__setattr__'
p27
S"<method-wrapper '__setattr__' of ProgrammingError object>"
p28
sS'__reduce_ex__'
p29
S'<built-in method __reduce_ex__ of ProgrammingError object>'
p30
sS'__new__'
p31
S'<built-in method __new__ of type object>'
p32
sS'__format__'
p33
S'<built-in method __format__ of ProgrammingError object>'
p34
sS'__class__'
p35
S"<class 'sqlite3.ProgrammingError'>"
p36
sS'__doc__'
p37
S'None'
p38
sS'__getitem__'
p39
S"<method-wrapper '__getitem__' of ProgrammingError object>"
p40
sS'__setstate__'
p41
S'<built-in method __setstate__ of ProgrammingError object>'
p42
sS'__getattribute__'
p43
S"<method-wrapper '__getattribute__' of ProgrammingError object>"
p44
sS'args'
p45
S"('Cannot operate on a closed database.',)"
p46
sS'__subclasshook__'
p47
S'<built-in method __subclasshook__ of type object>'
p48
sS'__unicode__'
p49
S'<built-in method __unicode__ of ProgrammingError object>'
p50
sS'__delattr__'
p51
S"<method-wrapper '__delattr__' of ProgrammingError object>"
p52
sS'__repr__'
p53
S"<method-wrapper '__repr__' of ProgrammingError object>"
p54
sS'__hash__'
p55
S"<method-wrapper '__hash__' of ProgrammingError object>"
p56
ssS'evalue'
p57
S'Cannot operate on a closed database.'
p58
sS'request'
p59
ccopy_reg
_reconstructor
p60
(cgluon.html
BEAUTIFY
p61
c__builtin__
object
p62
NtRp63
(dp64
S'attributes'
p65
(dp66
sS'components'
p67
(lp68
g60
(cgluon.html
TABLE
p69
g62
NtRp70
(dp71
g65
(dp72
S'level'
p73
I5
ssS'parent'
p74
Nsg67
(lp75
g60
(cgluon.html
TR
p76
g62
NtRp77
(dp78
g65
(dp79
sg74
g70
sg67
(lp80
g60
(cgluon.html
TD
p81
g62
NtRp82
(dp83
g65
(dp84
S'_style'
p85
S'font-weight:bold;'
p86
ssg74
g77
sg67
(lp87
S'ajax'
p88
asbag60
(g81
g62
NtRp89
(dp90
g65
(dp91
S'_valign'
p92
S'top'
p93
ssg74
g77
sg67
(lp94
S':'
asbag60
(g81
g62
NtRp95
(dp96
g65
(dp97
sg74
g77
sg67
(lp98
g60
(g61
g62
NtRp99
(dp100
g65
(dp101
g73
I5
ssg74
g95
sg67
(lp102
S'False'
p103
asbasbasbag60
(g76
g62
NtRp104
(dp105
g65
(dp106
sg74
g70
sg67
(lp107
g60
(g81
g62
NtRp108
(dp109
g65
(dp110
g85
g86
ssg74
g104
sg67
(lp111
S'application'
p112
asbag60
(g81
g62
NtRp113
(dp114
g65
(dp115
g92
g93
ssg74
g104
sg67
(lp116
S':'
asbag60
(g81
g62
NtRp117
(dp118
g65
(dp119
sg74
g104
sg67
(lp120
g60
(g61
g62
NtRp121
(dp122
g65
(dp123
g73
I5
ssg74
g117
sg67
(lp124
S'init'
p125
asbasbasbag60
(g76
g62
NtRp126
(dp127
g65
(dp128
sg74
g70
sg67
(lp129
g60
(g81
g62
NtRp130
(dp131
g65
(dp132
g85
g86
ssg74
g126
sg67
(lp133
g45
asbag60
(g81
g62
NtRp134
(dp135
g65
(dp136
g92
g93
ssg74
g126
sg67
(lp137
S':'
asbag60
(g81
g62
NtRp138
(dp139
g65
(dp140
sg74
g126
sg67
(lp141
g60
(g61
g62
NtRp142
(dp143
g65
(dp144
g73
I5
ssg74
g138
sg67
(lp145
g60
(g69
g62
NtRp146
(dp147
g65
(dp148
g73
I4
ssg74
Nsg67
(lp149
sbasbasbasbag60
(g76
g62
NtRp150
(dp151
g65
(dp152
sg74
g70
sg67
(lp153
g60
(g81
g62
NtRp154
(dp155
g65
(dp156
g85
g86
ssg74
g150
sg67
(lp157
S'body'
p158
asbag60
(g81
g62
NtRp159
(dp160
g65
(dp161
g92
g93
ssg74
g150
sg67
(lp162
S':'
asbag60
(g81
g62
NtRp163
(dp164
g65
(dp165
sg74
g150
sg67
(lp166
g60
(g61
g62
NtRp167
(dp168
g65
(dp169
g73
I5
ssg74
g163
sg67
(lp170
S'<cStringIO.StringO object at 0x103f243e8>'
p171
asbasbasbag60
(g76
g62
NtRp172
(dp173
g65
(dp174
sg74
g70
sg67
(lp175
g60
(g81
g62
NtRp176
(dp177
g65
(dp178
g85
g86
ssg74
g172
sg67
(lp179
S'client'
p180
asbag60
(g81
g62
NtRp181
(dp182
g65
(dp183
g92
g93
ssg74
g172
sg67
(lp184
S':'
asbag60
(g81
g62
NtRp185
(dp186
g65
(dp187
sg74
g172
sg67
(lp188
g60
(g61
g62
NtRp189
(dp190
g65
(dp191
g73
I5
ssg74
g185
sg67
(lp192
S'127.0.0.1'
p193
asbasbasbag60
(g76
g62
NtRp194
(dp195
g65
(dp196
sg74
g70
sg67
(lp197
g60
(g81
g62
NtRp198
(dp199
g65
(dp200
g85
g86
ssg74
g194
sg67
(lp201
S'controller'
p202
asbag60
(g81
g62
NtRp203
(dp204
g65
(dp205
g92
g93
ssg74
g194
sg67
(lp206
S':'
asbag60
(g81
g62
NtRp207
(dp208
g65
(dp209
sg74
g194
sg67
(lp210
g60
(g61
g62
NtRp211
(dp212
g65
(dp213
g73
I5
ssg74
g207
sg67
(lp214
S'default'
p215
asbasbasbag60
(g76
g62
NtRp216
(dp217
g65
(dp218
sg74
g70
sg67
(lp219
g60
(g81
g62
NtRp220
(dp221
g65
(dp222
g85
g86
ssg74
g216
sg67
(lp223
S'cookies'
p224
asbag60
(g81
g62
NtRp225
(dp226
g65
(dp227
g92
g93
ssg74
g216
sg67
(lp228
S':'
asbag60
(g81
g62
NtRp229
(dp230
g65
(dp231
sg74
g216
sg67
(lp232
g60
(g61
g62
NtRp233
(dp234
g65
(dp235
g73
I5
ssg74
g229
sg67
(lp236
g60
(g69
g62
NtRp237
(dp238
g65
(dp239
g73
I4
ssg74
Nsg67
(lp240
g60
(g76
g62
NtRp241
(dp242
g65
(dp243
sg74
g237
sg67
(lp244
g60
(g81
g62
NtRp245
(dp246
g65
(dp247
g85
g86
ssg74
g241
sg67
(lp248
S'session_id_admin'
p249
asbag60
(g81
g62
NtRp250
(dp251
g65
(dp252
g92
g93
ssg74
g241
sg67
(lp253
S':'
asbag60
(g81
g62
NtRp254
(dp255
g65
(dp256
sg74
g241
sg67
(lp257
g60
(g61
g62
NtRp258
(dp259
g65
(dp260
g73
I4
ssg74
g254
sg67
(lp261
g60
(g69
g62
NtRp262
(dp263
g65
(dp264
g73
I3
ssg74
Nsg67
(lp265
g60
(g76
g62
NtRp266
(dp267
g65
(dp268
sg74
g262
sg67
(lp269
g60
(g81
g62
NtRp270
(dp271
g65
(dp272
g85
g86
ssg74
g266
sg67
(lp273
S'comment'
p274
asbag60
(g81
g62
NtRp275
(dp276
g65
(dp277
g92
g93
ssg74
g266
sg67
(lp278
S':'
asbag60
(g81
g62
NtRp279
(dp280
g65
(dp281
sg74
g266
sg67
(lp282
g60
(g61
g62
NtRp283
(dp284
g65
(dp285
g73
I3
ssg74
g279
sg67
(lp286
S''
asbasbasbag60
(g76
g62
NtRp287
(dp288
g65
(dp289
sg74
g262
sg67
(lp290
g60
(g81
g62
NtRp291
(dp292
g65
(dp293
g85
g86
ssg74
g287
sg67
(lp294
S'domain'
p295
asbag60
(g81
g62
NtRp296
(dp297
g65
(dp298
g92
g93
ssg74
g287
sg67
(lp299
S':'
asbag60
(g81
g62
NtRp300
(dp301
g65
(dp302
sg74
g287
sg67
(lp303
g60
(g61
g62
NtRp304
(dp305
g65
(dp306
g73
I3
ssg74
g300
sg67
(lp307
S''
asbasbasbag60
(g76
g62
NtRp308
(dp309
g65
(dp310
sg74
g262
sg67
(lp311
g60
(g81
g62
NtRp312
(dp313
g65
(dp314
g85
g86
ssg74
g308
sg67
(lp315
S'expires'
p316
asbag60
(g81
g62
NtRp317
(dp318
g65
(dp319
g92
g93
ssg74
g308
sg67
(lp320
S':'
asbag60
(g81
g62
NtRp321
(dp322
g65
(dp323
sg74
g308
sg67
(lp324
g60
(g61
g62
NtRp325
(dp326
g65
(dp327
g73
I3
ssg74
g321
sg67
(lp328
S''
asbasbasbag60
(g76
g62
NtRp329
(dp330
g65
(dp331
sg74
g262
sg67
(lp332
g60
(g81
g62
NtRp333
(dp334
g65
(dp335
g85
g86
ssg74
g329
sg67
(lp336
S'httponly'
p337
asbag60
(g81
g62
NtRp338
(dp339
g65
(dp340
g92
g93
ssg74
g329
sg67
(lp341
S':'
asbag60
(g81
g62
NtRp342
(dp343
g65
(dp344
sg74
g329
sg67
(lp345
g60
(g61
g62
NtRp346
(dp347
g65
(dp348
g73
I3
ssg74
g342
sg67
(lp349
S''
asbasbasbag60
(g76
g62
NtRp350
(dp351
g65
(dp352
sg74
g262
sg67
(lp353
g60
(g81
g62
NtRp354
(dp355
g65
(dp356
g85
g86
ssg74
g350
sg67
(lp357
S'max-age'
p358
asbag60
(g81
g62
NtRp359
(dp360
g65
(dp361
g92
g93
ssg74
g350
sg67
(lp362
S':'
asbag60
(g81
g62
NtRp363
(dp364
g65
(dp365
sg74
g350
sg67
(lp366
g60
(g61
g62
NtRp367
(dp368
g65
(dp369
g73
I3
ssg74
g363
sg67
(lp370
S''
asbasbasbag60
(g76
g62
NtRp371
(dp372
g65
(dp373
sg74
g262
sg67
(lp374
g60
(g81
g62
NtRp375
(dp376
g65
(dp377
g85
g86
ssg74
g371
sg67
(lp378
S'path'
p379
asbag60
(g81
g62
NtRp380
(dp381
g65
(dp382
g92
g93
ssg74
g371
sg67
(lp383
S':'
asbag60
(g81
g62
NtRp384
(dp385
g65
(dp386
sg74
g371
sg67
(lp387
g60
(g61
g62
NtRp388
(dp389
g65
(dp390
g73
I3
ssg74
g384
sg67
(lp391
S''
asbasbasbag60
(g76
g62
NtRp392
(dp393
g65
(dp394
sg74
g262
sg67
(lp395
g60
(g81
g62
NtRp396
(dp397
g65
(dp398
g85
g86
ssg74
g392
sg67
(lp399
S'secure'
p400
asbag60
(g81
g62
NtRp401
(dp402
g65
(dp403
g92
g93
ssg74
g392
sg67
(lp404
S':'
asbag60
(g81
g62
NtRp405
(dp406
g65
(dp407
sg74
g392
sg67
(lp408
g60
(g61
g62
NtRp409
(dp410
g65
(dp411
g73
I3
ssg74
g405
sg67
(lp412
S''
asbasbasbag60
(g76
g62
NtRp413
(dp414
g65
(dp415
sg74
g262
sg67
(lp416
g60
(g81
g62
NtRp417
(dp418
g65
(dp419
g85
g86
ssg74
g413
sg67
(lp420
S'version'
p421
asbag60
(g81
g62
NtRp422
(dp423
g65
(dp424
g92
g93
ssg74
g413
sg67
(lp425
S':'
asbag60
(g81
g62
NtRp426
(dp427
g65
(dp428
sg74
g413
sg67
(lp429
g60
(g61
g62
NtRp430
(dp431
g65
(dp432
g73
I3
ssg74
g426
sg67
(lp433
S''
asbasbasbasbasbasbasbag60
(g76
g62
NtRp434
(dp435
g65
(dp436
sg74
g237
sg67
(lp437
g60
(g81
g62
NtRp438
(dp439
g65
(dp440
g85
g86
ssg74
g434
sg67
(lp441
S'session_id_blabla'
p442
asbag60
(g81
g62
NtRp443
(dp444
g65
(dp445
g92
g93
ssg74
g434
sg67
(lp446
S':'
asbag60
(g81
g62
NtRp447
(dp448
g65
(dp449
sg74
g434
sg67
(lp450
g60
(g61
g62
NtRp451
(dp452
g65
(dp453
g73
I4
ssg74
g447
sg67
(lp454
g60
(g69
g62
NtRp455
(dp456
g65
(dp457
g73
I3
ssg74
Nsg67
(lp458
g60
(g76
g62
NtRp459
(dp460
g65
(dp461
sg74
g455
sg67
(lp462
g60
(g81
g62
NtRp463
(dp464
g65
(dp465
g85
g86
ssg74
g459
sg67
(lp466
g274
asbag60
(g81
g62
NtRp467
(dp468
g65
(dp469
g92
g93
ssg74
g459
sg67
(lp470
S':'
asbag60
(g81
g62
NtRp471
(dp472
g65
(dp473
sg74
g459
sg67
(lp474
g60
(g61
g62
NtRp475
(dp476
g65
(dp477
g73
I3
ssg74
g471
sg67
(lp478
S''
asbasbasbag60
(g76
g62
NtRp479
(dp480
g65
(dp481
sg74
g455
sg67
(lp482
g60
(g81
g62
NtRp483
(dp484
g65
(dp485
g85
g86
ssg74
g479
sg67
(lp486
g295
asbag60
(g81
g62
NtRp487
(dp488
g65
(dp489
g92
g93
ssg74
g479
sg67
(lp490
S':'
asbag60
(g81
g62
NtRp491
(dp492
g65
(dp493
sg74
g479
sg67
(lp494
g60
(g61
g62
NtRp495
(dp496
g65
(dp497
g73
I3
ssg74
g491
sg67
(lp498
S''
asbasbasbag60
(g76
g62
NtRp499
(dp500
g65
(dp501
sg74
g455
sg67
(lp502
g60
(g81
g62
NtRp503
(dp504
g65
(dp505
g85
g86
ssg74
g499
sg67
(lp506
g316
asbag60
(g81
g62
NtRp507
(dp508
g65
(dp509
g92
g93
ssg74
g499
sg67
(lp510
S':'
asbag60
(g81
g62
NtRp511
(dp512
g65
(dp513
sg74
g499
sg67
(lp514
g60
(g61
g62
NtRp515
(dp516
g65
(dp517
g73
I3
ssg74
g511
sg67
(lp518
S''
asbasbasbag60
(g76
g62
NtRp519
(dp520
g65
(dp521
sg74
g455
sg67
(lp522
g60
(g81
g62
NtRp523
(dp524
g65
(dp525
g85
g86
ssg74
g519
sg67
(lp526
g337
asbag60
(g81
g62
NtRp527
(dp528
g65
(dp529
g92
g93
ssg74
g519
sg67
(lp530
S':'
asbag60
(g81
g62
NtRp531
(dp532
g65
(dp533
sg74
g519
sg67
(lp534
g60
(g61
g62
NtRp535
(dp536
g65
(dp537
g73
I3
ssg74
g531
sg67
(lp538
S''
asbasbasbag60
(g76
g62
NtRp539
(dp540
g65
(dp541
sg74
g455
sg67
(lp542
g60
(g81
g62
NtRp543
(dp544
g65
(dp545
g85
g86
ssg74
g539
sg67
(lp546
g358
asbag60
(g81
g62
NtRp547
(dp548
g65
(dp549
g92
g93
ssg74
g539
sg67
(lp550
S':'
asbag60
(g81
g62
NtRp551
(dp552
g65
(dp553
sg74
g539
sg67
(lp554
g60
(g61
g62
NtRp555
(dp556
g65
(dp557
g73
I3
ssg74
g551
sg67
(lp558
S''
asbasbasbag60
(g76
g62
NtRp559
(dp560
g65
(dp561
sg74
g455
sg67
(lp562
g60
(g81
g62
NtRp563
(dp564
g65
(dp565
g85
g86
ssg74
g559
sg67
(lp566
g379
asbag60
(g81
g62
NtRp567
(dp568
g65
(dp569
g92
g93
ssg74
g559
sg67
(lp570
S':'
asbag60
(g81
g62
NtRp571
(dp572
g65
(dp573
sg74
g559
sg67
(lp574
g60
(g61
g62
NtRp575
(dp576
g65
(dp577
g73
I3
ssg74
g571
sg67
(lp578
S''
asbasbasbag60
(g76
g62
NtRp579
(dp580
g65
(dp581
sg74
g455
sg67
(lp582
g60
(g81
g62
NtRp583
(dp584
g65
(dp585
g85
g86
ssg74
g579
sg67
(lp586
g400
asbag60
(g81
g62
NtRp587
(dp588
g65
(dp589
g92
g93
ssg74
g579
sg67
(lp590
S':'
asbag60
(g81
g62
NtRp591
(dp592
g65
(dp593
sg74
g579
sg67
(lp594
g60
(g61
g62
NtRp595
(dp596
g65
(dp597
g73
I3
ssg74
g591
sg67
(lp598
S''
asbasbasbag60
(g76
g62
NtRp599
(dp600
g65
(dp601
sg74
g455
sg67
(lp602
g60
(g81
g62
NtRp603
(dp604
g65
(dp605
g85
g86
ssg74
g599
sg67
(lp606
g421
asbag60
(g81
g62
NtRp607
(dp608
g65
(dp609
g92
g93
ssg74
g599
sg67
(lp610
S':'
asbag60
(g81
g62
NtRp611
(dp612
g65
(dp613
sg74
g599
sg67
(lp614
g60
(g61
g62
NtRp615
(dp616
g65
(dp617
g73
I3
ssg74
g611
sg67
(lp618
S''
asbasbasbasbasbasbasbag60
(g76
g62
NtRp619
(dp620
g65
(dp621
sg74
g237
sg67
(lp622
g60
(g81
g62
NtRp623
(dp624
g65
(dp625
g85
g86
ssg74
g619
sg67
(lp626
S'session_id_globaleaks'
p627
asbag60
(g81
g62
NtRp628
(dp629
g65
(dp630
g92
g93
ssg74
g619
sg67
(lp631
S':'
asbag60
(g81
g62
NtRp632
(dp633
g65
(dp634
sg74
g619
sg67
(lp635
g60
(g61
g62
NtRp636
(dp637
g65
(dp638
g73
I4
ssg74
g632
sg67
(lp639
g60
(g69
g62
NtRp640
(dp641
g65
(dp642
g73
I3
ssg74
Nsg67
(lp643
g60
(g76
g62
NtRp644
(dp645
g65
(dp646
sg74
g640
sg67
(lp647
g60
(g81
g62
NtRp648
(dp649
g65
(dp650
g85
g86
ssg74
g644
sg67
(lp651
g274
asbag60
(g81
g62
NtRp652
(dp653
g65
(dp654
g92
g93
ssg74
g644
sg67
(lp655
S':'
asbag60
(g81
g62
NtRp656
(dp657
g65
(dp658
sg74
g644
sg67
(lp659
g60
(g61
g62
NtRp660
(dp661
g65
(dp662
g73
I3
ssg74
g656
sg67
(lp663
S''
asbasbasbag60
(g76
g62
NtRp664
(dp665
g65
(dp666
sg74
g640
sg67
(lp667
g60
(g81
g62
NtRp668
(dp669
g65
(dp670
g85
g86
ssg74
g664
sg67
(lp671
g295
asbag60
(g81
g62
NtRp672
(dp673
g65
(dp674
g92
g93
ssg74
g664
sg67
(lp675
S':'
asbag60
(g81
g62
NtRp676
(dp677
g65
(dp678
sg74
g664
sg67
(lp679
g60
(g61
g62
NtRp680
(dp681
g65
(dp682
g73
I3
ssg74
g676
sg67
(lp683
S''
asbasbasbag60
(g76
g62
NtRp684
(dp685
g65
(dp686
sg74
g640
sg67
(lp687
g60
(g81
g62
NtRp688
(dp689
g65
(dp690
g85
g86
ssg74
g684
sg67
(lp691
g316
asbag60
(g81
g62
NtRp692
(dp693
g65
(dp694
g92
g93
ssg74
g684
sg67
(lp695
S':'
asbag60
(g81
g62
NtRp696
(dp697
g65
(dp698
sg74
g684
sg67
(lp699
g60
(g61
g62
NtRp700
(dp701
g65
(dp702
g73
I3
ssg74
g696
sg67
(lp703
S''
asbasbasbag60
(g76
g62
NtRp704
(dp705
g65
(dp706
sg74
g640
sg67
(lp707
g60
(g81
g62
NtRp708
(dp709
g65
(dp710
g85
g86
ssg74
g704
sg67
(lp711
g337
asbag60
(g81
g62
NtRp712
(dp713
g65
(dp714
g92
g93
ssg74
g704
sg67
(lp715
S':'
asbag60
(g81
g62
NtRp716
(dp717
g65
(dp718
sg74
g704
sg67
(lp719
g60
(g61
g62
NtRp720
(dp721
g65
(dp722
g73
I3
ssg74
g716
sg67
(lp723
S''
asbasbasbag60
(g76
g62
NtRp724
(dp725
g65
(dp726
sg74
g640
sg67
(lp727
g60
(g81
g62
NtRp728
(dp729
g65
(dp730
g85
g86
ssg74
g724
sg67
(lp731
g358
asbag60
(g81
g62
NtRp732
(dp733
g65
(dp734
g92
g93
ssg74
g724
sg67
(lp735
S':'
asbag60
(g81
g62
NtRp736
(dp737
g65
(dp738
sg74
g724
sg67
(lp739
g60
(g61
g62
NtRp740
(dp741
g65
(dp742
g73
I3
ssg74
g736
sg67
(lp743
S''
asbasbasbag60
(g76
g62
NtRp744
(dp745
g65
(dp746
sg74
g640
sg67
(lp747
g60
(g81
g62
NtRp748
(dp749
g65
(dp750
g85
g86
ssg74
g744
sg67
(lp751
g379
asbag60
(g81
g62
NtRp752
(dp753
g65
(dp754
g92
g93
ssg74
g744
sg67
(lp755
S':'
asbag60
(g81
g62
NtRp756
(dp757
g65
(dp758
sg74
g744
sg67
(lp759
g60
(g61
g62
NtRp760
(dp761
g65
(dp762
g73
I3
ssg74
g756
sg67
(lp763
S''
asbasbasbag60
(g76
g62
NtRp764
(dp765
g65
(dp766
sg74
g640
sg67
(lp767
g60
(g81
g62
NtRp768
(dp769
g65
(dp770
g85
g86
ssg74
g764
sg67
(lp771
g400
asbag60
(g81
g62
NtRp772
(dp773
g65
(dp774
g92
g93
ssg74
g764
sg67
(lp775
S':'
asbag60
(g81
g62
NtRp776
(dp777
g65
(dp778
sg74
g764
sg67
(lp779
g60
(g61
g62
NtRp780
(dp781
g65
(dp782
g73
I3
ssg74
g776
sg67
(lp783
S''
asbasbasbag60
(g76
g62
NtRp784
(dp785
g65
(dp786
sg74
g640
sg67
(lp787
g60
(g81
g62
NtRp788
(dp789
g65
(dp790
g85
g86
ssg74
g784
sg67
(lp791
g421
asbag60
(g81
g62
NtRp792
(dp793
g65
(dp794
g92
g93
ssg74
g784
sg67
(lp795
S':'
asbag60
(g81
g62
NtRp796
(dp797
g65
(dp798
sg74
g784
sg67
(lp799
g60
(g61
g62
NtRp800
(dp801
g65
(dp802
g73
I3
ssg74
g796
sg67
(lp803
S''
asbasbasbasbasbasbasbag60
(g76
g62
NtRp804
(dp805
g65
(dp806
sg74
g237
sg67
(lp807
g60
(g81
g62
NtRp808
(dp809
g65
(dp810
g85
g86
ssg74
g804
sg67
(lp811
S'session_id_init'
p812
asbag60
(g81
g62
NtRp813
(dp814
g65
(dp815
g92
g93
ssg74
g804
sg67
(lp816
S':'
asbag60
(g81
g62
NtRp817
(dp818
g65
(dp819
sg74
g804
sg67
(lp820
g60
(g61
g62
NtRp821
(dp822
g65
(dp823
g73
I4
ssg74
g817
sg67
(lp824
g60
(g69
g62
NtRp825
(dp826
g65
(dp827
g73
I3
ssg74
Nsg67
(lp828
g60
(g76
g62
NtRp829
(dp830
g65
(dp831
sg74
g825
sg67
(lp832
g60
(g81
g62
NtRp833
(dp834
g65
(dp835
g85
g86
ssg74
g829
sg67
(lp836
g274
asbag60
(g81
g62
NtRp837
(dp838
g65
(dp839
g92
g93
ssg74
g829
sg67
(lp840
S':'
asbag60
(g81
g62
NtRp841
(dp842
g65
(dp843
sg74
g829
sg67
(lp844
g60
(g61
g62
NtRp845
(dp846
g65
(dp847
g73
I3
ssg74
g841
sg67
(lp848
S''
asbasbasbag60
(g76
g62
NtRp849
(dp850
g65
(dp851
sg74
g825
sg67
(lp852
g60
(g81
g62
NtRp853
(dp854
g65
(dp855
g85
g86
ssg74
g849
sg67
(lp856
g295
asbag60
(g81
g62
NtRp857
(dp858
g65
(dp859
g92
g93
ssg74
g849
sg67
(lp860
S':'
asbag60
(g81
g62
NtRp861
(dp862
g65
(dp863
sg74
g849
sg67
(lp864
g60
(g61
g62
NtRp865
(dp866
g65
(dp867
g73
I3
ssg74
g861
sg67
(lp868
S''
asbasbasbag60
(g76
g62
NtRp869
(dp870
g65
(dp871
sg74
g825
sg67
(lp872
g60
(g81
g62
NtRp873
(dp874
g65
(dp875
g85
g86
ssg74
g869
sg67
(lp876
g316
asbag60
(g81
g62
NtRp877
(dp878
g65
(dp879
g92
g93
ssg74
g869
sg67
(lp880
S':'
asbag60
(g81
g62
NtRp881
(dp882
g65
(dp883
sg74
g869
sg67
(lp884
g60
(g61
g62
NtRp885
(dp886
g65
(dp887
g73
I3
ssg74
g881
sg67
(lp888
S''
asbasbasbag60
(g76
g62
NtRp889
(dp890
g65
(dp891
sg74
g825
sg67
(lp892
g60
(g81
g62
NtRp893
(dp894
g65
(dp895
g85
g86
ssg74
g889
sg67
(lp896
g337
asbag60
(g81
g62
NtRp897
(dp898
g65
(dp899
g92
g93
ssg74
g889
sg67
(lp900
S':'
asbag60
(g81
g62
NtRp901
(dp902
g65
(dp903
sg74
g889
sg67
(lp904
g60
(g61
g62
NtRp905
(dp906
g65
(dp907
g73
I3
ssg74
g901
sg67
(lp908
S''
asbasbasbag60
(g76
g62
NtRp909
(dp910
g65
(dp911
sg74
g825
sg67
(lp912
g60
(g81
g62
NtRp913
(dp914
g65
(dp915
g85
g86
ssg74
g909
sg67
(lp916
g358
asbag60
(g81
g62
NtRp917
(dp918
g65
(dp919
g92
g93
ssg74
g909
sg67
(lp920
S':'
asbag60
(g81
g62
NtRp921
(dp922
g65
(dp923
sg74
g909
sg67
(lp924
g60
(g61
g62
NtRp925
(dp926
g65
(dp927
g73
I3
ssg74
g921
sg67
(lp928
S''
asbasbasbag60
(g76
g62
NtRp929
(dp930
g65
(dp931
sg74
g825
sg67
(lp932
g60
(g81
g62
NtRp933
(dp934
g65
(dp935
g85
g86
ssg74
g929
sg67
(lp936
g379
asbag60
(g81
g62
NtRp937
(dp938
g65
(dp939
g92
g93
ssg74
g929
sg67
(lp940
S':'
asbag60
(g81
g62
NtRp941
(dp942
g65
(dp943
sg74
g929
sg67
(lp944
g60
(g61
g62
NtRp945
(dp946
g65
(dp947
g73
I3
ssg74
g941
sg67
(lp948
S''
asbasbasbag60
(g76
g62
NtRp949
(dp950
g65
(dp951
sg74
g825
sg67
(lp952
g60
(g81
g62
NtRp953
(dp954
g65
(dp955
g85
g86
ssg74
g949
sg67
(lp956
g400
asbag60
(g81
g62
NtRp957
(dp958
g65
(dp959
g92
g93
ssg74
g949
sg67
(lp960
S':'
asbag60
(g81
g62
NtRp961
(dp962
g65
(dp963
sg74
g949
sg67
(lp964
g60
(g61
g62
NtRp965
(dp966
g65
(dp967
g73
I3
ssg74
g961
sg67
(lp968
S''
asbasbasbag60
(g76
g62
NtRp969
(dp970
g65
(dp971
sg74
g825
sg67
(lp972
g60
(g81
g62
NtRp973
(dp974
g65
(dp975
g85
g86
ssg74
g969
sg67
(lp976
g421
asbag60
(g81
g62
NtRp977
(dp978
g65
(dp979
g92
g93
ssg74
g969
sg67
(lp980
S':'
asbag60
(g81
g62
NtRp981
(dp982
g65
(dp983
sg74
g969
sg67
(lp984
g60
(g61
g62
NtRp985
(dp986
g65
(dp987
g73
I3
ssg74
g981
sg67
(lp988
S''
asbasbasbasbasbasbasbasbasbasbasbag60
(g76
g62
NtRp989
(dp990
g65
(dp991
sg74
g70
sg67
(lp992
g60
(g81
g62
NtRp993
(dp994
g65
(dp995
g85
g86
ssg74
g989
sg67
(lp996
S'env'
p997
asbag60
(g81
g62
NtRp998
(dp999
g65
(dp1000
g92
g93
ssg74
g989
sg67
(lp1001
S':'
asbag60
(g81
g62
NtRp1002
(dp1003
g65
(dp1004
sg74
g989
sg67
(lp1005
g60
(g61
g62
NtRp1006
(dp1007
g65
(dp1008
g73
I5
ssg74
g1002
sg67
(lp1009
g60
(g69
g62
NtRp1010
(dp1011
g65
(dp1012
g73
I4
ssg74
Nsg67
(lp1013
g60
(g76
g62
NtRp1014
(dp1015
g65
(dp1016
sg74
g1010
sg67
(lp1017
g60
(g81
g62
NtRp1018
(dp1019
g65
(dp1020
g85
g86
ssg74
g1014
sg67
(lp1021
S'app_folders'
p1022
asbag60
(g81
g62
NtRp1023
(dp1024
g65
(dp1025
g92
g93
ssg74
g1014
sg67
(lp1026
S':'
asbag60
(g81
g62
NtRp1027
(dp1028
g65
(dp1029
sg74
g1014
sg67
(lp1030
g60
(g61
g62
NtRp1031
(dp1032
g65
(dp1033
g73
I4
ssg74
g1027
sg67
(lp1034
S"set(['/Users/hellais/Documents/code/mygit/globaleaks/webapp/applications/init/', '/Users/hellais/Documents/code/mygit/globaleaks/webapp/applications/admin/'])"
p1035
asbasbasbag60
(g76
g62
NtRp1036
(dp1037
g65
(dp1038
sg74
g1010
sg67
(lp1039
g60
(g81
g62
NtRp1040
(dp1041
g65
(dp1042
g85
g86
ssg74
g1036
sg67
(lp1043
S'applications_parent'
p1044
asbag60
(g81
g62
NtRp1045
(dp1046
g65
(dp1047
g92
g93
ssg74
g1036
sg67
(lp1048
S':'
asbag60
(g81
g62
NtRp1049
(dp1050
g65
(dp1051
sg74
g1036
sg67
(lp1052
g60
(g61
g62
NtRp1053
(dp1054
g65
(dp1055
g73
I4
ssg74
g1049
sg67
(lp1056
S'/Users/hellais/Documents/code/mygit/globaleaks/webapp'
p1057
asbasbasbag60
(g76
g62
NtRp1058
(dp1059
g65
(dp1060
sg74
g1010
sg67
(lp1061
g60
(g81
g62
NtRp1062
(dp1063
g65
(dp1064
g85
g86
ssg74
g1058
sg67
(lp1065
S'cmd_args'
p1066
asbag60
(g81
g62
NtRp1067
(dp1068
g65
(dp1069
g92
g93
ssg74
g1058
sg67
(lp1070
S':'
asbag60
(g81
g62
NtRp1071
(dp1072
g65
(dp1073
sg74
g1058
sg67
(lp1074
g60
(g61
g62
NtRp1075
(dp1076
g65
(dp1077
g73
I4
ssg74
g1071
sg67
(lp1078
g60
(g69
g62
NtRp1079
(dp1080
g65
(dp1081
g73
I3
ssg74
Nsg67
(lp1082
sbasbasbasbag60
(g76
g62
NtRp1083
(dp1084
g65
(dp1085
sg74
g1010
sg67
(lp1086
g60
(g81
g62
NtRp1087
(dp1088
g65
(dp1089
g85
g86
ssg74
g1083
sg67
(lp1090
S'cmd_options'
p1091
asbag60
(g81
g62
NtRp1092
(dp1093
g65
(dp1094
g92
g93
ssg74
g1083
sg67
(lp1095
S':'
asbag60
(g81
g62
NtRp1096
(dp1097
g65
(dp1098
sg74
g1083
sg67
(lp1099
g60
(g61
g62
NtRp1100
(dp1101
g65
(dp1102
g73
I4
ssg74
g1096
sg67
(lp1103
S"<Values at 0x1015f1320: {'verbose': False, 'ip': '127.0.0.1', 'shutdown_timeout': 5, 'taskbar': False, 'port': 8000, 'maxthreads': None, 'softcron': False, 'server_name': 'Jeanne.local', 'bpython': False, 'nogui': False, 'nocron': False, 'extcron': False, 'debuglevel': 30, 'test': None, 'folder': '/Users/hellais/Documents/code/mygit/globaleaks/webapp', 'config': '', 'import_models': False, 'winservice': '', 'shell': None, 'run': '', 'log_filename': 'httpserver.log', 'args': [''], 'profiler_filename': None, 'ssl_private_key': '', 'password': 'antani', 'request_queue_size': 5, 'ssl_certificate': '', 'cronjob': False, 'plain': False, 'quiet': False, 'interfaces': None, 'minthreads': None, 'timeout': 10, 'numthreads': None, 'nobanner': False, 'pid_filename': 'httpserver.pid'}>"
p1104
asbasbasbag60
(g76
g62
NtRp1105
(dp1106
g65
(dp1107
sg74
g1010
sg67
(lp1108
g60
(g81
g62
NtRp1109
(dp1110
g65
(dp1111
g85
g86
ssg74
g1105
sg67
(lp1112
S'db_sessions'
p1113
asbag60
(g81
g62
NtRp1114
(dp1115
g65
(dp1116
g92
g93
ssg74
g1105
sg67
(lp1117
S':'
asbag60
(g81
g62
NtRp1118
(dp1119
g65
(dp1120
sg74
g1105
sg67
(lp1121
g60
(g61
g62
NtRp1122
(dp1123
g65
(dp1124
g73
I4
ssg74
g1118
sg67
(lp1125
S'set([])'
p1126
asbasbasbag60
(g76
g62
NtRp1127
(dp1128
g65
(dp1129
sg74
g1010
sg67
(lp1130
g60
(g81
g62
NtRp1131
(dp1132
g65
(dp1133
g85
g86
ssg74
g1127
sg67
(lp1134
S'debugging'
p1135
asbag60
(g81
g62
NtRp1136
(dp1137
g65
(dp1138
g92
g93
ssg74
g1127
sg67
(lp1139
S':'
asbag60
(g81
g62
NtRp1140
(dp1141
g65
(dp1142
sg74
g1127
sg67
(lp1143
g60
(g61
g62
NtRp1144
(dp1145
g65
(dp1146
g73
I4
ssg74
g1140
sg67
(lp1147
g103
asbasbasbag60
(g76
g62
NtRp1148
(dp1149
g65
(dp1150
sg74
g1010
sg67
(lp1151
g60
(g81
g62
NtRp1152
(dp1153
g65
(dp1154
g85
g86
ssg74
g1148
sg67
(lp1155
S'gluon_parent'
p1156
asbag60
(g81
g62
NtRp1157
(dp1158
g65
(dp1159
g92
g93
ssg74
g1148
sg67
(lp1160
S':'
asbag60
(g81
g62
NtRp1161
(dp1162
g65
(dp1163
sg74
g1148
sg67
(lp1164
g60
(g61
g62
NtRp1165
(dp1166
g65
(dp1167
g73
I4
ssg74
g1161
sg67
(lp1168
S'/Users/hellais/Documents/code/mygit/globaleaks/webapp'
p1169
asbasbasbag60
(g76
g62
NtRp1170
(dp1171
g65
(dp1172
sg74
g1010
sg67
(lp1173
g60
(g81
g62
NtRp1174
(dp1175
g65
(dp1176
g85
g86
ssg74
g1170
sg67
(lp1177
S'http_accept'
p1178
asbag60
(g81
g62
NtRp1179
(dp1180
g65
(dp1181
g92
g93
ssg74
g1170
sg67
(lp1182
S':'
asbag60
(g81
g62
NtRp1183
(dp1184
g65
(dp1185
sg74
g1170
sg67
(lp1186
g60
(g61
g62
NtRp1187
(dp1188
g65
(dp1189
g73
I4
ssg74
g1183
sg67
(lp1190
S'text/html,application/xhtml+xml,application/xml;q=0.9,*/*;q=0.8'
p1191
asbasbasbag60
(g76
g62
NtRp1192
(dp1193
g65
(dp1194
sg74
g1010
sg67
(lp1195
g60
(g81
g62
NtRp1196
(dp1197
g65
(dp1198
g85
g86
ssg74
g1192
sg67
(lp1199
S'http_accept_charset'
p1200
asbag60
(g81
g62
NtRp1201
(dp1202
g65
(dp1203
g92
g93
ssg74
g1192
sg67
(lp1204
S':'
asbag60
(g81
g62
NtRp1205
(dp1206
g65
(dp1207
sg74
g1192
sg67
(lp1208
g60
(g61
g62
NtRp1209
(dp1210
g65
(dp1211
g73
I4
ssg74
g1205
sg67
(lp1212
S'ISO-8859-1,utf-8;q=0.7,*;q=0.7'
p1213
asbasbasbag60
(g76
g62
NtRp1214
(dp1215
g65
(dp1216
sg74
g1010
sg67
(lp1217
g60
(g81
g62
NtRp1218
(dp1219
g65
(dp1220
g85
g86
ssg74
g1214
sg67
(lp1221
S'http_accept_encoding'
p1222
asbag60
(g81
g62
NtRp1223
(dp1224
g65
(dp1225
g92
g93
ssg74
g1214
sg67
(lp1226
S':'
asbag60
(g81
g62
NtRp1227
(dp1228
g65
(dp1229
sg74
g1214
sg67
(lp1230
g60
(g61
g62
NtRp1231
(dp1232
g65
(dp1233
g73
I4
ssg74
g1227
sg67
(lp1234
S'gzip, deflate'
p1235
asbasbasbag60
(g76
g62
NtRp1236
(dp1237
g65
(dp1238
sg74
g1010
sg67
(lp1239
g60
(g81
g62
NtRp1240
(dp1241
g65
(dp1242
g85
g86
ssg74
g1236
sg67
(lp1243
S'http_accept_language'
p1244
asbag60
(g81
g62
NtRp1245
(dp1246
g65
(dp1247
g92
g93
ssg74
g1236
sg67
(lp1248
S':'
asbag60
(g81
g62
NtRp1249
(dp1250
g65
(dp1251
sg74
g1236
sg67
(lp1252
g60
(g61
g62
NtRp1253
(dp1254
g65
(dp1255
g73
I4
ssg74
g1249
sg67
(lp1256
S'en-us,en;q=0.5'
p1257
asbasbasbag60
(g76
g62
NtRp1258
(dp1259
g65
(dp1260
sg74
g1010
sg67
(lp1261
g60
(g81
g62
NtRp1262
(dp1263
g65
(dp1264
g85
g86
ssg74
g1258
sg67
(lp1265
S'http_cache_control'
p1266
asbag60
(g81
g62
NtRp1267
(dp1268
g65
(dp1269
g92
g93
ssg74
g1258
sg67
(lp1270
S':'
asbag60
(g81
g62
NtRp1271
(dp1272
g65
(dp1273
sg74
g1258
sg67
(lp1274
g60
(g61
g62
NtRp1275
(dp1276
g65
(dp1277
g73
I4
ssg74
g1271
sg67
(lp1278
S'max-age=0'
p1279
asbasbasbag60
(g76
g62
NtRp1280
(dp1281
g65
(dp1282
sg74
g1010
sg67
(lp1283
g60
(g81
g62
NtRp1284
(dp1285
g65
(dp1286
g85
g86
ssg74
g1280
sg67
(lp1287
S'http_connection'
p1288
asbag60
(g81
g62
NtRp1289
(dp1290
g65
(dp1291
g92
g93
ssg74
g1280
sg67
(lp1292
S':'
asbag60
(g81
g62
NtRp1293
(dp1294
g65
(dp1295
sg74
g1280
sg67
(lp1296
g60
(g61
g62
NtRp1297
(dp1298
g65
(dp1299
g73
I4
ssg74
g1293
sg67
(lp1300
S'keep-alive'
p1301
asbasbasbag60
(g76
g62
NtRp1302
(dp1303
g65
(dp1304
sg74
g1010
sg67
(lp1305
g60
(g81
g62
NtRp1306
(dp1307
g65
(dp1308
g85
g86
ssg74
g1302
sg67
(lp1309
S'http_cookie'
p1310
asbag60
(g81
g62
NtRp1311
(dp1312
g65
(dp1313
g92
g93
ssg74
g1302
sg67
(lp1314
S':'
asbag60
(g81
g62
NtRp1315
(dp1316
g65
(dp1317
sg74
g1302
sg67
(lp1318
g60
(g61
g62
NtRp1319
(dp1320
g65
(dp1321
g73
I4
ssg74
g1315
sg67
(lp1322
S'session_id_admin=127.0.0.1-67122ce4-50b2-4acf-b28e-7a14feeff4d9; session_id_globaleaks=127.0.0.1-c6d5b9b3-1ec7-41c1-8d72-04c21b7a6b11; session_id_blabla=127.0.0.1-c445384e-a3ea-4484-8fe2-52f3295bbb7c; session_id_init=127.0.0.1-a8551263-bc3c-430c-abb2-8711fac671c1'
p1323
asbasbasbag60
(g76
g62
NtRp1324
(dp1325
g65
(dp1326
sg74
g1010
sg67
(lp1327
g60
(g81
g62
NtRp1328
(dp1329
g65
(dp1330
g85
g86
ssg74
g1324
sg67
(lp1331
S'http_host'
p1332
asbag60
(g81
g62
NtRp1333
(dp1334
g65
(dp1335
g92
g93
ssg74
g1324
sg67
(lp1336
S':'
asbag60
(g81
g62
NtRp1337
(dp1338
g65
(dp1339
sg74
g1324
sg67
(lp1340
g60
(g61
g62
NtRp1341
(dp1342
g65
(dp1343
g73
I4
ssg74
g1337
sg67
(lp1344
S'127.0.0.1:8000'
p1345
asbasbasbag60
(g76
g62
NtRp1346
(dp1347
g65
(dp1348
sg74
g1010
sg67
(lp1349
g60
(g81
g62
NtRp1350
(dp1351
g65
(dp1352
g85
g86
ssg74
g1346
sg67
(lp1353
S'http_referer'
p1354
asbag60
(g81
g62
NtRp1355
(dp1356
g65
(dp1357
g92
g93
ssg74
g1346
sg67
(lp1358
S':'
asbag60
(g81
g62
NtRp1359
(dp1360
g65
(dp1361
sg74
g1346
sg67
(lp1362
g60
(g61
g62
NtRp1363
(dp1364
g65
(dp1365
g73
I4
ssg74
g1359
sg67
(lp1366
S'http://127.0.0.1:8000/'
p1367
asbasbasbag60
(g76
g62
NtRp1368
(dp1369
g65
(dp1370
sg74
g1010
sg67
(lp1371
g60
(g81
g62
NtRp1372
(dp1373
g65
(dp1374
g85
g86
ssg74
g1368
sg67
(lp1375
S'http_user_agent'
p1376
asbag60
(g81
g62
NtRp1377
(dp1378
g65
(dp1379
g92
g93
ssg74
g1368
sg67
(lp1380
S':'
asbag60
(g81
g62
NtRp1381
(dp1382
g65
(dp1383
sg74
g1368
sg67
(lp1384
g60
(g61
g62
NtRp1385
(dp1386
g65
(dp1387
g73
I4
ssg74
g1381
sg67
(lp1388
S'Mozilla/5.0 (Macintosh; Intel Mac OS X 10.6; rv:5.0.1) Gecko/20100101 Firefox/5.0.1'
p1389
asbasbasbag60
(g76
g62
NtRp1390
(dp1391
g65
(dp1392
sg74
g1010
sg67
(lp1393
g60
(g81
g62
NtRp1394
(dp1395
g65
(dp1396
g85
g86
ssg74
g1390
sg67
(lp1397
S'is_jython'
p1398
asbag60
(g81
g62
NtRp1399
(dp1400
g65
(dp1401
g92
g93
ssg74
g1390
sg67
(lp1402
S':'
asbag60
(g81
g62
NtRp1403
(dp1404
g65
(dp1405
sg74
g1390
sg67
(lp1406
g60
(g61
g62
NtRp1407
(dp1408
g65
(dp1409
g73
I4
ssg74
g1403
sg67
(lp1410
g103
asbasbasbag60
(g76
g62
NtRp1411
(dp1412
g65
(dp1413
sg74
g1010
sg67
(lp1414
g60
(g81
g62
NtRp1415
(dp1416
g65
(dp1417
g85
g86
ssg74
g1411
sg67
(lp1418
S'path_info'
p1419
asbag60
(g81
g62
NtRp1420
(dp1421
g65
(dp1422
g92
g93
ssg74
g1411
sg67
(lp1423
S':'
asbag60
(g81
g62
NtRp1424
(dp1425
g65
(dp1426
sg74
g1411
sg67
(lp1427
g60
(g61
g62
NtRp1428
(dp1429
g65
(dp1430
g73
I4
ssg74
g1424
sg67
(lp1431
S'/init/default/submission'
p1432
asbasbasbag60
(g76
g62
NtRp1433
(dp1434
g65
(dp1435
sg74
g1010
sg67
(lp1436
g60
(g81
g62
NtRp1437
(dp1438
g65
(dp1439
g85
g86
ssg74
g1433
sg67
(lp1440
S'query_string'
p1441
asbag60
(g81
g62
NtRp1442
(dp1443
g65
(dp1444
g92
g93
ssg74
g1433
sg67
(lp1445
S':'
asbag60
(g81
g62
NtRp1446
(dp1447
g65
(dp1448
sg74
g1433
sg67
(lp1449
g60
(g61
g62
NtRp1450
(dp1451
g65
(dp1452
g73
I4
ssg74
g1446
sg67
(lp1453
S''
asbasbasbag60
(g76
g62
NtRp1454
(dp1455
g65
(dp1456
sg74
g1010
sg67
(lp1457
g60
(g81
g62
NtRp1458
(dp1459
g65
(dp1460
g85
g86
ssg74
g1454
sg67
(lp1461
S'remote_addr'
p1462
asbag60
(g81
g62
NtRp1463
(dp1464
g65
(dp1465
g92
g93
ssg74
g1454
sg67
(lp1466
S':'
asbag60
(g81
g62
NtRp1467
(dp1468
g65
(dp1469
sg74
g1454
sg67
(lp1470
g60
(g61
g62
NtRp1471
(dp1472
g65
(dp1473
g73
I4
ssg74
g1467
sg67
(lp1474
g193
asbasbasbag60
(g76
g62
NtRp1475
(dp1476
g65
(dp1477
sg74
g1010
sg67
(lp1478
g60
(g81
g62
NtRp1479
(dp1480
g65
(dp1481
g85
g86
ssg74
g1475
sg67
(lp1482
S'remote_port'
p1483
asbag60
(g81
g62
NtRp1484
(dp1485
g65
(dp1486
g92
g93
ssg74
g1475
sg67
(lp1487
S':'
asbag60
(g81
g62
NtRp1488
(dp1489
g65
(dp1490
sg74
g1475
sg67
(lp1491
g60
(g61
g62
NtRp1492
(dp1493
g65
(dp1494
g73
I4
ssg74
g1488
sg67
(lp1495
S'55036'
p1496
asbasbasbag60
(g76
g62
NtRp1497
(dp1498
g65
(dp1499
sg74
g1010
sg67
(lp1500
g60
(g81
g62
NtRp1501
(dp1502
g65
(dp1503
g85
g86
ssg74
g1497
sg67
(lp1504
S'request_method'
p1505
asbag60
(g81
g62
NtRp1506
(dp1507
g65
(dp1508
g92
g93
ssg74
g1497
sg67
(lp1509
S':'
asbag60
(g81
g62
NtRp1510
(dp1511
g65
(dp1512
sg74
g1497
sg67
(lp1513
g60
(g61
g62
NtRp1514
(dp1515
g65
(dp1516
g73
I4
ssg74
g1510
sg67
(lp1517
S'GET'
p1518
asbasbasbag60
(g76
g62
NtRp1519
(dp1520
g65
(dp1521
sg74
g1010
sg67
(lp1522
g60
(g81
g62
NtRp1523
(dp1524
g65
(dp1525
g85
g86
ssg74
g1519
sg67
(lp1526
S'script_name'
p1527
asbag60
(g81
g62
NtRp1528
(dp1529
g65
(dp1530
g92
g93
ssg74
g1519
sg67
(lp1531
S':'
asbag60
(g81
g62
NtRp1532
(dp1533
g65
(dp1534
sg74
g1519
sg67
(lp1535
g60
(g61
g62
NtRp1536
(dp1537
g65
(dp1538
g73
I4
ssg74
g1532
sg67
(lp1539
S''
asbasbasbag60
(g76
g62
NtRp1540
(dp1541
g65
(dp1542
sg74
g1010
sg67
(lp1543
g60
(g81
g62
NtRp1544
(dp1545
g65
(dp1546
g85
g86
ssg74
g1540
sg67
(lp1547
S'server_name'
p1548
asbag60
(g81
g62
NtRp1549
(dp1550
g65
(dp1551
g92
g93
ssg74
g1540
sg67
(lp1552
S':'
asbag60
(g81
g62
NtRp1553
(dp1554
g65
(dp1555
sg74
g1540
sg67
(lp1556
g60
(g61
g62
NtRp1557
(dp1558
g65
(dp1559
g73
I4
ssg74
g1553
sg67
(lp1560
S'Jeanne.local'
p1561
asbasbasbag60
(g76
g62
NtRp1562
(dp1563
g65
(dp1564
sg74
g1010
sg67
(lp1565
g60
(g81
g62
NtRp1566
(dp1567
g65
(dp1568
g85
g86
ssg74
g1562
sg67
(lp1569
S'server_port'
p1570
asbag60
(g81
g62
NtRp1571
(dp1572
g65
(dp1573
g92
g93
ssg74
g1562
sg67
(lp1574
S':'
asbag60
(g81
g62
NtRp1575
(dp1576
g65
(dp1577
sg74
g1562
sg67
(lp1578
g60
(g61
g62
NtRp1579
(dp1580
g65
(dp1581
g73
I4
ssg74
g1575
sg67
(lp1582
S'8000'
p1583
asbasbasbag60
(g76
g62
NtRp1584
(dp1585
g65
(dp1586
sg74
g1010
sg67
(lp1587
g60
(g81
g62
NtRp1588
(dp1589
g65
(dp1590
g85
g86
ssg74
g1584
sg67
(lp1591
S'server_protocol'
p1592
asbag60
(g81
g62
NtRp1593
(dp1594
g65
(dp1595
g92
g93
ssg74
g1584
sg67
(lp1596
S':'
asbag60
(g81
g62
NtRp1597
(dp1598
g65
(dp1599
sg74
g1584
sg67
(lp1600
g60
(g61
g62
NtRp1601
(dp1602
g65
(dp1603
g73
I4
ssg74
g1597
sg67
(lp1604
S'HTTP/1.1'
p1605
asbasbasbag60
(g76
g62
NtRp1606
(dp1607
g65
(dp1608
sg74
g1010
sg67
(lp1609
g60
(g81
g62
NtRp1610
(dp1611
g65
(dp1612
g85
g86
ssg74
g1606
sg67
(lp1613
S'server_software'
p1614
asbag60
(g81
g62
NtRp1615
(dp1616
g65
(dp1617
g92
g93
ssg74
g1606
sg67
(lp1618
S':'
asbag60
(g81
g62
NtRp1619
(dp1620
g65
(dp1621
sg74
g1606
sg67
(lp1622
g60
(g61
g62
NtRp1623
(dp1624
g65
(dp1625
g73
I4
ssg74
g1619
sg67
(lp1626
S'Rocket 1.2.2'
p1627
asbasbasbag60
(g76
g62
NtRp1628
(dp1629
g65
(dp1630
sg74
g1010
sg67
(lp1631
g60
(g81
g62
NtRp1632
(dp1633
g65
(dp1634
g85
g86
ssg74
g1628
sg67
(lp1635
S'web2py_crontype'
p1636
asbag60
(g81
g62
NtRp1637
(dp1638
g65
(dp1639
g92
g93
ssg74
g1628
sg67
(lp1640
S':'
asbag60
(g81
g62
NtRp1641
(dp1642
g65
(dp1643
sg74
g1628
sg67
(lp1644
g60
(g61
g62
NtRp1645
(dp1646
g65
(dp1647
g73
I4
ssg74
g1641
sg67
(lp1648
S'hard'
p1649
asbasbasbag60
(g76
g62
NtRp1650
(dp1651
g65
(dp1652
sg74
g1010
sg67
(lp1653
g60
(g81
g62
NtRp1654
(dp1655
g65
(dp1656
g85
g86
ssg74
g1650
sg67
(lp1657
S'web2py_path'
p1658
asbag60
(g81
g62
NtRp1659
(dp1660
g65
(dp1661
g92
g93
ssg74
g1650
sg67
(lp1662
S':'
asbag60
(g81
g62
NtRp1663
(dp1664
g65
(dp1665
sg74
g1650
sg67
(lp1666
g60
(g61
g62
NtRp1667
(dp1668
g65
(dp1669
g73
I4
ssg74
g1663
sg67
(lp1670
g1057
asbasbasbag60
(g76
g62
NtRp1671
(dp1672
g65
(dp1673
sg74
g1010
sg67
(lp1674
g60
(g81
g62
NtRp1675
(dp1676
g65
(dp1677
g85
g86
ssg74
g1671
sg67
(lp1678
S'web2py_version'
p1679
asbag60
(g81
g62
NtRp1680
(dp1681
g65
(dp1682
g92
g93
ssg74
g1671
sg67
(lp1683
S':'
asbag60
(g81
g62
NtRp1684
(dp1685
g65
(dp1686
sg74
g1671
sg67
(lp1687
g60
(g61
g62
NtRp1688
(dp1689
g65
(dp1690
g73
I4
ssg74
g1684
sg67
(lp1691
S'Version 1.98.2 (2011-08-04 00:47:09)\n'
p1692
asbasbasbag60
(g76
g62
NtRp1693
(dp1694
g65
(dp1695
sg74
g1010
sg67
(lp1696
g60
(g81
g62
NtRp1697
(dp1698
g65
(dp1699
g85
g86
ssg74
g1693
sg67
(lp1700
S'wsgi_errors'
p1701
asbag60
(g81
g62
NtRp1702
(dp1703
g65
(dp1704
g92
g93
ssg74
g1693
sg67
(lp1705
S':'
asbag60
(g81
g62
NtRp1706
(dp1707
g65
(dp1708
sg74
g1693
sg67
(lp1709
g60
(g61
g62
NtRp1710
(dp1711
g65
(dp1712
g73
I4
ssg74
g1706
sg67
(lp1713
S"<open file '<stderr>', mode 'w' at 0x100287270>"
p1714
asbasbasbag60
(g76
g62
NtRp1715
(dp1716
g65
(dp1717
sg74
g1010
sg67
(lp1718
g60
(g81
g62
NtRp1719
(dp1720
g65
(dp1721
g85
g86
ssg74
g1715
sg67
(lp1722
S'wsgi_file_wrapper'
p1723
asbag60
(g81
g62
NtRp1724
(dp1725
g65
(dp1726
g92
g93
ssg74
g1715
sg67
(lp1727
S':'
asbag60
(g81
g62
NtRp1728
(dp1729
g65
(dp1730
sg74
g1715
sg67
(lp1731
g60
(g61
g62
NtRp1732
(dp1733
g65
(dp1734
g73
I4
ssg74
g1728
sg67
(lp1735
S'<class gluon.rocket.FileWrapper at 0x101668e20>'
p1736
asbasbasbag60
(g76
g62
NtRp1737
(dp1738
g65
(dp1739
sg74
g1010
sg67
(lp1740
g60
(g81
g62
NtRp1741
(dp1742
g65
(dp1743
g85
g86
ssg74
g1737
sg67
(lp1744
S'wsgi_input'
p1745
asbag60
(g81
g62
NtRp1746
(dp1747
g65
(dp1748
g92
g93
ssg74
g1737
sg67
(lp1749
S':'
asbag60
(g81
g62
NtRp1750
(dp1751
g65
(dp1752
sg74
g1737
sg67
(lp1753
g60
(g61
g62
NtRp1754
(dp1755
g65
(dp1756
g73
I4
ssg74
g1750
sg67
(lp1757
S'<socket._fileobject object at 0x1021e2bd0>'
p1758
asbasbasbag60
(g76
g62
NtRp1759
(dp1760
g65
(dp1761
sg74
g1010
sg67
(lp1762
g60
(g81
g62
NtRp1763
(dp1764
g65
(dp1765
g85
g86
ssg74
g1759
sg67
(lp1766
S'wsgi_multiprocess'
p1767
asbag60
(g81
g62
NtRp1768
(dp1769
g65
(dp1770
g92
g93
ssg74
g1759
sg67
(lp1771
S':'
asbag60
(g81
g62
NtRp1772
(dp1773
g65
(dp1774
sg74
g1759
sg67
(lp1775
g60
(g61
g62
NtRp1776
(dp1777
g65
(dp1778
g73
I4
ssg74
g1772
sg67
(lp1779
g103
asbasbasbag60
(g76
g62
NtRp1780
(dp1781
g65
(dp1782
sg74
g1010
sg67
(lp1783
g60
(g81
g62
NtRp1784
(dp1785
g65
(dp1786
g85
g86
ssg74
g1780
sg67
(lp1787
S'wsgi_multithread'
p1788
asbag60
(g81
g62
NtRp1789
(dp1790
g65
(dp1791
g92
g93
ssg74
g1780
sg67
(lp1792
S':'
asbag60
(g81
g62
NtRp1793
(dp1794
g65
(dp1795
sg74
g1780
sg67
(lp1796
g60
(g61
g62
NtRp1797
(dp1798
g65
(dp1799
g73
I4
ssg74
g1793
sg67
(lp1800
S'True'
p1801
asbasbasbag60
(g76
g62
NtRp1802
(dp1803
g65
(dp1804
sg74
g1010
sg67
(lp1805
g60
(g81
g62
NtRp1806
(dp1807
g65
(dp1808
g85
g86
ssg74
g1802
sg67
(lp1809
S'wsgi_run_once'
p1810
asbag60
(g81
g62
NtRp1811
(dp1812
g65
(dp1813
g92
g93
ssg74
g1802
sg67
(lp1814
S':'
asbag60
(g81
g62
NtRp1815
(dp1816
g65
(dp1817
sg74
g1802
sg67
(lp1818
g60
(g61
g62
NtRp1819
(dp1820
g65
(dp1821
g73
I4
ssg74
g1815
sg67
(lp1822
g103
asbasbasbag60
(g76
g62
NtRp1823
(dp1824
g65
(dp1825
sg74
g1010
sg67
(lp1826
g60
(g81
g62
NtRp1827
(dp1828
g65
(dp1829
g85
g86
ssg74
g1823
sg67
(lp1830
S'wsgi_url_scheme'
p1831
asbag60
(g81
g62
NtRp1832
(dp1833
g65
(dp1834
g92
g93
ssg74
g1823
sg67
(lp1835
S':'
asbag60
(g81
g62
NtRp1836
(dp1837
g65
(dp1838
sg74
g1823
sg67
(lp1839
g60
(g61
g62
NtRp1840
(dp1841
g65
(dp1842
g73
I4
ssg74
g1836
sg67
(lp1843
S'http'
p1844
asbasbasbag60
(g76
g62
NtRp1845
(dp1846
g65
(dp1847
sg74
g1010
sg67
(lp1848
g60
(g81
g62
NtRp1849
(dp1850
g65
(dp1851
g85
g86
ssg74
g1845
sg67
(lp1852
S'wsgi_version'
p1853
asbag60
(g81
g62
NtRp1854
(dp1855
g65
(dp1856
g92
g93
ssg74
g1845
sg67
(lp1857
S':'
asbag60
(g81
g62
NtRp1858
(dp1859
g65
(dp1860
sg74
g1845
sg67
(lp1861
g60
(g61
g62
NtRp1862
(dp1863
g65
(dp1864
g73
I4
ssg74
g1858
sg67
(lp1865
g60
(g69
g62
NtRp1866
(dp1867
g65
(dp1868
g73
I3
ssg74
Nsg67
(lp1869
g60
(g76
g62
NtRp1870
(dp1871
g65
(dp1872
sg74
g1866
sg67
(lp1873
g60
(g81
g62
NtRp1874
(dp1875
g65
(dp1876
sg74
g1870
sg67
(lp1877
g60
(g61
g62
NtRp1878
(dp1879
g65
(dp1880
g73
I3
ssg74
g1874
sg67
(lp1881
S'1'
asbasbasbag60
(g76
g62
NtRp1882
(dp1883
g65
(dp1884
sg74
g1866
sg67
(lp1885
g60
(g81
g62
NtRp1886
(dp1887
g65
(dp1888
sg74
g1882
sg67
(lp1889
g60
(g61
g62
NtRp1890
(dp1891
g65
(dp1892
g73
I3
ssg74
g1886
sg67
(lp1893
S'0'
asbasbasbasbasbasbasbasbasbasbasbag60
(g76
g62
NtRp1894
(dp1895
g65
(dp1896
sg74
g70
sg67
(lp1897
g60
(g81
g62
NtRp1898
(dp1899
g65
(dp1900
g85
g86
ssg74
g1894
sg67
(lp1901
S'extension'
p1902
asbag60
(g81
g62
NtRp1903
(dp1904
g65
(dp1905
g92
g93
ssg74
g1894
sg67
(lp1906
S':'
asbag60
(g81
g62
NtRp1907
(dp1908
g65
(dp1909
sg74
g1894
sg67
(lp1910
g60
(g61
g62
NtRp1911
(dp1912
g65
(dp1913
g73
I5
ssg74
g1907
sg67
(lp1914
S'html'
p1915
asbasbasbag60
(g76
g62
NtRp1916
(dp1917
g65
(dp1918
sg74
g70
sg67
(lp1919
g60
(g81
g62
NtRp1920
(dp1921
g65
(dp1922
g85
g86
ssg74
g1916
sg67
(lp1923
S'folder'
p1924
asbag60
(g81
g62
NtRp1925
(dp1926
g65
(dp1927
g92
g93
ssg74
g1916
sg67
(lp1928
S':'
asbag60
(g81
g62
NtRp1929
(dp1930
g65
(dp1931
sg74
g1916
sg67
(lp1932
g60
(g61
g62
NtRp1933
(dp1934
g65
(dp1935
g73
I5
ssg74
g1929
sg67
(lp1936
S'/Users/hellais/Documents/code/mygit/globaleaks/webapp/applications/init/'
p1937
asbasbasbag60
(g76
g62
NtRp1938
(dp1939
g65
(dp1940
sg74
g70
sg67
(lp1941
g60
(g81
g62
NtRp1942
(dp1943
g65
(dp1944
g85
g86
ssg74
g1938
sg67
(lp1945
S'function'
p1946
asbag60
(g81
g62
NtRp1947
(dp1948
g65
(dp1949
g92
g93
ssg74
g1938
sg67
(lp1950
S':'
asbag60
(g81
g62
NtRp1951
(dp1952
g65
(dp1953
sg74
g1938
sg67
(lp1954
g60
(g61
g62
NtRp1955
(dp1956
g65
(dp1957
g73
I5
ssg74
g1951
sg67
(lp1958
S'submission'
p1959
asbasbasbag60
(g76
g62
NtRp1960
(dp1961
g65
(dp1962
sg74
g70
sg67
(lp1963
g60
(g81
g62
NtRp1964
(dp1965
g65
(dp1966
g85
g86
ssg74
g1960
sg67
(lp1967
S'get_vars'
p1968
asbag60
(g81
g62
NtRp1969
(dp1970
g65
(dp1971
g92
g93
ssg74
g1960
sg67
(lp1972
S':'
asbag60
(g81
g62
NtRp1973
(dp1974
g65
(dp1975
sg74
g1960
sg67
(lp1976
g60
(g61
g62
NtRp1977
(dp1978
g65
(dp1979
g73
I5
ssg74
g1973
sg67
(lp1980
g60
(g69
g62
NtRp1981
(dp1982
g65
(dp1983
g73
I4
ssg74
Nsg67
(lp1984
sbasbasbasbag60
(g76
g62
NtRp1985
(dp1986
g65
(dp1987
sg74
g70
sg67
(lp1988
g60
(g81
g62
NtRp1989
(dp1990
g65
(dp1991
g85
g86
ssg74
g1985
sg67
(lp1992
S'is_https'
p1993
asbag60
(g81
g62
NtRp1994
(dp1995
g65
(dp1996
g92
g93
ssg74
g1985
sg67
(lp1997
S':'
asbag60
(g81
g62
NtRp1998
(dp1999
g65
(dp2000
sg74
g1985
sg67
(lp2001
g60
(g61
g62
NtRp2002
(dp2003
g65
(dp2004
g73
I5
ssg74
g1998
sg67
(lp2005
g103
asbasbasbag60
(g76
g62
NtRp2006
(dp2007
g65
(dp2008
sg74
g70
sg67
(lp2009
g60
(g81
g62
NtRp2010
(dp2011
g65
(dp2012
g85
g86
ssg74
g2006
sg67
(lp2013
S'is_local'
p2014
asbag60
(g81
g62
NtRp2015
(dp2016
g65
(dp2017
g92
g93
ssg74
g2006
sg67
(lp2018
S':'
asbag60
(g81
g62
NtRp2019
(dp2020
g65
(dp2021
sg74
g2006
sg67
(lp2022
g60
(g61
g62
NtRp2023
(dp2024
g65
(dp2025
g73
I5
ssg74
g2019
sg67
(lp2026
g1801
asbasbasbag60
(g76
g62
NtRp2027
(dp2028
g65
(dp2029
sg74
g70
sg67
(lp2030
g60
(g81
g62
NtRp2031
(dp2032
g65
(dp2033
g85
g86
ssg74
g2027
sg67
(lp2034
S'is_restful'
p2035
asbag60
(g81
g62
NtRp2036
(dp2037
g65
(dp2038
g92
g93
ssg74
g2027
sg67
(lp2039
S':'
asbag60
(g81
g62
NtRp2040
(dp2041
g65
(dp2042
sg74
g2027
sg67
(lp2043
g60
(g61
g62
NtRp2044
(dp2045
g65
(dp2046
g73
I5
ssg74
g2040
sg67
(lp2047
g103
asbasbasbag60
(g76
g62
NtRp2048
(dp2049
g65
(dp2050
sg74
g70
sg67
(lp2051
g60
(g81
g62
NtRp2052
(dp2053
g65
(dp2054
g85
g86
ssg74
g2048
sg67
(lp2055
S'now'
p2056
asbag60
(g81
g62
NtRp2057
(dp2058
g65
(dp2059
g92
g93
ssg74
g2048
sg67
(lp2060
S':'
asbag60
(g81
g62
NtRp2061
(dp2062
g65
(dp2063
sg74
g2048
sg67
(lp2064
g60
(g61
g62
NtRp2065
(dp2066
g65
(dp2067
g73
I5
ssg74
g2061
sg67
(lp2068
S'datetime.datetime(2011, 8, 28, 0, 29, 5, 271454)'
p2069
asbasbasbag60
(g76
g62
NtRp2070
(dp2071
g65
(dp2072
sg74
g70
sg67
(lp2073
g60
(g81
g62
NtRp2074
(dp2075
g65
(dp2076
g85
g86
ssg74
g2070
sg67
(lp2077
S'post_vars'
p2078
asbag60
(g81
g62
NtRp2079
(dp2080
g65
(dp2081
g92
g93
ssg74
g2070
sg67
(lp2082
S':'
asbag60
(g81
g62
NtRp2083
(dp2084
g65
(dp2085
sg74
g2070
sg67
(lp2086
g60
(g61
g62
NtRp2087
(dp2088
g65
(dp2089
g73
I5
ssg74
g2083
sg67
(lp2090
g60
(g69
g62
NtRp2091
(dp2092
g65
(dp2093
g73
I4
ssg74
Nsg67
(lp2094
sbasbasbasbag60
(g76
g62
NtRp2095
(dp2096
g65
(dp2097
sg74
g70
sg67
(lp2098
g60
(g81
g62
NtRp2099
(dp2100
g65
(dp2101
g85
g86
ssg74
g2095
sg67
(lp2102
S'url'
p2103
asbag60
(g81
g62
NtRp2104
(dp2105
g65
(dp2106
g92
g93
ssg74
g2095
sg67
(lp2107
S':'
asbag60
(g81
g62
NtRp2108
(dp2109
g65
(dp2110
sg74
g2095
sg67
(lp2111
g60
(g61
g62
NtRp2112
(dp2113
g65
(dp2114
g73
I5
ssg74
g2108
sg67
(lp2115
S'/init/default/submission'
p2116
asbasbasbag60
(g76
g62
NtRp2117
(dp2118
g65
(dp2119
sg74
g70
sg67
(lp2120
g60
(g81
g62
NtRp2121
(dp2122
g65
(dp2123
g85
g86
ssg74
g2117
sg67
(lp2124
S'uuid'
p2125
asbag60
(g81
g62
NtRp2126
(dp2127
g65
(dp2128
g92
g93
ssg74
g2117
sg67
(lp2129
S':'
asbag60
(g81
g62
NtRp2130
(dp2131
g65
(dp2132
sg74
g2117
sg67
(lp2133
g60
(g61
g62
NtRp2134
(dp2135
g65
(dp2136
g73
I5
ssg74
g2130
sg67
(lp2137
S'init/127.0.0.1.2011-08-28.00-29-05.7041c653-4b61-43fd-820b-aa0ffb2caf7c'
p2138
asbasbasbag60
(g76
g62
NtRp2139
(dp2140
g65
(dp2141
sg74
g70
sg67
(lp2142
g60
(g81
g62
NtRp2143
(dp2144
g65
(dp2145
g85
g86
ssg74
g2139
sg67
(lp2146
S'vars'
p2147
asbag60
(g81
g62
NtRp2148
(dp2149
g65
(dp2150
g92
g93
ssg74
g2139
sg67
(lp2151
S':'
asbag60
(g81
g62
NtRp2152
(dp2153
g65
(dp2154
sg74
g2139
sg67
(lp2155
g60
(g61
g62
NtRp2156
(dp2157
g65
(dp2158
g73
I5
ssg74
g2152
sg67
(lp2159
g60
(g69
g62
NtRp2160
(dp2161
g65
(dp2162
g73
I4
ssg74
Nsg67
(lp2163
sbasbasbasbag60
(g76
g62
NtRp2164
(dp2165
g65
(dp2166
sg74
g70
sg67
(lp2167
g60
(g81
g62
NtRp2168
(dp2169
g65
(dp2170
g85
g86
ssg74
g2164
sg67
(lp2171
S'wsgi'
p2172
asbag60
(g81
g62
NtRp2173
(dp2174
g65
(dp2175
g92
g93
ssg74
g2164
sg67
(lp2176
S':'
asbag60
(g81
g62
NtRp2177
(dp2178
g65
(dp2179
sg74
g2164
sg67
(lp2180
g60
(g61
g62
NtRp2181
(dp2182
g65
(dp2183
g73
I5
ssg74
g2177
sg67
(lp2184
g60
(g69
g62
NtRp2185
(dp2186
g65
(dp2187
g73
I4
ssg74
Nsg67
(lp2188
g60
(g76
g62
NtRp2189
(dp2190
g65
(dp2191
sg74
g2185
sg67
(lp2192
g60
(g81
g62
NtRp2193
(dp2194
g65
(dp2195
g85
g86
ssg74
g2189
sg67
(lp2196
S'environ'
p2197
asbag60
(g81
g62
NtRp2198
(dp2199
g65
(dp2200
g92
g93
ssg74
g2189
sg67
(lp2201
S':'
asbag60
(g81
g62
NtRp2202
(dp2203
g65
(dp2204
sg74
g2189
sg67
(lp2205
g60
(g61
g62
NtRp2206
(dp2207
g65
(dp2208
g73
I4
ssg74
g2202
sg67
(lp2209
g60
(g69
g62
NtRp2210
(dp2211
g65
(dp2212
g73
I3
ssg74
Nsg67
(lp2213
g60
(g76
g62
NtRp2214
(dp2215
g65
(dp2216
sg74
g2210
sg67
(lp2217
g60
(g81
g62
NtRp2218
(dp2219
g65
(dp2220
g85
g86
ssg74
g2214
sg67
(lp2221
S'HTTP_ACCEPT'
p2222
asbag60
(g81
g62
NtRp2223
(dp2224
g65
(dp2225
g92
g93
ssg74
g2214
sg67
(lp2226
S':'
asbag60
(g81
g62
NtRp2227
(dp2228
g65
(dp2229
sg74
g2214
sg67
(lp2230
g60
(g61
g62
NtRp2231
(dp2232
g65
(dp2233
g73
I3
ssg74
g2227
sg67
(lp2234
g1191
asbasbasbag60
(g76
g62
NtRp2235
(dp2236
g65
(dp2237
sg74
g2210
sg67
(lp2238
g60
(g81
g62
NtRp2239
(dp2240
g65
(dp2241
g85
g86
ssg74
g2235
sg67
(lp2242
S'HTTP_ACCEPT_CHARSET'
p2243
asbag60
(g81
g62
NtRp2244
(dp2245
g65
(dp2246
g92
g93
ssg74
g2235
sg67
(lp2247
S':'
asbag60
(g81
g62
NtRp2248
(dp2249
g65
(dp2250
sg74
g2235
sg67
(lp2251
g60
(g61
g62
NtRp2252
(dp2253
g65
(dp2254
g73
I3
ssg74
g2248
sg67
(lp2255
g1213
asbasbasbag60
(g76
g62
NtRp2256
(dp2257
g65
(dp2258
sg74
g2210
sg67
(lp2259
g60
(g81
g62
NtRp2260
(dp2261
g65
(dp2262
g85
g86
ssg74
g2256
sg67
(lp2263
S'HTTP_ACCEPT_ENCODING'
p2264
asbag60
(g81
g62
NtRp2265
(dp2266
g65
(dp2267
g92
g93
ssg74
g2256
sg67
(lp2268
S':'
asbag60
(g81
g62
NtRp2269
(dp2270
g65
(dp2271
sg74
g2256
sg67
(lp2272
g60
(g61
g62
NtRp2273
(dp2274
g65
(dp2275
g73
I3
ssg74
g2269
sg67
(lp2276
g1235
asbasbasbag60
(g76
g62
NtRp2277
(dp2278
g65
(dp2279
sg74
g2210
sg67
(lp2280
g60
(g81
g62
NtRp2281
(dp2282
g65
(dp2283
g85
g86
ssg74
g2277
sg67
(lp2284
S'HTTP_ACCEPT_LANGUAGE'
p2285
asbag60
(g81
g62
NtRp2286
(dp2287
g65
(dp2288
g92
g93
ssg74
g2277
sg67
(lp2289
S':'
asbag60
(g81
g62
NtRp2290
(dp2291
g65
(dp2292
sg74
g2277
sg67
(lp2293
g60
(g61
g62
NtRp2294
(dp2295
g65
(dp2296
g73
I3
ssg74
g2290
sg67
(lp2297
g1257
asbasbasbag60
(g76
g62
NtRp2298
(dp2299
g65
(dp2300
sg74
g2210
sg67
(lp2301
g60
(g81
g62
NtRp2302
(dp2303
g65
(dp2304
g85
g86
ssg74
g2298
sg67
(lp2305
S'HTTP_CACHE_CONTROL'
p2306
asbag60
(g81
g62
NtRp2307
(dp2308
g65
(dp2309
g92
g93
ssg74
g2298
sg67
(lp2310
S':'
asbag60
(g81
g62
NtRp2311
(dp2312
g65
(dp2313
sg74
g2298
sg67
(lp2314
g60
(g61
g62
NtRp2315
(dp2316
g65
(dp2317
g73
I3
ssg74
g2311
sg67
(lp2318
g1279
asbasbasbag60
(g76
g62
NtRp2319
(dp2320
g65
(dp2321
sg74
g2210
sg67
(lp2322
g60
(g81
g62
NtRp2323
(dp2324
g65
(dp2325
g85
g86
ssg74
g2319
sg67
(lp2326
S'HTTP_CONNECTION'
p2327
asbag60
(g81
g62
NtRp2328
(dp2329
g65
(dp2330
g92
g93
ssg74
g2319
sg67
(lp2331
S':'
asbag60
(g81
g62
NtRp2332
(dp2333
g65
(dp2334
sg74
g2319
sg67
(lp2335
g60
(g61
g62
NtRp2336
(dp2337
g65
(dp2338
g73
I3
ssg74
g2332
sg67
(lp2339
g1301
asbasbasbag60
(g76
g62
NtRp2340
(dp2341
g65
(dp2342
sg74
g2210
sg67
(lp2343
g60
(g81
g62
NtRp2344
(dp2345
g65
(dp2346
g85
g86
ssg74
g2340
sg67
(lp2347
S'HTTP_COOKIE'
p2348
asbag60
(g81
g62
NtRp2349
(dp2350
g65
(dp2351
g92
g93
ssg74
g2340
sg67
(lp2352
S':'
asbag60
(g81
g62
NtRp2353
(dp2354
g65
(dp2355
sg74
g2340
sg67
(lp2356
g60
(g61
g62
NtRp2357
(dp2358
g65
(dp2359
g73
I3
ssg74
g2353
sg67
(lp2360
g1323
asbasbasbag60
(g76
g62
NtRp2361
(dp2362
g65
(dp2363
sg74
g2210
sg67
(lp2364
g60
(g81
g62
NtRp2365
(dp2366
g65
(dp2367
g85
g86
ssg74
g2361
sg67
(lp2368
S'HTTP_HOST'
p2369
asbag60
(g81
g62
NtRp2370
(dp2371
g65
(dp2372
g92
g93
ssg74
g2361
sg67
(lp2373
S':'
asbag60
(g81
g62
NtRp2374
(dp2375
g65
(dp2376
sg74
g2361
sg67
(lp2377
g60
(g61
g62
NtRp2378
(dp2379
g65
(dp2380
g73
I3
ssg74
g2374
sg67
(lp2381
g1345
asbasbasbag60
(g76
g62
NtRp2382
(dp2383
g65
(dp2384
sg74
g2210
sg67
(lp2385
g60
(g81
g62
NtRp2386
(dp2387
g65
(dp2388
g85
g86
ssg74
g2382
sg67
(lp2389
S'HTTP_REFERER'
p2390
asbag60
(g81
g62
NtRp2391
(dp2392
g65
(dp2393
g92
g93
ssg74
g2382
sg67
(lp2394
S':'
asbag60
(g81
g62
NtRp2395
(dp2396
g65
(dp2397
sg74
g2382
sg67
(lp2398
g60
(g61
g62
NtRp2399
(dp2400
g65
(dp2401
g73
I3
ssg74
g2395
sg67
(lp2402
g1367
asbasbasbag60
(g76
g62
NtRp2403
(dp2404
g65
(dp2405
sg74
g2210
sg67
(lp2406
g60
(g81
g62
NtRp2407
(dp2408
g65
(dp2409
g85
g86
ssg74
g2403
sg67
(lp2410
S'HTTP_USER_AGENT'
p2411
asbag60
(g81
g62
NtRp2412
(dp2413
g65
(dp2414
g92
g93
ssg74
g2403
sg67
(lp2415
S':'
asbag60
(g81
g62
NtRp2416
(dp2417
g65
(dp2418
sg74
g2403
sg67
(lp2419
g60
(g61
g62
NtRp2420
(dp2421
g65
(dp2422
g73
I3
ssg74
g2416
sg67
(lp2423
g1389
asbasbasbag60
(g76
g62
NtRp2424
(dp2425
g65
(dp2426
sg74
g2210
sg67
(lp2427
g60
(g81
g62
NtRp2428
(dp2429
g65
(dp2430
g85
g86
ssg74
g2424
sg67
(lp2431
S'PATH_INFO'
p2432
asbag60
(g81
g62
NtRp2433
(dp2434
g65
(dp2435
g92
g93
ssg74
g2424
sg67
(lp2436
S':'
asbag60
(g81
g62
NtRp2437
(dp2438
g65
(dp2439
sg74
g2424
sg67
(lp2440
g60
(g61
g62
NtRp2441
(dp2442
g65
(dp2443
g73
I3
ssg74
g2437
sg67
(lp2444
g1432
asbasbasbag60
(g76
g62
NtRp2445
(dp2446
g65
(dp2447
sg74
g2210
sg67
(lp2448
g60
(g81
g62
NtRp2449
(dp2450
g65
(dp2451
g85
g86
ssg74
g2445
sg67
(lp2452
S'QUERY_STRING'
p2453
asbag60
(g81
g62
NtRp2454
(dp2455
g65
(dp2456
g92
g93
ssg74
g2445
sg67
(lp2457
S':'
asbag60
(g81
g62
NtRp2458
(dp2459
g65
(dp2460
sg74
g2445
sg67
(lp2461
g60
(g61
g62
NtRp2462
(dp2463
g65
(dp2464
g73
I3
ssg74
g2458
sg67
(lp2465
S''
asbasbasbag60
(g76
g62
NtRp2466
(dp2467
g65
(dp2468
sg74
g2210
sg67
(lp2469
g60
(g81
g62
NtRp2470
(dp2471
g65
(dp2472
g85
g86
ssg74
g2466
sg67
(lp2473
S'REMOTE_ADDR'
p2474
asbag60
(g81
g62
NtRp2475
(dp2476
g65
(dp2477
g92
g93
ssg74
g2466
sg67
(lp2478
S':'
asbag60
(g81
g62
NtRp2479
(dp2480
g65
(dp2481
sg74
g2466
sg67
(lp2482
g60
(g61
g62
NtRp2483
(dp2484
g65
(dp2485
g73
I3
ssg74
g2479
sg67
(lp2486
g193
asbasbasbag60
(g76
g62
NtRp2487
(dp2488
g65
(dp2489
sg74
g2210
sg67
(lp2490
g60
(g81
g62
NtRp2491
(dp2492
g65
(dp2493
g85
g86
ssg74
g2487
sg67
(lp2494
S'REMOTE_PORT'
p2495
asbag60
(g81
g62
NtRp2496
(dp2497
g65
(dp2498
g92
g93
ssg74
g2487
sg67
(lp2499
S':'
asbag60
(g81
g62
NtRp2500
(dp2501
g65
(dp2502
sg74
g2487
sg67
(lp2503
g60
(g61
g62
NtRp2504
(dp2505
g65
(dp2506
g73
I3
ssg74
g2500
sg67
(lp2507
g1496
asbasbasbag60
(g76
g62
NtRp2508
(dp2509
g65
(dp2510
sg74
g2210
sg67
(lp2511
g60
(g81
g62
NtRp2512
(dp2513
g65
(dp2514
g85
g86
ssg74
g2508
sg67
(lp2515
S'REQUEST_METHOD'
p2516
asbag60
(g81
g62
NtRp2517
(dp2518
g65
(dp2519
g92
g93
ssg74
g2508
sg67
(lp2520
S':'
asbag60
(g81
g62
NtRp2521
(dp2522
g65
(dp2523
sg74
g2508
sg67
(lp2524
g60
(g61
g62
NtRp2525
(dp2526
g65
(dp2527
g73
I3
ssg74
g2521
sg67
(lp2528
g1518
asbasbasbag60
(g76
g62
NtRp2529
(dp2530
g65
(dp2531
sg74
g2210
sg67
(lp2532
g60
(g81
g62
NtRp2533
(dp2534
g65
(dp2535
g85
g86
ssg74
g2529
sg67
(lp2536
S'SCRIPT_NAME'
p2537
asbag60
(g81
g62
NtRp2538
(dp2539
g65
(dp2540
g92
g93
ssg74
g2529
sg67
(lp2541
S':'
asbag60
(g81
g62
NtRp2542
(dp2543
g65
(dp2544
sg74
g2529
sg67
(lp2545
g60
(g61
g62
NtRp2546
(dp2547
g65
(dp2548
g73
I3
ssg74
g2542
sg67
(lp2549
S''
asbasbasbag60
(g76
g62
NtRp2550
(dp2551
g65
(dp2552
sg74
g2210
sg67
(lp2553
g60
(g81
g62
NtRp2554
(dp2555
g65
(dp2556
g85
g86
ssg74
g2550
sg67
(lp2557
S'SERVER_NAME'
p2558
asbag60
(g81
g62
NtRp2559
(dp2560
g65
(dp2561
g92
g93
ssg74
g2550
sg67
(lp2562
S':'
asbag60
(g81
g62
NtRp2563
(dp2564
g65
(dp2565
sg74
g2550
sg67
(lp2566
g60
(g61
g62
NtRp2567
(dp2568
g65
(dp2569
g73
I3
ssg74
g2563
sg67
(lp2570
g1561
asbasbasbag60
(g76
g62
NtRp2571
(dp2572
g65
(dp2573
sg74
g2210
sg67
(lp2574
g60
(g81
g62
NtRp2575
(dp2576
g65
(dp2577
g85
g86
ssg74
g2571
sg67
(lp2578
S'SERVER_PORT'
p2579
asbag60
(g81
g62
NtRp2580
(dp2581
g65
(dp2582
g92
g93
ssg74
g2571
sg67
(lp2583
S':'
asbag60
(g81
g62
NtRp2584
(dp2585
g65
(dp2586
sg74
g2571
sg67
(lp2587
g60
(g61
g62
NtRp2588
(dp2589
g65
(dp2590
g73
I3
ssg74
g2584
sg67
(lp2591
g1583
asbasbasbag60
(g76
g62
NtRp2592
(dp2593
g65
(dp2594
sg74
g2210
sg67
(lp2595
g60
(g81
g62
NtRp2596
(dp2597
g65
(dp2598
g85
g86
ssg74
g2592
sg67
(lp2599
S'SERVER_PROTOCOL'
p2600
asbag60
(g81
g62
NtRp2601
(dp2602
g65
(dp2603
g92
g93
ssg74
g2592
sg67
(lp2604
S':'
asbag60
(g81
g62
NtRp2605
(dp2606
g65
(dp2607
sg74
g2592
sg67
(lp2608
g60
(g61
g62
NtRp2609
(dp2610
g65
(dp2611
g73
I3
ssg74
g2605
sg67
(lp2612
g1605
asbasbasbag60
(g76
g62
NtRp2613
(dp2614
g65
(dp2615
sg74
g2210
sg67
(lp2616
g60
(g81
g62
NtRp2617
(dp2618
g65
(dp2619
g85
g86
ssg74
g2613
sg67
(lp2620
S'SERVER_SOFTWARE'
p2621
asbag60
(g81
g62
NtRp2622
(dp2623
g65
(dp2624
g92
g93
ssg74
g2613
sg67
(lp2625
S':'
asbag60
(g81
g62
NtRp2626
(dp2627
g65
(dp2628
sg74
g2613
sg67
(lp2629
g60
(g61
g62
NtRp2630
(dp2631
g65
(dp2632
g73
I3
ssg74
g2626
sg67
(lp2633
g1627
asbasbasbag60
(g76
g62
NtRp2634
(dp2635
g65
(dp2636
sg74
g2210
sg67
(lp2637
g60
(g81
g62
NtRp2638
(dp2639
g65
(dp2640
g85
g86
ssg74
g2634
sg67
(lp2641
S'wsgi.errors'
p2642
asbag60
(g81
g62
NtRp2643
(dp2644
g65
(dp2645
g92
g93
ssg74
g2634
sg67
(lp2646
S':'
asbag60
(g81
g62
NtRp2647
(dp2648
g65
(dp2649
sg74
g2634
sg67
(lp2650
g60
(g61
g62
NtRp2651
(dp2652
g65
(dp2653
g73
I3
ssg74
g2647
sg67
(lp2654
S"<open file '<stderr>', mode 'w' at 0x100287270>"
p2655
asbasbasbag60
(g76
g62
NtRp2656
(dp2657
g65
(dp2658
sg74
g2210
sg67
(lp2659
g60
(g81
g62
NtRp2660
(dp2661
g65
(dp2662
g85
g86
ssg74
g2656
sg67
(lp2663
S'wsgi.file_wrapper'
p2664
asbag60
(g81
g62
NtRp2665
(dp2666
g65
(dp2667
g92
g93
ssg74
g2656
sg67
(lp2668
S':'
asbag60
(g81
g62
NtRp2669
(dp2670
g65
(dp2671
sg74
g2656
sg67
(lp2672
g60
(g61
g62
NtRp2673
(dp2674
g65
(dp2675
g73
I3
ssg74
g2669
sg67
(lp2676
S'<class gluon.rocket.FileWrapper at 0x101668e20>'
p2677
asbasbasbag60
(g76
g62
NtRp2678
(dp2679
g65
(dp2680
sg74
g2210
sg67
(lp2681
g60
(g81
g62
NtRp2682
(dp2683
g65
(dp2684
g85
g86
ssg74
g2678
sg67
(lp2685
S'wsgi.input'
p2686
asbag60
(g81
g62
NtRp2687
(dp2688
g65
(dp2689
g92
g93
ssg74
g2678
sg67
(lp2690
S':'
asbag60
(g81
g62
NtRp2691
(dp2692
g65
(dp2693
sg74
g2678
sg67
(lp2694
g60
(g61
g62
NtRp2695
(dp2696
g65
(dp2697
g73
I3
ssg74
g2691
sg67
(lp2698
S'<cStringIO.StringO object at 0x103f243e8>'
p2699
asbasbasbag60
(g76
g62
NtRp2700
(dp2701
g65
(dp2702
sg74
g2210
sg67
(lp2703
g60
(g81
g62
NtRp2704
(dp2705
g65
(dp2706
g85
g86
ssg74
g2700
sg67
(lp2707
S'wsgi.multiprocess'
p2708
asbag60
(g81
g62
NtRp2709
(dp2710
g65
(dp2711
g92
g93
ssg74
g2700
sg67
(lp2712
S':'
asbag60
(g81
g62
NtRp2713
(dp2714
g65
(dp2715
sg74
g2700
sg67
(lp2716
g60
(g61
g62
NtRp2717
(dp2718
g65
(dp2719
g73
I3
ssg74
g2713
sg67
(lp2720
g103
asbasbasbag60
(g76
g62
NtRp2721
(dp2722
g65
(dp2723
sg74
g2210
sg67
(lp2724
g60
(g81
g62
NtRp2725
(dp2726
g65
(dp2727
g85
g86
ssg74
g2721
sg67
(lp2728
S'wsgi.multithread'
p2729
asbag60
(g81
g62
NtRp2730
(dp2731
g65
(dp2732
g92
g93
ssg74
g2721
sg67
(lp2733
S':'
asbag60
(g81
g62
NtRp2734
(dp2735
g65
(dp2736
sg74
g2721
sg67
(lp2737
g60
(g61
g62
NtRp2738
(dp2739
g65
(dp2740
g73
I3
ssg74
g2734
sg67
(lp2741
g1801
asbasbasbag60
(g76
g62
NtRp2742
(dp2743
g65
(dp2744
sg74
g2210
sg67
(lp2745
g60
(g81
g62
NtRp2746
(dp2747
g65
(dp2748
g85
g86
ssg74
g2742
sg67
(lp2749
S'wsgi.run_once'
p2750
asbag60
(g81
g62
NtRp2751
(dp2752
g65
(dp2753
g92
g93
ssg74
g2742
sg67
(lp2754
S':'
asbag60
(g81
g62
NtRp2755
(dp2756
g65
(dp2757
sg74
g2742
sg67
(lp2758
g60
(g61
g62
NtRp2759
(dp2760
g65
(dp2761
g73
I3
ssg74
g2755
sg67
(lp2762
g103
asbasbasbag60
(g76
g62
NtRp2763
(dp2764
g65
(dp2765
sg74
g2210
sg67
(lp2766
g60
(g81
g62
NtRp2767
(dp2768
g65
(dp2769
g85
g86
ssg74
g2763
sg67
(lp2770
S'wsgi.url_scheme'
p2771
asbag60
(g81
g62
NtRp2772
(dp2773
g65
(dp2774
g92
g93
ssg74
g2763
sg67
(lp2775
S':'
asbag60
(g81
g62
NtRp2776
(dp2777
g65
(dp2778
sg74
g2763
sg67
(lp2779
g60
(g61
g62
NtRp2780
(dp2781
g65
(dp2782
g73
I3
ssg74
g2776
sg67
(lp2783
g1844
asbasbasbag60
(g76
g62
NtRp2784
(dp2785
g65
(dp2786
sg74
g2210
sg67
(lp2787
g60
(g81
g62
NtRp2788
(dp2789
g65
(dp2790
g85
g86
ssg74
g2784
sg67
(lp2791
S'wsgi.version'
p2792
asbag60
(g81
g62
NtRp2793
(dp2794
g65
(dp2795
g92
g93
ssg74
g2784
sg67
(lp2796
S':'
asbag60
(g81
g62
NtRp2797
(dp2798
g65
(dp2799
sg74
g2784
sg67
(lp2800
g60
(g61
g62
NtRp2801
(dp2802
g65
(dp2803
g73
I3
ssg74
g2797
sg67
(lp2804
S'1'
asbasbasbasbasbasbasbasbasbasbasbasbasbsS'frames'
p2805
(lp2806
(dp2807
S'file'
p2808
S'/opt/local/Library/Frameworks/Python.framework/Versions/2.7/lib/python2.7/gluon/restricted.py'
p2809
sS'dump'
p2810
(dp2811
S'environment'
p2812
S"{'A': <class 'gluon.html.A'>, 'Auth': <class 'gluon.tools.Auth'>, 'B': <class 'gluon.html.B'>, 'BEAUTIFY': <class 'gluon.html.BEAUTIFY'>, 'BODY': <class 'gluon.html.BODY'>, 'BR': <class 'gluon.html.BR'>, 'BUTTON': <class 'gluon.html.BUTTON'>, 'CAT': <class 'gluon.html.CAT'>, 'CENTER': <class 'gluon.html.CENTER'>, 'CLEANUP': <class 'gluon.validators.CLEANUP'>, ...}"
p2813
sS'ccode'
p2814
S'<code object <module> at 0x103890f30, file "/Use.../webapp/applications/init/models/db.py", line 19>'
p2815
ssS'lnum'
p2816
I192
sS'lines'
p2817
(dp2818
I192
S'        exec ccode in environment'
p2819
sI193
S'    except HTTP:'
p2820
sI194
S'        raise'
p2821
sI195
S'    except Exception, error:'
p2822
sI196
S'        # XXX Show exception in Wing IDE if running in debugger'
p2823
sI187
S'    try:'
p2824
sI188
S'        if type(code) == types.CodeType:'
p2825
sI189
S'            ccode = code'
p2826
sI190
S'        else:'
p2827
sI191
S'            ccode = compile2(code,layer)'
p2828
ssS'call'
p2829
S'(code=\'# -*- coding: utf-8 -*-\\n# this file is released ...      None, None, {"Al Jazeera":10 , "CNN":20})\\n\\n\', environment={\'A\': <class \'gluon.html.A\'>, \'Auth\': <class \'gluon.tools.Auth\'>, \'B\': <class \'gluon.html.B\'>, \'BEAUTIFY\': <class \'gluon.html.BEAUTIFY\'>, \'BODY\': <class \'gluon.html.BODY\'>, \'BR\': <class \'gluon.html.BR\'>, \'BUTTON\': <class \'gluon.html.BUTTON\'>, \'CAT\': <class \'gluon.html.CAT\'>, \'CENTER\': <class \'gluon.html.CENTER\'>, \'CLEANUP\': <class \'gluon.validators.CLEANUP\'>, ...}, layer=\'/Users/hellais/Documents/code/mygit/globaleaks/webapp/applications/init/models/db.py\')'
p2830
sS'func'
p2831
S'restricted'
p2832
sa(dp2833
g2808
S'/Users/hellais/Documents/code/mygit/globaleaks/webapp/applications/init/models/db.py'
p2834
sg2810
(dp2835
S'Globaleaks'
p2836
S"<class 'Globaleaks'>"
p2837
sS'local_import'
p2838
S'<function <lambda>>'
p2839
ssg2816
I159
sg2817
(dp2840
I160
S''
sI161
S'gl = Globaleaks()'
p2841
sI162
S''
sI163
S'id = gl.create_leak("First Leak", "A sample leak on how DDB is working with the FBI",'
p2842
sI154
S''
sI155
S'# mail.settings.server = settings.email_server'
p2843
sI156
S'# mail.settings.sender = settings.email_sender'
p2844
sI157
S'# mail.settings.login = settings.email_login'
p2845
sI158
S''
sI159
S"Globaleaks = local_import('globaleaks')"
p2846
ssg2829
S'()'
p2847
sg2831
S'<module>'
p2848
sa(dp2849
g2808
S'/opt/local/Library/Frameworks/Python.framework/Versions/2.7/lib/python2.7/gluon/compileapp.py'
p2850
sg2810
(dp2851
S'global local_import_aux'
p2852
S'<function local_import_aux>'
p2853
sS'reload'
p2854
g103
sS'app'
p2855
S"'init'"
p2856
sS'name'
p2857
S"'globaleaks'"
p2858
ssg2816
I285
sg2817
(dp2859
I288
S'    return environment'
p2860
sI289
S''
sI280
S"    environment['SQLFORM'] = SQLFORM"
p2861
sI281
S"    environment['SQLTABLE'] = SQLTABLE"
p2862
sI282
S"    environment['LOAD'] = LoadFactory(environment)"
p2863
sI283
S"    environment['local_import'] = \\"
p2864
sI284
S'        lambda name, reload=False, app=request.application:\\'
p2865
sI285
S'        local_import_aux(name,reload,app)'
p2866
sI286
S"    BaseAdapter.set_folder(os.path.join(request.folder, 'databases'))"
p2867
sI287
S'    response._view_environment = copy.copy(environment)'
p2868
ssg2829
S"(name='globaleaks', reload=False, app='init')"
p2869
sg2831
S'<lambda>'
p2870
sa(dp2871
g2808
S'/opt/local/Library/Frameworks/Python.framework/Versions/2.7/lib/python2.7/gluon/compileapp.py'
p2872
sg2810
(dp2873
S'name'
p2874
S"'applications.init.modules.globaleaks'"
p2875
sS'module'
p2876
S'undefined'
p2877
sS'builtin__import__'
p2878
S'<gluon.custom_import._Web2pyImporter object>'
p2879
ssg2816
I207
sg2817
(dp2880
I202
S'    This prevents conflict between applications and un-necessary execs.'
p2881
sI203
S'    It can be used to import any module, including regular Python modules.'
p2882
sI204
S'    """'
p2883
sI205
S"    items = name.replace('/','.')"
p2884
sI206
S'    name = "applications.%s.modules.%s" % (app, items)'
p2885
sI207
S'    module = __import__(name)'
p2886
sI208
S'    for item in name.split(".")[1:]:'
p2887
sI209
S'        module = getattr(module, item)'
p2888
sI210
S'    if force:'
p2889
sI211
S'        reload(module)'
p2890
ssg2829
S"(name='applications.init.modules.globaleaks', force=False, app='init')"
p2891
sg2831
S'local_import_aux'
p2892
sa(dp2893
g2808
S'/opt/local/Library/Frameworks/Python.framework/Versions/2.7/lib/python2.7/gluon/custom_import.py'
p2894
sg2810
(dp2895
S'fromlist'
p2896
S'[]'
p2897
sS'level'
p2898
S'-1'
p2899
ssg2816
I280
sg2817
(dp2900
I275
S'                            .__call__(modules_prefix+"."+name,'
p2901
sI276
S'                                    globals, locals, fromlist, level)'
p2902
sI277
S'                except ImportError:'
p2903
sI278
S'                    pass'
p2904
sI279
S'        return super(_Web2pyImporter, self).__call__(name, globals, locals,'
p2905
sI280
S'                                                    fromlist, level)'
p2906
sI281
S'        #except Exception, e:'
p2907
sI282
S"        #    raise e  # Don't hide something that went wrong"
p2908
sI283
S'        #finally:'
p2909
sI284
S'        self.end()'
p2910
ssg2829
S"(self=<gluon.custom_import._Web2pyImporter object>, name='applications.init.modules.globaleaks', globals={}, locals={}, fromlist=[], level=-1)"
p2911
sg2831
S'__call__'
p2912
sa(dp2913
g2808
S'/opt/local/Library/Frameworks/Python.framework/Versions/2.7/lib/python2.7/gluon/custom_import.py'
p2914
sg2810
(dp2915
S'level'
p2916
S'-1'
p2917
ssg2816
I74
sg2817
(dp2918
I69
S'    def __call__(self, name, globals={}, locals={}, fromlist=[], level=-1):'
p2919
sI70
S'        """'
p2920
sI71
S'        The import method itself.'
p2921
sI72
S'        """'
p2922
sI73
S'        return _STANDARD_PYTHON_IMPORTER(name, globals, locals, fromlist,'
p2923
sI74
S'                                         level)'
p2924
sI75
S''
sI76
S'    def end(self):'
p2925
sI77
S'        """'
p2926
sI78
S'        Needed for clean up.'
p2927
ssg2829
S"(self=<gluon.custom_import._Web2pyImporter object>, name='applications.init.modules.globaleaks', globals={}, locals={}, fromlist=[], level=-1)"
p2928
sg2831
g2912
sa(dp2929
g2808
S'/Users/hellais/Documents/code/mygit/globaleaks/webapp/applications/init/modules/globaleaks.py'
p2930
sg2810
(dp2931
S'builtinNone'
p2932
S'None'
p2933
ssg2816
I56
sg2817
(dp2934
I51
S''
sI52
S''
sI53
S'gl = Globaleaks()'
p2935
sI54
S''
sI55
S'id = gl.create_leak("First Leak", "A sample leak on how DDB is working with the FBI",'
p2936
sI56
S'        None, None, {"Al Jazeera":10 , "CNN":20})'
p2937
sI57
S''
sI58
S'leak = Leak(id)'
p2938
sI59
S'for tulip in leak.tulips:'
p2939
sI60
S'    print tulip.url'
p2940
ssg2829
S'()'
p2941
sg2831
g2848
sa(dp2942
g2808
S'/Users/hellais/Documents/code/mygit/globaleaks/webapp/applications/init/modules/globaleaks.py'
p2943
sg2810
(dp2944
S'leaker_id'
p2945
g2877
ssg2816
I26
sg2817
(dp2946
I21
S'        #FIXME insert new tags into DB first'
p2947
sI22
S''
sI23
S'        #Create leak and insert into DB'
p2948
sI24
S'        leak_id = db.leak.insert(title = title, desc = desc,'
p2949
sI25
S'            submission_timestamp = time.time(),'
p2950
sI26
S'            leaker_id = 0)'
p2951
sI27
S''
sI28
S'        #Create a tulip for each target and insert into DB'
p2952
sI29
S'        for target_uri, allowed_downloads in targets.iteritems():'
p2953
sI30
S'            db.tulip.insert(uri = randomizer.generate_tulip_url(),'
p2954
ssg2829
S"(self=<applications.init.modules.globaleaks.Globaleaks object>, title='First Leak', desc='A sample leak on how DDB is working with the FBI', leaker=None, material=None, targets={'Al Jazeera': 10, 'CNN': 20}, tags=[])"
p2955
sg2831
S'create_leak'
p2956
sa(dp2957
g2808
S'/opt/local/Library/Frameworks/Python.framework/Versions/2.7/lib/python2.7/gluon/dal.py'
p2958
sg2810
(dp2959
S'self._listify'
p2960
S"<bound method Table._listify of <Table {'ALL': <...desc': <gluon.dal.Field object at 0x101d47ed0>}>>"
p2961
sS'fields'
p2962
S"{'desc': 'A sample leak on how DDB is working with the FBI', 'leaker_id': 0, 'submission_timestamp': 1314484145.277065, 'title': 'First Leak'}"
p2963
sS'self'
p2964
S"<Table {'ALL': <gluon.dal.SQLALL object at 0x103...'desc': <gluon.dal.Field object at 0x101d47ed0>}>"
p2965
sS'self._db._adapter'
p2966
S'<gluon.dal.SQLiteAdapter object>'
p2967
sS'self._db._adapter.insert'
p2968
S'<bound method SQLiteAdapter.insert of <gluon.dal.SQLiteAdapter object>>'
p2969
sS'self._db'
p2970
S'<DAL {\'_migrate_enabled\': True, \'_lastsql\': "INS...\'_uri_hash\': \'fb87181b96a99be45f5a23f4277867ce\'}>'
p2971
ssg2816
I4786
sg2817
(dp2972
I4781
S''
sI4782
S'    def _insert(self, **fields):'
p2973
sI4783
S'        return self._db._adapter._insert(self,self._listify(fields))'
p2974
sI4784
S''
sI4785
S'    def insert(self, **fields):'
p2975
sI4786
S'        return self._db._adapter.insert(self,self._listify(fields))'
p2976
sI4787
S''
sI4788
S'    def validate_and_insert(self,**fields):'
p2977
sI4789
S'        response = Row()'
p2978
sI4790
S'        response.errors = self._validate(**fields)'
p2979
ssg2829
S"(self=<Table {'ALL': <gluon.dal.SQLALL object at 0x103...'desc': <gluon.dal.Field object at 0x101d47ed0>}>, **fields={'desc': 'A sample leak on how DDB is working with the FBI', 'leaker_id': 0, 'submission_timestamp': 1314484145.277065, 'title': 'First Leak'})"
p2980
sg2831
S'insert'
p2981
sa(dp2982
g2808
S'/opt/local/Library/Frameworks/Python.framework/Versions/2.7/lib/python2.7/gluon/dal.py'
p2983
sg2810
(dp2984
S'e'
S"ProgrammingError('Cannot operate on a closed database.',)"
p2985
ssg2816
I844
sg2817
(dp2986
I839
S'        try:'
p2987
sI840
S'            self.execute(query)'
p2988
sI841
S'        except Exception, e:'
p2989
sI842
S'            if isinstance(e,self.integrity_error_class()):'
p2990
sI843
S'                return None'
p2991
sI844
S'            raise e'
p2992
sI845
S"        if hasattr(table,'_primarykey'):"
p2993
sI846
S'            return dict([(k[0].name, k[1]) for k in fields \\'
p2994
sI847
S'                             if k[0].name in table._primarykey])'
p2995
sI848
S'        id = self.lastrowid(table)'
p2996
ssg2829
S"(self=<gluon.dal.SQLiteAdapter object>, table=<Table {'ALL': <gluon.dal.SQLALL object at 0x103...'desc': <gluon.dal.Field object at 0x101d47ed0>}>, fields=[(<gluon.dal.Field object>, 1314484145.277065), (<gluon.dal.Field object>, 'A sample leak on how DDB is working with the FBI'), (<gluon.dal.Field object>, 0), (<gluon.dal.Field object>, 'First Leak')])"
p2997
sg2831
g2981
sasS'pyver'
p2998
S'Python 2.7.1: /opt/local/Library/Frameworks/Python.framework/Versions/2.7/Resources/Python.app/Contents/MacOS/Python'
p2999
sS'session'
p3000
g60
(g61
g62
NtRp3001
(dp3002
g65
(dp3003
sg67
(lp3004
g60
(g69
g62
NtRp3005
(dp3006
g65
(dp3007
g73
I5
ssg74
Nsg67
(lp3008
sbasbsS'etype'
p3009
S"<class 'sqlite3.ProgrammingError'>"
p3010
sS'date'
p3011
S'Sun Aug 28 00:29:05 2011'
p3012
sS'response'
p3013
g60
(g61
g62
NtRp3014
(dp3015
g65
(dp3016
sg67
(lp3017
g60
(g69
g62
NtRp3018
(dp3019
g65
(dp3020
g73
I5
ssg74
Nsg67
(lp3021
g60
(g76
g62
NtRp3022
(dp3023
g65
(dp3024
sg74
g3018
sg67
(lp3025
g60
(g81
g62
NtRp3026
(dp3027
g65
(dp3028
g85
g86
ssg74
g3022
sg67
(lp3029
g158
asbag60
(g81
g62
NtRp3030
(dp3031
g65
(dp3032
g92
g93
ssg74
g3022
sg67
(lp3033
S':'
asbag60
(g81
g62
NtRp3034
(dp3035
g65
(dp3036
sg74
g3022
sg67
(lp3037
g60
(g61
g62
NtRp3038
(dp3039
g65
(dp3040
g73
I5
ssg74
g3034
sg67
(lp3041
S'<cStringIO.StringO object at 0x101cbadc0>'
p3042
asbasbasbag60
(g76
g62
NtRp3043
(dp3044
g65
(dp3045
sg74
g3018
sg67
(lp3046
g60
(g81
g62
NtRp3047
(dp3048
g65
(dp3049
g85
g86
ssg74
g3043
sg67
(lp3050
g224
asbag60
(g81
g62
NtRp3051
(dp3052
g65
(dp3053
g92
g93
ssg74
g3043
sg67
(lp3054
S':'
asbag60
(g81
g62
NtRp3055
(dp3056
g65
(dp3057
sg74
g3043
sg67
(lp3058
g60
(g61
g62
NtRp3059
(dp3060
g65
(dp3061
g73
I5
ssg74
g3055
sg67
(lp3062
g60
(g69
g62
NtRp3063
(dp3064
g65
(dp3065
g73
I4
ssg74
Nsg67
(lp3066
g60
(g76
g62
NtRp3067
(dp3068
g65
(dp3069
sg74
g3063
sg67
(lp3070
g60
(g81
g62
NtRp3071
(dp3072
g65
(dp3073
g85
g86
ssg74
g3067
sg67
(lp3074
S'session_id_init'
p3075
asbag60
(g81
g62
NtRp3076
(dp3077
g65
(dp3078
g92
g93
ssg74
g3067
sg67
(lp3079
S':'
asbag60
(g81
g62
NtRp3080
(dp3081
g65
(dp3082
sg74
g3067
sg67
(lp3083
g60
(g61
g62
NtRp3084
(dp3085
g65
(dp3086
g73
I4
ssg74
g3080
sg67
(lp3087
g60
(g69
g62
NtRp3088
(dp3089
g65
(dp3090
g73
I3
ssg74
Nsg67
(lp3091
g60
(g76
g62
NtRp3092
(dp3093
g65
(dp3094
sg74
g3088
sg67
(lp3095
g60
(g81
g62
NtRp3096
(dp3097
g65
(dp3098
g85
g86
ssg74
g3092
sg67
(lp3099
g274
asbag60
(g81
g62
NtRp3100
(dp3101
g65
(dp3102
g92
g93
ssg74
g3092
sg67
(lp3103
S':'
asbag60
(g81
g62
NtRp3104
(dp3105
g65
(dp3106
sg74
g3092
sg67
(lp3107
g60
(g61
g62
NtRp3108
(dp3109
g65
(dp3110
g73
I3
ssg74
g3104
sg67
(lp3111
S''
asbasbasbag60
(g76
g62
NtRp3112
(dp3113
g65
(dp3114
sg74
g3088
sg67
(lp3115
g60
(g81
g62
NtRp3116
(dp3117
g65
(dp3118
g85
g86
ssg74
g3112
sg67
(lp3119
g295
asbag60
(g81
g62
NtRp3120
(dp3121
g65
(dp3122
g92
g93
ssg74
g3112
sg67
(lp3123
S':'
asbag60
(g81
g62
NtRp3124
(dp3125
g65
(dp3126
sg74
g3112
sg67
(lp3127
g60
(g61
g62
NtRp3128
(dp3129
g65
(dp3130
g73
I3
ssg74
g3124
sg67
(lp3131
S''
asbasbasbag60
(g76
g62
NtRp3132
(dp3133
g65
(dp3134
sg74
g3088
sg67
(lp3135
g60
(g81
g62
NtRp3136
(dp3137
g65
(dp3138
g85
g86
ssg74
g3132
sg67
(lp3139
g316
asbag60
(g81
g62
NtRp3140
(dp3141
g65
(dp3142
g92
g93
ssg74
g3132
sg67
(lp3143
S':'
asbag60
(g81
g62
NtRp3144
(dp3145
g65
(dp3146
sg74
g3132
sg67
(lp3147
g60
(g61
g62
NtRp3148
(dp3149
g65
(dp3150
g73
I3
ssg74
g3144
sg67
(lp3151
S''
asbasbasbag60
(g76
g62
NtRp3152
(dp3153
g65
(dp3154
sg74
g3088
sg67
(lp3155
g60
(g81
g62
NtRp3156
(dp3157
g65
(dp3158
g85
g86
ssg74
g3152
sg67
(lp3159
g337
asbag60
(g81
g62
NtRp3160
(dp3161
g65
(dp3162
g92
g93
ssg74
g3152
sg67
(lp3163
S':'
asbag60
(g81
g62
NtRp3164
(dp3165
g65
(dp3166
sg74
g3152
sg67
(lp3167
g60
(g61
g62
NtRp3168
(dp3169
g65
(dp3170
g73
I3
ssg74
g3164
sg67
(lp3171
S''
asbasbasbag60
(g76
g62
NtRp3172
(dp3173
g65
(dp3174
sg74
g3088
sg67
(lp3175
g60
(g81
g62
NtRp3176
(dp3177
g65
(dp3178
g85
g86
ssg74
g3172
sg67
(lp3179
g358
asbag60
(g81
g62
NtRp3180
(dp3181
g65
(dp3182
g92
g93
ssg74
g3172
sg67
(lp3183
S':'
asbag60
(g81
g62
NtRp3184
(dp3185
g65
(dp3186
sg74
g3172
sg67
(lp3187
g60
(g61
g62
NtRp3188
(dp3189
g65
(dp3190
g73
I3
ssg74
g3184
sg67
(lp3191
S''
asbasbasbag60
(g76
g62
NtRp3192
(dp3193
g65
(dp3194
sg74
g3088
sg67
(lp3195
g60
(g81
g62
NtRp3196
(dp3197
g65
(dp3198
g85
g86
ssg74
g3192
sg67
(lp3199
g379
asbag60
(g81
g62
NtRp3200
(dp3201
g65
(dp3202
g92
g93
ssg74
g3192
sg67
(lp3203
S':'
asbag60
(g81
g62
NtRp3204
(dp3205
g65
(dp3206
sg74
g3192
sg67
(lp3207
g60
(g61
g62
NtRp3208
(dp3209
g65
(dp3210
g73
I3
ssg74
g3204
sg67
(lp3211
S'/'
asbasbasbag60
(g76
g62
NtRp3212
(dp3213
g65
(dp3214
sg74
g3088
sg67
(lp3215
g60
(g81
g62
NtRp3216
(dp3217
g65
(dp3218
g85
g86
ssg74
g3212
sg67
(lp3219
g400
asbag60
(g81
g62
NtRp3220
(dp3221
g65
(dp3222
g92
g93
ssg74
g3212
sg67
(lp3223
S':'
asbag60
(g81
g62
NtRp3224
(dp3225
g65
(dp3226
sg74
g3212
sg67
(lp3227
g60
(g61
g62
NtRp3228
(dp3229
g65
(dp3230
g73
I3
ssg74
g3224
sg67
(lp3231
S''
asbasbasbag60
(g76
g62
NtRp3232
(dp3233
g65
(dp3234
sg74
g3088
sg67
(lp3235
g60
(g81
g62
NtRp3236
(dp3237
g65
(dp3238
g85
g86
ssg74
g3232
sg67
(lp3239
g421
asbag60
(g81
g62
NtRp3240
(dp3241
g65
(dp3242
g92
g93
ssg74
g3232
sg67
(lp3243
S':'
asbag60
(g81
g62
NtRp3244
(dp3245
g65
(dp3246
sg74
g3232
sg67
(lp3247
g60
(g61
g62
NtRp3248
(dp3249
g65
(dp3250
g73
I3
ssg74
g3244
sg67
(lp3251
S''
asbasbasbasbasbasbasbasbasbasbasbag60
(g76
g62
NtRp3252
(dp3253
g65
(dp3254
sg74
g3018
sg67
(lp3255
g60
(g81
g62
NtRp3256
(dp3257
g65
(dp3258
g85
g86
ssg74
g3252
sg67
(lp3259
S'files'
p3260
asbag60
(g81
g62
NtRp3261
(dp3262
g65
(dp3263
g92
g93
ssg74
g3252
sg67
(lp3264
S':'
asbag60
(g81
g62
NtRp3265
(dp3266
g65
(dp3267
sg74
g3252
sg67
(lp3268
g60
(g61
g62
NtRp3269
(dp3270
g65
(dp3271
g73
I5
ssg74
g3265
sg67
(lp3272
g60
(g69
g62
NtRp3273
(dp3274
g65
(dp3275
g73
I4
ssg74
Nsg67
(lp3276
sbasbasbasbag60
(g76
g62
NtRp3277
(dp3278
g65
(dp3279
sg74
g3018
sg67
(lp3280
g60
(g81
g62
NtRp3281
(dp3282
g65
(dp3283
g85
g86
ssg74
g3277
sg67
(lp3284
S'flash'
p3285
asbag60
(g81
g62
NtRp3286
(dp3287
g65
(dp3288
g92
g93
ssg74
g3277
sg67
(lp3289
S':'
asbag60
(g81
g62
NtRp3290
(dp3291
g65
(dp3292
sg74
g3277
sg67
(lp3293
g60
(g61
g62
NtRp3294
(dp3295
g65
(dp3296
g73
I5
ssg74
g3290
sg67
(lp3297
S''
asbasbasbag60
(g76
g62
NtRp3298
(dp3299
g65
(dp3300
sg74
g3018
sg67
(lp3301
g60
(g81
g62
NtRp3302
(dp3303
g65
(dp3304
g85
g86
ssg74
g3298
sg67
(lp3305
S'generic_patterns'
p3306
asbag60
(g81
g62
NtRp3307
(dp3308
g65
(dp3309
g92
g93
ssg74
g3298
sg67
(lp3310
S':'
asbag60
(g81
g62
NtRp3311
(dp3312
g65
(dp3313
sg74
g3298
sg67
(lp3314
g60
(g61
g62
NtRp3315
(dp3316
g65
(dp3317
g73
I5
ssg74
g3311
sg67
(lp3318
g60
(g69
g62
NtRp3319
(dp3320
g65
(dp3321
g73
I4
ssg74
Nsg67
(lp3322
sbasbasbasbag60
(g76
g62
NtRp3323
(dp3324
g65
(dp3325
sg74
g3018
sg67
(lp3326
g60
(g81
g62
NtRp3327
(dp3328
g65
(dp3329
g85
g86
ssg74
g3323
sg67
(lp3330
S'headers'
p3331
asbag60
(g81
g62
NtRp3332
(dp3333
g65
(dp3334
g92
g93
ssg74
g3323
sg67
(lp3335
S':'
asbag60
(g81
g62
NtRp3336
(dp3337
g65
(dp3338
sg74
g3323
sg67
(lp3339
g60
(g61
g62
NtRp3340
(dp3341
g65
(dp3342
g73
I5
ssg74
g3336
sg67
(lp3343
g60
(g69
g62
NtRp3344
(dp3345
g65
(dp3346
g73
I4
ssg74
Nsg67
(lp3347
g60
(g76
g62
NtRp3348
(dp3349
g65
(dp3350
sg74
g3344
sg67
(lp3351
g60
(g81
g62
NtRp3352
(dp3353
g65
(dp3354
g85
g86
ssg74
g3348
sg67
(lp3355
S'Cache-Control'
p3356
asbag60
(g81
g62
NtRp3357
(dp3358
g65
(dp3359
g92
g93
ssg74
g3348
sg67
(lp3360
S':'
asbag60
(g81
g62
NtRp3361
(dp3362
g65
(dp3363
sg74
g3348
sg67
(lp3364
g60
(g61
g62
NtRp3365
(dp3366
g65
(dp3367
g73
I4
ssg74
g3361
sg67
(lp3368
S'no-store, no-cache, must-revalidate, post-check=0, pre-check=0'
p3369
asbasbasbag60
(g76
g62
NtRp3370
(dp3371
g65
(dp3372
sg74
g3344
sg67
(lp3373
g60
(g81
g62
NtRp3374
(dp3375
g65
(dp3376
g85
g86
ssg74
g3370
sg67
(lp3377
S'Content-Type'
p3378
asbag60
(g81
g62
NtRp3379
(dp3380
g65
(dp3381
g92
g93
ssg74
g3370
sg67
(lp3382
S':'
asbag60
(g81
g62
NtRp3383
(dp3384
g65
(dp3385
sg74
g3370
sg67
(lp3386
g60
(g61
g62
NtRp3387
(dp3388
g65
(dp3389
g73
I4
ssg74
g3383
sg67
(lp3390
S'text/html; charset=utf-8'
p3391
asbasbasbag60
(g76
g62
NtRp3392
(dp3393
g65
(dp3394
sg74
g3344
sg67
(lp3395
g60
(g81
g62
NtRp3396
(dp3397
g65
(dp3398
g85
g86
ssg74
g3392
sg67
(lp3399
S'Expires'
p3400
asbag60
(g81
g62
NtRp3401
(dp3402
g65
(dp3403
g92
g93
ssg74
g3392
sg67
(lp3404
S':'
asbag60
(g81
g62
NtRp3405
(dp3406
g65
(dp3407
sg74
g3392
sg67
(lp3408
g60
(g61
g62
NtRp3409
(dp3410
g65
(dp3411
g73
I4
ssg74
g3405
sg67
(lp3412
S'Sat, 27 Aug 2011 22:29:05 GMT'
p3413
asbasbasbag60
(g76
g62
NtRp3414
(dp3415
g65
(dp3416
sg74
g3344
sg67
(lp3417
g60
(g81
g62
NtRp3418
(dp3419
g65
(dp3420
g85
g86
ssg74
g3414
sg67
(lp3421
S'Pragma'
p3422
asbag60
(g81
g62
NtRp3423
(dp3424
g65
(dp3425
g92
g93
ssg74
g3414
sg67
(lp3426
S':'
asbag60
(g81
g62
NtRp3427
(dp3428
g65
(dp3429
sg74
g3414
sg67
(lp3430
g60
(g61
g62
NtRp3431
(dp3432
g65
(dp3433
g73
I4
ssg74
g3427
sg67
(lp3434
S'no-cache'
p3435
asbasbasbag60
(g76
g62
NtRp3436
(dp3437
g65
(dp3438
sg74
g3344
sg67
(lp3439
g60
(g81
g62
NtRp3440
(dp3441
g65
(dp3442
g85
g86
ssg74
g3436
sg67
(lp3443
S'X-Powered-By'
p3444
asbag60
(g81
g62
NtRp3445
(dp3446
g65
(dp3447
g92
g93
ssg74
g3436
sg67
(lp3448
S':'
asbag60
(g81
g62
NtRp3449
(dp3450
g65
(dp3451
sg74
g3436
sg67
(lp3452
g60
(g61
g62
NtRp3453
(dp3454
g65
(dp3455
g73
I4
ssg74
g3449
sg67
(lp3456
S'web2py'
p3457
asbasbasbasbasbasbasbag60
(g76
g62
NtRp3458
(dp3459
g65
(dp3460
sg74
g3018
sg67
(lp3461
g60
(g81
g62
NtRp3462
(dp3463
g65
(dp3464
g85
g86
ssg74
g3458
sg67
(lp3465
S'menu'
p3466
asbag60
(g81
g62
NtRp3467
(dp3468
g65
(dp3469
g92
g93
ssg74
g3458
sg67
(lp3470
S':'
asbag60
(g81
g62
NtRp3471
(dp3472
g65
(dp3473
sg74
g3458
sg67
(lp3474
g60
(g61
g62
NtRp3475
(dp3476
g65
(dp3477
g73
I5
ssg74
g3471
sg67
(lp3478
g60
(g69
g62
NtRp3479
(dp3480
g65
(dp3481
g73
I4
ssg74
Nsg67
(lp3482
sbasbasbasbag60
(g76
g62
NtRp3483
(dp3484
g65
(dp3485
sg74
g3018
sg67
(lp3486
g60
(g81
g62
NtRp3487
(dp3488
g65
(dp3489
g85
g86
ssg74
g3483
sg67
(lp3490
S'meta'
p3491
asbag60
(g81
g62
NtRp3492
(dp3493
g65
(dp3494
g92
g93
ssg74
g3483
sg67
(lp3495
S':'
asbag60
(g81
g62
NtRp3496
(dp3497
g65
(dp3498
sg74
g3483
sg67
(lp3499
g60
(g61
g62
NtRp3500
(dp3501
g65
(dp3502
g73
I5
ssg74
g3496
sg67
(lp3503
g60
(g69
g62
NtRp3504
(dp3505
g65
(dp3506
g73
I4
ssg74
Nsg67
(lp3507
sbasbasbasbag60
(g76
g62
NtRp3508
(dp3509
g65
(dp3510
sg74
g3018
sg67
(lp3511
g60
(g81
g62
NtRp3512
(dp3513
g65
(dp3514
g85
g86
ssg74
g3508
sg67
(lp3515
S'postprocessing'
p3516
asbag60
(g81
g62
NtRp3517
(dp3518
g65
(dp3519
g92
g93
ssg74
g3508
sg67
(lp3520
S':'
asbag60
(g81
g62
NtRp3521
(dp3522
g65
(dp3523
sg74
g3508
sg67
(lp3524
g60
(g61
g62
NtRp3525
(dp3526
g65
(dp3527
g73
I5
ssg74
g3521
sg67
(lp3528
g60
(g69
g62
NtRp3529
(dp3530
g65
(dp3531
g73
I4
ssg74
Nsg67
(lp3532
sbasbasbasbag60
(g76
g62
NtRp3533
(dp3534
g65
(dp3535
sg74
g3018
sg67
(lp3536
g60
(g81
g62
NtRp3537
(dp3538
g65
(dp3539
g85
g86
ssg74
g3533
sg67
(lp3540
S'session_file'
p3541
asbag60
(g81
g62
NtRp3542
(dp3543
g65
(dp3544
g92
g93
ssg74
g3533
sg67
(lp3545
S':'
asbag60
(g81
g62
NtRp3546
(dp3547
g65
(dp3548
sg74
g3533
sg67
(lp3549
g60
(g61
g62
NtRp3550
(dp3551
g65
(dp3552
g73
I5
ssg74
g3546
sg67
(lp3553
S"<open file '/Users/hellais/Documents/code/mygit/globaleaks/webapp/applications/init/sessions/127.0.0.1-a8551263-bc3c-430c-abb2-8711fac671c1', mode 'rb+' at 0x10389a660>"
p3554
asbasbasbag60
(g76
g62
NtRp3555
(dp3556
g65
(dp3557
sg74
g3018
sg67
(lp3558
g60
(g81
g62
NtRp3559
(dp3560
g65
(dp3561
g85
g86
ssg74
g3555
sg67
(lp3562
S'session_filename'
p3563
asbag60
(g81
g62
NtRp3564
(dp3565
g65
(dp3566
g92
g93
ssg74
g3555
sg67
(lp3567
S':'
asbag60
(g81
g62
NtRp3568
(dp3569
g65
(dp3570
sg74
g3555
sg67
(lp3571
g60
(g61
g62
NtRp3572
(dp3573
g65
(dp3574
g73
I5
ssg74
g3568
sg67
(lp3575
S'/Users/hellais/Documents/code/mygit/globaleaks/webapp/applications/init/sessions/127.0.0.1-a8551263-bc3c-430c-abb2-8711fac671c1'
p3576
asbasbasbag60
(g76
g62
NtRp3577
(dp3578
g65
(dp3579
sg74
g3018
sg67
(lp3580
g60
(g81
g62
NtRp3581
(dp3582
g65
(dp3583
g85
g86
ssg74
g3577
sg67
(lp3584
S'session_id'
p3585
asbag60
(g81
g62
NtRp3586
(dp3587
g65
(dp3588
g92
g93
ssg74
g3577
sg67
(lp3589
S':'
asbag60
(g81
g62
NtRp3590
(dp3591
g65
(dp3592
sg74
g3577
sg67
(lp3593
g60
(g61
g62
NtRp3594
(dp3595
g65
(dp3596
g73
I5
ssg74
g3590
sg67
(lp3597
S'127.0.0.1-a8551263-bc3c-430c-abb2-8711fac671c1'
p3598
asbasbasbag60
(g76
g62
NtRp3599
(dp3600
g65
(dp3601
sg74
g3018
sg67
(lp3602
g60
(g81
g62
NtRp3603
(dp3604
g65
(dp3605
g85
g86
ssg74
g3599
sg67
(lp3606
S'session_id_name'
p3607
asbag60
(g81
g62
NtRp3608
(dp3609
g65
(dp3610
g92
g93
ssg74
g3599
sg67
(lp3611
S':'
asbag60
(g81
g62
NtRp3612
(dp3613
g65
(dp3614
sg74
g3599
sg67
(lp3615
g60
(g61
g62
NtRp3616
(dp3617
g65
(dp3618
g73
I5
ssg74
g3612
sg67
(lp3619
g3075
asbasbasbag60
(g76
g62
NtRp3620
(dp3621
g65
(dp3622
sg74
g3018
sg67
(lp3623
g60
(g81
g62
NtRp3624
(dp3625
g65
(dp3626
g85
g86
ssg74
g3620
sg67
(lp3627
S'session_locked'
p3628
asbag60
(g81
g62
NtRp3629
(dp3630
g65
(dp3631
g92
g93
ssg74
g3620
sg67
(lp3632
S':'
asbag60
(g81
g62
NtRp3633
(dp3634
g65
(dp3635
sg74
g3620
sg67
(lp3636
g60
(g61
g62
NtRp3637
(dp3638
g65
(dp3639
g73
I5
ssg74
g3633
sg67
(lp3640
g1801
asbasbasbag60
(g76
g62
NtRp3641
(dp3642
g65
(dp3643
sg74
g3018
sg67
(lp3644
g60
(g81
g62
NtRp3645
(dp3646
g65
(dp3647
g85
g86
ssg74
g3641
sg67
(lp3648
S'session_new'
p3649
asbag60
(g81
g62
NtRp3650
(dp3651
g65
(dp3652
g92
g93
ssg74
g3641
sg67
(lp3653
S':'
asbag60
(g81
g62
NtRp3654
(dp3655
g65
(dp3656
sg74
g3641
sg67
(lp3657
g60
(g61
g62
NtRp3658
(dp3659
g65
(dp3660
g73
I5
ssg74
g3654
sg67
(lp3661
g103
asbasbasbag60
(g76
g62
NtRp3662
(dp3663
g65
(dp3664
sg74
g3018
sg67
(lp3665
g60
(g81
g62
NtRp3666
(dp3667
g65
(dp3668
g85
g86
ssg74
g3662
sg67
(lp3669
S'status'
p3670
asbag60
(g81
g62
NtRp3671
(dp3672
g65
(dp3673
g92
g93
ssg74
g3662
sg67
(lp3674
S':'
asbag60
(g81
g62
NtRp3675
(dp3676
g65
(dp3677
sg74
g3662
sg67
(lp3678
g60
(g61
g62
NtRp3679
(dp3680
g65
(dp3681
g73
I5
ssg74
g3675
sg67
(lp3682
S'200'
p3683
asbasbasbag60
(g76
g62
NtRp3684
(dp3685
g65
(dp3686
sg74
g3018
sg67
(lp3687
g60
(g81
g62
NtRp3688
(dp3689
g65
(dp3690
g85
g86
ssg74
g3684
sg67
(lp3691
g2125
asbag60
(g81
g62
NtRp3692
(dp3693
g65
(dp3694
g92
g93
ssg74
g3684
sg67
(lp3695
S':'
asbag60
(g81
g62
NtRp3696
(dp3697
g65
(dp3698
sg74
g3684
sg67
(lp3699
g60
(g61
g62
NtRp3700
(dp3701
g65
(dp3702
g73
I5
ssg74
g3696
sg67
(lp3703
g2138
asbasbasbag60
(g76
g62
NtRp3704
(dp3705
g65
(dp3706
sg74
g3018
sg67
(lp3707
g60
(g81
g62
NtRp3708
(dp3709
g65
(dp3710
g85
g86
ssg74
g3704
sg67
(lp3711
S'view'
p3712
asbag60
(g81
g62
NtRp3713
(dp3714
g65
(dp3715
g92
g93
ssg74
g3704
sg67
(lp3716
S':'
asbag60
(g81
g62
NtRp3717
(dp3718
g65
(dp3719
sg74
g3704
sg67
(lp3720
g60
(g61
g62
NtRp3721
(dp3722
g65
(dp3723
g73
I5
ssg74
g3717
sg67
(lp3724
S'default/submission.html'
p3725
asbasbasbasbasbsS'locals'
p3726
(dp3727
S'query'
p3728
S'"INSERT INTO leak(submission_timestamp,desc,leake...how DDB is working with the FBI\',0,\'First Leak\');"'
p3729
sS'self'
p3730
S'<gluon.dal.SQLiteAdapter object>'
p3731
sS'e'
S"ProgrammingError('Cannot operate on a closed database.',)"
p3732
sS'fields'
p3733
S"[(<gluon.dal.Field object>, 1314484145.277065), (<gluon.dal.Field object>, 'A sample leak on how DDB is working with the FBI'), (<gluon.dal.Field object>, 0), (<gluon.dal.Field object>, 'First Leak')]"
p3734
sS'table'
p3735
S"<Table {'ALL': <gluon.dal.SQLALL object at 0x103...'desc': <gluon.dal.Field object at 0x101d47ed0>}>"
p3736
sssS'traceback'
p3737
S'Traceback (most recent call last):\n  File "/opt/local/Library/Frameworks/Python.framework/Versions/2.7/lib/python2.7/gluon/restricted.py", line 192, in restricted\n    exec ccode in environment\n  File "/Users/hellais/Documents/code/mygit/globaleaks/webapp/applications/init/models/db.py", line 159, in <module>\n    Globaleaks = local_import(\'globaleaks\')\n  File "/opt/local/Library/Frameworks/Python.framework/Versions/2.7/lib/python2.7/gluon/compileapp.py", line 285, in <lambda>\n    local_import_aux(name,reload,app)\n  File "/opt/local/Library/Frameworks/Python.framework/Versions/2.7/lib/python2.7/gluon/compileapp.py", line 207, in local_import_aux\n    module = __import__(name)\n  File "/opt/local/Library/Frameworks/Python.framework/Versions/2.7/lib/python2.7/gluon/custom_import.py", line 280, in __call__\n    fromlist, level)\n  File "/opt/local/Library/Frameworks/Python.framework/Versions/2.7/lib/python2.7/gluon/custom_import.py", line 74, in __call__\n    level)\n  File "applications/init/modules/globaleaks.py", line 56, in <module>\n    None, None, {"Al Jazeera":10 , "CNN":20})\n  File "applications/init/modules/globaleaks.py", line 26, in create_leak\n    leaker_id = 0)\n  File "/opt/local/Library/Frameworks/Python.framework/Versions/2.7/lib/python2.7/gluon/dal.py", line 4786, in insert\n    return self._db._adapter.insert(self,self._listify(fields))\n  File "/opt/local/Library/Frameworks/Python.framework/Versions/2.7/lib/python2.7/gluon/dal.py", line 844, in insert\n    raise e\nProgrammingError: Cannot operate on a closed database.\n'
p3738
s.