(dp1
S'output'
p2
S''
sS'layer'
p3
S'/Users/hellais/Documents/code/mygit/globaleaks/webapp/applications/init/controllers/default.py'
p4
sS'code'
p5
S'# -*- coding: utf-8 -*-\n### required - do no delete\ndef gen_form():\n\n    return {Field(\'Title\', requires=IS_NOT_EMPTY()),\n        Field(\'Description\', \'text\', requires=IS_NOT_EMPTY()),\n        Field(\'Tags\'),\n        Field(\'material\', \'upload\', uploadfolder="uploads/"),\n        Field(\'dislaimer\', \'boolean\', requires=IS_EQUAL_TO("on", error_message="Please read the disclaimer"))}\n \ndef user(): return dict(form=auth())\ndef download(): return response.download(request,db)\ndef call():\n    session.forget()\n    return service()\n### end requires\ndef index():\n    return dict(message=T("Diocane"))\n\ndef submission():\n    """form = FORM(\'Your name:\', INPUT(_name=\'Title\',requires=IS_NOT_EMPTY()),\n            \'Tags:\', INPUT(_name=\'Tags\',requires=IS_NOT_EMPTY()),\n            \'Description:\', INPUT(_name=\'Description\',requires=IS_NOT_EMPTY()),\n            \'Files:\', INPUT(_name=\'Files\'), \n            INPUT(_type=\'submit\')\n            )\n    \n    if form.accepts(request.vars, session):\n        response.flash = \'form accepted\'\n    elif form.errors:\n        response.flash = \'form has errors\'\n    else:\n        response.flash = \'please fill the form\'\n    """\n    form = SQLFORM.factory(gen_form())\n        \n    if form.accepts(request.vars, session):\n        response.flash = \'form accepted\'\n    elif form.errors:\n        response.flash = \'form has errors\'\n    else:\n        response.flash = \'please fill the form\'        \n    \n    return dict(form=form)\n\ndef error():\n    return dict()\n\nresponse._vars=response._caller(submission)\n'
p6
sS'snapshot'
p7
(dp8
S'exception'
p9
(dp10
S'__getslice__'
p11
S"<method-wrapper '__getslice__' of exceptions.SyntaxError object>"
p12
sS'text'
p13
S'None'
p14
sS'__str__'
p15
S"<method-wrapper '__str__' of exceptions.SyntaxError object>"
p16
sS'__reduce__'
p17
S'<built-in method __reduce__ of exceptions.SyntaxError object>'
p18
sS'__dict__'
p19
S'{}'
p20
sS'__sizeof__'
p21
S'<built-in method __sizeof__ of exceptions.SyntaxError object>'
p22
sS'__init__'
p23
S"<method-wrapper '__init__' of exceptions.SyntaxError object>"
p24
sS'__setattr__'
p25
S"<method-wrapper '__setattr__' of exceptions.SyntaxError object>"
p26
sS'__reduce_ex__'
p27
S'<built-in method __reduce_ex__ of exceptions.SyntaxError object>'
p28
sS'__new__'
p29
S'<built-in method __new__ of type object>'
p30
sS'__format__'
p31
S'<built-in method __format__ of exceptions.SyntaxError object>'
p32
sS'__class__'
p33
S"<type 'exceptions.SyntaxError'>"
p34
sS'filename'
p35
S'None'
p36
sS'lineno'
p37
S'None'
p38
sS'msg'
p39
S"'define_table argument is not a Field or Table: s...cd150>, <gluon.dal.Field object at 0x101ccd190>])'"
p40
sS'__doc__'
p41
S"'Invalid syntax.'"
p42
sS'__getitem__'
p43
S"<method-wrapper '__getitem__' of exceptions.SyntaxError object>"
p44
sS'__setstate__'
p45
S'<built-in method __setstate__ of exceptions.SyntaxError object>'
p46
sS'__getattribute__'
p47
S"<method-wrapper '__getattribute__' of exceptions.SyntaxError object>"
p48
sS'print_file_and_line'
p49
S'None'
p50
sS'args'
p51
S"('define_table argument is not a Field or Table: s...cd150>, <gluon.dal.Field object at 0x101ccd190>])',)"
p52
sS'__subclasshook__'
p53
S'<built-in method __subclasshook__ of type object>'
p54
sS'offset'
p55
S'None'
p56
sS'__unicode__'
p57
S'<built-in method __unicode__ of exceptions.SyntaxError object>'
p58
sS'__delattr__'
p59
S"<method-wrapper '__delattr__' of exceptions.SyntaxError object>"
p60
sS'__repr__'
p61
S"<method-wrapper '__repr__' of exceptions.SyntaxError object>"
p62
sS'__hash__'
p63
S"<method-wrapper '__hash__' of exceptions.SyntaxError object>"
p64
ssS'evalue'
p65
S'define_table argument is not a Field or Table: set([<gluon.dal.Field object at 0x101ccd090>, <gluon.dal.Field object at 0x101ccd210>, <gluon.dal.Field object at 0x101ccd110>, <gluon.dal.Field object at 0x101ccd150>, <gluon.dal.Field object at 0x101ccd190>])'
p66
sS'request'
p67
ccopy_reg
_reconstructor
p68
(cgluon.html
BEAUTIFY
p69
c__builtin__
object
p70
NtRp71
(dp72
S'attributes'
p73
(dp74
sS'components'
p75
(lp76
g68
(cgluon.html
TABLE
p77
g70
NtRp78
(dp79
g73
(dp80
S'level'
p81
I5
ssS'parent'
p82
Nsg75
(lp83
g68
(cgluon.html
TR
p84
g70
NtRp85
(dp86
g73
(dp87
sg82
g78
sg75
(lp88
g68
(cgluon.html
TD
p89
g70
NtRp90
(dp91
g73
(dp92
S'_style'
p93
S'font-weight:bold;'
p94
ssg82
g85
sg75
(lp95
S'ajax'
p96
asbag68
(g89
g70
NtRp97
(dp98
g73
(dp99
S'_valign'
p100
S'top'
p101
ssg82
g85
sg75
(lp102
S':'
asbag68
(g89
g70
NtRp103
(dp104
g73
(dp105
sg82
g85
sg75
(lp106
g68
(g69
g70
NtRp107
(dp108
g73
(dp109
g81
I5
ssg82
g103
sg75
(lp110
S'False'
p111
asbasbasbag68
(g84
g70
NtRp112
(dp113
g73
(dp114
sg82
g78
sg75
(lp115
g68
(g89
g70
NtRp116
(dp117
g73
(dp118
g93
g94
ssg82
g112
sg75
(lp119
S'application'
p120
asbag68
(g89
g70
NtRp121
(dp122
g73
(dp123
g100
g101
ssg82
g112
sg75
(lp124
S':'
asbag68
(g89
g70
NtRp125
(dp126
g73
(dp127
sg82
g112
sg75
(lp128
g68
(g69
g70
NtRp129
(dp130
g73
(dp131
g81
I5
ssg82
g125
sg75
(lp132
S'init'
p133
asbasbasbag68
(g84
g70
NtRp134
(dp135
g73
(dp136
sg82
g78
sg75
(lp137
g68
(g89
g70
NtRp138
(dp139
g73
(dp140
g93
g94
ssg82
g134
sg75
(lp141
g51
asbag68
(g89
g70
NtRp142
(dp143
g73
(dp144
g100
g101
ssg82
g134
sg75
(lp145
S':'
asbag68
(g89
g70
NtRp146
(dp147
g73
(dp148
sg82
g134
sg75
(lp149
g68
(g69
g70
NtRp150
(dp151
g73
(dp152
g81
I5
ssg82
g146
sg75
(lp153
g68
(g77
g70
NtRp154
(dp155
g73
(dp156
g81
I4
ssg82
Nsg75
(lp157
sbasbasbasbag68
(g84
g70
NtRp158
(dp159
g73
(dp160
sg82
g78
sg75
(lp161
g68
(g89
g70
NtRp162
(dp163
g73
(dp164
g93
g94
ssg82
g158
sg75
(lp165
S'body'
p166
asbag68
(g89
g70
NtRp167
(dp168
g73
(dp169
g100
g101
ssg82
g158
sg75
(lp170
S':'
asbag68
(g89
g70
NtRp171
(dp172
g73
(dp173
sg82
g158
sg75
(lp174
g68
(g69
g70
NtRp175
(dp176
g73
(dp177
g81
I5
ssg82
g171
sg75
(lp178
S'<cStringIO.StringO object at 0x1021d56f8>'
p179
asbasbasbag68
(g84
g70
NtRp180
(dp181
g73
(dp182
sg82
g78
sg75
(lp183
g68
(g89
g70
NtRp184
(dp185
g73
(dp186
g93
g94
ssg82
g180
sg75
(lp187
S'client'
p188
asbag68
(g89
g70
NtRp189
(dp190
g73
(dp191
g100
g101
ssg82
g180
sg75
(lp192
S':'
asbag68
(g89
g70
NtRp193
(dp194
g73
(dp195
sg82
g180
sg75
(lp196
g68
(g69
g70
NtRp197
(dp198
g73
(dp199
g81
I5
ssg82
g193
sg75
(lp200
S'127.0.0.1'
p201
asbasbasbag68
(g84
g70
NtRp202
(dp203
g73
(dp204
sg82
g78
sg75
(lp205
g68
(g89
g70
NtRp206
(dp207
g73
(dp208
g93
g94
ssg82
g202
sg75
(lp209
S'controller'
p210
asbag68
(g89
g70
NtRp211
(dp212
g73
(dp213
g100
g101
ssg82
g202
sg75
(lp214
S':'
asbag68
(g89
g70
NtRp215
(dp216
g73
(dp217
sg82
g202
sg75
(lp218
g68
(g69
g70
NtRp219
(dp220
g73
(dp221
g81
I5
ssg82
g215
sg75
(lp222
S'default'
p223
asbasbasbag68
(g84
g70
NtRp224
(dp225
g73
(dp226
sg82
g78
sg75
(lp227
g68
(g89
g70
NtRp228
(dp229
g73
(dp230
g93
g94
ssg82
g224
sg75
(lp231
S'cookies'
p232
asbag68
(g89
g70
NtRp233
(dp234
g73
(dp235
g100
g101
ssg82
g224
sg75
(lp236
S':'
asbag68
(g89
g70
NtRp237
(dp238
g73
(dp239
sg82
g224
sg75
(lp240
g68
(g69
g70
NtRp241
(dp242
g73
(dp243
g81
I5
ssg82
g237
sg75
(lp244
g68
(g77
g70
NtRp245
(dp246
g73
(dp247
g81
I4
ssg82
Nsg75
(lp248
g68
(g84
g70
NtRp249
(dp250
g73
(dp251
sg82
g245
sg75
(lp252
g68
(g89
g70
NtRp253
(dp254
g73
(dp255
g93
g94
ssg82
g249
sg75
(lp256
S'session_id_admin'
p257
asbag68
(g89
g70
NtRp258
(dp259
g73
(dp260
g100
g101
ssg82
g249
sg75
(lp261
S':'
asbag68
(g89
g70
NtRp262
(dp263
g73
(dp264
sg82
g249
sg75
(lp265
g68
(g69
g70
NtRp266
(dp267
g73
(dp268
g81
I4
ssg82
g262
sg75
(lp269
g68
(g77
g70
NtRp270
(dp271
g73
(dp272
g81
I3
ssg82
Nsg75
(lp273
g68
(g84
g70
NtRp274
(dp275
g73
(dp276
sg82
g270
sg75
(lp277
g68
(g89
g70
NtRp278
(dp279
g73
(dp280
g93
g94
ssg82
g274
sg75
(lp281
S'comment'
p282
asbag68
(g89
g70
NtRp283
(dp284
g73
(dp285
g100
g101
ssg82
g274
sg75
(lp286
S':'
asbag68
(g89
g70
NtRp287
(dp288
g73
(dp289
sg82
g274
sg75
(lp290
g68
(g69
g70
NtRp291
(dp292
g73
(dp293
g81
I3
ssg82
g287
sg75
(lp294
S''
asbasbasbag68
(g84
g70
NtRp295
(dp296
g73
(dp297
sg82
g270
sg75
(lp298
g68
(g89
g70
NtRp299
(dp300
g73
(dp301
g93
g94
ssg82
g295
sg75
(lp302
S'domain'
p303
asbag68
(g89
g70
NtRp304
(dp305
g73
(dp306
g100
g101
ssg82
g295
sg75
(lp307
S':'
asbag68
(g89
g70
NtRp308
(dp309
g73
(dp310
sg82
g295
sg75
(lp311
g68
(g69
g70
NtRp312
(dp313
g73
(dp314
g81
I3
ssg82
g308
sg75
(lp315
S''
asbasbasbag68
(g84
g70
NtRp316
(dp317
g73
(dp318
sg82
g270
sg75
(lp319
g68
(g89
g70
NtRp320
(dp321
g73
(dp322
g93
g94
ssg82
g316
sg75
(lp323
S'expires'
p324
asbag68
(g89
g70
NtRp325
(dp326
g73
(dp327
g100
g101
ssg82
g316
sg75
(lp328
S':'
asbag68
(g89
g70
NtRp329
(dp330
g73
(dp331
sg82
g316
sg75
(lp332
g68
(g69
g70
NtRp333
(dp334
g73
(dp335
g81
I3
ssg82
g329
sg75
(lp336
S''
asbasbasbag68
(g84
g70
NtRp337
(dp338
g73
(dp339
sg82
g270
sg75
(lp340
g68
(g89
g70
NtRp341
(dp342
g73
(dp343
g93
g94
ssg82
g337
sg75
(lp344
S'httponly'
p345
asbag68
(g89
g70
NtRp346
(dp347
g73
(dp348
g100
g101
ssg82
g337
sg75
(lp349
S':'
asbag68
(g89
g70
NtRp350
(dp351
g73
(dp352
sg82
g337
sg75
(lp353
g68
(g69
g70
NtRp354
(dp355
g73
(dp356
g81
I3
ssg82
g350
sg75
(lp357
S''
asbasbasbag68
(g84
g70
NtRp358
(dp359
g73
(dp360
sg82
g270
sg75
(lp361
g68
(g89
g70
NtRp362
(dp363
g73
(dp364
g93
g94
ssg82
g358
sg75
(lp365
S'max-age'
p366
asbag68
(g89
g70
NtRp367
(dp368
g73
(dp369
g100
g101
ssg82
g358
sg75
(lp370
S':'
asbag68
(g89
g70
NtRp371
(dp372
g73
(dp373
sg82
g358
sg75
(lp374
g68
(g69
g70
NtRp375
(dp376
g73
(dp377
g81
I3
ssg82
g371
sg75
(lp378
S''
asbasbasbag68
(g84
g70
NtRp379
(dp380
g73
(dp381
sg82
g270
sg75
(lp382
g68
(g89
g70
NtRp383
(dp384
g73
(dp385
g93
g94
ssg82
g379
sg75
(lp386
S'path'
p387
asbag68
(g89
g70
NtRp388
(dp389
g73
(dp390
g100
g101
ssg82
g379
sg75
(lp391
S':'
asbag68
(g89
g70
NtRp392
(dp393
g73
(dp394
sg82
g379
sg75
(lp395
g68
(g69
g70
NtRp396
(dp397
g73
(dp398
g81
I3
ssg82
g392
sg75
(lp399
S''
asbasbasbag68
(g84
g70
NtRp400
(dp401
g73
(dp402
sg82
g270
sg75
(lp403
g68
(g89
g70
NtRp404
(dp405
g73
(dp406
g93
g94
ssg82
g400
sg75
(lp407
S'secure'
p408
asbag68
(g89
g70
NtRp409
(dp410
g73
(dp411
g100
g101
ssg82
g400
sg75
(lp412
S':'
asbag68
(g89
g70
NtRp413
(dp414
g73
(dp415
sg82
g400
sg75
(lp416
g68
(g69
g70
NtRp417
(dp418
g73
(dp419
g81
I3
ssg82
g413
sg75
(lp420
S''
asbasbasbag68
(g84
g70
NtRp421
(dp422
g73
(dp423
sg82
g270
sg75
(lp424
g68
(g89
g70
NtRp425
(dp426
g73
(dp427
g93
g94
ssg82
g421
sg75
(lp428
S'version'
p429
asbag68
(g89
g70
NtRp430
(dp431
g73
(dp432
g100
g101
ssg82
g421
sg75
(lp433
S':'
asbag68
(g89
g70
NtRp434
(dp435
g73
(dp436
sg82
g421
sg75
(lp437
g68
(g69
g70
NtRp438
(dp439
g73
(dp440
g81
I3
ssg82
g434
sg75
(lp441
S''
asbasbasbasbasbasbasbag68
(g84
g70
NtRp442
(dp443
g73
(dp444
sg82
g245
sg75
(lp445
g68
(g89
g70
NtRp446
(dp447
g73
(dp448
g93
g94
ssg82
g442
sg75
(lp449
S'session_id_blabla'
p450
asbag68
(g89
g70
NtRp451
(dp452
g73
(dp453
g100
g101
ssg82
g442
sg75
(lp454
S':'
asbag68
(g89
g70
NtRp455
(dp456
g73
(dp457
sg82
g442
sg75
(lp458
g68
(g69
g70
NtRp459
(dp460
g73
(dp461
g81
I4
ssg82
g455
sg75
(lp462
g68
(g77
g70
NtRp463
(dp464
g73
(dp465
g81
I3
ssg82
Nsg75
(lp466
g68
(g84
g70
NtRp467
(dp468
g73
(dp469
sg82
g463
sg75
(lp470
g68
(g89
g70
NtRp471
(dp472
g73
(dp473
g93
g94
ssg82
g467
sg75
(lp474
g282
asbag68
(g89
g70
NtRp475
(dp476
g73
(dp477
g100
g101
ssg82
g467
sg75
(lp478
S':'
asbag68
(g89
g70
NtRp479
(dp480
g73
(dp481
sg82
g467
sg75
(lp482
g68
(g69
g70
NtRp483
(dp484
g73
(dp485
g81
I3
ssg82
g479
sg75
(lp486
S''
asbasbasbag68
(g84
g70
NtRp487
(dp488
g73
(dp489
sg82
g463
sg75
(lp490
g68
(g89
g70
NtRp491
(dp492
g73
(dp493
g93
g94
ssg82
g487
sg75
(lp494
g303
asbag68
(g89
g70
NtRp495
(dp496
g73
(dp497
g100
g101
ssg82
g487
sg75
(lp498
S':'
asbag68
(g89
g70
NtRp499
(dp500
g73
(dp501
sg82
g487
sg75
(lp502
g68
(g69
g70
NtRp503
(dp504
g73
(dp505
g81
I3
ssg82
g499
sg75
(lp506
S''
asbasbasbag68
(g84
g70
NtRp507
(dp508
g73
(dp509
sg82
g463
sg75
(lp510
g68
(g89
g70
NtRp511
(dp512
g73
(dp513
g93
g94
ssg82
g507
sg75
(lp514
g324
asbag68
(g89
g70
NtRp515
(dp516
g73
(dp517
g100
g101
ssg82
g507
sg75
(lp518
S':'
asbag68
(g89
g70
NtRp519
(dp520
g73
(dp521
sg82
g507
sg75
(lp522
g68
(g69
g70
NtRp523
(dp524
g73
(dp525
g81
I3
ssg82
g519
sg75
(lp526
S''
asbasbasbag68
(g84
g70
NtRp527
(dp528
g73
(dp529
sg82
g463
sg75
(lp530
g68
(g89
g70
NtRp531
(dp532
g73
(dp533
g93
g94
ssg82
g527
sg75
(lp534
g345
asbag68
(g89
g70
NtRp535
(dp536
g73
(dp537
g100
g101
ssg82
g527
sg75
(lp538
S':'
asbag68
(g89
g70
NtRp539
(dp540
g73
(dp541
sg82
g527
sg75
(lp542
g68
(g69
g70
NtRp543
(dp544
g73
(dp545
g81
I3
ssg82
g539
sg75
(lp546
S''
asbasbasbag68
(g84
g70
NtRp547
(dp548
g73
(dp549
sg82
g463
sg75
(lp550
g68
(g89
g70
NtRp551
(dp552
g73
(dp553
g93
g94
ssg82
g547
sg75
(lp554
g366
asbag68
(g89
g70
NtRp555
(dp556
g73
(dp557
g100
g101
ssg82
g547
sg75
(lp558
S':'
asbag68
(g89
g70
NtRp559
(dp560
g73
(dp561
sg82
g547
sg75
(lp562
g68
(g69
g70
NtRp563
(dp564
g73
(dp565
g81
I3
ssg82
g559
sg75
(lp566
S''
asbasbasbag68
(g84
g70
NtRp567
(dp568
g73
(dp569
sg82
g463
sg75
(lp570
g68
(g89
g70
NtRp571
(dp572
g73
(dp573
g93
g94
ssg82
g567
sg75
(lp574
g387
asbag68
(g89
g70
NtRp575
(dp576
g73
(dp577
g100
g101
ssg82
g567
sg75
(lp578
S':'
asbag68
(g89
g70
NtRp579
(dp580
g73
(dp581
sg82
g567
sg75
(lp582
g68
(g69
g70
NtRp583
(dp584
g73
(dp585
g81
I3
ssg82
g579
sg75
(lp586
S''
asbasbasbag68
(g84
g70
NtRp587
(dp588
g73
(dp589
sg82
g463
sg75
(lp590
g68
(g89
g70
NtRp591
(dp592
g73
(dp593
g93
g94
ssg82
g587
sg75
(lp594
g408
asbag68
(g89
g70
NtRp595
(dp596
g73
(dp597
g100
g101
ssg82
g587
sg75
(lp598
S':'
asbag68
(g89
g70
NtRp599
(dp600
g73
(dp601
sg82
g587
sg75
(lp602
g68
(g69
g70
NtRp603
(dp604
g73
(dp605
g81
I3
ssg82
g599
sg75
(lp606
S''
asbasbasbag68
(g84
g70
NtRp607
(dp608
g73
(dp609
sg82
g463
sg75
(lp610
g68
(g89
g70
NtRp611
(dp612
g73
(dp613
g93
g94
ssg82
g607
sg75
(lp614
g429
asbag68
(g89
g70
NtRp615
(dp616
g73
(dp617
g100
g101
ssg82
g607
sg75
(lp618
S':'
asbag68
(g89
g70
NtRp619
(dp620
g73
(dp621
sg82
g607
sg75
(lp622
g68
(g69
g70
NtRp623
(dp624
g73
(dp625
g81
I3
ssg82
g619
sg75
(lp626
S''
asbasbasbasbasbasbasbag68
(g84
g70
NtRp627
(dp628
g73
(dp629
sg82
g245
sg75
(lp630
g68
(g89
g70
NtRp631
(dp632
g73
(dp633
g93
g94
ssg82
g627
sg75
(lp634
S'session_id_globaleaks'
p635
asbag68
(g89
g70
NtRp636
(dp637
g73
(dp638
g100
g101
ssg82
g627
sg75
(lp639
S':'
asbag68
(g89
g70
NtRp640
(dp641
g73
(dp642
sg82
g627
sg75
(lp643
g68
(g69
g70
NtRp644
(dp645
g73
(dp646
g81
I4
ssg82
g640
sg75
(lp647
g68
(g77
g70
NtRp648
(dp649
g73
(dp650
g81
I3
ssg82
Nsg75
(lp651
g68
(g84
g70
NtRp652
(dp653
g73
(dp654
sg82
g648
sg75
(lp655
g68
(g89
g70
NtRp656
(dp657
g73
(dp658
g93
g94
ssg82
g652
sg75
(lp659
g282
asbag68
(g89
g70
NtRp660
(dp661
g73
(dp662
g100
g101
ssg82
g652
sg75
(lp663
S':'
asbag68
(g89
g70
NtRp664
(dp665
g73
(dp666
sg82
g652
sg75
(lp667
g68
(g69
g70
NtRp668
(dp669
g73
(dp670
g81
I3
ssg82
g664
sg75
(lp671
S''
asbasbasbag68
(g84
g70
NtRp672
(dp673
g73
(dp674
sg82
g648
sg75
(lp675
g68
(g89
g70
NtRp676
(dp677
g73
(dp678
g93
g94
ssg82
g672
sg75
(lp679
g303
asbag68
(g89
g70
NtRp680
(dp681
g73
(dp682
g100
g101
ssg82
g672
sg75
(lp683
S':'
asbag68
(g89
g70
NtRp684
(dp685
g73
(dp686
sg82
g672
sg75
(lp687
g68
(g69
g70
NtRp688
(dp689
g73
(dp690
g81
I3
ssg82
g684
sg75
(lp691
S''
asbasbasbag68
(g84
g70
NtRp692
(dp693
g73
(dp694
sg82
g648
sg75
(lp695
g68
(g89
g70
NtRp696
(dp697
g73
(dp698
g93
g94
ssg82
g692
sg75
(lp699
g324
asbag68
(g89
g70
NtRp700
(dp701
g73
(dp702
g100
g101
ssg82
g692
sg75
(lp703
S':'
asbag68
(g89
g70
NtRp704
(dp705
g73
(dp706
sg82
g692
sg75
(lp707
g68
(g69
g70
NtRp708
(dp709
g73
(dp710
g81
I3
ssg82
g704
sg75
(lp711
S''
asbasbasbag68
(g84
g70
NtRp712
(dp713
g73
(dp714
sg82
g648
sg75
(lp715
g68
(g89
g70
NtRp716
(dp717
g73
(dp718
g93
g94
ssg82
g712
sg75
(lp719
g345
asbag68
(g89
g70
NtRp720
(dp721
g73
(dp722
g100
g101
ssg82
g712
sg75
(lp723
S':'
asbag68
(g89
g70
NtRp724
(dp725
g73
(dp726
sg82
g712
sg75
(lp727
g68
(g69
g70
NtRp728
(dp729
g73
(dp730
g81
I3
ssg82
g724
sg75
(lp731
S''
asbasbasbag68
(g84
g70
NtRp732
(dp733
g73
(dp734
sg82
g648
sg75
(lp735
g68
(g89
g70
NtRp736
(dp737
g73
(dp738
g93
g94
ssg82
g732
sg75
(lp739
g366
asbag68
(g89
g70
NtRp740
(dp741
g73
(dp742
g100
g101
ssg82
g732
sg75
(lp743
S':'
asbag68
(g89
g70
NtRp744
(dp745
g73
(dp746
sg82
g732
sg75
(lp747
g68
(g69
g70
NtRp748
(dp749
g73
(dp750
g81
I3
ssg82
g744
sg75
(lp751
S''
asbasbasbag68
(g84
g70
NtRp752
(dp753
g73
(dp754
sg82
g648
sg75
(lp755
g68
(g89
g70
NtRp756
(dp757
g73
(dp758
g93
g94
ssg82
g752
sg75
(lp759
g387
asbag68
(g89
g70
NtRp760
(dp761
g73
(dp762
g100
g101
ssg82
g752
sg75
(lp763
S':'
asbag68
(g89
g70
NtRp764
(dp765
g73
(dp766
sg82
g752
sg75
(lp767
g68
(g69
g70
NtRp768
(dp769
g73
(dp770
g81
I3
ssg82
g764
sg75
(lp771
S''
asbasbasbag68
(g84
g70
NtRp772
(dp773
g73
(dp774
sg82
g648
sg75
(lp775
g68
(g89
g70
NtRp776
(dp777
g73
(dp778
g93
g94
ssg82
g772
sg75
(lp779
g408
asbag68
(g89
g70
NtRp780
(dp781
g73
(dp782
g100
g101
ssg82
g772
sg75
(lp783
S':'
asbag68
(g89
g70
NtRp784
(dp785
g73
(dp786
sg82
g772
sg75
(lp787
g68
(g69
g70
NtRp788
(dp789
g73
(dp790
g81
I3
ssg82
g784
sg75
(lp791
S''
asbasbasbag68
(g84
g70
NtRp792
(dp793
g73
(dp794
sg82
g648
sg75
(lp795
g68
(g89
g70
NtRp796
(dp797
g73
(dp798
g93
g94
ssg82
g792
sg75
(lp799
g429
asbag68
(g89
g70
NtRp800
(dp801
g73
(dp802
g100
g101
ssg82
g792
sg75
(lp803
S':'
asbag68
(g89
g70
NtRp804
(dp805
g73
(dp806
sg82
g792
sg75
(lp807
g68
(g69
g70
NtRp808
(dp809
g73
(dp810
g81
I3
ssg82
g804
sg75
(lp811
S''
asbasbasbasbasbasbasbag68
(g84
g70
NtRp812
(dp813
g73
(dp814
sg82
g245
sg75
(lp815
g68
(g89
g70
NtRp816
(dp817
g73
(dp818
g93
g94
ssg82
g812
sg75
(lp819
S'session_id_init'
p820
asbag68
(g89
g70
NtRp821
(dp822
g73
(dp823
g100
g101
ssg82
g812
sg75
(lp824
S':'
asbag68
(g89
g70
NtRp825
(dp826
g73
(dp827
sg82
g812
sg75
(lp828
g68
(g69
g70
NtRp829
(dp830
g73
(dp831
g81
I4
ssg82
g825
sg75
(lp832
g68
(g77
g70
NtRp833
(dp834
g73
(dp835
g81
I3
ssg82
Nsg75
(lp836
g68
(g84
g70
NtRp837
(dp838
g73
(dp839
sg82
g833
sg75
(lp840
g68
(g89
g70
NtRp841
(dp842
g73
(dp843
g93
g94
ssg82
g837
sg75
(lp844
g282
asbag68
(g89
g70
NtRp845
(dp846
g73
(dp847
g100
g101
ssg82
g837
sg75
(lp848
S':'
asbag68
(g89
g70
NtRp849
(dp850
g73
(dp851
sg82
g837
sg75
(lp852
g68
(g69
g70
NtRp853
(dp854
g73
(dp855
g81
I3
ssg82
g849
sg75
(lp856
S''
asbasbasbag68
(g84
g70
NtRp857
(dp858
g73
(dp859
sg82
g833
sg75
(lp860
g68
(g89
g70
NtRp861
(dp862
g73
(dp863
g93
g94
ssg82
g857
sg75
(lp864
g303
asbag68
(g89
g70
NtRp865
(dp866
g73
(dp867
g100
g101
ssg82
g857
sg75
(lp868
S':'
asbag68
(g89
g70
NtRp869
(dp870
g73
(dp871
sg82
g857
sg75
(lp872
g68
(g69
g70
NtRp873
(dp874
g73
(dp875
g81
I3
ssg82
g869
sg75
(lp876
S''
asbasbasbag68
(g84
g70
NtRp877
(dp878
g73
(dp879
sg82
g833
sg75
(lp880
g68
(g89
g70
NtRp881
(dp882
g73
(dp883
g93
g94
ssg82
g877
sg75
(lp884
g324
asbag68
(g89
g70
NtRp885
(dp886
g73
(dp887
g100
g101
ssg82
g877
sg75
(lp888
S':'
asbag68
(g89
g70
NtRp889
(dp890
g73
(dp891
sg82
g877
sg75
(lp892
g68
(g69
g70
NtRp893
(dp894
g73
(dp895
g81
I3
ssg82
g889
sg75
(lp896
S''
asbasbasbag68
(g84
g70
NtRp897
(dp898
g73
(dp899
sg82
g833
sg75
(lp900
g68
(g89
g70
NtRp901
(dp902
g73
(dp903
g93
g94
ssg82
g897
sg75
(lp904
g345
asbag68
(g89
g70
NtRp905
(dp906
g73
(dp907
g100
g101
ssg82
g897
sg75
(lp908
S':'
asbag68
(g89
g70
NtRp909
(dp910
g73
(dp911
sg82
g897
sg75
(lp912
g68
(g69
g70
NtRp913
(dp914
g73
(dp915
g81
I3
ssg82
g909
sg75
(lp916
S''
asbasbasbag68
(g84
g70
NtRp917
(dp918
g73
(dp919
sg82
g833
sg75
(lp920
g68
(g89
g70
NtRp921
(dp922
g73
(dp923
g93
g94
ssg82
g917
sg75
(lp924
g366
asbag68
(g89
g70
NtRp925
(dp926
g73
(dp927
g100
g101
ssg82
g917
sg75
(lp928
S':'
asbag68
(g89
g70
NtRp929
(dp930
g73
(dp931
sg82
g917
sg75
(lp932
g68
(g69
g70
NtRp933
(dp934
g73
(dp935
g81
I3
ssg82
g929
sg75
(lp936
S''
asbasbasbag68
(g84
g70
NtRp937
(dp938
g73
(dp939
sg82
g833
sg75
(lp940
g68
(g89
g70
NtRp941
(dp942
g73
(dp943
g93
g94
ssg82
g937
sg75
(lp944
g387
asbag68
(g89
g70
NtRp945
(dp946
g73
(dp947
g100
g101
ssg82
g937
sg75
(lp948
S':'
asbag68
(g89
g70
NtRp949
(dp950
g73
(dp951
sg82
g937
sg75
(lp952
g68
(g69
g70
NtRp953
(dp954
g73
(dp955
g81
I3
ssg82
g949
sg75
(lp956
S''
asbasbasbag68
(g84
g70
NtRp957
(dp958
g73
(dp959
sg82
g833
sg75
(lp960
g68
(g89
g70
NtRp961
(dp962
g73
(dp963
g93
g94
ssg82
g957
sg75
(lp964
g408
asbag68
(g89
g70
NtRp965
(dp966
g73
(dp967
g100
g101
ssg82
g957
sg75
(lp968
S':'
asbag68
(g89
g70
NtRp969
(dp970
g73
(dp971
sg82
g957
sg75
(lp972
g68
(g69
g70
NtRp973
(dp974
g73
(dp975
g81
I3
ssg82
g969
sg75
(lp976
S''
asbasbasbag68
(g84
g70
NtRp977
(dp978
g73
(dp979
sg82
g833
sg75
(lp980
g68
(g89
g70
NtRp981
(dp982
g73
(dp983
g93
g94
ssg82
g977
sg75
(lp984
g429
asbag68
(g89
g70
NtRp985
(dp986
g73
(dp987
g100
g101
ssg82
g977
sg75
(lp988
S':'
asbag68
(g89
g70
NtRp989
(dp990
g73
(dp991
sg82
g977
sg75
(lp992
g68
(g69
g70
NtRp993
(dp994
g73
(dp995
g81
I3
ssg82
g989
sg75
(lp996
S''
asbasbasbasbasbasbasbasbasbasbasbag68
(g84
g70
NtRp997
(dp998
g73
(dp999
sg82
g78
sg75
(lp1000
g68
(g89
g70
NtRp1001
(dp1002
g73
(dp1003
g93
g94
ssg82
g997
sg75
(lp1004
S'env'
p1005
asbag68
(g89
g70
NtRp1006
(dp1007
g73
(dp1008
g100
g101
ssg82
g997
sg75
(lp1009
S':'
asbag68
(g89
g70
NtRp1010
(dp1011
g73
(dp1012
sg82
g997
sg75
(lp1013
g68
(g69
g70
NtRp1014
(dp1015
g73
(dp1016
g81
I5
ssg82
g1010
sg75
(lp1017
g68
(g77
g70
NtRp1018
(dp1019
g73
(dp1020
g81
I4
ssg82
Nsg75
(lp1021
g68
(g84
g70
NtRp1022
(dp1023
g73
(dp1024
sg82
g1018
sg75
(lp1025
g68
(g89
g70
NtRp1026
(dp1027
g73
(dp1028
g93
g94
ssg82
g1022
sg75
(lp1029
S'app_folders'
p1030
asbag68
(g89
g70
NtRp1031
(dp1032
g73
(dp1033
g100
g101
ssg82
g1022
sg75
(lp1034
S':'
asbag68
(g89
g70
NtRp1035
(dp1036
g73
(dp1037
sg82
g1022
sg75
(lp1038
g68
(g69
g70
NtRp1039
(dp1040
g73
(dp1041
g81
I4
ssg82
g1035
sg75
(lp1042
S"set(['/Users/hellais/Documents/code/mygit/globaleaks/webapp/applications/init/', '/Users/hellais/Documents/code/mygit/globaleaks/webapp/applications/admin/'])"
p1043
asbasbasbag68
(g84
g70
NtRp1044
(dp1045
g73
(dp1046
sg82
g1018
sg75
(lp1047
g68
(g89
g70
NtRp1048
(dp1049
g73
(dp1050
g93
g94
ssg82
g1044
sg75
(lp1051
S'applications_parent'
p1052
asbag68
(g89
g70
NtRp1053
(dp1054
g73
(dp1055
g100
g101
ssg82
g1044
sg75
(lp1056
S':'
asbag68
(g89
g70
NtRp1057
(dp1058
g73
(dp1059
sg82
g1044
sg75
(lp1060
g68
(g69
g70
NtRp1061
(dp1062
g73
(dp1063
g81
I4
ssg82
g1057
sg75
(lp1064
S'/Users/hellais/Documents/code/mygit/globaleaks/webapp'
p1065
asbasbasbag68
(g84
g70
NtRp1066
(dp1067
g73
(dp1068
sg82
g1018
sg75
(lp1069
g68
(g89
g70
NtRp1070
(dp1071
g73
(dp1072
g93
g94
ssg82
g1066
sg75
(lp1073
S'cmd_args'
p1074
asbag68
(g89
g70
NtRp1075
(dp1076
g73
(dp1077
g100
g101
ssg82
g1066
sg75
(lp1078
S':'
asbag68
(g89
g70
NtRp1079
(dp1080
g73
(dp1081
sg82
g1066
sg75
(lp1082
g68
(g69
g70
NtRp1083
(dp1084
g73
(dp1085
g81
I4
ssg82
g1079
sg75
(lp1086
g68
(g77
g70
NtRp1087
(dp1088
g73
(dp1089
g81
I3
ssg82
Nsg75
(lp1090
sbasbasbasbag68
(g84
g70
NtRp1091
(dp1092
g73
(dp1093
sg82
g1018
sg75
(lp1094
g68
(g89
g70
NtRp1095
(dp1096
g73
(dp1097
g93
g94
ssg82
g1091
sg75
(lp1098
S'cmd_options'
p1099
asbag68
(g89
g70
NtRp1100
(dp1101
g73
(dp1102
g100
g101
ssg82
g1091
sg75
(lp1103
S':'
asbag68
(g89
g70
NtRp1104
(dp1105
g73
(dp1106
sg82
g1091
sg75
(lp1107
g68
(g69
g70
NtRp1108
(dp1109
g73
(dp1110
g81
I4
ssg82
g1104
sg75
(lp1111
S"<Values at 0x1015f1320: {'verbose': False, 'ip': '127.0.0.1', 'shutdown_timeout': 5, 'taskbar': False, 'port': 8000, 'maxthreads': None, 'softcron': False, 'server_name': 'Jeanne.local', 'bpython': False, 'nogui': False, 'nocron': False, 'extcron': False, 'debuglevel': 30, 'test': None, 'folder': '/Users/hellais/Documents/code/mygit/globaleaks/webapp', 'config': '', 'import_models': False, 'winservice': '', 'shell': None, 'run': '', 'log_filename': 'httpserver.log', 'args': [''], 'profiler_filename': None, 'ssl_private_key': '', 'password': 'antani', 'request_queue_size': 5, 'ssl_certificate': '', 'cronjob': False, 'plain': False, 'quiet': False, 'interfaces': None, 'minthreads': None, 'timeout': 10, 'numthreads': None, 'nobanner': False, 'pid_filename': 'httpserver.pid'}>"
p1112
asbasbasbag68
(g84
g70
NtRp1113
(dp1114
g73
(dp1115
sg82
g1018
sg75
(lp1116
g68
(g89
g70
NtRp1117
(dp1118
g73
(dp1119
g93
g94
ssg82
g1113
sg75
(lp1120
S'db_sessions'
p1121
asbag68
(g89
g70
NtRp1122
(dp1123
g73
(dp1124
g100
g101
ssg82
g1113
sg75
(lp1125
S':'
asbag68
(g89
g70
NtRp1126
(dp1127
g73
(dp1128
sg82
g1113
sg75
(lp1129
g68
(g69
g70
NtRp1130
(dp1131
g73
(dp1132
g81
I4
ssg82
g1126
sg75
(lp1133
S'set([])'
p1134
asbasbasbag68
(g84
g70
NtRp1135
(dp1136
g73
(dp1137
sg82
g1018
sg75
(lp1138
g68
(g89
g70
NtRp1139
(dp1140
g73
(dp1141
g93
g94
ssg82
g1135
sg75
(lp1142
S'debugging'
p1143
asbag68
(g89
g70
NtRp1144
(dp1145
g73
(dp1146
g100
g101
ssg82
g1135
sg75
(lp1147
S':'
asbag68
(g89
g70
NtRp1148
(dp1149
g73
(dp1150
sg82
g1135
sg75
(lp1151
g68
(g69
g70
NtRp1152
(dp1153
g73
(dp1154
g81
I4
ssg82
g1148
sg75
(lp1155
g111
asbasbasbag68
(g84
g70
NtRp1156
(dp1157
g73
(dp1158
sg82
g1018
sg75
(lp1159
g68
(g89
g70
NtRp1160
(dp1161
g73
(dp1162
g93
g94
ssg82
g1156
sg75
(lp1163
S'gluon_parent'
p1164
asbag68
(g89
g70
NtRp1165
(dp1166
g73
(dp1167
g100
g101
ssg82
g1156
sg75
(lp1168
S':'
asbag68
(g89
g70
NtRp1169
(dp1170
g73
(dp1171
sg82
g1156
sg75
(lp1172
g68
(g69
g70
NtRp1173
(dp1174
g73
(dp1175
g81
I4
ssg82
g1169
sg75
(lp1176
S'/Users/hellais/Documents/code/mygit/globaleaks/webapp'
p1177
asbasbasbag68
(g84
g70
NtRp1178
(dp1179
g73
(dp1180
sg82
g1018
sg75
(lp1181
g68
(g89
g70
NtRp1182
(dp1183
g73
(dp1184
g93
g94
ssg82
g1178
sg75
(lp1185
S'http_accept'
p1186
asbag68
(g89
g70
NtRp1187
(dp1188
g73
(dp1189
g100
g101
ssg82
g1178
sg75
(lp1190
S':'
asbag68
(g89
g70
NtRp1191
(dp1192
g73
(dp1193
sg82
g1178
sg75
(lp1194
g68
(g69
g70
NtRp1195
(dp1196
g73
(dp1197
g81
I4
ssg82
g1191
sg75
(lp1198
S'text/html,application/xhtml+xml,application/xml;q=0.9,*/*;q=0.8'
p1199
asbasbasbag68
(g84
g70
NtRp1200
(dp1201
g73
(dp1202
sg82
g1018
sg75
(lp1203
g68
(g89
g70
NtRp1204
(dp1205
g73
(dp1206
g93
g94
ssg82
g1200
sg75
(lp1207
S'http_accept_charset'
p1208
asbag68
(g89
g70
NtRp1209
(dp1210
g73
(dp1211
g100
g101
ssg82
g1200
sg75
(lp1212
S':'
asbag68
(g89
g70
NtRp1213
(dp1214
g73
(dp1215
sg82
g1200
sg75
(lp1216
g68
(g69
g70
NtRp1217
(dp1218
g73
(dp1219
g81
I4
ssg82
g1213
sg75
(lp1220
S'ISO-8859-1,utf-8;q=0.7,*;q=0.7'
p1221
asbasbasbag68
(g84
g70
NtRp1222
(dp1223
g73
(dp1224
sg82
g1018
sg75
(lp1225
g68
(g89
g70
NtRp1226
(dp1227
g73
(dp1228
g93
g94
ssg82
g1222
sg75
(lp1229
S'http_accept_encoding'
p1230
asbag68
(g89
g70
NtRp1231
(dp1232
g73
(dp1233
g100
g101
ssg82
g1222
sg75
(lp1234
S':'
asbag68
(g89
g70
NtRp1235
(dp1236
g73
(dp1237
sg82
g1222
sg75
(lp1238
g68
(g69
g70
NtRp1239
(dp1240
g73
(dp1241
g81
I4
ssg82
g1235
sg75
(lp1242
S'gzip, deflate'
p1243
asbasbasbag68
(g84
g70
NtRp1244
(dp1245
g73
(dp1246
sg82
g1018
sg75
(lp1247
g68
(g89
g70
NtRp1248
(dp1249
g73
(dp1250
g93
g94
ssg82
g1244
sg75
(lp1251
S'http_accept_language'
p1252
asbag68
(g89
g70
NtRp1253
(dp1254
g73
(dp1255
g100
g101
ssg82
g1244
sg75
(lp1256
S':'
asbag68
(g89
g70
NtRp1257
(dp1258
g73
(dp1259
sg82
g1244
sg75
(lp1260
g68
(g69
g70
NtRp1261
(dp1262
g73
(dp1263
g81
I4
ssg82
g1257
sg75
(lp1264
S'en-us,en;q=0.5'
p1265
asbasbasbag68
(g84
g70
NtRp1266
(dp1267
g73
(dp1268
sg82
g1018
sg75
(lp1269
g68
(g89
g70
NtRp1270
(dp1271
g73
(dp1272
g93
g94
ssg82
g1266
sg75
(lp1273
S'http_cache_control'
p1274
asbag68
(g89
g70
NtRp1275
(dp1276
g73
(dp1277
g100
g101
ssg82
g1266
sg75
(lp1278
S':'
asbag68
(g89
g70
NtRp1279
(dp1280
g73
(dp1281
sg82
g1266
sg75
(lp1282
g68
(g69
g70
NtRp1283
(dp1284
g73
(dp1285
g81
I4
ssg82
g1279
sg75
(lp1286
S'max-age=0'
p1287
asbasbasbag68
(g84
g70
NtRp1288
(dp1289
g73
(dp1290
sg82
g1018
sg75
(lp1291
g68
(g89
g70
NtRp1292
(dp1293
g73
(dp1294
g93
g94
ssg82
g1288
sg75
(lp1295
S'http_connection'
p1296
asbag68
(g89
g70
NtRp1297
(dp1298
g73
(dp1299
g100
g101
ssg82
g1288
sg75
(lp1300
S':'
asbag68
(g89
g70
NtRp1301
(dp1302
g73
(dp1303
sg82
g1288
sg75
(lp1304
g68
(g69
g70
NtRp1305
(dp1306
g73
(dp1307
g81
I4
ssg82
g1301
sg75
(lp1308
S'keep-alive'
p1309
asbasbasbag68
(g84
g70
NtRp1310
(dp1311
g73
(dp1312
sg82
g1018
sg75
(lp1313
g68
(g89
g70
NtRp1314
(dp1315
g73
(dp1316
g93
g94
ssg82
g1310
sg75
(lp1317
S'http_cookie'
p1318
asbag68
(g89
g70
NtRp1319
(dp1320
g73
(dp1321
g100
g101
ssg82
g1310
sg75
(lp1322
S':'
asbag68
(g89
g70
NtRp1323
(dp1324
g73
(dp1325
sg82
g1310
sg75
(lp1326
g68
(g69
g70
NtRp1327
(dp1328
g73
(dp1329
g81
I4
ssg82
g1323
sg75
(lp1330
S'session_id_admin=127.0.0.1-67122ce4-50b2-4acf-b28e-7a14feeff4d9; session_id_globaleaks=127.0.0.1-c6d5b9b3-1ec7-41c1-8d72-04c21b7a6b11; session_id_blabla=127.0.0.1-c445384e-a3ea-4484-8fe2-52f3295bbb7c; session_id_init=127.0.0.1-a8551263-bc3c-430c-abb2-8711fac671c1'
p1331
asbasbasbag68
(g84
g70
NtRp1332
(dp1333
g73
(dp1334
sg82
g1018
sg75
(lp1335
g68
(g89
g70
NtRp1336
(dp1337
g73
(dp1338
g93
g94
ssg82
g1332
sg75
(lp1339
S'http_host'
p1340
asbag68
(g89
g70
NtRp1341
(dp1342
g73
(dp1343
g100
g101
ssg82
g1332
sg75
(lp1344
S':'
asbag68
(g89
g70
NtRp1345
(dp1346
g73
(dp1347
sg82
g1332
sg75
(lp1348
g68
(g69
g70
NtRp1349
(dp1350
g73
(dp1351
g81
I4
ssg82
g1345
sg75
(lp1352
S'127.0.0.1:8000'
p1353
asbasbasbag68
(g84
g70
NtRp1354
(dp1355
g73
(dp1356
sg82
g1018
sg75
(lp1357
g68
(g89
g70
NtRp1358
(dp1359
g73
(dp1360
g93
g94
ssg82
g1354
sg75
(lp1361
S'http_referer'
p1362
asbag68
(g89
g70
NtRp1363
(dp1364
g73
(dp1365
g100
g101
ssg82
g1354
sg75
(lp1366
S':'
asbag68
(g89
g70
NtRp1367
(dp1368
g73
(dp1369
sg82
g1354
sg75
(lp1370
g68
(g69
g70
NtRp1371
(dp1372
g73
(dp1373
g81
I4
ssg82
g1367
sg75
(lp1374
S'http://127.0.0.1:8000/'
p1375
asbasbasbag68
(g84
g70
NtRp1376
(dp1377
g73
(dp1378
sg82
g1018
sg75
(lp1379
g68
(g89
g70
NtRp1380
(dp1381
g73
(dp1382
g93
g94
ssg82
g1376
sg75
(lp1383
S'http_user_agent'
p1384
asbag68
(g89
g70
NtRp1385
(dp1386
g73
(dp1387
g100
g101
ssg82
g1376
sg75
(lp1388
S':'
asbag68
(g89
g70
NtRp1389
(dp1390
g73
(dp1391
sg82
g1376
sg75
(lp1392
g68
(g69
g70
NtRp1393
(dp1394
g73
(dp1395
g81
I4
ssg82
g1389
sg75
(lp1396
S'Mozilla/5.0 (Macintosh; Intel Mac OS X 10.6; rv:5.0.1) Gecko/20100101 Firefox/5.0.1'
p1397
asbasbasbag68
(g84
g70
NtRp1398
(dp1399
g73
(dp1400
sg82
g1018
sg75
(lp1401
g68
(g89
g70
NtRp1402
(dp1403
g73
(dp1404
g93
g94
ssg82
g1398
sg75
(lp1405
S'is_jython'
p1406
asbag68
(g89
g70
NtRp1407
(dp1408
g73
(dp1409
g100
g101
ssg82
g1398
sg75
(lp1410
S':'
asbag68
(g89
g70
NtRp1411
(dp1412
g73
(dp1413
sg82
g1398
sg75
(lp1414
g68
(g69
g70
NtRp1415
(dp1416
g73
(dp1417
g81
I4
ssg82
g1411
sg75
(lp1418
g111
asbasbasbag68
(g84
g70
NtRp1419
(dp1420
g73
(dp1421
sg82
g1018
sg75
(lp1422
g68
(g89
g70
NtRp1423
(dp1424
g73
(dp1425
g93
g94
ssg82
g1419
sg75
(lp1426
S'path_info'
p1427
asbag68
(g89
g70
NtRp1428
(dp1429
g73
(dp1430
g100
g101
ssg82
g1419
sg75
(lp1431
S':'
asbag68
(g89
g70
NtRp1432
(dp1433
g73
(dp1434
sg82
g1419
sg75
(lp1435
g68
(g69
g70
NtRp1436
(dp1437
g73
(dp1438
g81
I4
ssg82
g1432
sg75
(lp1439
S'/init/default/submission'
p1440
asbasbasbag68
(g84
g70
NtRp1441
(dp1442
g73
(dp1443
sg82
g1018
sg75
(lp1444
g68
(g89
g70
NtRp1445
(dp1446
g73
(dp1447
g93
g94
ssg82
g1441
sg75
(lp1448
S'query_string'
p1449
asbag68
(g89
g70
NtRp1450
(dp1451
g73
(dp1452
g100
g101
ssg82
g1441
sg75
(lp1453
S':'
asbag68
(g89
g70
NtRp1454
(dp1455
g73
(dp1456
sg82
g1441
sg75
(lp1457
g68
(g69
g70
NtRp1458
(dp1459
g73
(dp1460
g81
I4
ssg82
g1454
sg75
(lp1461
S''
asbasbasbag68
(g84
g70
NtRp1462
(dp1463
g73
(dp1464
sg82
g1018
sg75
(lp1465
g68
(g89
g70
NtRp1466
(dp1467
g73
(dp1468
g93
g94
ssg82
g1462
sg75
(lp1469
S'remote_addr'
p1470
asbag68
(g89
g70
NtRp1471
(dp1472
g73
(dp1473
g100
g101
ssg82
g1462
sg75
(lp1474
S':'
asbag68
(g89
g70
NtRp1475
(dp1476
g73
(dp1477
sg82
g1462
sg75
(lp1478
g68
(g69
g70
NtRp1479
(dp1480
g73
(dp1481
g81
I4
ssg82
g1475
sg75
(lp1482
g201
asbasbasbag68
(g84
g70
NtRp1483
(dp1484
g73
(dp1485
sg82
g1018
sg75
(lp1486
g68
(g89
g70
NtRp1487
(dp1488
g73
(dp1489
g93
g94
ssg82
g1483
sg75
(lp1490
S'remote_port'
p1491
asbag68
(g89
g70
NtRp1492
(dp1493
g73
(dp1494
g100
g101
ssg82
g1483
sg75
(lp1495
S':'
asbag68
(g89
g70
NtRp1496
(dp1497
g73
(dp1498
sg82
g1483
sg75
(lp1499
g68
(g69
g70
NtRp1500
(dp1501
g73
(dp1502
g81
I4
ssg82
g1496
sg75
(lp1503
S'54798'
p1504
asbasbasbag68
(g84
g70
NtRp1505
(dp1506
g73
(dp1507
sg82
g1018
sg75
(lp1508
g68
(g89
g70
NtRp1509
(dp1510
g73
(dp1511
g93
g94
ssg82
g1505
sg75
(lp1512
S'request_method'
p1513
asbag68
(g89
g70
NtRp1514
(dp1515
g73
(dp1516
g100
g101
ssg82
g1505
sg75
(lp1517
S':'
asbag68
(g89
g70
NtRp1518
(dp1519
g73
(dp1520
sg82
g1505
sg75
(lp1521
g68
(g69
g70
NtRp1522
(dp1523
g73
(dp1524
g81
I4
ssg82
g1518
sg75
(lp1525
S'GET'
p1526
asbasbasbag68
(g84
g70
NtRp1527
(dp1528
g73
(dp1529
sg82
g1018
sg75
(lp1530
g68
(g89
g70
NtRp1531
(dp1532
g73
(dp1533
g93
g94
ssg82
g1527
sg75
(lp1534
S'script_name'
p1535
asbag68
(g89
g70
NtRp1536
(dp1537
g73
(dp1538
g100
g101
ssg82
g1527
sg75
(lp1539
S':'
asbag68
(g89
g70
NtRp1540
(dp1541
g73
(dp1542
sg82
g1527
sg75
(lp1543
g68
(g69
g70
NtRp1544
(dp1545
g73
(dp1546
g81
I4
ssg82
g1540
sg75
(lp1547
S''
asbasbasbag68
(g84
g70
NtRp1548
(dp1549
g73
(dp1550
sg82
g1018
sg75
(lp1551
g68
(g89
g70
NtRp1552
(dp1553
g73
(dp1554
g93
g94
ssg82
g1548
sg75
(lp1555
S'server_name'
p1556
asbag68
(g89
g70
NtRp1557
(dp1558
g73
(dp1559
g100
g101
ssg82
g1548
sg75
(lp1560
S':'
asbag68
(g89
g70
NtRp1561
(dp1562
g73
(dp1563
sg82
g1548
sg75
(lp1564
g68
(g69
g70
NtRp1565
(dp1566
g73
(dp1567
g81
I4
ssg82
g1561
sg75
(lp1568
S'Jeanne.local'
p1569
asbasbasbag68
(g84
g70
NtRp1570
(dp1571
g73
(dp1572
sg82
g1018
sg75
(lp1573
g68
(g89
g70
NtRp1574
(dp1575
g73
(dp1576
g93
g94
ssg82
g1570
sg75
(lp1577
S'server_port'
p1578
asbag68
(g89
g70
NtRp1579
(dp1580
g73
(dp1581
g100
g101
ssg82
g1570
sg75
(lp1582
S':'
asbag68
(g89
g70
NtRp1583
(dp1584
g73
(dp1585
sg82
g1570
sg75
(lp1586
g68
(g69
g70
NtRp1587
(dp1588
g73
(dp1589
g81
I4
ssg82
g1583
sg75
(lp1590
S'8000'
p1591
asbasbasbag68
(g84
g70
NtRp1592
(dp1593
g73
(dp1594
sg82
g1018
sg75
(lp1595
g68
(g89
g70
NtRp1596
(dp1597
g73
(dp1598
g93
g94
ssg82
g1592
sg75
(lp1599
S'server_protocol'
p1600
asbag68
(g89
g70
NtRp1601
(dp1602
g73
(dp1603
g100
g101
ssg82
g1592
sg75
(lp1604
S':'
asbag68
(g89
g70
NtRp1605
(dp1606
g73
(dp1607
sg82
g1592
sg75
(lp1608
g68
(g69
g70
NtRp1609
(dp1610
g73
(dp1611
g81
I4
ssg82
g1605
sg75
(lp1612
S'HTTP/1.1'
p1613
asbasbasbag68
(g84
g70
NtRp1614
(dp1615
g73
(dp1616
sg82
g1018
sg75
(lp1617
g68
(g89
g70
NtRp1618
(dp1619
g73
(dp1620
g93
g94
ssg82
g1614
sg75
(lp1621
S'server_software'
p1622
asbag68
(g89
g70
NtRp1623
(dp1624
g73
(dp1625
g100
g101
ssg82
g1614
sg75
(lp1626
S':'
asbag68
(g89
g70
NtRp1627
(dp1628
g73
(dp1629
sg82
g1614
sg75
(lp1630
g68
(g69
g70
NtRp1631
(dp1632
g73
(dp1633
g81
I4
ssg82
g1627
sg75
(lp1634
S'Rocket 1.2.2'
p1635
asbasbasbag68
(g84
g70
NtRp1636
(dp1637
g73
(dp1638
sg82
g1018
sg75
(lp1639
g68
(g89
g70
NtRp1640
(dp1641
g73
(dp1642
g93
g94
ssg82
g1636
sg75
(lp1643
S'web2py_crontype'
p1644
asbag68
(g89
g70
NtRp1645
(dp1646
g73
(dp1647
g100
g101
ssg82
g1636
sg75
(lp1648
S':'
asbag68
(g89
g70
NtRp1649
(dp1650
g73
(dp1651
sg82
g1636
sg75
(lp1652
g68
(g69
g70
NtRp1653
(dp1654
g73
(dp1655
g81
I4
ssg82
g1649
sg75
(lp1656
S'hard'
p1657
asbasbasbag68
(g84
g70
NtRp1658
(dp1659
g73
(dp1660
sg82
g1018
sg75
(lp1661
g68
(g89
g70
NtRp1662
(dp1663
g73
(dp1664
g93
g94
ssg82
g1658
sg75
(lp1665
S'web2py_path'
p1666
asbag68
(g89
g70
NtRp1667
(dp1668
g73
(dp1669
g100
g101
ssg82
g1658
sg75
(lp1670
S':'
asbag68
(g89
g70
NtRp1671
(dp1672
g73
(dp1673
sg82
g1658
sg75
(lp1674
g68
(g69
g70
NtRp1675
(dp1676
g73
(dp1677
g81
I4
ssg82
g1671
sg75
(lp1678
g1065
asbasbasbag68
(g84
g70
NtRp1679
(dp1680
g73
(dp1681
sg82
g1018
sg75
(lp1682
g68
(g89
g70
NtRp1683
(dp1684
g73
(dp1685
g93
g94
ssg82
g1679
sg75
(lp1686
S'web2py_version'
p1687
asbag68
(g89
g70
NtRp1688
(dp1689
g73
(dp1690
g100
g101
ssg82
g1679
sg75
(lp1691
S':'
asbag68
(g89
g70
NtRp1692
(dp1693
g73
(dp1694
sg82
g1679
sg75
(lp1695
g68
(g69
g70
NtRp1696
(dp1697
g73
(dp1698
g81
I4
ssg82
g1692
sg75
(lp1699
S'Version 1.98.2 (2011-08-04 00:47:09)\n'
p1700
asbasbasbag68
(g84
g70
NtRp1701
(dp1702
g73
(dp1703
sg82
g1018
sg75
(lp1704
g68
(g89
g70
NtRp1705
(dp1706
g73
(dp1707
g93
g94
ssg82
g1701
sg75
(lp1708
S'wsgi_errors'
p1709
asbag68
(g89
g70
NtRp1710
(dp1711
g73
(dp1712
g100
g101
ssg82
g1701
sg75
(lp1713
S':'
asbag68
(g89
g70
NtRp1714
(dp1715
g73
(dp1716
sg82
g1701
sg75
(lp1717
g68
(g69
g70
NtRp1718
(dp1719
g73
(dp1720
g81
I4
ssg82
g1714
sg75
(lp1721
S"<open file '<stderr>', mode 'w' at 0x100287270>"
p1722
asbasbasbag68
(g84
g70
NtRp1723
(dp1724
g73
(dp1725
sg82
g1018
sg75
(lp1726
g68
(g89
g70
NtRp1727
(dp1728
g73
(dp1729
g93
g94
ssg82
g1723
sg75
(lp1730
S'wsgi_file_wrapper'
p1731
asbag68
(g89
g70
NtRp1732
(dp1733
g73
(dp1734
g100
g101
ssg82
g1723
sg75
(lp1735
S':'
asbag68
(g89
g70
NtRp1736
(dp1737
g73
(dp1738
sg82
g1723
sg75
(lp1739
g68
(g69
g70
NtRp1740
(dp1741
g73
(dp1742
g81
I4
ssg82
g1736
sg75
(lp1743
S'<class gluon.rocket.FileWrapper at 0x101668e20>'
p1744
asbasbasbag68
(g84
g70
NtRp1745
(dp1746
g73
(dp1747
sg82
g1018
sg75
(lp1748
g68
(g89
g70
NtRp1749
(dp1750
g73
(dp1751
g93
g94
ssg82
g1745
sg75
(lp1752
S'wsgi_input'
p1753
asbag68
(g89
g70
NtRp1754
(dp1755
g73
(dp1756
g100
g101
ssg82
g1745
sg75
(lp1757
S':'
asbag68
(g89
g70
NtRp1758
(dp1759
g73
(dp1760
sg82
g1745
sg75
(lp1761
g68
(g69
g70
NtRp1762
(dp1763
g73
(dp1764
g81
I4
ssg82
g1758
sg75
(lp1765
S'<socket._fileobject object at 0x1021e25d0>'
p1766
asbasbasbag68
(g84
g70
NtRp1767
(dp1768
g73
(dp1769
sg82
g1018
sg75
(lp1770
g68
(g89
g70
NtRp1771
(dp1772
g73
(dp1773
g93
g94
ssg82
g1767
sg75
(lp1774
S'wsgi_multiprocess'
p1775
asbag68
(g89
g70
NtRp1776
(dp1777
g73
(dp1778
g100
g101
ssg82
g1767
sg75
(lp1779
S':'
asbag68
(g89
g70
NtRp1780
(dp1781
g73
(dp1782
sg82
g1767
sg75
(lp1783
g68
(g69
g70
NtRp1784
(dp1785
g73
(dp1786
g81
I4
ssg82
g1780
sg75
(lp1787
g111
asbasbasbag68
(g84
g70
NtRp1788
(dp1789
g73
(dp1790
sg82
g1018
sg75
(lp1791
g68
(g89
g70
NtRp1792
(dp1793
g73
(dp1794
g93
g94
ssg82
g1788
sg75
(lp1795
S'wsgi_multithread'
p1796
asbag68
(g89
g70
NtRp1797
(dp1798
g73
(dp1799
g100
g101
ssg82
g1788
sg75
(lp1800
S':'
asbag68
(g89
g70
NtRp1801
(dp1802
g73
(dp1803
sg82
g1788
sg75
(lp1804
g68
(g69
g70
NtRp1805
(dp1806
g73
(dp1807
g81
I4
ssg82
g1801
sg75
(lp1808
S'True'
p1809
asbasbasbag68
(g84
g70
NtRp1810
(dp1811
g73
(dp1812
sg82
g1018
sg75
(lp1813
g68
(g89
g70
NtRp1814
(dp1815
g73
(dp1816
g93
g94
ssg82
g1810
sg75
(lp1817
S'wsgi_run_once'
p1818
asbag68
(g89
g70
NtRp1819
(dp1820
g73
(dp1821
g100
g101
ssg82
g1810
sg75
(lp1822
S':'
asbag68
(g89
g70
NtRp1823
(dp1824
g73
(dp1825
sg82
g1810
sg75
(lp1826
g68
(g69
g70
NtRp1827
(dp1828
g73
(dp1829
g81
I4
ssg82
g1823
sg75
(lp1830
g111
asbasbasbag68
(g84
g70
NtRp1831
(dp1832
g73
(dp1833
sg82
g1018
sg75
(lp1834
g68
(g89
g70
NtRp1835
(dp1836
g73
(dp1837
g93
g94
ssg82
g1831
sg75
(lp1838
S'wsgi_url_scheme'
p1839
asbag68
(g89
g70
NtRp1840
(dp1841
g73
(dp1842
g100
g101
ssg82
g1831
sg75
(lp1843
S':'
asbag68
(g89
g70
NtRp1844
(dp1845
g73
(dp1846
sg82
g1831
sg75
(lp1847
g68
(g69
g70
NtRp1848
(dp1849
g73
(dp1850
g81
I4
ssg82
g1844
sg75
(lp1851
S'http'
p1852
asbasbasbag68
(g84
g70
NtRp1853
(dp1854
g73
(dp1855
sg82
g1018
sg75
(lp1856
g68
(g89
g70
NtRp1857
(dp1858
g73
(dp1859
g93
g94
ssg82
g1853
sg75
(lp1860
S'wsgi_version'
p1861
asbag68
(g89
g70
NtRp1862
(dp1863
g73
(dp1864
g100
g101
ssg82
g1853
sg75
(lp1865
S':'
asbag68
(g89
g70
NtRp1866
(dp1867
g73
(dp1868
sg82
g1853
sg75
(lp1869
g68
(g69
g70
NtRp1870
(dp1871
g73
(dp1872
g81
I4
ssg82
g1866
sg75
(lp1873
g68
(g77
g70
NtRp1874
(dp1875
g73
(dp1876
g81
I3
ssg82
Nsg75
(lp1877
g68
(g84
g70
NtRp1878
(dp1879
g73
(dp1880
sg82
g1874
sg75
(lp1881
g68
(g89
g70
NtRp1882
(dp1883
g73
(dp1884
sg82
g1878
sg75
(lp1885
g68
(g69
g70
NtRp1886
(dp1887
g73
(dp1888
g81
I3
ssg82
g1882
sg75
(lp1889
S'1'
asbasbasbag68
(g84
g70
NtRp1890
(dp1891
g73
(dp1892
sg82
g1874
sg75
(lp1893
g68
(g89
g70
NtRp1894
(dp1895
g73
(dp1896
sg82
g1890
sg75
(lp1897
g68
(g69
g70
NtRp1898
(dp1899
g73
(dp1900
g81
I3
ssg82
g1894
sg75
(lp1901
S'0'
asbasbasbasbasbasbasbasbasbasbasbag68
(g84
g70
NtRp1902
(dp1903
g73
(dp1904
sg82
g78
sg75
(lp1905
g68
(g89
g70
NtRp1906
(dp1907
g73
(dp1908
g93
g94
ssg82
g1902
sg75
(lp1909
S'extension'
p1910
asbag68
(g89
g70
NtRp1911
(dp1912
g73
(dp1913
g100
g101
ssg82
g1902
sg75
(lp1914
S':'
asbag68
(g89
g70
NtRp1915
(dp1916
g73
(dp1917
sg82
g1902
sg75
(lp1918
g68
(g69
g70
NtRp1919
(dp1920
g73
(dp1921
g81
I5
ssg82
g1915
sg75
(lp1922
S'html'
p1923
asbasbasbag68
(g84
g70
NtRp1924
(dp1925
g73
(dp1926
sg82
g78
sg75
(lp1927
g68
(g89
g70
NtRp1928
(dp1929
g73
(dp1930
g93
g94
ssg82
g1924
sg75
(lp1931
S'folder'
p1932
asbag68
(g89
g70
NtRp1933
(dp1934
g73
(dp1935
g100
g101
ssg82
g1924
sg75
(lp1936
S':'
asbag68
(g89
g70
NtRp1937
(dp1938
g73
(dp1939
sg82
g1924
sg75
(lp1940
g68
(g69
g70
NtRp1941
(dp1942
g73
(dp1943
g81
I5
ssg82
g1937
sg75
(lp1944
S'/Users/hellais/Documents/code/mygit/globaleaks/webapp/applications/init/'
p1945
asbasbasbag68
(g84
g70
NtRp1946
(dp1947
g73
(dp1948
sg82
g78
sg75
(lp1949
g68
(g89
g70
NtRp1950
(dp1951
g73
(dp1952
g93
g94
ssg82
g1946
sg75
(lp1953
S'function'
p1954
asbag68
(g89
g70
NtRp1955
(dp1956
g73
(dp1957
g100
g101
ssg82
g1946
sg75
(lp1958
S':'
asbag68
(g89
g70
NtRp1959
(dp1960
g73
(dp1961
sg82
g1946
sg75
(lp1962
g68
(g69
g70
NtRp1963
(dp1964
g73
(dp1965
g81
I5
ssg82
g1959
sg75
(lp1966
S'submission'
p1967
asbasbasbag68
(g84
g70
NtRp1968
(dp1969
g73
(dp1970
sg82
g78
sg75
(lp1971
g68
(g89
g70
NtRp1972
(dp1973
g73
(dp1974
g93
g94
ssg82
g1968
sg75
(lp1975
S'get_vars'
p1976
asbag68
(g89
g70
NtRp1977
(dp1978
g73
(dp1979
g100
g101
ssg82
g1968
sg75
(lp1980
S':'
asbag68
(g89
g70
NtRp1981
(dp1982
g73
(dp1983
sg82
g1968
sg75
(lp1984
g68
(g69
g70
NtRp1985
(dp1986
g73
(dp1987
g81
I5
ssg82
g1981
sg75
(lp1988
g68
(g77
g70
NtRp1989
(dp1990
g73
(dp1991
g81
I4
ssg82
Nsg75
(lp1992
sbasbasbasbag68
(g84
g70
NtRp1993
(dp1994
g73
(dp1995
sg82
g78
sg75
(lp1996
g68
(g89
g70
NtRp1997
(dp1998
g73
(dp1999
g93
g94
ssg82
g1993
sg75
(lp2000
S'is_https'
p2001
asbag68
(g89
g70
NtRp2002
(dp2003
g73
(dp2004
g100
g101
ssg82
g1993
sg75
(lp2005
S':'
asbag68
(g89
g70
NtRp2006
(dp2007
g73
(dp2008
sg82
g1993
sg75
(lp2009
g68
(g69
g70
NtRp2010
(dp2011
g73
(dp2012
g81
I5
ssg82
g2006
sg75
(lp2013
g111
asbasbasbag68
(g84
g70
NtRp2014
(dp2015
g73
(dp2016
sg82
g78
sg75
(lp2017
g68
(g89
g70
NtRp2018
(dp2019
g73
(dp2020
g93
g94
ssg82
g2014
sg75
(lp2021
S'is_local'
p2022
asbag68
(g89
g70
NtRp2023
(dp2024
g73
(dp2025
g100
g101
ssg82
g2014
sg75
(lp2026
S':'
asbag68
(g89
g70
NtRp2027
(dp2028
g73
(dp2029
sg82
g2014
sg75
(lp2030
g68
(g69
g70
NtRp2031
(dp2032
g73
(dp2033
g81
I5
ssg82
g2027
sg75
(lp2034
g1809
asbasbasbag68
(g84
g70
NtRp2035
(dp2036
g73
(dp2037
sg82
g78
sg75
(lp2038
g68
(g89
g70
NtRp2039
(dp2040
g73
(dp2041
g93
g94
ssg82
g2035
sg75
(lp2042
S'is_restful'
p2043
asbag68
(g89
g70
NtRp2044
(dp2045
g73
(dp2046
g100
g101
ssg82
g2035
sg75
(lp2047
S':'
asbag68
(g89
g70
NtRp2048
(dp2049
g73
(dp2050
sg82
g2035
sg75
(lp2051
g68
(g69
g70
NtRp2052
(dp2053
g73
(dp2054
g81
I5
ssg82
g2048
sg75
(lp2055
g111
asbasbasbag68
(g84
g70
NtRp2056
(dp2057
g73
(dp2058
sg82
g78
sg75
(lp2059
g68
(g89
g70
NtRp2060
(dp2061
g73
(dp2062
g93
g94
ssg82
g2056
sg75
(lp2063
S'now'
p2064
asbag68
(g89
g70
NtRp2065
(dp2066
g73
(dp2067
g100
g101
ssg82
g2056
sg75
(lp2068
S':'
asbag68
(g89
g70
NtRp2069
(dp2070
g73
(dp2071
sg82
g2056
sg75
(lp2072
g68
(g69
g70
NtRp2073
(dp2074
g73
(dp2075
g81
I5
ssg82
g2069
sg75
(lp2076
S'datetime.datetime(2011, 8, 27, 23, 55, 3, 15473)'
p2077
asbasbasbag68
(g84
g70
NtRp2078
(dp2079
g73
(dp2080
sg82
g78
sg75
(lp2081
g68
(g89
g70
NtRp2082
(dp2083
g73
(dp2084
g93
g94
ssg82
g2078
sg75
(lp2085
S'post_vars'
p2086
asbag68
(g89
g70
NtRp2087
(dp2088
g73
(dp2089
g100
g101
ssg82
g2078
sg75
(lp2090
S':'
asbag68
(g89
g70
NtRp2091
(dp2092
g73
(dp2093
sg82
g2078
sg75
(lp2094
g68
(g69
g70
NtRp2095
(dp2096
g73
(dp2097
g81
I5
ssg82
g2091
sg75
(lp2098
g68
(g77
g70
NtRp2099
(dp2100
g73
(dp2101
g81
I4
ssg82
Nsg75
(lp2102
sbasbasbasbag68
(g84
g70
NtRp2103
(dp2104
g73
(dp2105
sg82
g78
sg75
(lp2106
g68
(g89
g70
NtRp2107
(dp2108
g73
(dp2109
g93
g94
ssg82
g2103
sg75
(lp2110
S'url'
p2111
asbag68
(g89
g70
NtRp2112
(dp2113
g73
(dp2114
g100
g101
ssg82
g2103
sg75
(lp2115
S':'
asbag68
(g89
g70
NtRp2116
(dp2117
g73
(dp2118
sg82
g2103
sg75
(lp2119
g68
(g69
g70
NtRp2120
(dp2121
g73
(dp2122
g81
I5
ssg82
g2116
sg75
(lp2123
S'/init/default/submission'
p2124
asbasbasbag68
(g84
g70
NtRp2125
(dp2126
g73
(dp2127
sg82
g78
sg75
(lp2128
g68
(g89
g70
NtRp2129
(dp2130
g73
(dp2131
g93
g94
ssg82
g2125
sg75
(lp2132
S'uuid'
p2133
asbag68
(g89
g70
NtRp2134
(dp2135
g73
(dp2136
g100
g101
ssg82
g2125
sg75
(lp2137
S':'
asbag68
(g89
g70
NtRp2138
(dp2139
g73
(dp2140
sg82
g2125
sg75
(lp2141
g68
(g69
g70
NtRp2142
(dp2143
g73
(dp2144
g81
I5
ssg82
g2138
sg75
(lp2145
S'init/127.0.0.1.2011-08-27.23-55-03.d91769de-b3c9-4daa-8046-f50488f7db81'
p2146
asbasbasbag68
(g84
g70
NtRp2147
(dp2148
g73
(dp2149
sg82
g78
sg75
(lp2150
g68
(g89
g70
NtRp2151
(dp2152
g73
(dp2153
g93
g94
ssg82
g2147
sg75
(lp2154
S'vars'
p2155
asbag68
(g89
g70
NtRp2156
(dp2157
g73
(dp2158
g100
g101
ssg82
g2147
sg75
(lp2159
S':'
asbag68
(g89
g70
NtRp2160
(dp2161
g73
(dp2162
sg82
g2147
sg75
(lp2163
g68
(g69
g70
NtRp2164
(dp2165
g73
(dp2166
g81
I5
ssg82
g2160
sg75
(lp2167
g68
(g77
g70
NtRp2168
(dp2169
g73
(dp2170
g81
I4
ssg82
Nsg75
(lp2171
sbasbasbasbag68
(g84
g70
NtRp2172
(dp2173
g73
(dp2174
sg82
g78
sg75
(lp2175
g68
(g89
g70
NtRp2176
(dp2177
g73
(dp2178
g93
g94
ssg82
g2172
sg75
(lp2179
S'wsgi'
p2180
asbag68
(g89
g70
NtRp2181
(dp2182
g73
(dp2183
g100
g101
ssg82
g2172
sg75
(lp2184
S':'
asbag68
(g89
g70
NtRp2185
(dp2186
g73
(dp2187
sg82
g2172
sg75
(lp2188
g68
(g69
g70
NtRp2189
(dp2190
g73
(dp2191
g81
I5
ssg82
g2185
sg75
(lp2192
g68
(g77
g70
NtRp2193
(dp2194
g73
(dp2195
g81
I4
ssg82
Nsg75
(lp2196
g68
(g84
g70
NtRp2197
(dp2198
g73
(dp2199
sg82
g2193
sg75
(lp2200
g68
(g89
g70
NtRp2201
(dp2202
g73
(dp2203
g93
g94
ssg82
g2197
sg75
(lp2204
S'environ'
p2205
asbag68
(g89
g70
NtRp2206
(dp2207
g73
(dp2208
g100
g101
ssg82
g2197
sg75
(lp2209
S':'
asbag68
(g89
g70
NtRp2210
(dp2211
g73
(dp2212
sg82
g2197
sg75
(lp2213
g68
(g69
g70
NtRp2214
(dp2215
g73
(dp2216
g81
I4
ssg82
g2210
sg75
(lp2217
g68
(g77
g70
NtRp2218
(dp2219
g73
(dp2220
g81
I3
ssg82
Nsg75
(lp2221
g68
(g84
g70
NtRp2222
(dp2223
g73
(dp2224
sg82
g2218
sg75
(lp2225
g68
(g89
g70
NtRp2226
(dp2227
g73
(dp2228
g93
g94
ssg82
g2222
sg75
(lp2229
S'HTTP_ACCEPT'
p2230
asbag68
(g89
g70
NtRp2231
(dp2232
g73
(dp2233
g100
g101
ssg82
g2222
sg75
(lp2234
S':'
asbag68
(g89
g70
NtRp2235
(dp2236
g73
(dp2237
sg82
g2222
sg75
(lp2238
g68
(g69
g70
NtRp2239
(dp2240
g73
(dp2241
g81
I3
ssg82
g2235
sg75
(lp2242
g1199
asbasbasbag68
(g84
g70
NtRp2243
(dp2244
g73
(dp2245
sg82
g2218
sg75
(lp2246
g68
(g89
g70
NtRp2247
(dp2248
g73
(dp2249
g93
g94
ssg82
g2243
sg75
(lp2250
S'HTTP_ACCEPT_CHARSET'
p2251
asbag68
(g89
g70
NtRp2252
(dp2253
g73
(dp2254
g100
g101
ssg82
g2243
sg75
(lp2255
S':'
asbag68
(g89
g70
NtRp2256
(dp2257
g73
(dp2258
sg82
g2243
sg75
(lp2259
g68
(g69
g70
NtRp2260
(dp2261
g73
(dp2262
g81
I3
ssg82
g2256
sg75
(lp2263
g1221
asbasbasbag68
(g84
g70
NtRp2264
(dp2265
g73
(dp2266
sg82
g2218
sg75
(lp2267
g68
(g89
g70
NtRp2268
(dp2269
g73
(dp2270
g93
g94
ssg82
g2264
sg75
(lp2271
S'HTTP_ACCEPT_ENCODING'
p2272
asbag68
(g89
g70
NtRp2273
(dp2274
g73
(dp2275
g100
g101
ssg82
g2264
sg75
(lp2276
S':'
asbag68
(g89
g70
NtRp2277
(dp2278
g73
(dp2279
sg82
g2264
sg75
(lp2280
g68
(g69
g70
NtRp2281
(dp2282
g73
(dp2283
g81
I3
ssg82
g2277
sg75
(lp2284
g1243
asbasbasbag68
(g84
g70
NtRp2285
(dp2286
g73
(dp2287
sg82
g2218
sg75
(lp2288
g68
(g89
g70
NtRp2289
(dp2290
g73
(dp2291
g93
g94
ssg82
g2285
sg75
(lp2292
S'HTTP_ACCEPT_LANGUAGE'
p2293
asbag68
(g89
g70
NtRp2294
(dp2295
g73
(dp2296
g100
g101
ssg82
g2285
sg75
(lp2297
S':'
asbag68
(g89
g70
NtRp2298
(dp2299
g73
(dp2300
sg82
g2285
sg75
(lp2301
g68
(g69
g70
NtRp2302
(dp2303
g73
(dp2304
g81
I3
ssg82
g2298
sg75
(lp2305
g1265
asbasbasbag68
(g84
g70
NtRp2306
(dp2307
g73
(dp2308
sg82
g2218
sg75
(lp2309
g68
(g89
g70
NtRp2310
(dp2311
g73
(dp2312
g93
g94
ssg82
g2306
sg75
(lp2313
S'HTTP_CACHE_CONTROL'
p2314
asbag68
(g89
g70
NtRp2315
(dp2316
g73
(dp2317
g100
g101
ssg82
g2306
sg75
(lp2318
S':'
asbag68
(g89
g70
NtRp2319
(dp2320
g73
(dp2321
sg82
g2306
sg75
(lp2322
g68
(g69
g70
NtRp2323
(dp2324
g73
(dp2325
g81
I3
ssg82
g2319
sg75
(lp2326
g1287
asbasbasbag68
(g84
g70
NtRp2327
(dp2328
g73
(dp2329
sg82
g2218
sg75
(lp2330
g68
(g89
g70
NtRp2331
(dp2332
g73
(dp2333
g93
g94
ssg82
g2327
sg75
(lp2334
S'HTTP_CONNECTION'
p2335
asbag68
(g89
g70
NtRp2336
(dp2337
g73
(dp2338
g100
g101
ssg82
g2327
sg75
(lp2339
S':'
asbag68
(g89
g70
NtRp2340
(dp2341
g73
(dp2342
sg82
g2327
sg75
(lp2343
g68
(g69
g70
NtRp2344
(dp2345
g73
(dp2346
g81
I3
ssg82
g2340
sg75
(lp2347
g1309
asbasbasbag68
(g84
g70
NtRp2348
(dp2349
g73
(dp2350
sg82
g2218
sg75
(lp2351
g68
(g89
g70
NtRp2352
(dp2353
g73
(dp2354
g93
g94
ssg82
g2348
sg75
(lp2355
S'HTTP_COOKIE'
p2356
asbag68
(g89
g70
NtRp2357
(dp2358
g73
(dp2359
g100
g101
ssg82
g2348
sg75
(lp2360
S':'
asbag68
(g89
g70
NtRp2361
(dp2362
g73
(dp2363
sg82
g2348
sg75
(lp2364
g68
(g69
g70
NtRp2365
(dp2366
g73
(dp2367
g81
I3
ssg82
g2361
sg75
(lp2368
g1331
asbasbasbag68
(g84
g70
NtRp2369
(dp2370
g73
(dp2371
sg82
g2218
sg75
(lp2372
g68
(g89
g70
NtRp2373
(dp2374
g73
(dp2375
g93
g94
ssg82
g2369
sg75
(lp2376
S'HTTP_HOST'
p2377
asbag68
(g89
g70
NtRp2378
(dp2379
g73
(dp2380
g100
g101
ssg82
g2369
sg75
(lp2381
S':'
asbag68
(g89
g70
NtRp2382
(dp2383
g73
(dp2384
sg82
g2369
sg75
(lp2385
g68
(g69
g70
NtRp2386
(dp2387
g73
(dp2388
g81
I3
ssg82
g2382
sg75
(lp2389
g1353
asbasbasbag68
(g84
g70
NtRp2390
(dp2391
g73
(dp2392
sg82
g2218
sg75
(lp2393
g68
(g89
g70
NtRp2394
(dp2395
g73
(dp2396
g93
g94
ssg82
g2390
sg75
(lp2397
S'HTTP_REFERER'
p2398
asbag68
(g89
g70
NtRp2399
(dp2400
g73
(dp2401
g100
g101
ssg82
g2390
sg75
(lp2402
S':'
asbag68
(g89
g70
NtRp2403
(dp2404
g73
(dp2405
sg82
g2390
sg75
(lp2406
g68
(g69
g70
NtRp2407
(dp2408
g73
(dp2409
g81
I3
ssg82
g2403
sg75
(lp2410
g1375
asbasbasbag68
(g84
g70
NtRp2411
(dp2412
g73
(dp2413
sg82
g2218
sg75
(lp2414
g68
(g89
g70
NtRp2415
(dp2416
g73
(dp2417
g93
g94
ssg82
g2411
sg75
(lp2418
S'HTTP_USER_AGENT'
p2419
asbag68
(g89
g70
NtRp2420
(dp2421
g73
(dp2422
g100
g101
ssg82
g2411
sg75
(lp2423
S':'
asbag68
(g89
g70
NtRp2424
(dp2425
g73
(dp2426
sg82
g2411
sg75
(lp2427
g68
(g69
g70
NtRp2428
(dp2429
g73
(dp2430
g81
I3
ssg82
g2424
sg75
(lp2431
g1397
asbasbasbag68
(g84
g70
NtRp2432
(dp2433
g73
(dp2434
sg82
g2218
sg75
(lp2435
g68
(g89
g70
NtRp2436
(dp2437
g73
(dp2438
g93
g94
ssg82
g2432
sg75
(lp2439
S'PATH_INFO'
p2440
asbag68
(g89
g70
NtRp2441
(dp2442
g73
(dp2443
g100
g101
ssg82
g2432
sg75
(lp2444
S':'
asbag68
(g89
g70
NtRp2445
(dp2446
g73
(dp2447
sg82
g2432
sg75
(lp2448
g68
(g69
g70
NtRp2449
(dp2450
g73
(dp2451
g81
I3
ssg82
g2445
sg75
(lp2452
g1440
asbasbasbag68
(g84
g70
NtRp2453
(dp2454
g73
(dp2455
sg82
g2218
sg75
(lp2456
g68
(g89
g70
NtRp2457
(dp2458
g73
(dp2459
g93
g94
ssg82
g2453
sg75
(lp2460
S'QUERY_STRING'
p2461
asbag68
(g89
g70
NtRp2462
(dp2463
g73
(dp2464
g100
g101
ssg82
g2453
sg75
(lp2465
S':'
asbag68
(g89
g70
NtRp2466
(dp2467
g73
(dp2468
sg82
g2453
sg75
(lp2469
g68
(g69
g70
NtRp2470
(dp2471
g73
(dp2472
g81
I3
ssg82
g2466
sg75
(lp2473
S''
asbasbasbag68
(g84
g70
NtRp2474
(dp2475
g73
(dp2476
sg82
g2218
sg75
(lp2477
g68
(g89
g70
NtRp2478
(dp2479
g73
(dp2480
g93
g94
ssg82
g2474
sg75
(lp2481
S'REMOTE_ADDR'
p2482
asbag68
(g89
g70
NtRp2483
(dp2484
g73
(dp2485
g100
g101
ssg82
g2474
sg75
(lp2486
S':'
asbag68
(g89
g70
NtRp2487
(dp2488
g73
(dp2489
sg82
g2474
sg75
(lp2490
g68
(g69
g70
NtRp2491
(dp2492
g73
(dp2493
g81
I3
ssg82
g2487
sg75
(lp2494
g201
asbasbasbag68
(g84
g70
NtRp2495
(dp2496
g73
(dp2497
sg82
g2218
sg75
(lp2498
g68
(g89
g70
NtRp2499
(dp2500
g73
(dp2501
g93
g94
ssg82
g2495
sg75
(lp2502
S'REMOTE_PORT'
p2503
asbag68
(g89
g70
NtRp2504
(dp2505
g73
(dp2506
g100
g101
ssg82
g2495
sg75
(lp2507
S':'
asbag68
(g89
g70
NtRp2508
(dp2509
g73
(dp2510
sg82
g2495
sg75
(lp2511
g68
(g69
g70
NtRp2512
(dp2513
g73
(dp2514
g81
I3
ssg82
g2508
sg75
(lp2515
g1504
asbasbasbag68
(g84
g70
NtRp2516
(dp2517
g73
(dp2518
sg82
g2218
sg75
(lp2519
g68
(g89
g70
NtRp2520
(dp2521
g73
(dp2522
g93
g94
ssg82
g2516
sg75
(lp2523
S'REQUEST_METHOD'
p2524
asbag68
(g89
g70
NtRp2525
(dp2526
g73
(dp2527
g100
g101
ssg82
g2516
sg75
(lp2528
S':'
asbag68
(g89
g70
NtRp2529
(dp2530
g73
(dp2531
sg82
g2516
sg75
(lp2532
g68
(g69
g70
NtRp2533
(dp2534
g73
(dp2535
g81
I3
ssg82
g2529
sg75
(lp2536
g1526
asbasbasbag68
(g84
g70
NtRp2537
(dp2538
g73
(dp2539
sg82
g2218
sg75
(lp2540
g68
(g89
g70
NtRp2541
(dp2542
g73
(dp2543
g93
g94
ssg82
g2537
sg75
(lp2544
S'SCRIPT_NAME'
p2545
asbag68
(g89
g70
NtRp2546
(dp2547
g73
(dp2548
g100
g101
ssg82
g2537
sg75
(lp2549
S':'
asbag68
(g89
g70
NtRp2550
(dp2551
g73
(dp2552
sg82
g2537
sg75
(lp2553
g68
(g69
g70
NtRp2554
(dp2555
g73
(dp2556
g81
I3
ssg82
g2550
sg75
(lp2557
S''
asbasbasbag68
(g84
g70
NtRp2558
(dp2559
g73
(dp2560
sg82
g2218
sg75
(lp2561
g68
(g89
g70
NtRp2562
(dp2563
g73
(dp2564
g93
g94
ssg82
g2558
sg75
(lp2565
S'SERVER_NAME'
p2566
asbag68
(g89
g70
NtRp2567
(dp2568
g73
(dp2569
g100
g101
ssg82
g2558
sg75
(lp2570
S':'
asbag68
(g89
g70
NtRp2571
(dp2572
g73
(dp2573
sg82
g2558
sg75
(lp2574
g68
(g69
g70
NtRp2575
(dp2576
g73
(dp2577
g81
I3
ssg82
g2571
sg75
(lp2578
g1569
asbasbasbag68
(g84
g70
NtRp2579
(dp2580
g73
(dp2581
sg82
g2218
sg75
(lp2582
g68
(g89
g70
NtRp2583
(dp2584
g73
(dp2585
g93
g94
ssg82
g2579
sg75
(lp2586
S'SERVER_PORT'
p2587
asbag68
(g89
g70
NtRp2588
(dp2589
g73
(dp2590
g100
g101
ssg82
g2579
sg75
(lp2591
S':'
asbag68
(g89
g70
NtRp2592
(dp2593
g73
(dp2594
sg82
g2579
sg75
(lp2595
g68
(g69
g70
NtRp2596
(dp2597
g73
(dp2598
g81
I3
ssg82
g2592
sg75
(lp2599
g1591
asbasbasbag68
(g84
g70
NtRp2600
(dp2601
g73
(dp2602
sg82
g2218
sg75
(lp2603
g68
(g89
g70
NtRp2604
(dp2605
g73
(dp2606
g93
g94
ssg82
g2600
sg75
(lp2607
S'SERVER_PROTOCOL'
p2608
asbag68
(g89
g70
NtRp2609
(dp2610
g73
(dp2611
g100
g101
ssg82
g2600
sg75
(lp2612
S':'
asbag68
(g89
g70
NtRp2613
(dp2614
g73
(dp2615
sg82
g2600
sg75
(lp2616
g68
(g69
g70
NtRp2617
(dp2618
g73
(dp2619
g81
I3
ssg82
g2613
sg75
(lp2620
g1613
asbasbasbag68
(g84
g70
NtRp2621
(dp2622
g73
(dp2623
sg82
g2218
sg75
(lp2624
g68
(g89
g70
NtRp2625
(dp2626
g73
(dp2627
g93
g94
ssg82
g2621
sg75
(lp2628
S'SERVER_SOFTWARE'
p2629
asbag68
(g89
g70
NtRp2630
(dp2631
g73
(dp2632
g100
g101
ssg82
g2621
sg75
(lp2633
S':'
asbag68
(g89
g70
NtRp2634
(dp2635
g73
(dp2636
sg82
g2621
sg75
(lp2637
g68
(g69
g70
NtRp2638
(dp2639
g73
(dp2640
g81
I3
ssg82
g2634
sg75
(lp2641
g1635
asbasbasbag68
(g84
g70
NtRp2642
(dp2643
g73
(dp2644
sg82
g2218
sg75
(lp2645
g68
(g89
g70
NtRp2646
(dp2647
g73
(dp2648
g93
g94
ssg82
g2642
sg75
(lp2649
S'wsgi.errors'
p2650
asbag68
(g89
g70
NtRp2651
(dp2652
g73
(dp2653
g100
g101
ssg82
g2642
sg75
(lp2654
S':'
asbag68
(g89
g70
NtRp2655
(dp2656
g73
(dp2657
sg82
g2642
sg75
(lp2658
g68
(g69
g70
NtRp2659
(dp2660
g73
(dp2661
g81
I3
ssg82
g2655
sg75
(lp2662
S"<open file '<stderr>', mode 'w' at 0x100287270>"
p2663
asbasbasbag68
(g84
g70
NtRp2664
(dp2665
g73
(dp2666
sg82
g2218
sg75
(lp2667
g68
(g89
g70
NtRp2668
(dp2669
g73
(dp2670
g93
g94
ssg82
g2664
sg75
(lp2671
S'wsgi.file_wrapper'
p2672
asbag68
(g89
g70
NtRp2673
(dp2674
g73
(dp2675
g100
g101
ssg82
g2664
sg75
(lp2676
S':'
asbag68
(g89
g70
NtRp2677
(dp2678
g73
(dp2679
sg82
g2664
sg75
(lp2680
g68
(g69
g70
NtRp2681
(dp2682
g73
(dp2683
g81
I3
ssg82
g2677
sg75
(lp2684
S'<class gluon.rocket.FileWrapper at 0x101668e20>'
p2685
asbasbasbag68
(g84
g70
NtRp2686
(dp2687
g73
(dp2688
sg82
g2218
sg75
(lp2689
g68
(g89
g70
NtRp2690
(dp2691
g73
(dp2692
g93
g94
ssg82
g2686
sg75
(lp2693
S'wsgi.input'
p2694
asbag68
(g89
g70
NtRp2695
(dp2696
g73
(dp2697
g100
g101
ssg82
g2686
sg75
(lp2698
S':'
asbag68
(g89
g70
NtRp2699
(dp2700
g73
(dp2701
sg82
g2686
sg75
(lp2702
g68
(g69
g70
NtRp2703
(dp2704
g73
(dp2705
g81
I3
ssg82
g2699
sg75
(lp2706
S'<cStringIO.StringO object at 0x1021d56f8>'
p2707
asbasbasbag68
(g84
g70
NtRp2708
(dp2709
g73
(dp2710
sg82
g2218
sg75
(lp2711
g68
(g89
g70
NtRp2712
(dp2713
g73
(dp2714
g93
g94
ssg82
g2708
sg75
(lp2715
S'wsgi.multiprocess'
p2716
asbag68
(g89
g70
NtRp2717
(dp2718
g73
(dp2719
g100
g101
ssg82
g2708
sg75
(lp2720
S':'
asbag68
(g89
g70
NtRp2721
(dp2722
g73
(dp2723
sg82
g2708
sg75
(lp2724
g68
(g69
g70
NtRp2725
(dp2726
g73
(dp2727
g81
I3
ssg82
g2721
sg75
(lp2728
g111
asbasbasbag68
(g84
g70
NtRp2729
(dp2730
g73
(dp2731
sg82
g2218
sg75
(lp2732
g68
(g89
g70
NtRp2733
(dp2734
g73
(dp2735
g93
g94
ssg82
g2729
sg75
(lp2736
S'wsgi.multithread'
p2737
asbag68
(g89
g70
NtRp2738
(dp2739
g73
(dp2740
g100
g101
ssg82
g2729
sg75
(lp2741
S':'
asbag68
(g89
g70
NtRp2742
(dp2743
g73
(dp2744
sg82
g2729
sg75
(lp2745
g68
(g69
g70
NtRp2746
(dp2747
g73
(dp2748
g81
I3
ssg82
g2742
sg75
(lp2749
g1809
asbasbasbag68
(g84
g70
NtRp2750
(dp2751
g73
(dp2752
sg82
g2218
sg75
(lp2753
g68
(g89
g70
NtRp2754
(dp2755
g73
(dp2756
g93
g94
ssg82
g2750
sg75
(lp2757
S'wsgi.run_once'
p2758
asbag68
(g89
g70
NtRp2759
(dp2760
g73
(dp2761
g100
g101
ssg82
g2750
sg75
(lp2762
S':'
asbag68
(g89
g70
NtRp2763
(dp2764
g73
(dp2765
sg82
g2750
sg75
(lp2766
g68
(g69
g70
NtRp2767
(dp2768
g73
(dp2769
g81
I3
ssg82
g2763
sg75
(lp2770
g111
asbasbasbag68
(g84
g70
NtRp2771
(dp2772
g73
(dp2773
sg82
g2218
sg75
(lp2774
g68
(g89
g70
NtRp2775
(dp2776
g73
(dp2777
g93
g94
ssg82
g2771
sg75
(lp2778
S'wsgi.url_scheme'
p2779
asbag68
(g89
g70
NtRp2780
(dp2781
g73
(dp2782
g100
g101
ssg82
g2771
sg75
(lp2783
S':'
asbag68
(g89
g70
NtRp2784
(dp2785
g73
(dp2786
sg82
g2771
sg75
(lp2787
g68
(g69
g70
NtRp2788
(dp2789
g73
(dp2790
g81
I3
ssg82
g2784
sg75
(lp2791
g1852
asbasbasbag68
(g84
g70
NtRp2792
(dp2793
g73
(dp2794
sg82
g2218
sg75
(lp2795
g68
(g89
g70
NtRp2796
(dp2797
g73
(dp2798
g93
g94
ssg82
g2792
sg75
(lp2799
S'wsgi.version'
p2800
asbag68
(g89
g70
NtRp2801
(dp2802
g73
(dp2803
g100
g101
ssg82
g2792
sg75
(lp2804
S':'
asbag68
(g89
g70
NtRp2805
(dp2806
g73
(dp2807
sg82
g2792
sg75
(lp2808
g68
(g69
g70
NtRp2809
(dp2810
g73
(dp2811
g81
I3
ssg82
g2805
sg75
(lp2812
S'1'
asbasbasbasbasbasbasbasbasbasbasbasbasbsS'frames'
p2813
(lp2814
(dp2815
S'file'
p2816
S'/opt/local/Library/Frameworks/Python.framework/Versions/2.7/lib/python2.7/gluon/restricted.py'
p2817
sS'dump'
p2818
(dp2819
S'environment'
p2820
S"{'A': <class 'gluon.html.A'>, 'Auth': <class 'gluon.tools.Auth'>, 'B': <class 'gluon.html.B'>, 'BEAUTIFY': <class 'gluon.html.BEAUTIFY'>, 'BODY': <class 'gluon.html.BODY'>, 'BR': <class 'gluon.html.BR'>, 'BUTTON': <class 'gluon.html.BUTTON'>, 'CAT': <class 'gluon.html.CAT'>, 'CENTER': <class 'gluon.html.CENTER'>, 'CLEANUP': <class 'gluon.validators.CLEANUP'>, ...}"
p2821
sS'ccode'
p2822
S'<code object <module> at 0x101e0d4b0, file "/Use...pplications/init/controllers/default.py", line 3>'
p2823
ssS'lnum'
p2824
I192
sS'lines'
p2825
(dp2826
I192
S'        exec ccode in environment'
p2827
sI193
S'    except HTTP:'
p2828
sI194
S'        raise'
p2829
sI195
S'    except Exception, error:'
p2830
sI196
S'        # XXX Show exception in Wing IDE if running in debugger'
p2831
sI187
S'    try:'
p2832
sI188
S'        if type(code) == types.CodeType:'
p2833
sI189
S'            ccode = code'
p2834
sI190
S'        else:'
p2835
sI191
S'            ccode = compile2(code,layer)'
p2836
ssS'call'
p2837
S"(code='# -*- coding: utf-8 -*-\\n### required - do no del...t()\\n\\nresponse._vars=response._caller(submission)\\n', environment={'A': <class 'gluon.html.A'>, 'Auth': <class 'gluon.tools.Auth'>, 'B': <class 'gluon.html.B'>, 'BEAUTIFY': <class 'gluon.html.BEAUTIFY'>, 'BODY': <class 'gluon.html.BODY'>, 'BR': <class 'gluon.html.BR'>, 'BUTTON': <class 'gluon.html.BUTTON'>, 'CAT': <class 'gluon.html.CAT'>, 'CENTER': <class 'gluon.html.CENTER'>, 'CLEANUP': <class 'gluon.validators.CLEANUP'>, ...}, layer='/Users/hellais/Documents/code/mygit/globaleaks/webapp/applications/init/controllers/default.py')"
p2838
sS'func'
p2839
S'restricted'
p2840
sa(dp2841
g2816
S'/Users/hellais/Documents/code/mygit/globaleaks/webapp/applications/init/controllers/default.py'
p2842
sg2818
(dp2843
sg2824
I49
sg2825
(dp2844
I38
S"        response.flash = 'form accepted'"
p2845
sI39
S'    elif form.errors:'
p2846
sI40
S"        response.flash = 'form has errors'"
p2847
sI41
S'    else:'
p2848
sI42
S"        response.flash = 'please fill the form'"
p2849
sI43
S''
sI44
S'    return dict(form=form)'
p2850
sI45
S''
sI46
S'def error():'
p2851
sI47
S'    return dict()'
p2852
ssg2837
S'()'
p2853
sg2839
S'<module>'
p2854
sa(dp2855
g2816
S'/opt/local/Library/Frameworks/Python.framework/Versions/2.7/lib/python2.7/gluon/globals.py'
p2856
sg2818
(dp2857
S'self'
p2858
S'undefined'
p2859
sS'f'
S'<function submission>'
p2860
ssg2824
I145
sg2825
(dp2861
I140
S'        self.meta = Storage()      # used by web2py_ajax.html'
p2862
sI141
S'        self.menu = []             # used by the default view layout'
p2863
sI142
S'        self.files = []            # used by web2py_ajax.html'
p2864
sI143
S'        self.generic_patterns = [] # patterns to allow generic views'
p2865
sI144
S'        self._vars = None'
p2866
sI145
S'        self._caller = lambda f: f()'
p2867
sI146
S'        self._view_environment = None'
p2868
sI147
S'        self._custom_commit = None'
p2869
sI148
S'        self._custom_rollback = None'
p2870
sI149
S''
ssg2837
S'(f=<function submission>)'
p2871
sg2839
S'<lambda>'
p2872
sa(dp2873
g2816
S'/Users/hellais/Documents/code/mygit/globaleaks/webapp/applications/init/controllers/default.py'
p2874
sg2818
(dp2875
S'global SQLFORM'
p2876
S"<class 'gluon.sqlhtml.SQLFORM'>"
p2877
sS'global gen_form'
p2878
S'<function gen_form>'
p2879
sS'form'
p2880
g2859
sS'SQLFORM.factory'
p2881
S'<function factory>'
p2882
ssg2824
I35
sg2825
(dp2883
I32
S'    else:'
p2884
sI33
S"        response.flash = 'please fill the form'"
p2885
sI34
S'    """'
p2886
sI35
S'    form = SQLFORM.factory(gen_form())'
p2887
sI36
S''
sI37
S'    if form.accepts(request.vars, session):'
p2888
sI38
S"        response.flash = 'form accepted'"
p2889
sI39
S'    elif form.errors:'
p2890
sI30
S'    elif form.errors:'
p2891
sI31
S"        response.flash = 'form has errors'"
p2892
ssg2837
S'()'
p2893
sg2839
S'submission'
p2894
sa(dp2895
g2816
S'/opt/local/Library/Frameworks/Python.framework/Versions/2.7/lib/python2.7/gluon/sqlhtml.py'
p2896
sg2818
(dp2897
S'builtinNone'
p2898
S'None'
p2899
sS'global SQLFORM'
p2900
S"<class 'gluon.sqlhtml.SQLFORM'>"
p2901
sS').define_table'
p2902
g2859
sS'global DAL'
p2903
S"<class 'gluon.dal.DAL'>"
p2904
sS'table_name'
p2905
S"'no_table'"
p2906
sS'fields'
p2907
S'(set([<gluon.dal.Field object>, <gluon.dal.Field object>, <gluon.dal.Field object>, <gluon.dal.Field object>, <gluon.dal.Field object>]),)'
p2908
sS'attributes'
p2909
g20
ssg2824
I1244
sg2825
(dp2910
I1248
S''
sI1239
S''
sI1240
S"        # So it won't interfear with SQLDB.define_table"
p2911
sI1241
S"        if 'table_name' in attributes:"
p2912
sI1242
S"            del attributes['table_name']"
p2913
sI1243
S''
sI1244
S'        return SQLFORM(DAL(None).define_table(table_name, *fields), **attributes)'
p2914
sI1245
S''
sI1246
S''
sI1247
S'class SQLTABLE(TABLE):'
p2915
ssg2837
S'(*fields=(set([<gluon.dal.Field object>, <gluon.dal.Field object>, <gluon.dal.Field object>, <gluon.dal.Field object>, <gluon.dal.Field object>]),), **attributes={})'
p2916
sg2839
S'factory'
p2917
sa(dp2918
g2816
S'/opt/local/Library/Frameworks/Python.framework/Versions/2.7/lib/python2.7/gluon/dal.py'
p2919
sg2818
(dp2920
S'sequence_name'
p2921
S'None'
p2922
ssg2824
I4299
sg2825
(dp2923
I4294
S'            fields = [f for f in fields] + [f for f in self._common_fields]'
p2924
sI4295
S''
sI4296
S'        t = self[tablename] = Table(self, tablename, *fields,'
p2925
sI4297
S'                                    **dict(primarykey=primarykey,'
p2926
sI4298
S'                                    trigger_name=trigger_name,'
p2927
sI4299
S'                                    sequence_name=sequence_name))'
p2928
sI4300
S'        # db magic'
p2929
sI4301
S"        if self._uri in (None,'None'):"
p2930
sI4302
S'            return t'
p2931
sI4303
S''
ssg2837
S"(self=<DAL {'_migrate_enabled': True, '_lastsql': '', ...'_uri_hash': '6adf97f83acf6453d4a6a4b1070f3754'}>, tablename='no_table', *fields=(set([<gluon.dal.Field object>, <gluon.dal.Field object>, <gluon.dal.Field object>, <gluon.dal.Field object>, <gluon.dal.Field object>]),), **args={})"
p2932
sg2839
S'define_table'
p2933
sa(dp2934
g2816
S'/opt/local/Library/Frameworks/Python.framework/Versions/2.7/lib/python2.7/gluon/dal.py'
p2935
sg2818
(dp2936
S'field'
p2937
S'set([<gluon.dal.Field object>, <gluon.dal.Field object>, <gluon.dal.Field object>, <gluon.dal.Field object>, <gluon.dal.Field object>])'
p2938
ssg2824
I4540
sg2825
(dp2939
I4544
S'                newfields.append(field)'
p2940
sI4535
S"            fieldnames.add('id')"
p2941
sI4536
S'            self._id = field'
p2942
sI4537
S'        for field in fields:'
p2943
sI4538
S'            if not isinstance(field, (Field, Table)):'
p2944
sI4539
S'                raise SyntaxError, \\'
p2945
sI4540
S"                    'define_table argument is not a Field or Table: %s' % field"
p2946
sI4541
S'            elif isinstance(field, Field) and not field.name in fieldnames:'
p2947
sI4542
S"                if hasattr(field, '_db'):"
p2948
sI4543
S'                    field = copy.copy(field)'
p2949
ssg2837
S"(self=<Table {'_trigger_name': 'no_table_sequence', '_...: 'no_table_sequence', '_tablename': 'no_table'}>, db=<DAL {'_migrate_enabled': True, '_lastsql': '', ...'_uri_hash': '6adf97f83acf6453d4a6a4b1070f3754'}>, tablename='no_table', *fields=(set([<gluon.dal.Field object>, <gluon.dal.Field object>, <gluon.dal.Field object>, <gluon.dal.Field object>, <gluon.dal.Field object>]),), **args={'primarykey': None, 'sequence_name': None, 'trigger_name': None})"
p2950
sg2839
g23
sasS'pyver'
p2951
S'Python 2.7.1: /opt/local/Library/Frameworks/Python.framework/Versions/2.7/Resources/Python.app/Contents/MacOS/Python'
p2952
sS'session'
p2953
g68
(g69
g70
NtRp2954
(dp2955
g73
(dp2956
sg75
(lp2957
g68
(g77
g70
NtRp2958
(dp2959
g73
(dp2960
g81
I5
ssg82
Nsg75
(lp2961
sbasbsS'etype'
p2962
S"<type 'exceptions.SyntaxError'>"
p2963
sS'date'
p2964
S'Sat Aug 27 23:55:03 2011'
p2965
sS'response'
p2966
g68
(g69
g70
NtRp2967
(dp2968
g73
(dp2969
sg75
(lp2970
g68
(g77
g70
NtRp2971
(dp2972
g73
(dp2973
g81
I5
ssg82
Nsg75
(lp2974
g68
(g84
g70
NtRp2975
(dp2976
g73
(dp2977
sg82
g2971
sg75
(lp2978
g68
(g89
g70
NtRp2979
(dp2980
g73
(dp2981
g93
g94
ssg82
g2975
sg75
(lp2982
g166
asbag68
(g89
g70
NtRp2983
(dp2984
g73
(dp2985
g100
g101
ssg82
g2975
sg75
(lp2986
S':'
asbag68
(g89
g70
NtRp2987
(dp2988
g73
(dp2989
sg82
g2975
sg75
(lp2990
g68
(g69
g70
NtRp2991
(dp2992
g73
(dp2993
g81
I5
ssg82
g2987
sg75
(lp2994
S'<cStringIO.StringO object at 0x1021d58f0>'
p2995
asbasbasbag68
(g84
g70
NtRp2996
(dp2997
g73
(dp2998
sg82
g2971
sg75
(lp2999
g68
(g89
g70
NtRp3000
(dp3001
g73
(dp3002
g93
g94
ssg82
g2996
sg75
(lp3003
g232
asbag68
(g89
g70
NtRp3004
(dp3005
g73
(dp3006
g100
g101
ssg82
g2996
sg75
(lp3007
S':'
asbag68
(g89
g70
NtRp3008
(dp3009
g73
(dp3010
sg82
g2996
sg75
(lp3011
g68
(g69
g70
NtRp3012
(dp3013
g73
(dp3014
g81
I5
ssg82
g3008
sg75
(lp3015
g68
(g77
g70
NtRp3016
(dp3017
g73
(dp3018
g81
I4
ssg82
Nsg75
(lp3019
g68
(g84
g70
NtRp3020
(dp3021
g73
(dp3022
sg82
g3016
sg75
(lp3023
g68
(g89
g70
NtRp3024
(dp3025
g73
(dp3026
g93
g94
ssg82
g3020
sg75
(lp3027
S'session_id_init'
p3028
asbag68
(g89
g70
NtRp3029
(dp3030
g73
(dp3031
g100
g101
ssg82
g3020
sg75
(lp3032
S':'
asbag68
(g89
g70
NtRp3033
(dp3034
g73
(dp3035
sg82
g3020
sg75
(lp3036
g68
(g69
g70
NtRp3037
(dp3038
g73
(dp3039
g81
I4
ssg82
g3033
sg75
(lp3040
g68
(g77
g70
NtRp3041
(dp3042
g73
(dp3043
g81
I3
ssg82
Nsg75
(lp3044
g68
(g84
g70
NtRp3045
(dp3046
g73
(dp3047
sg82
g3041
sg75
(lp3048
g68
(g89
g70
NtRp3049
(dp3050
g73
(dp3051
g93
g94
ssg82
g3045
sg75
(lp3052
g282
asbag68
(g89
g70
NtRp3053
(dp3054
g73
(dp3055
g100
g101
ssg82
g3045
sg75
(lp3056
S':'
asbag68
(g89
g70
NtRp3057
(dp3058
g73
(dp3059
sg82
g3045
sg75
(lp3060
g68
(g69
g70
NtRp3061
(dp3062
g73
(dp3063
g81
I3
ssg82
g3057
sg75
(lp3064
S''
asbasbasbag68
(g84
g70
NtRp3065
(dp3066
g73
(dp3067
sg82
g3041
sg75
(lp3068
g68
(g89
g70
NtRp3069
(dp3070
g73
(dp3071
g93
g94
ssg82
g3065
sg75
(lp3072
g303
asbag68
(g89
g70
NtRp3073
(dp3074
g73
(dp3075
g100
g101
ssg82
g3065
sg75
(lp3076
S':'
asbag68
(g89
g70
NtRp3077
(dp3078
g73
(dp3079
sg82
g3065
sg75
(lp3080
g68
(g69
g70
NtRp3081
(dp3082
g73
(dp3083
g81
I3
ssg82
g3077
sg75
(lp3084
S''
asbasbasbag68
(g84
g70
NtRp3085
(dp3086
g73
(dp3087
sg82
g3041
sg75
(lp3088
g68
(g89
g70
NtRp3089
(dp3090
g73
(dp3091
g93
g94
ssg82
g3085
sg75
(lp3092
g324
asbag68
(g89
g70
NtRp3093
(dp3094
g73
(dp3095
g100
g101
ssg82
g3085
sg75
(lp3096
S':'
asbag68
(g89
g70
NtRp3097
(dp3098
g73
(dp3099
sg82
g3085
sg75
(lp3100
g68
(g69
g70
NtRp3101
(dp3102
g73
(dp3103
g81
I3
ssg82
g3097
sg75
(lp3104
S''
asbasbasbag68
(g84
g70
NtRp3105
(dp3106
g73
(dp3107
sg82
g3041
sg75
(lp3108
g68
(g89
g70
NtRp3109
(dp3110
g73
(dp3111
g93
g94
ssg82
g3105
sg75
(lp3112
g345
asbag68
(g89
g70
NtRp3113
(dp3114
g73
(dp3115
g100
g101
ssg82
g3105
sg75
(lp3116
S':'
asbag68
(g89
g70
NtRp3117
(dp3118
g73
(dp3119
sg82
g3105
sg75
(lp3120
g68
(g69
g70
NtRp3121
(dp3122
g73
(dp3123
g81
I3
ssg82
g3117
sg75
(lp3124
S''
asbasbasbag68
(g84
g70
NtRp3125
(dp3126
g73
(dp3127
sg82
g3041
sg75
(lp3128
g68
(g89
g70
NtRp3129
(dp3130
g73
(dp3131
g93
g94
ssg82
g3125
sg75
(lp3132
g366
asbag68
(g89
g70
NtRp3133
(dp3134
g73
(dp3135
g100
g101
ssg82
g3125
sg75
(lp3136
S':'
asbag68
(g89
g70
NtRp3137
(dp3138
g73
(dp3139
sg82
g3125
sg75
(lp3140
g68
(g69
g70
NtRp3141
(dp3142
g73
(dp3143
g81
I3
ssg82
g3137
sg75
(lp3144
S''
asbasbasbag68
(g84
g70
NtRp3145
(dp3146
g73
(dp3147
sg82
g3041
sg75
(lp3148
g68
(g89
g70
NtRp3149
(dp3150
g73
(dp3151
g93
g94
ssg82
g3145
sg75
(lp3152
g387
asbag68
(g89
g70
NtRp3153
(dp3154
g73
(dp3155
g100
g101
ssg82
g3145
sg75
(lp3156
S':'
asbag68
(g89
g70
NtRp3157
(dp3158
g73
(dp3159
sg82
g3145
sg75
(lp3160
g68
(g69
g70
NtRp3161
(dp3162
g73
(dp3163
g81
I3
ssg82
g3157
sg75
(lp3164
S'/'
asbasbasbag68
(g84
g70
NtRp3165
(dp3166
g73
(dp3167
sg82
g3041
sg75
(lp3168
g68
(g89
g70
NtRp3169
(dp3170
g73
(dp3171
g93
g94
ssg82
g3165
sg75
(lp3172
g408
asbag68
(g89
g70
NtRp3173
(dp3174
g73
(dp3175
g100
g101
ssg82
g3165
sg75
(lp3176
S':'
asbag68
(g89
g70
NtRp3177
(dp3178
g73
(dp3179
sg82
g3165
sg75
(lp3180
g68
(g69
g70
NtRp3181
(dp3182
g73
(dp3183
g81
I3
ssg82
g3177
sg75
(lp3184
S''
asbasbasbag68
(g84
g70
NtRp3185
(dp3186
g73
(dp3187
sg82
g3041
sg75
(lp3188
g68
(g89
g70
NtRp3189
(dp3190
g73
(dp3191
g93
g94
ssg82
g3185
sg75
(lp3192
g429
asbag68
(g89
g70
NtRp3193
(dp3194
g73
(dp3195
g100
g101
ssg82
g3185
sg75
(lp3196
S':'
asbag68
(g89
g70
NtRp3197
(dp3198
g73
(dp3199
sg82
g3185
sg75
(lp3200
g68
(g69
g70
NtRp3201
(dp3202
g73
(dp3203
g81
I3
ssg82
g3197
sg75
(lp3204
S''
asbasbasbasbasbasbasbasbasbasbasbag68
(g84
g70
NtRp3205
(dp3206
g73
(dp3207
sg82
g2971
sg75
(lp3208
g68
(g89
g70
NtRp3209
(dp3210
g73
(dp3211
g93
g94
ssg82
g3205
sg75
(lp3212
S'files'
p3213
asbag68
(g89
g70
NtRp3214
(dp3215
g73
(dp3216
g100
g101
ssg82
g3205
sg75
(lp3217
S':'
asbag68
(g89
g70
NtRp3218
(dp3219
g73
(dp3220
sg82
g3205
sg75
(lp3221
g68
(g69
g70
NtRp3222
(dp3223
g73
(dp3224
g81
I5
ssg82
g3218
sg75
(lp3225
g68
(g77
g70
NtRp3226
(dp3227
g73
(dp3228
g81
I4
ssg82
Nsg75
(lp3229
sbasbasbasbag68
(g84
g70
NtRp3230
(dp3231
g73
(dp3232
sg82
g2971
sg75
(lp3233
g68
(g89
g70
NtRp3234
(dp3235
g73
(dp3236
g93
g94
ssg82
g3230
sg75
(lp3237
S'flash'
p3238
asbag68
(g89
g70
NtRp3239
(dp3240
g73
(dp3241
g100
g101
ssg82
g3230
sg75
(lp3242
S':'
asbag68
(g89
g70
NtRp3243
(dp3244
g73
(dp3245
sg82
g3230
sg75
(lp3246
g68
(g69
g70
NtRp3247
(dp3248
g73
(dp3249
g81
I5
ssg82
g3243
sg75
(lp3250
S''
asbasbasbag68
(g84
g70
NtRp3251
(dp3252
g73
(dp3253
sg82
g2971
sg75
(lp3254
g68
(g89
g70
NtRp3255
(dp3256
g73
(dp3257
g93
g94
ssg82
g3251
sg75
(lp3258
S'generic_patterns'
p3259
asbag68
(g89
g70
NtRp3260
(dp3261
g73
(dp3262
g100
g101
ssg82
g3251
sg75
(lp3263
S':'
asbag68
(g89
g70
NtRp3264
(dp3265
g73
(dp3266
sg82
g3251
sg75
(lp3267
g68
(g69
g70
NtRp3268
(dp3269
g73
(dp3270
g81
I5
ssg82
g3264
sg75
(lp3271
g68
(g77
g70
NtRp3272
(dp3273
g73
(dp3274
g81
I4
ssg82
Nsg75
(lp3275
sbasbasbasbag68
(g84
g70
NtRp3276
(dp3277
g73
(dp3278
sg82
g2971
sg75
(lp3279
g68
(g89
g70
NtRp3280
(dp3281
g73
(dp3282
g93
g94
ssg82
g3276
sg75
(lp3283
S'headers'
p3284
asbag68
(g89
g70
NtRp3285
(dp3286
g73
(dp3287
g100
g101
ssg82
g3276
sg75
(lp3288
S':'
asbag68
(g89
g70
NtRp3289
(dp3290
g73
(dp3291
sg82
g3276
sg75
(lp3292
g68
(g69
g70
NtRp3293
(dp3294
g73
(dp3295
g81
I5
ssg82
g3289
sg75
(lp3296
g68
(g77
g70
NtRp3297
(dp3298
g73
(dp3299
g81
I4
ssg82
Nsg75
(lp3300
g68
(g84
g70
NtRp3301
(dp3302
g73
(dp3303
sg82
g3297
sg75
(lp3304
g68
(g89
g70
NtRp3305
(dp3306
g73
(dp3307
g93
g94
ssg82
g3301
sg75
(lp3308
S'Cache-Control'
p3309
asbag68
(g89
g70
NtRp3310
(dp3311
g73
(dp3312
g100
g101
ssg82
g3301
sg75
(lp3313
S':'
asbag68
(g89
g70
NtRp3314
(dp3315
g73
(dp3316
sg82
g3301
sg75
(lp3317
g68
(g69
g70
NtRp3318
(dp3319
g73
(dp3320
g81
I4
ssg82
g3314
sg75
(lp3321
S'no-store, no-cache, must-revalidate, post-check=0, pre-check=0'
p3322
asbasbasbag68
(g84
g70
NtRp3323
(dp3324
g73
(dp3325
sg82
g3297
sg75
(lp3326
g68
(g89
g70
NtRp3327
(dp3328
g73
(dp3329
g93
g94
ssg82
g3323
sg75
(lp3330
S'Content-Type'
p3331
asbag68
(g89
g70
NtRp3332
(dp3333
g73
(dp3334
g100
g101
ssg82
g3323
sg75
(lp3335
S':'
asbag68
(g89
g70
NtRp3336
(dp3337
g73
(dp3338
sg82
g3323
sg75
(lp3339
g68
(g69
g70
NtRp3340
(dp3341
g73
(dp3342
g81
I4
ssg82
g3336
sg75
(lp3343
S'text/html; charset=utf-8'
p3344
asbasbasbag68
(g84
g70
NtRp3345
(dp3346
g73
(dp3347
sg82
g3297
sg75
(lp3348
g68
(g89
g70
NtRp3349
(dp3350
g73
(dp3351
g93
g94
ssg82
g3345
sg75
(lp3352
S'Expires'
p3353
asbag68
(g89
g70
NtRp3354
(dp3355
g73
(dp3356
g100
g101
ssg82
g3345
sg75
(lp3357
S':'
asbag68
(g89
g70
NtRp3358
(dp3359
g73
(dp3360
sg82
g3345
sg75
(lp3361
g68
(g69
g70
NtRp3362
(dp3363
g73
(dp3364
g81
I4
ssg82
g3358
sg75
(lp3365
S'Sat, 27 Aug 2011 21:55:03 GMT'
p3366
asbasbasbag68
(g84
g70
NtRp3367
(dp3368
g73
(dp3369
sg82
g3297
sg75
(lp3370
g68
(g89
g70
NtRp3371
(dp3372
g73
(dp3373
g93
g94
ssg82
g3367
sg75
(lp3374
S'Pragma'
p3375
asbag68
(g89
g70
NtRp3376
(dp3377
g73
(dp3378
g100
g101
ssg82
g3367
sg75
(lp3379
S':'
asbag68
(g89
g70
NtRp3380
(dp3381
g73
(dp3382
sg82
g3367
sg75
(lp3383
g68
(g69
g70
NtRp3384
(dp3385
g73
(dp3386
g81
I4
ssg82
g3380
sg75
(lp3387
S'no-cache'
p3388
asbasbasbag68
(g84
g70
NtRp3389
(dp3390
g73
(dp3391
sg82
g3297
sg75
(lp3392
g68
(g89
g70
NtRp3393
(dp3394
g73
(dp3395
g93
g94
ssg82
g3389
sg75
(lp3396
S'X-Powered-By'
p3397
asbag68
(g89
g70
NtRp3398
(dp3399
g73
(dp3400
g100
g101
ssg82
g3389
sg75
(lp3401
S':'
asbag68
(g89
g70
NtRp3402
(dp3403
g73
(dp3404
sg82
g3389
sg75
(lp3405
g68
(g69
g70
NtRp3406
(dp3407
g73
(dp3408
g81
I4
ssg82
g3402
sg75
(lp3409
S'web2py'
p3410
asbasbasbasbasbasbasbag68
(g84
g70
NtRp3411
(dp3412
g73
(dp3413
sg82
g2971
sg75
(lp3414
g68
(g89
g70
NtRp3415
(dp3416
g73
(dp3417
g93
g94
ssg82
g3411
sg75
(lp3418
S'menu'
p3419
asbag68
(g89
g70
NtRp3420
(dp3421
g73
(dp3422
g100
g101
ssg82
g3411
sg75
(lp3423
S':'
asbag68
(g89
g70
NtRp3424
(dp3425
g73
(dp3426
sg82
g3411
sg75
(lp3427
g68
(g69
g70
NtRp3428
(dp3429
g73
(dp3430
g81
I5
ssg82
g3424
sg75
(lp3431
g68
(g77
g70
NtRp3432
(dp3433
g73
(dp3434
g81
I4
ssg82
Nsg75
(lp3435
g68
(g84
g70
NtRp3436
(dp3437
g73
(dp3438
sg82
g3432
sg75
(lp3439
g68
(g89
g70
NtRp3440
(dp3441
g73
(dp3442
sg82
g3436
sg75
(lp3443
g68
(g69
g70
NtRp3444
(dp3445
g73
(dp3446
g81
I4
ssg82
g3440
sg75
(lp3447
g68
(g77
g70
NtRp3448
(dp3449
g73
(dp3450
g81
I3
ssg82
Nsg75
(lp3451
g68
(g84
g70
NtRp3452
(dp3453
g73
(dp3454
sg82
g3448
sg75
(lp3455
g68
(g89
g70
NtRp3456
(dp3457
g73
(dp3458
sg82
g3452
sg75
(lp3459
g68
(g69
g70
NtRp3460
(dp3461
g73
(dp3462
g81
I3
ssg82
g3456
sg75
(lp3463
cgluon.languages
lazyT_unpickle
p3464
(S't\x05\x00\x00\x00Index'
tRp3465
asbasbasbag68
(g84
g70
NtRp3466
(dp3467
g73
(dp3468
sg82
g3448
sg75
(lp3469
g68
(g89
g70
NtRp3470
(dp3471
g73
(dp3472
sg82
g3466
sg75
(lp3473
g68
(g69
g70
NtRp3474
(dp3475
g73
(dp3476
g81
I3
ssg82
g3470
sg75
(lp3477
g111
asbasbasbag68
(g84
g70
NtRp3478
(dp3479
g73
(dp3480
sg82
g3448
sg75
(lp3481
g68
(g89
g70
NtRp3482
(dp3483
g73
(dp3484
sg82
g3478
sg75
(lp3485
g68
(g69
g70
NtRp3486
(dp3487
g73
(dp3488
g81
I3
ssg82
g3482
sg75
(lp3489
S'/init/default/index'
p3490
asbasbasbag68
(g84
g70
NtRp3491
(dp3492
g73
(dp3493
sg82
g3448
sg75
(lp3494
g68
(g89
g70
NtRp3495
(dp3496
g73
(dp3497
sg82
g3491
sg75
(lp3498
g68
(g69
g70
NtRp3499
(dp3500
g73
(dp3501
g81
I3
ssg82
g3495
sg75
(lp3502
g68
(g77
g70
NtRp3503
(dp3504
g73
(dp3505
g81
I2
ssg82
Nsg75
(lp3506
sbasbasbasbasbasbasbasbasbasbasbasbag68
(g84
g70
NtRp3507
(dp3508
g73
(dp3509
sg82
g2971
sg75
(lp3510
g68
(g89
g70
NtRp3511
(dp3512
g73
(dp3513
g93
g94
ssg82
g3507
sg75
(lp3514
S'meta'
p3515
asbag68
(g89
g70
NtRp3516
(dp3517
g73
(dp3518
g100
g101
ssg82
g3507
sg75
(lp3519
S':'
asbag68
(g89
g70
NtRp3520
(dp3521
g73
(dp3522
sg82
g3507
sg75
(lp3523
g68
(g69
g70
NtRp3524
(dp3525
g73
(dp3526
g81
I5
ssg82
g3520
sg75
(lp3527
g68
(g77
g70
NtRp3528
(dp3529
g73
(dp3530
g81
I4
ssg82
Nsg75
(lp3531
g68
(g84
g70
NtRp3532
(dp3533
g73
(dp3534
sg82
g3528
sg75
(lp3535
g68
(g89
g70
NtRp3536
(dp3537
g73
(dp3538
g93
g94
ssg82
g3532
sg75
(lp3539
S'author'
p3540
asbag68
(g89
g70
NtRp3541
(dp3542
g73
(dp3543
g100
g101
ssg82
g3532
sg75
(lp3544
S':'
asbag68
(g89
g70
NtRp3545
(dp3546
g73
(dp3547
sg82
g3532
sg75
(lp3548
g68
(g69
g70
NtRp3549
(dp3550
g73
(dp3551
g81
I4
ssg82
g3545
sg75
(lp3552
S'RGC <info@globaleaks.org>'
p3553
asbasbasbag68
(g84
g70
NtRp3554
(dp3555
g73
(dp3556
sg82
g3528
sg75
(lp3557
g68
(g89
g70
NtRp3558
(dp3559
g73
(dp3560
g93
g94
ssg82
g3554
sg75
(lp3561
S'description'
p3562
asbag68
(g89
g70
NtRp3563
(dp3564
g73
(dp3565
g100
g101
ssg82
g3554
sg75
(lp3566
S':'
asbag68
(g89
g70
NtRp3567
(dp3568
g73
(dp3569
sg82
g3554
sg75
(lp3570
g68
(g69
g70
NtRp3571
(dp3572
g73
(dp3573
g81
I4
ssg82
g3567
sg75
(lp3574
S''
asbasbasbag68
(g84
g70
NtRp3575
(dp3576
g73
(dp3577
sg82
g3528
sg75
(lp3578
g68
(g89
g70
NtRp3579
(dp3580
g73
(dp3581
g93
g94
ssg82
g3575
sg75
(lp3582
S'keywords'
p3583
asbag68
(g89
g70
NtRp3584
(dp3585
g73
(dp3586
g100
g101
ssg82
g3575
sg75
(lp3587
S':'
asbag68
(g89
g70
NtRp3588
(dp3589
g73
(dp3590
sg82
g3575
sg75
(lp3591
g68
(g69
g70
NtRp3592
(dp3593
g73
(dp3594
g81
I4
ssg82
g3588
sg75
(lp3595
S''
asbasbasbasbasbasbasbag68
(g84
g70
NtRp3596
(dp3597
g73
(dp3598
sg82
g2971
sg75
(lp3599
g68
(g89
g70
NtRp3600
(dp3601
g73
(dp3602
g93
g94
ssg82
g3596
sg75
(lp3603
S'postprocessing'
p3604
asbag68
(g89
g70
NtRp3605
(dp3606
g73
(dp3607
g100
g101
ssg82
g3596
sg75
(lp3608
S':'
asbag68
(g89
g70
NtRp3609
(dp3610
g73
(dp3611
sg82
g3596
sg75
(lp3612
g68
(g69
g70
NtRp3613
(dp3614
g73
(dp3615
g81
I5
ssg82
g3609
sg75
(lp3616
g68
(g77
g70
NtRp3617
(dp3618
g73
(dp3619
g81
I4
ssg82
Nsg75
(lp3620
sbasbasbasbag68
(g84
g70
NtRp3621
(dp3622
g73
(dp3623
sg82
g2971
sg75
(lp3624
g68
(g89
g70
NtRp3625
(dp3626
g73
(dp3627
g93
g94
ssg82
g3621
sg75
(lp3628
S'session_file'
p3629
asbag68
(g89
g70
NtRp3630
(dp3631
g73
(dp3632
g100
g101
ssg82
g3621
sg75
(lp3633
S':'
asbag68
(g89
g70
NtRp3634
(dp3635
g73
(dp3636
sg82
g3621
sg75
(lp3637
g68
(g69
g70
NtRp3638
(dp3639
g73
(dp3640
g81
I5
ssg82
g3634
sg75
(lp3641
S"<open file '/Users/hellais/Documents/code/mygit/globaleaks/webapp/applications/init/sessions/127.0.0.1-a8551263-bc3c-430c-abb2-8711fac671c1', mode 'rb+' at 0x101e748a0>"
p3642
asbasbasbag68
(g84
g70
NtRp3643
(dp3644
g73
(dp3645
sg82
g2971
sg75
(lp3646
g68
(g89
g70
NtRp3647
(dp3648
g73
(dp3649
g93
g94
ssg82
g3643
sg75
(lp3650
S'session_filename'
p3651
asbag68
(g89
g70
NtRp3652
(dp3653
g73
(dp3654
g100
g101
ssg82
g3643
sg75
(lp3655
S':'
asbag68
(g89
g70
NtRp3656
(dp3657
g73
(dp3658
sg82
g3643
sg75
(lp3659
g68
(g69
g70
NtRp3660
(dp3661
g73
(dp3662
g81
I5
ssg82
g3656
sg75
(lp3663
S'/Users/hellais/Documents/code/mygit/globaleaks/webapp/applications/init/sessions/127.0.0.1-a8551263-bc3c-430c-abb2-8711fac671c1'
p3664
asbasbasbag68
(g84
g70
NtRp3665
(dp3666
g73
(dp3667
sg82
g2971
sg75
(lp3668
g68
(g89
g70
NtRp3669
(dp3670
g73
(dp3671
g93
g94
ssg82
g3665
sg75
(lp3672
S'session_id'
p3673
asbag68
(g89
g70
NtRp3674
(dp3675
g73
(dp3676
g100
g101
ssg82
g3665
sg75
(lp3677
S':'
asbag68
(g89
g70
NtRp3678
(dp3679
g73
(dp3680
sg82
g3665
sg75
(lp3681
g68
(g69
g70
NtRp3682
(dp3683
g73
(dp3684
g81
I5
ssg82
g3678
sg75
(lp3685
S'127.0.0.1-a8551263-bc3c-430c-abb2-8711fac671c1'
p3686
asbasbasbag68
(g84
g70
NtRp3687
(dp3688
g73
(dp3689
sg82
g2971
sg75
(lp3690
g68
(g89
g70
NtRp3691
(dp3692
g73
(dp3693
g93
g94
ssg82
g3687
sg75
(lp3694
S'session_id_name'
p3695
asbag68
(g89
g70
NtRp3696
(dp3697
g73
(dp3698
g100
g101
ssg82
g3687
sg75
(lp3699
S':'
asbag68
(g89
g70
NtRp3700
(dp3701
g73
(dp3702
sg82
g3687
sg75
(lp3703
g68
(g69
g70
NtRp3704
(dp3705
g73
(dp3706
g81
I5
ssg82
g3700
sg75
(lp3707
g3028
asbasbasbag68
(g84
g70
NtRp3708
(dp3709
g73
(dp3710
sg82
g2971
sg75
(lp3711
g68
(g89
g70
NtRp3712
(dp3713
g73
(dp3714
g93
g94
ssg82
g3708
sg75
(lp3715
S'session_locked'
p3716
asbag68
(g89
g70
NtRp3717
(dp3718
g73
(dp3719
g100
g101
ssg82
g3708
sg75
(lp3720
S':'
asbag68
(g89
g70
NtRp3721
(dp3722
g73
(dp3723
sg82
g3708
sg75
(lp3724
g68
(g69
g70
NtRp3725
(dp3726
g73
(dp3727
g81
I5
ssg82
g3721
sg75
(lp3728
g1809
asbasbasbag68
(g84
g70
NtRp3729
(dp3730
g73
(dp3731
sg82
g2971
sg75
(lp3732
g68
(g89
g70
NtRp3733
(dp3734
g73
(dp3735
g93
g94
ssg82
g3729
sg75
(lp3736
S'session_new'
p3737
asbag68
(g89
g70
NtRp3738
(dp3739
g73
(dp3740
g100
g101
ssg82
g3729
sg75
(lp3741
S':'
asbag68
(g89
g70
NtRp3742
(dp3743
g73
(dp3744
sg82
g3729
sg75
(lp3745
g68
(g69
g70
NtRp3746
(dp3747
g73
(dp3748
g81
I5
ssg82
g3742
sg75
(lp3749
g111
asbasbasbag68
(g84
g70
NtRp3750
(dp3751
g73
(dp3752
sg82
g2971
sg75
(lp3753
g68
(g89
g70
NtRp3754
(dp3755
g73
(dp3756
g93
g94
ssg82
g3750
sg75
(lp3757
S'status'
p3758
asbag68
(g89
g70
NtRp3759
(dp3760
g73
(dp3761
g100
g101
ssg82
g3750
sg75
(lp3762
S':'
asbag68
(g89
g70
NtRp3763
(dp3764
g73
(dp3765
sg82
g3750
sg75
(lp3766
g68
(g69
g70
NtRp3767
(dp3768
g73
(dp3769
g81
I5
ssg82
g3763
sg75
(lp3770
S'200'
p3771
asbasbasbag68
(g84
g70
NtRp3772
(dp3773
g73
(dp3774
sg82
g2971
sg75
(lp3775
g68
(g89
g70
NtRp3776
(dp3777
g73
(dp3778
g93
g94
ssg82
g3772
sg75
(lp3779
S'subtitle'
p3780
asbag68
(g89
g70
NtRp3781
(dp3782
g73
(dp3783
g100
g101
ssg82
g3772
sg75
(lp3784
S':'
asbag68
(g89
g70
NtRp3785
(dp3786
g73
(dp3787
sg82
g3772
sg75
(lp3788
g68
(g69
g70
NtRp3789
(dp3790
g73
(dp3791
g81
I5
ssg82
g3785
sg75
(lp3792
S'Open Source Whistleblowing Platform'
p3793
asbasbasbag68
(g84
g70
NtRp3794
(dp3795
g73
(dp3796
sg82
g2971
sg75
(lp3797
g68
(g89
g70
NtRp3798
(dp3799
g73
(dp3800
g93
g94
ssg82
g3794
sg75
(lp3801
S'title'
p3802
asbag68
(g89
g70
NtRp3803
(dp3804
g73
(dp3805
g100
g101
ssg82
g3794
sg75
(lp3806
S':'
asbag68
(g89
g70
NtRp3807
(dp3808
g73
(dp3809
sg82
g3794
sg75
(lp3810
g68
(g69
g70
NtRp3811
(dp3812
g73
(dp3813
g81
I5
ssg82
g3807
sg75
(lp3814
S'GlobaLeaks'
p3815
asbasbasbag68
(g84
g70
NtRp3816
(dp3817
g73
(dp3818
sg82
g2971
sg75
(lp3819
g68
(g89
g70
NtRp3820
(dp3821
g73
(dp3822
g93
g94
ssg82
g3816
sg75
(lp3823
g2133
asbag68
(g89
g70
NtRp3824
(dp3825
g73
(dp3826
g100
g101
ssg82
g3816
sg75
(lp3827
S':'
asbag68
(g89
g70
NtRp3828
(dp3829
g73
(dp3830
sg82
g3816
sg75
(lp3831
g68
(g69
g70
NtRp3832
(dp3833
g73
(dp3834
g81
I5
ssg82
g3828
sg75
(lp3835
g2146
asbasbasbag68
(g84
g70
NtRp3836
(dp3837
g73
(dp3838
sg82
g2971
sg75
(lp3839
g68
(g89
g70
NtRp3840
(dp3841
g73
(dp3842
g93
g94
ssg82
g3836
sg75
(lp3843
S'view'
p3844
asbag68
(g89
g70
NtRp3845
(dp3846
g73
(dp3847
g100
g101
ssg82
g3836
sg75
(lp3848
S':'
asbag68
(g89
g70
NtRp3849
(dp3850
g73
(dp3851
sg82
g3836
sg75
(lp3852
g68
(g69
g70
NtRp3853
(dp3854
g73
(dp3855
g81
I5
ssg82
g3849
sg75
(lp3856
S'default/submission.html'
p3857
asbasbasbasbasbsS'locals'
p3858
(dp3859
S'f'
S'set([<gluon.dal.Field object>, <gluon.dal.Field object>, <gluon.dal.Field object>, <gluon.dal.Field object>, <gluon.dal.Field object>])'
p3860
sS'fields'
p3861
S'(set([<gluon.dal.Field object>, <gluon.dal.Field object>, <gluon.dal.Field object>, <gluon.dal.Field object>, <gluon.dal.Field object>]),)'
p3862
sS'self'
p3863
S"<Table {'_trigger_name': 'no_table_sequence', '_...: 'no_table_sequence', '_tablename': 'no_table'}>"
p3864
sg51
S"{'primarykey': None, 'sequence_name': None, 'trigger_name': None}"
p3865
sS'tablename'
p3866
S"'no_table'"
p3867
sS'fieldnames'
p3868
S"set(['id'])"
p3869
sS'newfields'
p3870
S'[<gluon.dal.Field object>]'
p3871
sS'field'
p3872
S'set([<gluon.dal.Field object>, <gluon.dal.Field object>, <gluon.dal.Field object>, <gluon.dal.Field object>, <gluon.dal.Field object>])'
p3873
sS'db'
p3874
S"<DAL {'_migrate_enabled': True, '_lastsql': '', ...'_uri_hash': '6adf97f83acf6453d4a6a4b1070f3754'}>"
p3875
sS'primarykey'
p3876
S'None'
p3877
sssS'traceback'
p3878
S'Traceback (most recent call last):\n  File "/opt/local/Library/Frameworks/Python.framework/Versions/2.7/lib/python2.7/gluon/restricted.py", line 192, in restricted\n    exec ccode in environment\n  File "/Users/hellais/Documents/code/mygit/globaleaks/webapp/applications/init/controllers/default.py", line 49, in <module>\n  File "/opt/local/Library/Frameworks/Python.framework/Versions/2.7/lib/python2.7/gluon/globals.py", line 145, in <lambda>\n    self._caller = lambda f: f()\n  File "/Users/hellais/Documents/code/mygit/globaleaks/webapp/applications/init/controllers/default.py", line 35, in submission\n    form = SQLFORM.factory(gen_form())\n  File "/opt/local/Library/Frameworks/Python.framework/Versions/2.7/lib/python2.7/gluon/sqlhtml.py", line 1244, in factory\n    return SQLFORM(DAL(None).define_table(table_name, *fields), **attributes)\n  File "/opt/local/Library/Frameworks/Python.framework/Versions/2.7/lib/python2.7/gluon/dal.py", line 4299, in define_table\n    sequence_name=sequence_name))\n  File "/opt/local/Library/Frameworks/Python.framework/Versions/2.7/lib/python2.7/gluon/dal.py", line 4540, in __init__\n    \'define_table argument is not a Field or Table: %s\' % field\nSyntaxError: define_table argument is not a Field or Table: set([<gluon.dal.Field object at 0x101ccd090>, <gluon.dal.Field object at 0x101ccd210>, <gluon.dal.Field object at 0x101ccd110>, <gluon.dal.Field object at 0x101ccd150>, <gluon.dal.Field object at 0x101ccd190>])\n'
p3879
s.