(dp1
S'output'
p2
S''
sS'layer'
p3
S'/Users/hellais/Documents/code/sorci/web2py/applications/globaleaks/models/db.py'
p4
sS'code'
p5
S'# -*- coding: utf-8 -*-\n# this file is released under public domain and you can use without limitations\n\n#########################################################################\n## This scaffolding model makes your app work on Google App Engine too\n#########################################################################\n\n"""\nif request.env.web2py_runtime_gae:            # if running on Google App Engine\n    db = DAL(\'google:datastore\')              # connect to Google BigTable\n                                              # optional DAL(\'gae://namespace\')\n    session.connect(request, response, db = db) # and store sessions and tickets there\n    ### or use the following lines to store sessions in Memcache\n    # from gluon.contrib.memdb import MEMDB\n    # from google.appengine.api.memcache import Client\n    # session.connect(request, response, db = MEMDB(Client()))\nelse:                                         # else use a normal relational database\n    db = DAL(\'sqlite://storage.sqlite\')       # if not, use SQLite or other DB\n"""\n\n####\n# For the time being just use sqlite\n###\n\ndb = DAL(\'sqlite://storage.sqlite\')\n\n# by default give a view/generic.extension to all actions from localhost\n# none otherwise. a pattern can be \'controller/function.extension\'\n\n\n# Waste of time and useless piece of shit\n# response.generic_patterns = [\'*\'] if request.is_local else []\n\n#########################################################################\n## Here is sample code if you need for\n## - email capabilities\n## - authentication (registration, login, logout, ... )\n## - authorization (role based authorization)\n## - services (xml, csv, json, xmlrpc, jsonrpc, amf, rss)\n## - crud actions\n## (more options discussed in gluon/tools.py)\n#########################################################################\n\nfrom gluon.tools import Mail, Auth, Crud, Service, PluginManager, prettydate\n# mail = Mail()                                  # mailer\n# auth = Auth(db)                                # authentication/authorization\ncrud = Crud(db)                                # for CRUD helpers using auth\nservice = Service()                            # for json, xml, jsonrpc, xmlrpc, amfrpc\nplugins = PluginManager()                      # for configuring plugins\n\nmail.settings.server = \'logging\' or \'smtp.gmail.com:587\'  # your SMTP server\nmail.settings.sender = \'you@gmail.com\'         # your email\nmail.settings.login = \'username:password\'      # your credentials or None\n\nauth.settings.hmac_key = \'sha512:7a716c8b015b5caca119e195533717fe9a3095d67b3f97114e30256b27392977\'   # before define_tables()\nauth.define_tables()                           # creates all needed tables\nauth.settings.mailer = mail                    # for user email verification\nauth.settings.registration_requires_verification = False\nauth.settings.registration_requires_approval = False\nauth.messages.verify_email = \'Click on the link http://\'+request.env.http_host+URL(\'default\',\'user\',args=[\'verify_email\'])+\'/%(key)s to verify your email\'\nauth.settings.reset_password_requires_verification = True\nauth.messages.reset_password = \'Click on the link http://\'+request.env.http_host+URL(\'default\',\'user\',args=[\'reset_password\'])+\'/%(key)s to reset your password\'\n\n\n\n#########################################################################\n## If you need to use OpenID, Facebook, MySpace, Twitter, Linkedin, etc.\n## register with janrain.com, uncomment and customize following\n# from gluon.contrib.login_methods.rpx_account import RPXAccount\n# auth.settings.actions_disabled = \\\n#    [\'register\',\'change_password\',\'request_reset_password\']\n# auth.settings.login_form = RPXAccount(request, api_key=\'...\',domain=\'...\',\n#    url = "http://localhost:8000/%s/default/user/login" % request.application)\n## other login methods are in gluon/contrib/login_methods\n#########################################################################\n\n\n# XXX\n# Don\'t know\n#\ncrud.settings.auth = None        # =auth to enforce authorization on crud\n\n#########################################################################\n## Define your tables below (or better in another model file) for example\n##\n## >>> db.define_table(\'mytable\',Field(\'myfield\',\'string\'))\n##\n## Fields can be \'string\',\'text\',\'password\',\'integer\',\'double\',\'boolean\'\n##       \'date\',\'time\',\'datetime\',\'blob\',\'upload\', \'reference TABLENAME\'\n## There is an implicit \'id integer autoincrement\' field\n## Consult manual for more options, validators, etc.\n##\n## More API examples for controllers:\n##\n## >>> db.mytable.insert(myfield=\'value\')\n## >>> rows=db(db.mytable.myfield==\'value\').select(db.mytable.ALL)\n## >>> for row in rows: print row.id, row.myfield\n#########################################################################\n\nmail.settings.server = settings.email_server\nmail.settings.sender = settings.email_sender\nmail.settings.login = settings.email_login\n'
p6
sS'snapshot'
p7
(dp8
S'exception'
p9
(dp10
S'__hash__'
p11
S"<method-wrapper '__hash__' of exceptions.NameError object>"
p12
sS'__setattr__'
p13
S"<method-wrapper '__setattr__' of exceptions.NameError object>"
p14
sS'__reduce_ex__'
p15
S'<built-in method __reduce_ex__ of exceptions.NameError object>'
p16
sS'__getslice__'
p17
S"<method-wrapper '__getslice__' of exceptions.NameError object>"
p18
sS'__getitem__'
p19
S"<method-wrapper '__getitem__' of exceptions.NameError object>"
p20
sS'__setstate__'
p21
S'<built-in method __setstate__ of exceptions.NameError object>'
p22
sS'args'
p23
S'("name \'mail\' is not defined",)'
p24
sS'__reduce__'
p25
S'<built-in method __reduce__ of exceptions.NameError object>'
p26
sS'__str__'
p27
S"<method-wrapper '__str__' of exceptions.NameError object>"
p28
sS'__format__'
p29
S'<built-in method __format__ of exceptions.NameError object>'
p30
sS'__getattribute__'
p31
S"<method-wrapper '__getattribute__' of exceptions.NameError object>"
p32
sS'__class__'
p33
S"<type 'exceptions.NameError'>"
p34
sS'__unicode__'
p35
S'<built-in method __unicode__ of exceptions.NameError object>'
p36
sS'__delattr__'
p37
S"<method-wrapper '__delattr__' of exceptions.NameError object>"
p38
sS'__subclasshook__'
p39
S'<built-in method __subclasshook__ of type object>'
p40
sS'__repr__'
p41
S"<method-wrapper '__repr__' of exceptions.NameError object>"
p42
sS'__dict__'
p43
S'{}'
p44
sS'__sizeof__'
p45
S'<built-in method __sizeof__ of exceptions.NameError object>'
p46
sS'__doc__'
p47
S"'Name not found globally.'"
p48
sS'__init__'
p49
S"<method-wrapper '__init__' of exceptions.NameError object>"
p50
sS'__new__'
p51
S'<built-in method __new__ of type object>'
p52
ssS'evalue'
p53
S"name 'mail' is not defined"
p54
sS'request'
p55
ccopy_reg
_reconstructor
p56
(cgluon.html
BEAUTIFY
p57
c__builtin__
object
p58
NtRp59
(dp60
S'attributes'
p61
(dp62
sS'components'
p63
(lp64
g56
(cgluon.html
TABLE
p65
g58
NtRp66
(dp67
g61
(dp68
S'level'
p69
I5
ssS'parent'
p70
Nsg63
(lp71
g56
(cgluon.html
TR
p72
g58
NtRp73
(dp74
g61
(dp75
sg70
g66
sg63
(lp76
g56
(cgluon.html
TD
p77
g58
NtRp78
(dp79
g61
(dp80
S'_style'
p81
S'font-weight:bold;'
p82
ssg70
g73
sg63
(lp83
S'ajax'
p84
asbag56
(g77
g58
NtRp85
(dp86
g61
(dp87
S'_valign'
p88
S'top'
p89
ssg70
g73
sg63
(lp90
S':'
asbag56
(g77
g58
NtRp91
(dp92
g61
(dp93
sg70
g73
sg63
(lp94
g56
(g57
g58
NtRp95
(dp96
g61
(dp97
g69
I5
ssg70
g91
sg63
(lp98
S'False'
p99
asbasbasbag56
(g72
g58
NtRp100
(dp101
g61
(dp102
sg70
g66
sg63
(lp103
g56
(g77
g58
NtRp104
(dp105
g61
(dp106
g81
g82
ssg70
g100
sg63
(lp107
S'application'
p108
asbag56
(g77
g58
NtRp109
(dp110
g61
(dp111
g88
g89
ssg70
g100
sg63
(lp112
S':'
asbag56
(g77
g58
NtRp113
(dp114
g61
(dp115
sg70
g100
sg63
(lp116
g56
(g57
g58
NtRp117
(dp118
g61
(dp119
g69
I5
ssg70
g113
sg63
(lp120
S'globaleaks'
p121
asbasbasbag56
(g72
g58
NtRp122
(dp123
g61
(dp124
sg70
g66
sg63
(lp125
g56
(g77
g58
NtRp126
(dp127
g61
(dp128
g81
g82
ssg70
g122
sg63
(lp129
g23
asbag56
(g77
g58
NtRp130
(dp131
g61
(dp132
g88
g89
ssg70
g122
sg63
(lp133
S':'
asbag56
(g77
g58
NtRp134
(dp135
g61
(dp136
sg70
g122
sg63
(lp137
g56
(g57
g58
NtRp138
(dp139
g61
(dp140
g69
I5
ssg70
g134
sg63
(lp141
g56
(g65
g58
NtRp142
(dp143
g61
(dp144
g69
I4
ssg70
Nsg63
(lp145
sbasbasbasbag56
(g72
g58
NtRp146
(dp147
g61
(dp148
sg70
g66
sg63
(lp149
g56
(g77
g58
NtRp150
(dp151
g61
(dp152
g81
g82
ssg70
g146
sg63
(lp153
S'body'
p154
asbag56
(g77
g58
NtRp155
(dp156
g61
(dp157
g88
g89
ssg70
g146
sg63
(lp158
S':'
asbag56
(g77
g58
NtRp159
(dp160
g61
(dp161
sg70
g146
sg63
(lp162
g56
(g57
g58
NtRp163
(dp164
g61
(dp165
g69
I5
ssg70
g159
sg63
(lp166
S'<cStringIO.StringO object at 0x103ef8570>'
p167
asbasbasbag56
(g72
g58
NtRp168
(dp169
g61
(dp170
sg70
g66
sg63
(lp171
g56
(g77
g58
NtRp172
(dp173
g61
(dp174
g81
g82
ssg70
g168
sg63
(lp175
S'client'
p176
asbag56
(g77
g58
NtRp177
(dp178
g61
(dp179
g88
g89
ssg70
g168
sg63
(lp180
S':'
asbag56
(g77
g58
NtRp181
(dp182
g61
(dp183
sg70
g168
sg63
(lp184
g56
(g57
g58
NtRp185
(dp186
g61
(dp187
g69
I5
ssg70
g181
sg63
(lp188
S'127.0.0.1'
p189
asbasbasbag56
(g72
g58
NtRp190
(dp191
g61
(dp192
sg70
g66
sg63
(lp193
g56
(g77
g58
NtRp194
(dp195
g61
(dp196
g81
g82
ssg70
g190
sg63
(lp197
S'controller'
p198
asbag56
(g77
g58
NtRp199
(dp200
g61
(dp201
g88
g89
ssg70
g190
sg63
(lp202
S':'
asbag56
(g77
g58
NtRp203
(dp204
g61
(dp205
sg70
g190
sg63
(lp206
g56
(g57
g58
NtRp207
(dp208
g61
(dp209
g69
I5
ssg70
g203
sg63
(lp210
S'default'
p211
asbasbasbag56
(g72
g58
NtRp212
(dp213
g61
(dp214
sg70
g66
sg63
(lp215
g56
(g77
g58
NtRp216
(dp217
g61
(dp218
g81
g82
ssg70
g212
sg63
(lp219
S'cookies'
p220
asbag56
(g77
g58
NtRp221
(dp222
g61
(dp223
g88
g89
ssg70
g212
sg63
(lp224
S':'
asbag56
(g77
g58
NtRp225
(dp226
g61
(dp227
sg70
g212
sg63
(lp228
g56
(g57
g58
NtRp229
(dp230
g61
(dp231
g69
I5
ssg70
g225
sg63
(lp232
g56
(g65
g58
NtRp233
(dp234
g61
(dp235
g69
I4
ssg70
Nsg63
(lp236
g56
(g72
g58
NtRp237
(dp238
g61
(dp239
sg70
g233
sg63
(lp240
g56
(g77
g58
NtRp241
(dp242
g61
(dp243
g81
g82
ssg70
g237
sg63
(lp244
S'session_id_admin'
p245
asbag56
(g77
g58
NtRp246
(dp247
g61
(dp248
g88
g89
ssg70
g237
sg63
(lp249
S':'
asbag56
(g77
g58
NtRp250
(dp251
g61
(dp252
sg70
g237
sg63
(lp253
g56
(g57
g58
NtRp254
(dp255
g61
(dp256
g69
I4
ssg70
g250
sg63
(lp257
g56
(g65
g58
NtRp258
(dp259
g61
(dp260
g69
I3
ssg70
Nsg63
(lp261
g56
(g72
g58
NtRp262
(dp263
g61
(dp264
sg70
g258
sg63
(lp265
g56
(g77
g58
NtRp266
(dp267
g61
(dp268
g81
g82
ssg70
g262
sg63
(lp269
S'comment'
p270
asbag56
(g77
g58
NtRp271
(dp272
g61
(dp273
g88
g89
ssg70
g262
sg63
(lp274
S':'
asbag56
(g77
g58
NtRp275
(dp276
g61
(dp277
sg70
g262
sg63
(lp278
g56
(g57
g58
NtRp279
(dp280
g61
(dp281
g69
I3
ssg70
g275
sg63
(lp282
S''
asbasbasbag56
(g72
g58
NtRp283
(dp284
g61
(dp285
sg70
g258
sg63
(lp286
g56
(g77
g58
NtRp287
(dp288
g61
(dp289
g81
g82
ssg70
g283
sg63
(lp290
S'domain'
p291
asbag56
(g77
g58
NtRp292
(dp293
g61
(dp294
g88
g89
ssg70
g283
sg63
(lp295
S':'
asbag56
(g77
g58
NtRp296
(dp297
g61
(dp298
sg70
g283
sg63
(lp299
g56
(g57
g58
NtRp300
(dp301
g61
(dp302
g69
I3
ssg70
g296
sg63
(lp303
S''
asbasbasbag56
(g72
g58
NtRp304
(dp305
g61
(dp306
sg70
g258
sg63
(lp307
g56
(g77
g58
NtRp308
(dp309
g61
(dp310
g81
g82
ssg70
g304
sg63
(lp311
S'expires'
p312
asbag56
(g77
g58
NtRp313
(dp314
g61
(dp315
g88
g89
ssg70
g304
sg63
(lp316
S':'
asbag56
(g77
g58
NtRp317
(dp318
g61
(dp319
sg70
g304
sg63
(lp320
g56
(g57
g58
NtRp321
(dp322
g61
(dp323
g69
I3
ssg70
g317
sg63
(lp324
S''
asbasbasbag56
(g72
g58
NtRp325
(dp326
g61
(dp327
sg70
g258
sg63
(lp328
g56
(g77
g58
NtRp329
(dp330
g61
(dp331
g81
g82
ssg70
g325
sg63
(lp332
S'httponly'
p333
asbag56
(g77
g58
NtRp334
(dp335
g61
(dp336
g88
g89
ssg70
g325
sg63
(lp337
S':'
asbag56
(g77
g58
NtRp338
(dp339
g61
(dp340
sg70
g325
sg63
(lp341
g56
(g57
g58
NtRp342
(dp343
g61
(dp344
g69
I3
ssg70
g338
sg63
(lp345
S''
asbasbasbag56
(g72
g58
NtRp346
(dp347
g61
(dp348
sg70
g258
sg63
(lp349
g56
(g77
g58
NtRp350
(dp351
g61
(dp352
g81
g82
ssg70
g346
sg63
(lp353
S'max-age'
p354
asbag56
(g77
g58
NtRp355
(dp356
g61
(dp357
g88
g89
ssg70
g346
sg63
(lp358
S':'
asbag56
(g77
g58
NtRp359
(dp360
g61
(dp361
sg70
g346
sg63
(lp362
g56
(g57
g58
NtRp363
(dp364
g61
(dp365
g69
I3
ssg70
g359
sg63
(lp366
S''
asbasbasbag56
(g72
g58
NtRp367
(dp368
g61
(dp369
sg70
g258
sg63
(lp370
g56
(g77
g58
NtRp371
(dp372
g61
(dp373
g81
g82
ssg70
g367
sg63
(lp374
S'path'
p375
asbag56
(g77
g58
NtRp376
(dp377
g61
(dp378
g88
g89
ssg70
g367
sg63
(lp379
S':'
asbag56
(g77
g58
NtRp380
(dp381
g61
(dp382
sg70
g367
sg63
(lp383
g56
(g57
g58
NtRp384
(dp385
g61
(dp386
g69
I3
ssg70
g380
sg63
(lp387
S''
asbasbasbag56
(g72
g58
NtRp388
(dp389
g61
(dp390
sg70
g258
sg63
(lp391
g56
(g77
g58
NtRp392
(dp393
g61
(dp394
g81
g82
ssg70
g388
sg63
(lp395
S'secure'
p396
asbag56
(g77
g58
NtRp397
(dp398
g61
(dp399
g88
g89
ssg70
g388
sg63
(lp400
S':'
asbag56
(g77
g58
NtRp401
(dp402
g61
(dp403
sg70
g388
sg63
(lp404
g56
(g57
g58
NtRp405
(dp406
g61
(dp407
g69
I3
ssg70
g401
sg63
(lp408
S''
asbasbasbag56
(g72
g58
NtRp409
(dp410
g61
(dp411
sg70
g258
sg63
(lp412
g56
(g77
g58
NtRp413
(dp414
g61
(dp415
g81
g82
ssg70
g409
sg63
(lp416
S'version'
p417
asbag56
(g77
g58
NtRp418
(dp419
g61
(dp420
g88
g89
ssg70
g409
sg63
(lp421
S':'
asbag56
(g77
g58
NtRp422
(dp423
g61
(dp424
sg70
g409
sg63
(lp425
g56
(g57
g58
NtRp426
(dp427
g61
(dp428
g69
I3
ssg70
g422
sg63
(lp429
S''
asbasbasbasbasbasbasbag56
(g72
g58
NtRp430
(dp431
g61
(dp432
sg70
g233
sg63
(lp433
g56
(g77
g58
NtRp434
(dp435
g61
(dp436
g81
g82
ssg70
g430
sg63
(lp437
S'session_id_blabla'
p438
asbag56
(g77
g58
NtRp439
(dp440
g61
(dp441
g88
g89
ssg70
g430
sg63
(lp442
S':'
asbag56
(g77
g58
NtRp443
(dp444
g61
(dp445
sg70
g430
sg63
(lp446
g56
(g57
g58
NtRp447
(dp448
g61
(dp449
g69
I4
ssg70
g443
sg63
(lp450
g56
(g65
g58
NtRp451
(dp452
g61
(dp453
g69
I3
ssg70
Nsg63
(lp454
g56
(g72
g58
NtRp455
(dp456
g61
(dp457
sg70
g451
sg63
(lp458
g56
(g77
g58
NtRp459
(dp460
g61
(dp461
g81
g82
ssg70
g455
sg63
(lp462
g270
asbag56
(g77
g58
NtRp463
(dp464
g61
(dp465
g88
g89
ssg70
g455
sg63
(lp466
S':'
asbag56
(g77
g58
NtRp467
(dp468
g61
(dp469
sg70
g455
sg63
(lp470
g56
(g57
g58
NtRp471
(dp472
g61
(dp473
g69
I3
ssg70
g467
sg63
(lp474
S''
asbasbasbag56
(g72
g58
NtRp475
(dp476
g61
(dp477
sg70
g451
sg63
(lp478
g56
(g77
g58
NtRp479
(dp480
g61
(dp481
g81
g82
ssg70
g475
sg63
(lp482
g291
asbag56
(g77
g58
NtRp483
(dp484
g61
(dp485
g88
g89
ssg70
g475
sg63
(lp486
S':'
asbag56
(g77
g58
NtRp487
(dp488
g61
(dp489
sg70
g475
sg63
(lp490
g56
(g57
g58
NtRp491
(dp492
g61
(dp493
g69
I3
ssg70
g487
sg63
(lp494
S''
asbasbasbag56
(g72
g58
NtRp495
(dp496
g61
(dp497
sg70
g451
sg63
(lp498
g56
(g77
g58
NtRp499
(dp500
g61
(dp501
g81
g82
ssg70
g495
sg63
(lp502
g312
asbag56
(g77
g58
NtRp503
(dp504
g61
(dp505
g88
g89
ssg70
g495
sg63
(lp506
S':'
asbag56
(g77
g58
NtRp507
(dp508
g61
(dp509
sg70
g495
sg63
(lp510
g56
(g57
g58
NtRp511
(dp512
g61
(dp513
g69
I3
ssg70
g507
sg63
(lp514
S''
asbasbasbag56
(g72
g58
NtRp515
(dp516
g61
(dp517
sg70
g451
sg63
(lp518
g56
(g77
g58
NtRp519
(dp520
g61
(dp521
g81
g82
ssg70
g515
sg63
(lp522
g333
asbag56
(g77
g58
NtRp523
(dp524
g61
(dp525
g88
g89
ssg70
g515
sg63
(lp526
S':'
asbag56
(g77
g58
NtRp527
(dp528
g61
(dp529
sg70
g515
sg63
(lp530
g56
(g57
g58
NtRp531
(dp532
g61
(dp533
g69
I3
ssg70
g527
sg63
(lp534
S''
asbasbasbag56
(g72
g58
NtRp535
(dp536
g61
(dp537
sg70
g451
sg63
(lp538
g56
(g77
g58
NtRp539
(dp540
g61
(dp541
g81
g82
ssg70
g535
sg63
(lp542
g354
asbag56
(g77
g58
NtRp543
(dp544
g61
(dp545
g88
g89
ssg70
g535
sg63
(lp546
S':'
asbag56
(g77
g58
NtRp547
(dp548
g61
(dp549
sg70
g535
sg63
(lp550
g56
(g57
g58
NtRp551
(dp552
g61
(dp553
g69
I3
ssg70
g547
sg63
(lp554
S''
asbasbasbag56
(g72
g58
NtRp555
(dp556
g61
(dp557
sg70
g451
sg63
(lp558
g56
(g77
g58
NtRp559
(dp560
g61
(dp561
g81
g82
ssg70
g555
sg63
(lp562
g375
asbag56
(g77
g58
NtRp563
(dp564
g61
(dp565
g88
g89
ssg70
g555
sg63
(lp566
S':'
asbag56
(g77
g58
NtRp567
(dp568
g61
(dp569
sg70
g555
sg63
(lp570
g56
(g57
g58
NtRp571
(dp572
g61
(dp573
g69
I3
ssg70
g567
sg63
(lp574
S''
asbasbasbag56
(g72
g58
NtRp575
(dp576
g61
(dp577
sg70
g451
sg63
(lp578
g56
(g77
g58
NtRp579
(dp580
g61
(dp581
g81
g82
ssg70
g575
sg63
(lp582
g396
asbag56
(g77
g58
NtRp583
(dp584
g61
(dp585
g88
g89
ssg70
g575
sg63
(lp586
S':'
asbag56
(g77
g58
NtRp587
(dp588
g61
(dp589
sg70
g575
sg63
(lp590
g56
(g57
g58
NtRp591
(dp592
g61
(dp593
g69
I3
ssg70
g587
sg63
(lp594
S''
asbasbasbag56
(g72
g58
NtRp595
(dp596
g61
(dp597
sg70
g451
sg63
(lp598
g56
(g77
g58
NtRp599
(dp600
g61
(dp601
g81
g82
ssg70
g595
sg63
(lp602
g417
asbag56
(g77
g58
NtRp603
(dp604
g61
(dp605
g88
g89
ssg70
g595
sg63
(lp606
S':'
asbag56
(g77
g58
NtRp607
(dp608
g61
(dp609
sg70
g595
sg63
(lp610
g56
(g57
g58
NtRp611
(dp612
g61
(dp613
g69
I3
ssg70
g607
sg63
(lp614
S''
asbasbasbasbasbasbasbag56
(g72
g58
NtRp615
(dp616
g61
(dp617
sg70
g233
sg63
(lp618
g56
(g77
g58
NtRp619
(dp620
g61
(dp621
g81
g82
ssg70
g615
sg63
(lp622
S'session_id_globaleaks'
p623
asbag56
(g77
g58
NtRp624
(dp625
g61
(dp626
g88
g89
ssg70
g615
sg63
(lp627
S':'
asbag56
(g77
g58
NtRp628
(dp629
g61
(dp630
sg70
g615
sg63
(lp631
g56
(g57
g58
NtRp632
(dp633
g61
(dp634
g69
I4
ssg70
g628
sg63
(lp635
g56
(g65
g58
NtRp636
(dp637
g61
(dp638
g69
I3
ssg70
Nsg63
(lp639
g56
(g72
g58
NtRp640
(dp641
g61
(dp642
sg70
g636
sg63
(lp643
g56
(g77
g58
NtRp644
(dp645
g61
(dp646
g81
g82
ssg70
g640
sg63
(lp647
g270
asbag56
(g77
g58
NtRp648
(dp649
g61
(dp650
g88
g89
ssg70
g640
sg63
(lp651
S':'
asbag56
(g77
g58
NtRp652
(dp653
g61
(dp654
sg70
g640
sg63
(lp655
g56
(g57
g58
NtRp656
(dp657
g61
(dp658
g69
I3
ssg70
g652
sg63
(lp659
S''
asbasbasbag56
(g72
g58
NtRp660
(dp661
g61
(dp662
sg70
g636
sg63
(lp663
g56
(g77
g58
NtRp664
(dp665
g61
(dp666
g81
g82
ssg70
g660
sg63
(lp667
g291
asbag56
(g77
g58
NtRp668
(dp669
g61
(dp670
g88
g89
ssg70
g660
sg63
(lp671
S':'
asbag56
(g77
g58
NtRp672
(dp673
g61
(dp674
sg70
g660
sg63
(lp675
g56
(g57
g58
NtRp676
(dp677
g61
(dp678
g69
I3
ssg70
g672
sg63
(lp679
S''
asbasbasbag56
(g72
g58
NtRp680
(dp681
g61
(dp682
sg70
g636
sg63
(lp683
g56
(g77
g58
NtRp684
(dp685
g61
(dp686
g81
g82
ssg70
g680
sg63
(lp687
g312
asbag56
(g77
g58
NtRp688
(dp689
g61
(dp690
g88
g89
ssg70
g680
sg63
(lp691
S':'
asbag56
(g77
g58
NtRp692
(dp693
g61
(dp694
sg70
g680
sg63
(lp695
g56
(g57
g58
NtRp696
(dp697
g61
(dp698
g69
I3
ssg70
g692
sg63
(lp699
S''
asbasbasbag56
(g72
g58
NtRp700
(dp701
g61
(dp702
sg70
g636
sg63
(lp703
g56
(g77
g58
NtRp704
(dp705
g61
(dp706
g81
g82
ssg70
g700
sg63
(lp707
g333
asbag56
(g77
g58
NtRp708
(dp709
g61
(dp710
g88
g89
ssg70
g700
sg63
(lp711
S':'
asbag56
(g77
g58
NtRp712
(dp713
g61
(dp714
sg70
g700
sg63
(lp715
g56
(g57
g58
NtRp716
(dp717
g61
(dp718
g69
I3
ssg70
g712
sg63
(lp719
S''
asbasbasbag56
(g72
g58
NtRp720
(dp721
g61
(dp722
sg70
g636
sg63
(lp723
g56
(g77
g58
NtRp724
(dp725
g61
(dp726
g81
g82
ssg70
g720
sg63
(lp727
g354
asbag56
(g77
g58
NtRp728
(dp729
g61
(dp730
g88
g89
ssg70
g720
sg63
(lp731
S':'
asbag56
(g77
g58
NtRp732
(dp733
g61
(dp734
sg70
g720
sg63
(lp735
g56
(g57
g58
NtRp736
(dp737
g61
(dp738
g69
I3
ssg70
g732
sg63
(lp739
S''
asbasbasbag56
(g72
g58
NtRp740
(dp741
g61
(dp742
sg70
g636
sg63
(lp743
g56
(g77
g58
NtRp744
(dp745
g61
(dp746
g81
g82
ssg70
g740
sg63
(lp747
g375
asbag56
(g77
g58
NtRp748
(dp749
g61
(dp750
g88
g89
ssg70
g740
sg63
(lp751
S':'
asbag56
(g77
g58
NtRp752
(dp753
g61
(dp754
sg70
g740
sg63
(lp755
g56
(g57
g58
NtRp756
(dp757
g61
(dp758
g69
I3
ssg70
g752
sg63
(lp759
S''
asbasbasbag56
(g72
g58
NtRp760
(dp761
g61
(dp762
sg70
g636
sg63
(lp763
g56
(g77
g58
NtRp764
(dp765
g61
(dp766
g81
g82
ssg70
g760
sg63
(lp767
g396
asbag56
(g77
g58
NtRp768
(dp769
g61
(dp770
g88
g89
ssg70
g760
sg63
(lp771
S':'
asbag56
(g77
g58
NtRp772
(dp773
g61
(dp774
sg70
g760
sg63
(lp775
g56
(g57
g58
NtRp776
(dp777
g61
(dp778
g69
I3
ssg70
g772
sg63
(lp779
S''
asbasbasbag56
(g72
g58
NtRp780
(dp781
g61
(dp782
sg70
g636
sg63
(lp783
g56
(g77
g58
NtRp784
(dp785
g61
(dp786
g81
g82
ssg70
g780
sg63
(lp787
g417
asbag56
(g77
g58
NtRp788
(dp789
g61
(dp790
g88
g89
ssg70
g780
sg63
(lp791
S':'
asbag56
(g77
g58
NtRp792
(dp793
g61
(dp794
sg70
g780
sg63
(lp795
g56
(g57
g58
NtRp796
(dp797
g61
(dp798
g69
I3
ssg70
g792
sg63
(lp799
S''
asbasbasbasbasbasbasbasbasbasbasbag56
(g72
g58
NtRp800
(dp801
g61
(dp802
sg70
g66
sg63
(lp803
g56
(g77
g58
NtRp804
(dp805
g61
(dp806
g81
g82
ssg70
g800
sg63
(lp807
S'env'
p808
asbag56
(g77
g58
NtRp809
(dp810
g61
(dp811
g88
g89
ssg70
g800
sg63
(lp812
S':'
asbag56
(g77
g58
NtRp813
(dp814
g61
(dp815
sg70
g800
sg63
(lp816
g56
(g57
g58
NtRp817
(dp818
g61
(dp819
g69
I5
ssg70
g813
sg63
(lp820
g56
(g65
g58
NtRp821
(dp822
g61
(dp823
g69
I4
ssg70
Nsg63
(lp824
g56
(g72
g58
NtRp825
(dp826
g61
(dp827
sg70
g821
sg63
(lp828
g56
(g77
g58
NtRp829
(dp830
g61
(dp831
g81
g82
ssg70
g825
sg63
(lp832
S'app_folders'
p833
asbag56
(g77
g58
NtRp834
(dp835
g61
(dp836
g88
g89
ssg70
g825
sg63
(lp837
S':'
asbag56
(g77
g58
NtRp838
(dp839
g61
(dp840
sg70
g825
sg63
(lp841
g56
(g57
g58
NtRp842
(dp843
g61
(dp844
g69
I4
ssg70
g838
sg63
(lp845
S"set(['/Users/hellais/Documents/code/sorci/web2py/applications/solofluff/', '/Users/hellais/Documents/code/sorci/web2py/applications/GlobaLeaks/', '/Users/hellais/Documents/code/sorci/web2py/applications/welcome/', '/Users/hellais/Documents/code/sorci/web2py/applications/admin/', '/Users/hellais/Documents/code/sorci/web2py/applications/globaleaks/', '/Users/hellais/Documents/code/sorci/web2py/applications/examples/', '/Users/hellais/Documents/code/sorci/web2py/applications/blabla/'])"
p846
asbasbasbag56
(g72
g58
NtRp847
(dp848
g61
(dp849
sg70
g821
sg63
(lp850
g56
(g77
g58
NtRp851
(dp852
g61
(dp853
g81
g82
ssg70
g847
sg63
(lp854
S'applications_parent'
p855
asbag56
(g77
g58
NtRp856
(dp857
g61
(dp858
g88
g89
ssg70
g847
sg63
(lp859
S':'
asbag56
(g77
g58
NtRp860
(dp861
g61
(dp862
sg70
g847
sg63
(lp863
g56
(g57
g58
NtRp864
(dp865
g61
(dp866
g69
I4
ssg70
g860
sg63
(lp867
S'/Users/hellais/Documents/code/sorci/web2py'
p868
asbasbasbag56
(g72
g58
NtRp869
(dp870
g61
(dp871
sg70
g821
sg63
(lp872
g56
(g77
g58
NtRp873
(dp874
g61
(dp875
g81
g82
ssg70
g869
sg63
(lp876
S'cmd_args'
p877
asbag56
(g77
g58
NtRp878
(dp879
g61
(dp880
g88
g89
ssg70
g869
sg63
(lp881
S':'
asbag56
(g77
g58
NtRp882
(dp883
g61
(dp884
sg70
g869
sg63
(lp885
g56
(g57
g58
NtRp886
(dp887
g61
(dp888
g69
I4
ssg70
g882
sg63
(lp889
g56
(g65
g58
NtRp890
(dp891
g61
(dp892
g69
I3
ssg70
Nsg63
(lp893
sbasbasbasbag56
(g72
g58
NtRp894
(dp895
g61
(dp896
sg70
g821
sg63
(lp897
g56
(g77
g58
NtRp898
(dp899
g61
(dp900
g81
g82
ssg70
g894
sg63
(lp901
S'cmd_options'
p902
asbag56
(g77
g58
NtRp903
(dp904
g61
(dp905
g88
g89
ssg70
g894
sg63
(lp906
S':'
asbag56
(g77
g58
NtRp907
(dp908
g61
(dp909
sg70
g894
sg63
(lp910
g56
(g57
g58
NtRp911
(dp912
g61
(dp913
g69
I4
ssg70
g907
sg63
(lp914
S"<Values at 0x1021aa098: {'verbose': False, 'ip': '127.0.0.1', 'shutdown_timeout': 5, 'taskbar': False, 'port': 8000, 'maxthreads': None, 'softcron': False, 'server_name': 'Jeanne.local', 'bpython': False, 'nogui': False, 'nocron': False, 'extcron': False, 'debuglevel': 30, 'test': None, 'folder': '/Users/hellais/Documents/code/sorci/web2py', 'config': '', 'import_models': False, 'winservice': '', 'shell': None, 'run': '', 'log_filename': 'httpserver.log', 'args': [''], 'profiler_filename': None, 'ssl_private_key': '', 'password': '<ask>', 'request_queue_size': 5, 'ssl_certificate': '', 'cronjob': False, 'plain': False, 'quiet': False, 'interfaces': None, 'minthreads': None, 'timeout': 10, 'numthreads': None, 'nobanner': False, 'pid_filename': 'httpserver.pid'}>"
p915
asbasbasbag56
(g72
g58
NtRp916
(dp917
g61
(dp918
sg70
g821
sg63
(lp919
g56
(g77
g58
NtRp920
(dp921
g61
(dp922
g81
g82
ssg70
g916
sg63
(lp923
S'db_sessions'
p924
asbag56
(g77
g58
NtRp925
(dp926
g61
(dp927
g88
g89
ssg70
g916
sg63
(lp928
S':'
asbag56
(g77
g58
NtRp929
(dp930
g61
(dp931
sg70
g916
sg63
(lp932
g56
(g57
g58
NtRp933
(dp934
g61
(dp935
g69
I4
ssg70
g929
sg63
(lp936
S'set([])'
p937
asbasbasbag56
(g72
g58
NtRp938
(dp939
g61
(dp940
sg70
g821
sg63
(lp941
g56
(g77
g58
NtRp942
(dp943
g61
(dp944
g81
g82
ssg70
g938
sg63
(lp945
S'debugging'
p946
asbag56
(g77
g58
NtRp947
(dp948
g61
(dp949
g88
g89
ssg70
g938
sg63
(lp950
S':'
asbag56
(g77
g58
NtRp951
(dp952
g61
(dp953
sg70
g938
sg63
(lp954
g56
(g57
g58
NtRp955
(dp956
g61
(dp957
g69
I4
ssg70
g951
sg63
(lp958
g99
asbasbasbag56
(g72
g58
NtRp959
(dp960
g61
(dp961
sg70
g821
sg63
(lp962
g56
(g77
g58
NtRp963
(dp964
g61
(dp965
g81
g82
ssg70
g959
sg63
(lp966
S'gluon_parent'
p967
asbag56
(g77
g58
NtRp968
(dp969
g61
(dp970
g88
g89
ssg70
g959
sg63
(lp971
S':'
asbag56
(g77
g58
NtRp972
(dp973
g61
(dp974
sg70
g959
sg63
(lp975
g56
(g57
g58
NtRp976
(dp977
g61
(dp978
g69
I4
ssg70
g972
sg63
(lp979
S'/Users/hellais/Documents/code/sorci/web2py'
p980
asbasbasbag56
(g72
g58
NtRp981
(dp982
g61
(dp983
sg70
g821
sg63
(lp984
g56
(g77
g58
NtRp985
(dp986
g61
(dp987
g81
g82
ssg70
g981
sg63
(lp988
S'http_accept'
p989
asbag56
(g77
g58
NtRp990
(dp991
g61
(dp992
g88
g89
ssg70
g981
sg63
(lp993
S':'
asbag56
(g77
g58
NtRp994
(dp995
g61
(dp996
sg70
g981
sg63
(lp997
g56
(g57
g58
NtRp998
(dp999
g61
(dp1000
g69
I4
ssg70
g994
sg63
(lp1001
S'text/html,application/xhtml+xml,application/xml;q=0.9,*/*;q=0.8'
p1002
asbasbasbag56
(g72
g58
NtRp1003
(dp1004
g61
(dp1005
sg70
g821
sg63
(lp1006
g56
(g77
g58
NtRp1007
(dp1008
g61
(dp1009
g81
g82
ssg70
g1003
sg63
(lp1010
S'http_accept_charset'
p1011
asbag56
(g77
g58
NtRp1012
(dp1013
g61
(dp1014
g88
g89
ssg70
g1003
sg63
(lp1015
S':'
asbag56
(g77
g58
NtRp1016
(dp1017
g61
(dp1018
sg70
g1003
sg63
(lp1019
g56
(g57
g58
NtRp1020
(dp1021
g61
(dp1022
g69
I4
ssg70
g1016
sg63
(lp1023
S'ISO-8859-1,utf-8;q=0.7,*;q=0.7'
p1024
asbasbasbag56
(g72
g58
NtRp1025
(dp1026
g61
(dp1027
sg70
g821
sg63
(lp1028
g56
(g77
g58
NtRp1029
(dp1030
g61
(dp1031
g81
g82
ssg70
g1025
sg63
(lp1032
S'http_accept_encoding'
p1033
asbag56
(g77
g58
NtRp1034
(dp1035
g61
(dp1036
g88
g89
ssg70
g1025
sg63
(lp1037
S':'
asbag56
(g77
g58
NtRp1038
(dp1039
g61
(dp1040
sg70
g1025
sg63
(lp1041
g56
(g57
g58
NtRp1042
(dp1043
g61
(dp1044
g69
I4
ssg70
g1038
sg63
(lp1045
S'gzip, deflate'
p1046
asbasbasbag56
(g72
g58
NtRp1047
(dp1048
g61
(dp1049
sg70
g821
sg63
(lp1050
g56
(g77
g58
NtRp1051
(dp1052
g61
(dp1053
g81
g82
ssg70
g1047
sg63
(lp1054
S'http_accept_language'
p1055
asbag56
(g77
g58
NtRp1056
(dp1057
g61
(dp1058
g88
g89
ssg70
g1047
sg63
(lp1059
S':'
asbag56
(g77
g58
NtRp1060
(dp1061
g61
(dp1062
sg70
g1047
sg63
(lp1063
g56
(g57
g58
NtRp1064
(dp1065
g61
(dp1066
g69
I4
ssg70
g1060
sg63
(lp1067
S'en-us,en;q=0.5'
p1068
asbasbasbag56
(g72
g58
NtRp1069
(dp1070
g61
(dp1071
sg70
g821
sg63
(lp1072
g56
(g77
g58
NtRp1073
(dp1074
g61
(dp1075
g81
g82
ssg70
g1069
sg63
(lp1076
S'http_cache_control'
p1077
asbag56
(g77
g58
NtRp1078
(dp1079
g61
(dp1080
g88
g89
ssg70
g1069
sg63
(lp1081
S':'
asbag56
(g77
g58
NtRp1082
(dp1083
g61
(dp1084
sg70
g1069
sg63
(lp1085
g56
(g57
g58
NtRp1086
(dp1087
g61
(dp1088
g69
I4
ssg70
g1082
sg63
(lp1089
S'max-age=0'
p1090
asbasbasbag56
(g72
g58
NtRp1091
(dp1092
g61
(dp1093
sg70
g821
sg63
(lp1094
g56
(g77
g58
NtRp1095
(dp1096
g61
(dp1097
g81
g82
ssg70
g1091
sg63
(lp1098
S'http_connection'
p1099
asbag56
(g77
g58
NtRp1100
(dp1101
g61
(dp1102
g88
g89
ssg70
g1091
sg63
(lp1103
S':'
asbag56
(g77
g58
NtRp1104
(dp1105
g61
(dp1106
sg70
g1091
sg63
(lp1107
g56
(g57
g58
NtRp1108
(dp1109
g61
(dp1110
g69
I4
ssg70
g1104
sg63
(lp1111
S'keep-alive'
p1112
asbasbasbag56
(g72
g58
NtRp1113
(dp1114
g61
(dp1115
sg70
g821
sg63
(lp1116
g56
(g77
g58
NtRp1117
(dp1118
g61
(dp1119
g81
g82
ssg70
g1113
sg63
(lp1120
S'http_cookie'
p1121
asbag56
(g77
g58
NtRp1122
(dp1123
g61
(dp1124
g88
g89
ssg70
g1113
sg63
(lp1125
S':'
asbag56
(g77
g58
NtRp1126
(dp1127
g61
(dp1128
sg70
g1113
sg63
(lp1129
g56
(g57
g58
NtRp1130
(dp1131
g61
(dp1132
g69
I4
ssg70
g1126
sg63
(lp1133
S'session_id_admin=127.0.0.1-77e5db63-03b8-4585-a9ef-f2500b132b75; session_id_globaleaks=127.0.0.1-c6d5b9b3-1ec7-41c1-8d72-04c21b7a6b11; session_id_blabla=127.0.0.1-c445384e-a3ea-4484-8fe2-52f3295bbb7c'
p1134
asbasbasbag56
(g72
g58
NtRp1135
(dp1136
g61
(dp1137
sg70
g821
sg63
(lp1138
g56
(g77
g58
NtRp1139
(dp1140
g61
(dp1141
g81
g82
ssg70
g1135
sg63
(lp1142
S'http_host'
p1143
asbag56
(g77
g58
NtRp1144
(dp1145
g61
(dp1146
g88
g89
ssg70
g1135
sg63
(lp1147
S':'
asbag56
(g77
g58
NtRp1148
(dp1149
g61
(dp1150
sg70
g1135
sg63
(lp1151
g56
(g57
g58
NtRp1152
(dp1153
g61
(dp1154
g69
I4
ssg70
g1148
sg63
(lp1155
S'127.0.0.1:8000'
p1156
asbasbasbag56
(g72
g58
NtRp1157
(dp1158
g61
(dp1159
sg70
g821
sg63
(lp1160
g56
(g77
g58
NtRp1161
(dp1162
g61
(dp1163
g81
g82
ssg70
g1157
sg63
(lp1164
S'http_user_agent'
p1165
asbag56
(g77
g58
NtRp1166
(dp1167
g61
(dp1168
g88
g89
ssg70
g1157
sg63
(lp1169
S':'
asbag56
(g77
g58
NtRp1170
(dp1171
g61
(dp1172
sg70
g1157
sg63
(lp1173
g56
(g57
g58
NtRp1174
(dp1175
g61
(dp1176
g69
I4
ssg70
g1170
sg63
(lp1177
S'Mozilla/5.0 (Macintosh; Intel Mac OS X 10.6; rv:5.0.1) Gecko/20100101 Firefox/5.0.1'
p1178
asbasbasbag56
(g72
g58
NtRp1179
(dp1180
g61
(dp1181
sg70
g821
sg63
(lp1182
g56
(g77
g58
NtRp1183
(dp1184
g61
(dp1185
g81
g82
ssg70
g1179
sg63
(lp1186
S'is_jython'
p1187
asbag56
(g77
g58
NtRp1188
(dp1189
g61
(dp1190
g88
g89
ssg70
g1179
sg63
(lp1191
S':'
asbag56
(g77
g58
NtRp1192
(dp1193
g61
(dp1194
sg70
g1179
sg63
(lp1195
g56
(g57
g58
NtRp1196
(dp1197
g61
(dp1198
g69
I4
ssg70
g1192
sg63
(lp1199
g99
asbasbasbag56
(g72
g58
NtRp1200
(dp1201
g61
(dp1202
sg70
g821
sg63
(lp1203
g56
(g77
g58
NtRp1204
(dp1205
g61
(dp1206
g81
g82
ssg70
g1200
sg63
(lp1207
S'path_info'
p1208
asbag56
(g77
g58
NtRp1209
(dp1210
g61
(dp1211
g88
g89
ssg70
g1200
sg63
(lp1212
S':'
asbag56
(g77
g58
NtRp1213
(dp1214
g61
(dp1215
sg70
g1200
sg63
(lp1216
g56
(g57
g58
NtRp1217
(dp1218
g61
(dp1219
g69
I4
ssg70
g1213
sg63
(lp1220
S'/globaleaks/'
p1221
asbasbasbag56
(g72
g58
NtRp1222
(dp1223
g61
(dp1224
sg70
g821
sg63
(lp1225
g56
(g77
g58
NtRp1226
(dp1227
g61
(dp1228
g81
g82
ssg70
g1222
sg63
(lp1229
S'query_string'
p1230
asbag56
(g77
g58
NtRp1231
(dp1232
g61
(dp1233
g88
g89
ssg70
g1222
sg63
(lp1234
S':'
asbag56
(g77
g58
NtRp1235
(dp1236
g61
(dp1237
sg70
g1222
sg63
(lp1238
g56
(g57
g58
NtRp1239
(dp1240
g61
(dp1241
g69
I4
ssg70
g1235
sg63
(lp1242
S''
asbasbasbag56
(g72
g58
NtRp1243
(dp1244
g61
(dp1245
sg70
g821
sg63
(lp1246
g56
(g77
g58
NtRp1247
(dp1248
g61
(dp1249
g81
g82
ssg70
g1243
sg63
(lp1250
S'remote_addr'
p1251
asbag56
(g77
g58
NtRp1252
(dp1253
g61
(dp1254
g88
g89
ssg70
g1243
sg63
(lp1255
S':'
asbag56
(g77
g58
NtRp1256
(dp1257
g61
(dp1258
sg70
g1243
sg63
(lp1259
g56
(g57
g58
NtRp1260
(dp1261
g61
(dp1262
g69
I4
ssg70
g1256
sg63
(lp1263
g189
asbasbasbag56
(g72
g58
NtRp1264
(dp1265
g61
(dp1266
sg70
g821
sg63
(lp1267
g56
(g77
g58
NtRp1268
(dp1269
g61
(dp1270
g81
g82
ssg70
g1264
sg63
(lp1271
S'remote_port'
p1272
asbag56
(g77
g58
NtRp1273
(dp1274
g61
(dp1275
g88
g89
ssg70
g1264
sg63
(lp1276
S':'
asbag56
(g77
g58
NtRp1277
(dp1278
g61
(dp1279
sg70
g1264
sg63
(lp1280
g56
(g57
g58
NtRp1281
(dp1282
g61
(dp1283
g69
I4
ssg70
g1277
sg63
(lp1284
S'50383'
p1285
asbasbasbag56
(g72
g58
NtRp1286
(dp1287
g61
(dp1288
sg70
g821
sg63
(lp1289
g56
(g77
g58
NtRp1290
(dp1291
g61
(dp1292
g81
g82
ssg70
g1286
sg63
(lp1293
S'request_method'
p1294
asbag56
(g77
g58
NtRp1295
(dp1296
g61
(dp1297
g88
g89
ssg70
g1286
sg63
(lp1298
S':'
asbag56
(g77
g58
NtRp1299
(dp1300
g61
(dp1301
sg70
g1286
sg63
(lp1302
g56
(g57
g58
NtRp1303
(dp1304
g61
(dp1305
g69
I4
ssg70
g1299
sg63
(lp1306
S'GET'
p1307
asbasbasbag56
(g72
g58
NtRp1308
(dp1309
g61
(dp1310
sg70
g821
sg63
(lp1311
g56
(g77
g58
NtRp1312
(dp1313
g61
(dp1314
g81
g82
ssg70
g1308
sg63
(lp1315
S'script_name'
p1316
asbag56
(g77
g58
NtRp1317
(dp1318
g61
(dp1319
g88
g89
ssg70
g1308
sg63
(lp1320
S':'
asbag56
(g77
g58
NtRp1321
(dp1322
g61
(dp1323
sg70
g1308
sg63
(lp1324
g56
(g57
g58
NtRp1325
(dp1326
g61
(dp1327
g69
I4
ssg70
g1321
sg63
(lp1328
S''
asbasbasbag56
(g72
g58
NtRp1329
(dp1330
g61
(dp1331
sg70
g821
sg63
(lp1332
g56
(g77
g58
NtRp1333
(dp1334
g61
(dp1335
g81
g82
ssg70
g1329
sg63
(lp1336
S'server_name'
p1337
asbag56
(g77
g58
NtRp1338
(dp1339
g61
(dp1340
g88
g89
ssg70
g1329
sg63
(lp1341
S':'
asbag56
(g77
g58
NtRp1342
(dp1343
g61
(dp1344
sg70
g1329
sg63
(lp1345
g56
(g57
g58
NtRp1346
(dp1347
g61
(dp1348
g69
I4
ssg70
g1342
sg63
(lp1349
S'Jeanne.local'
p1350
asbasbasbag56
(g72
g58
NtRp1351
(dp1352
g61
(dp1353
sg70
g821
sg63
(lp1354
g56
(g77
g58
NtRp1355
(dp1356
g61
(dp1357
g81
g82
ssg70
g1351
sg63
(lp1358
S'server_port'
p1359
asbag56
(g77
g58
NtRp1360
(dp1361
g61
(dp1362
g88
g89
ssg70
g1351
sg63
(lp1363
S':'
asbag56
(g77
g58
NtRp1364
(dp1365
g61
(dp1366
sg70
g1351
sg63
(lp1367
g56
(g57
g58
NtRp1368
(dp1369
g61
(dp1370
g69
I4
ssg70
g1364
sg63
(lp1371
S'8000'
p1372
asbasbasbag56
(g72
g58
NtRp1373
(dp1374
g61
(dp1375
sg70
g821
sg63
(lp1376
g56
(g77
g58
NtRp1377
(dp1378
g61
(dp1379
g81
g82
ssg70
g1373
sg63
(lp1380
S'server_protocol'
p1381
asbag56
(g77
g58
NtRp1382
(dp1383
g61
(dp1384
g88
g89
ssg70
g1373
sg63
(lp1385
S':'
asbag56
(g77
g58
NtRp1386
(dp1387
g61
(dp1388
sg70
g1373
sg63
(lp1389
g56
(g57
g58
NtRp1390
(dp1391
g61
(dp1392
g69
I4
ssg70
g1386
sg63
(lp1393
S'HTTP/1.1'
p1394
asbasbasbag56
(g72
g58
NtRp1395
(dp1396
g61
(dp1397
sg70
g821
sg63
(lp1398
g56
(g77
g58
NtRp1399
(dp1400
g61
(dp1401
g81
g82
ssg70
g1395
sg63
(lp1402
S'server_software'
p1403
asbag56
(g77
g58
NtRp1404
(dp1405
g61
(dp1406
g88
g89
ssg70
g1395
sg63
(lp1407
S':'
asbag56
(g77
g58
NtRp1408
(dp1409
g61
(dp1410
sg70
g1395
sg63
(lp1411
g56
(g57
g58
NtRp1412
(dp1413
g61
(dp1414
g69
I4
ssg70
g1408
sg63
(lp1415
S'Rocket 1.2.2'
p1416
asbasbasbag56
(g72
g58
NtRp1417
(dp1418
g61
(dp1419
sg70
g821
sg63
(lp1420
g56
(g77
g58
NtRp1421
(dp1422
g61
(dp1423
g81
g82
ssg70
g1417
sg63
(lp1424
S'web2py_crontype'
p1425
asbag56
(g77
g58
NtRp1426
(dp1427
g61
(dp1428
g88
g89
ssg70
g1417
sg63
(lp1429
S':'
asbag56
(g77
g58
NtRp1430
(dp1431
g61
(dp1432
sg70
g1417
sg63
(lp1433
g56
(g57
g58
NtRp1434
(dp1435
g61
(dp1436
g69
I4
ssg70
g1430
sg63
(lp1437
S'hard'
p1438
asbasbasbag56
(g72
g58
NtRp1439
(dp1440
g61
(dp1441
sg70
g821
sg63
(lp1442
g56
(g77
g58
NtRp1443
(dp1444
g61
(dp1445
g81
g82
ssg70
g1439
sg63
(lp1446
S'web2py_path'
p1447
asbag56
(g77
g58
NtRp1448
(dp1449
g61
(dp1450
g88
g89
ssg70
g1439
sg63
(lp1451
S':'
asbag56
(g77
g58
NtRp1452
(dp1453
g61
(dp1454
sg70
g1439
sg63
(lp1455
g56
(g57
g58
NtRp1456
(dp1457
g61
(dp1458
g69
I4
ssg70
g1452
sg63
(lp1459
g868
asbasbasbag56
(g72
g58
NtRp1460
(dp1461
g61
(dp1462
sg70
g821
sg63
(lp1463
g56
(g77
g58
NtRp1464
(dp1465
g61
(dp1466
g81
g82
ssg70
g1460
sg63
(lp1467
S'web2py_version'
p1468
asbag56
(g77
g58
NtRp1469
(dp1470
g61
(dp1471
g88
g89
ssg70
g1460
sg63
(lp1472
S':'
asbag56
(g77
g58
NtRp1473
(dp1474
g61
(dp1475
sg70
g1460
sg63
(lp1476
g56
(g57
g58
NtRp1477
(dp1478
g61
(dp1479
g69
I4
ssg70
g1473
sg63
(lp1480
S'Version 1.98.2 (2011-08-04 00:47:09)\n'
p1481
asbasbasbag56
(g72
g58
NtRp1482
(dp1483
g61
(dp1484
sg70
g821
sg63
(lp1485
g56
(g77
g58
NtRp1486
(dp1487
g61
(dp1488
g81
g82
ssg70
g1482
sg63
(lp1489
S'wsgi_errors'
p1490
asbag56
(g77
g58
NtRp1491
(dp1492
g61
(dp1493
g88
g89
ssg70
g1482
sg63
(lp1494
S':'
asbag56
(g77
g58
NtRp1495
(dp1496
g61
(dp1497
sg70
g1482
sg63
(lp1498
g56
(g57
g58
NtRp1499
(dp1500
g61
(dp1501
g69
I4
ssg70
g1495
sg63
(lp1502
S"<open file '<stderr>', mode 'w' at 0x100287270>"
p1503
asbasbasbag56
(g72
g58
NtRp1504
(dp1505
g61
(dp1506
sg70
g821
sg63
(lp1507
g56
(g77
g58
NtRp1508
(dp1509
g61
(dp1510
g81
g82
ssg70
g1504
sg63
(lp1511
S'wsgi_file_wrapper'
p1512
asbag56
(g77
g58
NtRp1513
(dp1514
g61
(dp1515
g88
g89
ssg70
g1504
sg63
(lp1516
S':'
asbag56
(g77
g58
NtRp1517
(dp1518
g61
(dp1519
sg70
g1504
sg63
(lp1520
g56
(g57
g58
NtRp1521
(dp1522
g61
(dp1523
g69
I4
ssg70
g1517
sg63
(lp1524
S'<class gluon.rocket.FileWrapper at 0x101c01668>'
p1525
asbasbasbag56
(g72
g58
NtRp1526
(dp1527
g61
(dp1528
sg70
g821
sg63
(lp1529
g56
(g77
g58
NtRp1530
(dp1531
g61
(dp1532
g81
g82
ssg70
g1526
sg63
(lp1533
S'wsgi_input'
p1534
asbag56
(g77
g58
NtRp1535
(dp1536
g61
(dp1537
g88
g89
ssg70
g1526
sg63
(lp1538
S':'
asbag56
(g77
g58
NtRp1539
(dp1540
g61
(dp1541
sg70
g1526
sg63
(lp1542
g56
(g57
g58
NtRp1543
(dp1544
g61
(dp1545
g69
I4
ssg70
g1539
sg63
(lp1546
S'<socket._fileobject object at 0x103de37d0>'
p1547
asbasbasbag56
(g72
g58
NtRp1548
(dp1549
g61
(dp1550
sg70
g821
sg63
(lp1551
g56
(g77
g58
NtRp1552
(dp1553
g61
(dp1554
g81
g82
ssg70
g1548
sg63
(lp1555
S'wsgi_multiprocess'
p1556
asbag56
(g77
g58
NtRp1557
(dp1558
g61
(dp1559
g88
g89
ssg70
g1548
sg63
(lp1560
S':'
asbag56
(g77
g58
NtRp1561
(dp1562
g61
(dp1563
sg70
g1548
sg63
(lp1564
g56
(g57
g58
NtRp1565
(dp1566
g61
(dp1567
g69
I4
ssg70
g1561
sg63
(lp1568
g99
asbasbasbag56
(g72
g58
NtRp1569
(dp1570
g61
(dp1571
sg70
g821
sg63
(lp1572
g56
(g77
g58
NtRp1573
(dp1574
g61
(dp1575
g81
g82
ssg70
g1569
sg63
(lp1576
S'wsgi_multithread'
p1577
asbag56
(g77
g58
NtRp1578
(dp1579
g61
(dp1580
g88
g89
ssg70
g1569
sg63
(lp1581
S':'
asbag56
(g77
g58
NtRp1582
(dp1583
g61
(dp1584
sg70
g1569
sg63
(lp1585
g56
(g57
g58
NtRp1586
(dp1587
g61
(dp1588
g69
I4
ssg70
g1582
sg63
(lp1589
S'True'
p1590
asbasbasbag56
(g72
g58
NtRp1591
(dp1592
g61
(dp1593
sg70
g821
sg63
(lp1594
g56
(g77
g58
NtRp1595
(dp1596
g61
(dp1597
g81
g82
ssg70
g1591
sg63
(lp1598
S'wsgi_run_once'
p1599
asbag56
(g77
g58
NtRp1600
(dp1601
g61
(dp1602
g88
g89
ssg70
g1591
sg63
(lp1603
S':'
asbag56
(g77
g58
NtRp1604
(dp1605
g61
(dp1606
sg70
g1591
sg63
(lp1607
g56
(g57
g58
NtRp1608
(dp1609
g61
(dp1610
g69
I4
ssg70
g1604
sg63
(lp1611
g99
asbasbasbag56
(g72
g58
NtRp1612
(dp1613
g61
(dp1614
sg70
g821
sg63
(lp1615
g56
(g77
g58
NtRp1616
(dp1617
g61
(dp1618
g81
g82
ssg70
g1612
sg63
(lp1619
S'wsgi_url_scheme'
p1620
asbag56
(g77
g58
NtRp1621
(dp1622
g61
(dp1623
g88
g89
ssg70
g1612
sg63
(lp1624
S':'
asbag56
(g77
g58
NtRp1625
(dp1626
g61
(dp1627
sg70
g1612
sg63
(lp1628
g56
(g57
g58
NtRp1629
(dp1630
g61
(dp1631
g69
I4
ssg70
g1625
sg63
(lp1632
S'http'
p1633
asbasbasbag56
(g72
g58
NtRp1634
(dp1635
g61
(dp1636
sg70
g821
sg63
(lp1637
g56
(g77
g58
NtRp1638
(dp1639
g61
(dp1640
g81
g82
ssg70
g1634
sg63
(lp1641
S'wsgi_version'
p1642
asbag56
(g77
g58
NtRp1643
(dp1644
g61
(dp1645
g88
g89
ssg70
g1634
sg63
(lp1646
S':'
asbag56
(g77
g58
NtRp1647
(dp1648
g61
(dp1649
sg70
g1634
sg63
(lp1650
g56
(g57
g58
NtRp1651
(dp1652
g61
(dp1653
g69
I4
ssg70
g1647
sg63
(lp1654
g56
(g65
g58
NtRp1655
(dp1656
g61
(dp1657
g69
I3
ssg70
Nsg63
(lp1658
g56
(g72
g58
NtRp1659
(dp1660
g61
(dp1661
sg70
g1655
sg63
(lp1662
g56
(g77
g58
NtRp1663
(dp1664
g61
(dp1665
sg70
g1659
sg63
(lp1666
g56
(g57
g58
NtRp1667
(dp1668
g61
(dp1669
g69
I3
ssg70
g1663
sg63
(lp1670
S'1'
asbasbasbag56
(g72
g58
NtRp1671
(dp1672
g61
(dp1673
sg70
g1655
sg63
(lp1674
g56
(g77
g58
NtRp1675
(dp1676
g61
(dp1677
sg70
g1671
sg63
(lp1678
g56
(g57
g58
NtRp1679
(dp1680
g61
(dp1681
g69
I3
ssg70
g1675
sg63
(lp1682
S'0'
asbasbasbasbasbasbasbasbasbasbasbag56
(g72
g58
NtRp1683
(dp1684
g61
(dp1685
sg70
g66
sg63
(lp1686
g56
(g77
g58
NtRp1687
(dp1688
g61
(dp1689
g81
g82
ssg70
g1683
sg63
(lp1690
S'extension'
p1691
asbag56
(g77
g58
NtRp1692
(dp1693
g61
(dp1694
g88
g89
ssg70
g1683
sg63
(lp1695
S':'
asbag56
(g77
g58
NtRp1696
(dp1697
g61
(dp1698
sg70
g1683
sg63
(lp1699
g56
(g57
g58
NtRp1700
(dp1701
g61
(dp1702
g69
I5
ssg70
g1696
sg63
(lp1703
S'html'
p1704
asbasbasbag56
(g72
g58
NtRp1705
(dp1706
g61
(dp1707
sg70
g66
sg63
(lp1708
g56
(g77
g58
NtRp1709
(dp1710
g61
(dp1711
g81
g82
ssg70
g1705
sg63
(lp1712
S'folder'
p1713
asbag56
(g77
g58
NtRp1714
(dp1715
g61
(dp1716
g88
g89
ssg70
g1705
sg63
(lp1717
S':'
asbag56
(g77
g58
NtRp1718
(dp1719
g61
(dp1720
sg70
g1705
sg63
(lp1721
g56
(g57
g58
NtRp1722
(dp1723
g61
(dp1724
g69
I5
ssg70
g1718
sg63
(lp1725
S'/Users/hellais/Documents/code/sorci/web2py/applications/globaleaks/'
p1726
asbasbasbag56
(g72
g58
NtRp1727
(dp1728
g61
(dp1729
sg70
g66
sg63
(lp1730
g56
(g77
g58
NtRp1731
(dp1732
g61
(dp1733
g81
g82
ssg70
g1727
sg63
(lp1734
S'function'
p1735
asbag56
(g77
g58
NtRp1736
(dp1737
g61
(dp1738
g88
g89
ssg70
g1727
sg63
(lp1739
S':'
asbag56
(g77
g58
NtRp1740
(dp1741
g61
(dp1742
sg70
g1727
sg63
(lp1743
g56
(g57
g58
NtRp1744
(dp1745
g61
(dp1746
g69
I5
ssg70
g1740
sg63
(lp1747
S'index'
p1748
asbasbasbag56
(g72
g58
NtRp1749
(dp1750
g61
(dp1751
sg70
g66
sg63
(lp1752
g56
(g77
g58
NtRp1753
(dp1754
g61
(dp1755
g81
g82
ssg70
g1749
sg63
(lp1756
S'get_vars'
p1757
asbag56
(g77
g58
NtRp1758
(dp1759
g61
(dp1760
g88
g89
ssg70
g1749
sg63
(lp1761
S':'
asbag56
(g77
g58
NtRp1762
(dp1763
g61
(dp1764
sg70
g1749
sg63
(lp1765
g56
(g57
g58
NtRp1766
(dp1767
g61
(dp1768
g69
I5
ssg70
g1762
sg63
(lp1769
g56
(g65
g58
NtRp1770
(dp1771
g61
(dp1772
g69
I4
ssg70
Nsg63
(lp1773
sbasbasbasbag56
(g72
g58
NtRp1774
(dp1775
g61
(dp1776
sg70
g66
sg63
(lp1777
g56
(g77
g58
NtRp1778
(dp1779
g61
(dp1780
g81
g82
ssg70
g1774
sg63
(lp1781
S'is_https'
p1782
asbag56
(g77
g58
NtRp1783
(dp1784
g61
(dp1785
g88
g89
ssg70
g1774
sg63
(lp1786
S':'
asbag56
(g77
g58
NtRp1787
(dp1788
g61
(dp1789
sg70
g1774
sg63
(lp1790
g56
(g57
g58
NtRp1791
(dp1792
g61
(dp1793
g69
I5
ssg70
g1787
sg63
(lp1794
g99
asbasbasbag56
(g72
g58
NtRp1795
(dp1796
g61
(dp1797
sg70
g66
sg63
(lp1798
g56
(g77
g58
NtRp1799
(dp1800
g61
(dp1801
g81
g82
ssg70
g1795
sg63
(lp1802
S'is_local'
p1803
asbag56
(g77
g58
NtRp1804
(dp1805
g61
(dp1806
g88
g89
ssg70
g1795
sg63
(lp1807
S':'
asbag56
(g77
g58
NtRp1808
(dp1809
g61
(dp1810
sg70
g1795
sg63
(lp1811
g56
(g57
g58
NtRp1812
(dp1813
g61
(dp1814
g69
I5
ssg70
g1808
sg63
(lp1815
g1590
asbasbasbag56
(g72
g58
NtRp1816
(dp1817
g61
(dp1818
sg70
g66
sg63
(lp1819
g56
(g77
g58
NtRp1820
(dp1821
g61
(dp1822
g81
g82
ssg70
g1816
sg63
(lp1823
S'is_restful'
p1824
asbag56
(g77
g58
NtRp1825
(dp1826
g61
(dp1827
g88
g89
ssg70
g1816
sg63
(lp1828
S':'
asbag56
(g77
g58
NtRp1829
(dp1830
g61
(dp1831
sg70
g1816
sg63
(lp1832
g56
(g57
g58
NtRp1833
(dp1834
g61
(dp1835
g69
I5
ssg70
g1829
sg63
(lp1836
g99
asbasbasbag56
(g72
g58
NtRp1837
(dp1838
g61
(dp1839
sg70
g66
sg63
(lp1840
g56
(g77
g58
NtRp1841
(dp1842
g61
(dp1843
g81
g82
ssg70
g1837
sg63
(lp1844
S'now'
p1845
asbag56
(g77
g58
NtRp1846
(dp1847
g61
(dp1848
g88
g89
ssg70
g1837
sg63
(lp1849
S':'
asbag56
(g77
g58
NtRp1850
(dp1851
g61
(dp1852
sg70
g1837
sg63
(lp1853
g56
(g57
g58
NtRp1854
(dp1855
g61
(dp1856
g69
I5
ssg70
g1850
sg63
(lp1857
S'datetime.datetime(2011, 8, 27, 0, 24, 58, 24406)'
p1858
asbasbasbag56
(g72
g58
NtRp1859
(dp1860
g61
(dp1861
sg70
g66
sg63
(lp1862
g56
(g77
g58
NtRp1863
(dp1864
g61
(dp1865
g81
g82
ssg70
g1859
sg63
(lp1866
S'post_vars'
p1867
asbag56
(g77
g58
NtRp1868
(dp1869
g61
(dp1870
g88
g89
ssg70
g1859
sg63
(lp1871
S':'
asbag56
(g77
g58
NtRp1872
(dp1873
g61
(dp1874
sg70
g1859
sg63
(lp1875
g56
(g57
g58
NtRp1876
(dp1877
g61
(dp1878
g69
I5
ssg70
g1872
sg63
(lp1879
g56
(g65
g58
NtRp1880
(dp1881
g61
(dp1882
g69
I4
ssg70
Nsg63
(lp1883
sbasbasbasbag56
(g72
g58
NtRp1884
(dp1885
g61
(dp1886
sg70
g66
sg63
(lp1887
g56
(g77
g58
NtRp1888
(dp1889
g61
(dp1890
g81
g82
ssg70
g1884
sg63
(lp1891
S'url'
p1892
asbag56
(g77
g58
NtRp1893
(dp1894
g61
(dp1895
g88
g89
ssg70
g1884
sg63
(lp1896
S':'
asbag56
(g77
g58
NtRp1897
(dp1898
g61
(dp1899
sg70
g1884
sg63
(lp1900
g56
(g57
g58
NtRp1901
(dp1902
g61
(dp1903
g69
I5
ssg70
g1897
sg63
(lp1904
S'/globaleaks/default/index'
p1905
asbasbasbag56
(g72
g58
NtRp1906
(dp1907
g61
(dp1908
sg70
g66
sg63
(lp1909
g56
(g77
g58
NtRp1910
(dp1911
g61
(dp1912
g81
g82
ssg70
g1906
sg63
(lp1913
S'uuid'
p1914
asbag56
(g77
g58
NtRp1915
(dp1916
g61
(dp1917
g88
g89
ssg70
g1906
sg63
(lp1918
S':'
asbag56
(g77
g58
NtRp1919
(dp1920
g61
(dp1921
sg70
g1906
sg63
(lp1922
g56
(g57
g58
NtRp1923
(dp1924
g61
(dp1925
g69
I5
ssg70
g1919
sg63
(lp1926
S'globaleaks/127.0.0.1.2011-08-27.00-24-58.fdf5ff1e-f9d2-4950-9e07-7971fc06f8ed'
p1927
asbasbasbag56
(g72
g58
NtRp1928
(dp1929
g61
(dp1930
sg70
g66
sg63
(lp1931
g56
(g77
g58
NtRp1932
(dp1933
g61
(dp1934
g81
g82
ssg70
g1928
sg63
(lp1935
S'vars'
p1936
asbag56
(g77
g58
NtRp1937
(dp1938
g61
(dp1939
g88
g89
ssg70
g1928
sg63
(lp1940
S':'
asbag56
(g77
g58
NtRp1941
(dp1942
g61
(dp1943
sg70
g1928
sg63
(lp1944
g56
(g57
g58
NtRp1945
(dp1946
g61
(dp1947
g69
I5
ssg70
g1941
sg63
(lp1948
g56
(g65
g58
NtRp1949
(dp1950
g61
(dp1951
g69
I4
ssg70
Nsg63
(lp1952
sbasbasbasbag56
(g72
g58
NtRp1953
(dp1954
g61
(dp1955
sg70
g66
sg63
(lp1956
g56
(g77
g58
NtRp1957
(dp1958
g61
(dp1959
g81
g82
ssg70
g1953
sg63
(lp1960
S'wsgi'
p1961
asbag56
(g77
g58
NtRp1962
(dp1963
g61
(dp1964
g88
g89
ssg70
g1953
sg63
(lp1965
S':'
asbag56
(g77
g58
NtRp1966
(dp1967
g61
(dp1968
sg70
g1953
sg63
(lp1969
g56
(g57
g58
NtRp1970
(dp1971
g61
(dp1972
g69
I5
ssg70
g1966
sg63
(lp1973
g56
(g65
g58
NtRp1974
(dp1975
g61
(dp1976
g69
I4
ssg70
Nsg63
(lp1977
g56
(g72
g58
NtRp1978
(dp1979
g61
(dp1980
sg70
g1974
sg63
(lp1981
g56
(g77
g58
NtRp1982
(dp1983
g61
(dp1984
g81
g82
ssg70
g1978
sg63
(lp1985
S'environ'
p1986
asbag56
(g77
g58
NtRp1987
(dp1988
g61
(dp1989
g88
g89
ssg70
g1978
sg63
(lp1990
S':'
asbag56
(g77
g58
NtRp1991
(dp1992
g61
(dp1993
sg70
g1978
sg63
(lp1994
g56
(g57
g58
NtRp1995
(dp1996
g61
(dp1997
g69
I4
ssg70
g1991
sg63
(lp1998
g56
(g65
g58
NtRp1999
(dp2000
g61
(dp2001
g69
I3
ssg70
Nsg63
(lp2002
g56
(g72
g58
NtRp2003
(dp2004
g61
(dp2005
sg70
g1999
sg63
(lp2006
g56
(g77
g58
NtRp2007
(dp2008
g61
(dp2009
g81
g82
ssg70
g2003
sg63
(lp2010
S'HTTP_ACCEPT'
p2011
asbag56
(g77
g58
NtRp2012
(dp2013
g61
(dp2014
g88
g89
ssg70
g2003
sg63
(lp2015
S':'
asbag56
(g77
g58
NtRp2016
(dp2017
g61
(dp2018
sg70
g2003
sg63
(lp2019
g56
(g57
g58
NtRp2020
(dp2021
g61
(dp2022
g69
I3
ssg70
g2016
sg63
(lp2023
g1002
asbasbasbag56
(g72
g58
NtRp2024
(dp2025
g61
(dp2026
sg70
g1999
sg63
(lp2027
g56
(g77
g58
NtRp2028
(dp2029
g61
(dp2030
g81
g82
ssg70
g2024
sg63
(lp2031
S'HTTP_ACCEPT_CHARSET'
p2032
asbag56
(g77
g58
NtRp2033
(dp2034
g61
(dp2035
g88
g89
ssg70
g2024
sg63
(lp2036
S':'
asbag56
(g77
g58
NtRp2037
(dp2038
g61
(dp2039
sg70
g2024
sg63
(lp2040
g56
(g57
g58
NtRp2041
(dp2042
g61
(dp2043
g69
I3
ssg70
g2037
sg63
(lp2044
g1024
asbasbasbag56
(g72
g58
NtRp2045
(dp2046
g61
(dp2047
sg70
g1999
sg63
(lp2048
g56
(g77
g58
NtRp2049
(dp2050
g61
(dp2051
g81
g82
ssg70
g2045
sg63
(lp2052
S'HTTP_ACCEPT_ENCODING'
p2053
asbag56
(g77
g58
NtRp2054
(dp2055
g61
(dp2056
g88
g89
ssg70
g2045
sg63
(lp2057
S':'
asbag56
(g77
g58
NtRp2058
(dp2059
g61
(dp2060
sg70
g2045
sg63
(lp2061
g56
(g57
g58
NtRp2062
(dp2063
g61
(dp2064
g69
I3
ssg70
g2058
sg63
(lp2065
g1046
asbasbasbag56
(g72
g58
NtRp2066
(dp2067
g61
(dp2068
sg70
g1999
sg63
(lp2069
g56
(g77
g58
NtRp2070
(dp2071
g61
(dp2072
g81
g82
ssg70
g2066
sg63
(lp2073
S'HTTP_ACCEPT_LANGUAGE'
p2074
asbag56
(g77
g58
NtRp2075
(dp2076
g61
(dp2077
g88
g89
ssg70
g2066
sg63
(lp2078
S':'
asbag56
(g77
g58
NtRp2079
(dp2080
g61
(dp2081
sg70
g2066
sg63
(lp2082
g56
(g57
g58
NtRp2083
(dp2084
g61
(dp2085
g69
I3
ssg70
g2079
sg63
(lp2086
g1068
asbasbasbag56
(g72
g58
NtRp2087
(dp2088
g61
(dp2089
sg70
g1999
sg63
(lp2090
g56
(g77
g58
NtRp2091
(dp2092
g61
(dp2093
g81
g82
ssg70
g2087
sg63
(lp2094
S'HTTP_CACHE_CONTROL'
p2095
asbag56
(g77
g58
NtRp2096
(dp2097
g61
(dp2098
g88
g89
ssg70
g2087
sg63
(lp2099
S':'
asbag56
(g77
g58
NtRp2100
(dp2101
g61
(dp2102
sg70
g2087
sg63
(lp2103
g56
(g57
g58
NtRp2104
(dp2105
g61
(dp2106
g69
I3
ssg70
g2100
sg63
(lp2107
g1090
asbasbasbag56
(g72
g58
NtRp2108
(dp2109
g61
(dp2110
sg70
g1999
sg63
(lp2111
g56
(g77
g58
NtRp2112
(dp2113
g61
(dp2114
g81
g82
ssg70
g2108
sg63
(lp2115
S'HTTP_CONNECTION'
p2116
asbag56
(g77
g58
NtRp2117
(dp2118
g61
(dp2119
g88
g89
ssg70
g2108
sg63
(lp2120
S':'
asbag56
(g77
g58
NtRp2121
(dp2122
g61
(dp2123
sg70
g2108
sg63
(lp2124
g56
(g57
g58
NtRp2125
(dp2126
g61
(dp2127
g69
I3
ssg70
g2121
sg63
(lp2128
g1112
asbasbasbag56
(g72
g58
NtRp2129
(dp2130
g61
(dp2131
sg70
g1999
sg63
(lp2132
g56
(g77
g58
NtRp2133
(dp2134
g61
(dp2135
g81
g82
ssg70
g2129
sg63
(lp2136
S'HTTP_COOKIE'
p2137
asbag56
(g77
g58
NtRp2138
(dp2139
g61
(dp2140
g88
g89
ssg70
g2129
sg63
(lp2141
S':'
asbag56
(g77
g58
NtRp2142
(dp2143
g61
(dp2144
sg70
g2129
sg63
(lp2145
g56
(g57
g58
NtRp2146
(dp2147
g61
(dp2148
g69
I3
ssg70
g2142
sg63
(lp2149
g1134
asbasbasbag56
(g72
g58
NtRp2150
(dp2151
g61
(dp2152
sg70
g1999
sg63
(lp2153
g56
(g77
g58
NtRp2154
(dp2155
g61
(dp2156
g81
g82
ssg70
g2150
sg63
(lp2157
S'HTTP_HOST'
p2158
asbag56
(g77
g58
NtRp2159
(dp2160
g61
(dp2161
g88
g89
ssg70
g2150
sg63
(lp2162
S':'
asbag56
(g77
g58
NtRp2163
(dp2164
g61
(dp2165
sg70
g2150
sg63
(lp2166
g56
(g57
g58
NtRp2167
(dp2168
g61
(dp2169
g69
I3
ssg70
g2163
sg63
(lp2170
g1156
asbasbasbag56
(g72
g58
NtRp2171
(dp2172
g61
(dp2173
sg70
g1999
sg63
(lp2174
g56
(g77
g58
NtRp2175
(dp2176
g61
(dp2177
g81
g82
ssg70
g2171
sg63
(lp2178
S'HTTP_USER_AGENT'
p2179
asbag56
(g77
g58
NtRp2180
(dp2181
g61
(dp2182
g88
g89
ssg70
g2171
sg63
(lp2183
S':'
asbag56
(g77
g58
NtRp2184
(dp2185
g61
(dp2186
sg70
g2171
sg63
(lp2187
g56
(g57
g58
NtRp2188
(dp2189
g61
(dp2190
g69
I3
ssg70
g2184
sg63
(lp2191
g1178
asbasbasbag56
(g72
g58
NtRp2192
(dp2193
g61
(dp2194
sg70
g1999
sg63
(lp2195
g56
(g77
g58
NtRp2196
(dp2197
g61
(dp2198
g81
g82
ssg70
g2192
sg63
(lp2199
S'PATH_INFO'
p2200
asbag56
(g77
g58
NtRp2201
(dp2202
g61
(dp2203
g88
g89
ssg70
g2192
sg63
(lp2204
S':'
asbag56
(g77
g58
NtRp2205
(dp2206
g61
(dp2207
sg70
g2192
sg63
(lp2208
g56
(g57
g58
NtRp2209
(dp2210
g61
(dp2211
g69
I3
ssg70
g2205
sg63
(lp2212
g1221
asbasbasbag56
(g72
g58
NtRp2213
(dp2214
g61
(dp2215
sg70
g1999
sg63
(lp2216
g56
(g77
g58
NtRp2217
(dp2218
g61
(dp2219
g81
g82
ssg70
g2213
sg63
(lp2220
S'QUERY_STRING'
p2221
asbag56
(g77
g58
NtRp2222
(dp2223
g61
(dp2224
g88
g89
ssg70
g2213
sg63
(lp2225
S':'
asbag56
(g77
g58
NtRp2226
(dp2227
g61
(dp2228
sg70
g2213
sg63
(lp2229
g56
(g57
g58
NtRp2230
(dp2231
g61
(dp2232
g69
I3
ssg70
g2226
sg63
(lp2233
S''
asbasbasbag56
(g72
g58
NtRp2234
(dp2235
g61
(dp2236
sg70
g1999
sg63
(lp2237
g56
(g77
g58
NtRp2238
(dp2239
g61
(dp2240
g81
g82
ssg70
g2234
sg63
(lp2241
S'REMOTE_ADDR'
p2242
asbag56
(g77
g58
NtRp2243
(dp2244
g61
(dp2245
g88
g89
ssg70
g2234
sg63
(lp2246
S':'
asbag56
(g77
g58
NtRp2247
(dp2248
g61
(dp2249
sg70
g2234
sg63
(lp2250
g56
(g57
g58
NtRp2251
(dp2252
g61
(dp2253
g69
I3
ssg70
g2247
sg63
(lp2254
g189
asbasbasbag56
(g72
g58
NtRp2255
(dp2256
g61
(dp2257
sg70
g1999
sg63
(lp2258
g56
(g77
g58
NtRp2259
(dp2260
g61
(dp2261
g81
g82
ssg70
g2255
sg63
(lp2262
S'REMOTE_PORT'
p2263
asbag56
(g77
g58
NtRp2264
(dp2265
g61
(dp2266
g88
g89
ssg70
g2255
sg63
(lp2267
S':'
asbag56
(g77
g58
NtRp2268
(dp2269
g61
(dp2270
sg70
g2255
sg63
(lp2271
g56
(g57
g58
NtRp2272
(dp2273
g61
(dp2274
g69
I3
ssg70
g2268
sg63
(lp2275
g1285
asbasbasbag56
(g72
g58
NtRp2276
(dp2277
g61
(dp2278
sg70
g1999
sg63
(lp2279
g56
(g77
g58
NtRp2280
(dp2281
g61
(dp2282
g81
g82
ssg70
g2276
sg63
(lp2283
S'REQUEST_METHOD'
p2284
asbag56
(g77
g58
NtRp2285
(dp2286
g61
(dp2287
g88
g89
ssg70
g2276
sg63
(lp2288
S':'
asbag56
(g77
g58
NtRp2289
(dp2290
g61
(dp2291
sg70
g2276
sg63
(lp2292
g56
(g57
g58
NtRp2293
(dp2294
g61
(dp2295
g69
I3
ssg70
g2289
sg63
(lp2296
g1307
asbasbasbag56
(g72
g58
NtRp2297
(dp2298
g61
(dp2299
sg70
g1999
sg63
(lp2300
g56
(g77
g58
NtRp2301
(dp2302
g61
(dp2303
g81
g82
ssg70
g2297
sg63
(lp2304
S'SCRIPT_NAME'
p2305
asbag56
(g77
g58
NtRp2306
(dp2307
g61
(dp2308
g88
g89
ssg70
g2297
sg63
(lp2309
S':'
asbag56
(g77
g58
NtRp2310
(dp2311
g61
(dp2312
sg70
g2297
sg63
(lp2313
g56
(g57
g58
NtRp2314
(dp2315
g61
(dp2316
g69
I3
ssg70
g2310
sg63
(lp2317
S''
asbasbasbag56
(g72
g58
NtRp2318
(dp2319
g61
(dp2320
sg70
g1999
sg63
(lp2321
g56
(g77
g58
NtRp2322
(dp2323
g61
(dp2324
g81
g82
ssg70
g2318
sg63
(lp2325
S'SERVER_NAME'
p2326
asbag56
(g77
g58
NtRp2327
(dp2328
g61
(dp2329
g88
g89
ssg70
g2318
sg63
(lp2330
S':'
asbag56
(g77
g58
NtRp2331
(dp2332
g61
(dp2333
sg70
g2318
sg63
(lp2334
g56
(g57
g58
NtRp2335
(dp2336
g61
(dp2337
g69
I3
ssg70
g2331
sg63
(lp2338
g1350
asbasbasbag56
(g72
g58
NtRp2339
(dp2340
g61
(dp2341
sg70
g1999
sg63
(lp2342
g56
(g77
g58
NtRp2343
(dp2344
g61
(dp2345
g81
g82
ssg70
g2339
sg63
(lp2346
S'SERVER_PORT'
p2347
asbag56
(g77
g58
NtRp2348
(dp2349
g61
(dp2350
g88
g89
ssg70
g2339
sg63
(lp2351
S':'
asbag56
(g77
g58
NtRp2352
(dp2353
g61
(dp2354
sg70
g2339
sg63
(lp2355
g56
(g57
g58
NtRp2356
(dp2357
g61
(dp2358
g69
I3
ssg70
g2352
sg63
(lp2359
g1372
asbasbasbag56
(g72
g58
NtRp2360
(dp2361
g61
(dp2362
sg70
g1999
sg63
(lp2363
g56
(g77
g58
NtRp2364
(dp2365
g61
(dp2366
g81
g82
ssg70
g2360
sg63
(lp2367
S'SERVER_PROTOCOL'
p2368
asbag56
(g77
g58
NtRp2369
(dp2370
g61
(dp2371
g88
g89
ssg70
g2360
sg63
(lp2372
S':'
asbag56
(g77
g58
NtRp2373
(dp2374
g61
(dp2375
sg70
g2360
sg63
(lp2376
g56
(g57
g58
NtRp2377
(dp2378
g61
(dp2379
g69
I3
ssg70
g2373
sg63
(lp2380
g1394
asbasbasbag56
(g72
g58
NtRp2381
(dp2382
g61
(dp2383
sg70
g1999
sg63
(lp2384
g56
(g77
g58
NtRp2385
(dp2386
g61
(dp2387
g81
g82
ssg70
g2381
sg63
(lp2388
S'SERVER_SOFTWARE'
p2389
asbag56
(g77
g58
NtRp2390
(dp2391
g61
(dp2392
g88
g89
ssg70
g2381
sg63
(lp2393
S':'
asbag56
(g77
g58
NtRp2394
(dp2395
g61
(dp2396
sg70
g2381
sg63
(lp2397
g56
(g57
g58
NtRp2398
(dp2399
g61
(dp2400
g69
I3
ssg70
g2394
sg63
(lp2401
g1416
asbasbasbag56
(g72
g58
NtRp2402
(dp2403
g61
(dp2404
sg70
g1999
sg63
(lp2405
g56
(g77
g58
NtRp2406
(dp2407
g61
(dp2408
g81
g82
ssg70
g2402
sg63
(lp2409
S'wsgi.errors'
p2410
asbag56
(g77
g58
NtRp2411
(dp2412
g61
(dp2413
g88
g89
ssg70
g2402
sg63
(lp2414
S':'
asbag56
(g77
g58
NtRp2415
(dp2416
g61
(dp2417
sg70
g2402
sg63
(lp2418
g56
(g57
g58
NtRp2419
(dp2420
g61
(dp2421
g69
I3
ssg70
g2415
sg63
(lp2422
S"<open file '<stderr>', mode 'w' at 0x100287270>"
p2423
asbasbasbag56
(g72
g58
NtRp2424
(dp2425
g61
(dp2426
sg70
g1999
sg63
(lp2427
g56
(g77
g58
NtRp2428
(dp2429
g61
(dp2430
g81
g82
ssg70
g2424
sg63
(lp2431
S'wsgi.file_wrapper'
p2432
asbag56
(g77
g58
NtRp2433
(dp2434
g61
(dp2435
g88
g89
ssg70
g2424
sg63
(lp2436
S':'
asbag56
(g77
g58
NtRp2437
(dp2438
g61
(dp2439
sg70
g2424
sg63
(lp2440
g56
(g57
g58
NtRp2441
(dp2442
g61
(dp2443
g69
I3
ssg70
g2437
sg63
(lp2444
S'<class gluon.rocket.FileWrapper at 0x101c01668>'
p2445
asbasbasbag56
(g72
g58
NtRp2446
(dp2447
g61
(dp2448
sg70
g1999
sg63
(lp2449
g56
(g77
g58
NtRp2450
(dp2451
g61
(dp2452
g81
g82
ssg70
g2446
sg63
(lp2453
S'wsgi.input'
p2454
asbag56
(g77
g58
NtRp2455
(dp2456
g61
(dp2457
g88
g89
ssg70
g2446
sg63
(lp2458
S':'
asbag56
(g77
g58
NtRp2459
(dp2460
g61
(dp2461
sg70
g2446
sg63
(lp2462
g56
(g57
g58
NtRp2463
(dp2464
g61
(dp2465
g69
I3
ssg70
g2459
sg63
(lp2466
S'<cStringIO.StringO object at 0x103ef8570>'
p2467
asbasbasbag56
(g72
g58
NtRp2468
(dp2469
g61
(dp2470
sg70
g1999
sg63
(lp2471
g56
(g77
g58
NtRp2472
(dp2473
g61
(dp2474
g81
g82
ssg70
g2468
sg63
(lp2475
S'wsgi.multiprocess'
p2476
asbag56
(g77
g58
NtRp2477
(dp2478
g61
(dp2479
g88
g89
ssg70
g2468
sg63
(lp2480
S':'
asbag56
(g77
g58
NtRp2481
(dp2482
g61
(dp2483
sg70
g2468
sg63
(lp2484
g56
(g57
g58
NtRp2485
(dp2486
g61
(dp2487
g69
I3
ssg70
g2481
sg63
(lp2488
g99
asbasbasbag56
(g72
g58
NtRp2489
(dp2490
g61
(dp2491
sg70
g1999
sg63
(lp2492
g56
(g77
g58
NtRp2493
(dp2494
g61
(dp2495
g81
g82
ssg70
g2489
sg63
(lp2496
S'wsgi.multithread'
p2497
asbag56
(g77
g58
NtRp2498
(dp2499
g61
(dp2500
g88
g89
ssg70
g2489
sg63
(lp2501
S':'
asbag56
(g77
g58
NtRp2502
(dp2503
g61
(dp2504
sg70
g2489
sg63
(lp2505
g56
(g57
g58
NtRp2506
(dp2507
g61
(dp2508
g69
I3
ssg70
g2502
sg63
(lp2509
g1590
asbasbasbag56
(g72
g58
NtRp2510
(dp2511
g61
(dp2512
sg70
g1999
sg63
(lp2513
g56
(g77
g58
NtRp2514
(dp2515
g61
(dp2516
g81
g82
ssg70
g2510
sg63
(lp2517
S'wsgi.run_once'
p2518
asbag56
(g77
g58
NtRp2519
(dp2520
g61
(dp2521
g88
g89
ssg70
g2510
sg63
(lp2522
S':'
asbag56
(g77
g58
NtRp2523
(dp2524
g61
(dp2525
sg70
g2510
sg63
(lp2526
g56
(g57
g58
NtRp2527
(dp2528
g61
(dp2529
g69
I3
ssg70
g2523
sg63
(lp2530
g99
asbasbasbag56
(g72
g58
NtRp2531
(dp2532
g61
(dp2533
sg70
g1999
sg63
(lp2534
g56
(g77
g58
NtRp2535
(dp2536
g61
(dp2537
g81
g82
ssg70
g2531
sg63
(lp2538
S'wsgi.url_scheme'
p2539
asbag56
(g77
g58
NtRp2540
(dp2541
g61
(dp2542
g88
g89
ssg70
g2531
sg63
(lp2543
S':'
asbag56
(g77
g58
NtRp2544
(dp2545
g61
(dp2546
sg70
g2531
sg63
(lp2547
g56
(g57
g58
NtRp2548
(dp2549
g61
(dp2550
g69
I3
ssg70
g2544
sg63
(lp2551
g1633
asbasbasbag56
(g72
g58
NtRp2552
(dp2553
g61
(dp2554
sg70
g1999
sg63
(lp2555
g56
(g77
g58
NtRp2556
(dp2557
g61
(dp2558
g81
g82
ssg70
g2552
sg63
(lp2559
S'wsgi.version'
p2560
asbag56
(g77
g58
NtRp2561
(dp2562
g61
(dp2563
g88
g89
ssg70
g2552
sg63
(lp2564
S':'
asbag56
(g77
g58
NtRp2565
(dp2566
g61
(dp2567
sg70
g2552
sg63
(lp2568
g56
(g57
g58
NtRp2569
(dp2570
g61
(dp2571
g69
I3
ssg70
g2565
sg63
(lp2572
S'1'
asbasbasbasbasbasbasbasbasbasbasbasbasbsS'frames'
p2573
(lp2574
(dp2575
S'file'
p2576
S'/Users/hellais/Documents/code/sorci/web2py/gluon/restricted.py'
p2577
sS'dump'
p2578
(dp2579
S'environment'
p2580
S"{'A': <class 'gluon.html.A'>, 'Auth': <class 'gluon.tools.Auth'>, 'B': <class 'gluon.html.B'>, 'BEAUTIFY': <class 'gluon.html.BEAUTIFY'>, 'BODY': <class 'gluon.html.BODY'>, 'BR': <class 'gluon.html.BR'>, 'BUTTON': <class 'gluon.html.BUTTON'>, 'CAT': <class 'gluon.html.CAT'>, 'CENTER': <class 'gluon.html.CENTER'>, 'CLEANUP': <class 'gluon.validators.CLEANUP'>, ...}"
p2581
sS'ccode'
p2582
S'<code object <module> at 0x103de3ab0, file "/Use...y/applications/globaleaks/models/db.py", line 19>'
p2583
ssS'lnum'
p2584
I192
sS'lines'
p2585
(dp2586
I192
S'        exec ccode in environment'
p2587
sI193
S'    except HTTP:'
p2588
sI194
S'        raise'
p2589
sI195
S'    except Exception, error:'
p2590
sI196
S'        # XXX Show exception in Wing IDE if running in debugger'
p2591
sI187
S'    try:'
p2592
sI188
S'        if type(code) == types.CodeType:'
p2593
sI189
S'            ccode = code'
p2594
sI190
S'        else:'
p2595
sI191
S'            ccode = compile2(code,layer)'
p2596
ssS'call'
p2597
S"(code='# -*- coding: utf-8 -*-\\n# this file is released ...ender\\nmail.settings.login = settings.email_login\\n', environment={'A': <class 'gluon.html.A'>, 'Auth': <class 'gluon.tools.Auth'>, 'B': <class 'gluon.html.B'>, 'BEAUTIFY': <class 'gluon.html.BEAUTIFY'>, 'BODY': <class 'gluon.html.BODY'>, 'BR': <class 'gluon.html.BR'>, 'BUTTON': <class 'gluon.html.BUTTON'>, 'CAT': <class 'gluon.html.CAT'>, 'CENTER': <class 'gluon.html.CENTER'>, 'CLEANUP': <class 'gluon.validators.CLEANUP'>, ...}, layer='/Users/hellais/Documents/code/sorci/web2py/applications/globaleaks/models/db.py')"
p2598
sS'func'
p2599
S'restricted'
p2600
sa(dp2601
g2576
S'/Users/hellais/Documents/code/sorci/web2py/applications/globaleaks/models/db.py'
p2602
sg2578
(dp2603
S'mail'
p2604
S'undefined'
p2605
ssg2584
I51
sg2585
(dp2606
I46
S'# auth = Auth(db)                                # authentication/authorization'
p2607
sI47
S'crud = Crud(db)                                # for CRUD helpers using auth'
p2608
sI48
S'service = Service()                            # for json, xml, jsonrpc, xmlrpc, amfrpc'
p2609
sI49
S'plugins = PluginManager()                      # for configuring plugins'
p2610
sI50
S''
sI51
S"mail.settings.server = 'logging' or 'smtp.gmail.com:587'  # your SMTP server"
p2611
sI52
S"mail.settings.sender = 'you@gmail.com'         # your email"
p2612
sI53
S"mail.settings.login = 'username:password'      # your credentials or None"
p2613
sI54
S''
sI55
S"auth.settings.hmac_key = 'sha512:7a716c8b015b5caca119e195533717fe9a3095d67b3f97114e30256b27392977'   # before define_tables()"
p2614
ssg2597
S'()'
p2615
sg2599
S'<module>'
p2616
sasS'pyver'
p2617
S'Python 2.7.1: /opt/local/Library/Frameworks/Python.framework/Versions/2.7/Resources/Python.app/Contents/MacOS/Python'
p2618
sS'session'
p2619
g56
(g57
g58
NtRp2620
(dp2621
g61
(dp2622
sg63
(lp2623
g56
(g65
g58
NtRp2624
(dp2625
g61
(dp2626
g69
I5
ssg70
Nsg63
(lp2627
g56
(g72
g58
NtRp2628
(dp2629
g61
(dp2630
sg70
g2624
sg63
(lp2631
g56
(g77
g58
NtRp2632
(dp2633
g61
(dp2634
g81
g82
ssg70
g2628
sg63
(lp2635
S'auth'
p2636
asbag56
(g77
g58
NtRp2637
(dp2638
g61
(dp2639
g88
g89
ssg70
g2628
sg63
(lp2640
S':'
asbag56
(g77
g58
NtRp2641
(dp2642
g61
(dp2643
sg70
g2628
sg63
(lp2644
g56
(g57
g58
NtRp2645
(dp2646
g61
(dp2647
g69
I5
ssg70
g2641
sg63
(lp2648
g56
(g65
g58
NtRp2649
(dp2650
g61
(dp2651
g69
I4
ssg70
Nsg63
(lp2652
g56
(g72
g58
NtRp2653
(dp2654
g61
(dp2655
sg70
g2649
sg63
(lp2656
g56
(g77
g58
NtRp2657
(dp2658
g61
(dp2659
g81
g82
ssg70
g2653
sg63
(lp2660
S'expiration'
p2661
asbag56
(g77
g58
NtRp2662
(dp2663
g61
(dp2664
g88
g89
ssg70
g2653
sg63
(lp2665
S':'
asbag56
(g77
g58
NtRp2666
(dp2667
g61
(dp2668
sg70
g2653
sg63
(lp2669
g56
(g57
g58
NtRp2670
(dp2671
g61
(dp2672
g69
I4
ssg70
g2666
sg63
(lp2673
S'3600'
p2674
asbasbasbag56
(g72
g58
NtRp2675
(dp2676
g61
(dp2677
sg70
g2649
sg63
(lp2678
g56
(g77
g58
NtRp2679
(dp2680
g61
(dp2681
g81
g82
ssg70
g2675
sg63
(lp2682
S'hmac_key'
p2683
asbag56
(g77
g58
NtRp2684
(dp2685
g61
(dp2686
g88
g89
ssg70
g2675
sg63
(lp2687
S':'
asbag56
(g77
g58
NtRp2688
(dp2689
g61
(dp2690
sg70
g2675
sg63
(lp2691
g56
(g57
g58
NtRp2692
(dp2693
g61
(dp2694
g69
I4
ssg70
g2688
sg63
(lp2695
S'17bd0b18-c824-46f7-b01f-ce9e75a218c6'
p2696
asbasbasbag56
(g72
g58
NtRp2697
(dp2698
g61
(dp2699
sg70
g2649
sg63
(lp2700
g56
(g77
g58
NtRp2701
(dp2702
g61
(dp2703
g81
g82
ssg70
g2697
sg63
(lp2704
S'last_visit'
p2705
asbag56
(g77
g58
NtRp2706
(dp2707
g61
(dp2708
g88
g89
ssg70
g2697
sg63
(lp2709
S':'
asbag56
(g77
g58
NtRp2710
(dp2711
g61
(dp2712
sg70
g2697
sg63
(lp2713
g56
(g57
g58
NtRp2714
(dp2715
g61
(dp2716
g69
I4
ssg70
g2710
sg63
(lp2717
S'datetime.datetime(2011, 8, 27, 0, 22, 12, 137454)'
p2718
asbasbasbag56
(g72
g58
NtRp2719
(dp2720
g61
(dp2721
sg70
g2649
sg63
(lp2722
g56
(g77
g58
NtRp2723
(dp2724
g61
(dp2725
g81
g82
ssg70
g2719
sg63
(lp2726
S'user'
p2727
asbag56
(g77
g58
NtRp2728
(dp2729
g61
(dp2730
g88
g89
ssg70
g2719
sg63
(lp2731
S':'
asbag56
(g77
g58
NtRp2732
(dp2733
g61
(dp2734
sg70
g2719
sg63
(lp2735
g56
(g57
g58
NtRp2736
(dp2737
g61
(dp2738
g69
I4
ssg70
g2732
sg63
(lp2739
g56
(g65
g58
NtRp2740
(dp2741
g61
(dp2742
g69
I3
ssg70
Nsg63
(lp2743
g56
(g72
g58
NtRp2744
(dp2745
g61
(dp2746
sg70
g2740
sg63
(lp2747
g56
(g77
g58
NtRp2748
(dp2749
g61
(dp2750
g81
g82
ssg70
g2744
sg63
(lp2751
S'email'
p2752
asbag56
(g77
g58
NtRp2753
(dp2754
g61
(dp2755
g88
g89
ssg70
g2744
sg63
(lp2756
S':'
asbag56
(g77
g58
NtRp2757
(dp2758
g61
(dp2759
sg70
g2744
sg63
(lp2760
g56
(g57
g58
NtRp2761
(dp2762
g61
(dp2763
g69
I3
ssg70
g2757
sg63
(lp2764
S'bla@bla.com'
p2765
asbasbasbag56
(g72
g58
NtRp2766
(dp2767
g61
(dp2768
sg70
g2740
sg63
(lp2769
g56
(g77
g58
NtRp2770
(dp2771
g61
(dp2772
g81
g82
ssg70
g2766
sg63
(lp2773
S'first_name'
p2774
asbag56
(g77
g58
NtRp2775
(dp2776
g61
(dp2777
g88
g89
ssg70
g2766
sg63
(lp2778
S':'
asbag56
(g77
g58
NtRp2779
(dp2780
g61
(dp2781
sg70
g2766
sg63
(lp2782
g56
(g57
g58
NtRp2783
(dp2784
g61
(dp2785
g69
I3
ssg70
g2779
sg63
(lp2786
S'Bla'
p2787
asbasbasbag56
(g72
g58
NtRp2788
(dp2789
g61
(dp2790
sg70
g2740
sg63
(lp2791
g56
(g77
g58
NtRp2792
(dp2793
g61
(dp2794
g81
g82
ssg70
g2788
sg63
(lp2795
S'id'
p2796
asbag56
(g77
g58
NtRp2797
(dp2798
g61
(dp2799
g88
g89
ssg70
g2788
sg63
(lp2800
S':'
asbag56
(g77
g58
NtRp2801
(dp2802
g61
(dp2803
sg70
g2788
sg63
(lp2804
g56
(g57
g58
NtRp2805
(dp2806
g61
(dp2807
g69
I3
ssg70
g2801
sg63
(lp2808
S'1'
asbasbasbag56
(g72
g58
NtRp2809
(dp2810
g61
(dp2811
sg70
g2740
sg63
(lp2812
g56
(g77
g58
NtRp2813
(dp2814
g61
(dp2815
g81
g82
ssg70
g2809
sg63
(lp2816
S'last_name'
p2817
asbag56
(g77
g58
NtRp2818
(dp2819
g61
(dp2820
g88
g89
ssg70
g2809
sg63
(lp2821
S':'
asbag56
(g77
g58
NtRp2822
(dp2823
g61
(dp2824
sg70
g2809
sg63
(lp2825
g56
(g57
g58
NtRp2826
(dp2827
g61
(dp2828
g69
I3
ssg70
g2822
sg63
(lp2829
S'Bla'
p2830
asbasbasbag56
(g72
g58
NtRp2831
(dp2832
g61
(dp2833
sg70
g2740
sg63
(lp2834
g56
(g77
g58
NtRp2835
(dp2836
g61
(dp2837
g81
g82
ssg70
g2831
sg63
(lp2838
S'password'
p2839
asbag56
(g77
g58
NtRp2840
(dp2841
g61
(dp2842
g88
g89
ssg70
g2831
sg63
(lp2843
S':'
asbag56
(g77
g58
NtRp2844
(dp2845
g61
(dp2846
sg70
g2831
sg63
(lp2847
g56
(g57
g58
NtRp2848
(dp2849
g61
(dp2850
g69
I3
ssg70
g2844
sg63
(lp2851
S'81cb0d6eb9f85dc7d15cec1380051d6de8504729011fb042761f3cc746c6029ba6a58fd5a8f805135c19285005f22ea24c81286fe8be4e1d209389f09fd5d819'
p2852
asbasbasbag56
(g72
g58
NtRp2853
(dp2854
g61
(dp2855
sg70
g2740
sg63
(lp2856
g56
(g77
g58
NtRp2857
(dp2858
g61
(dp2859
g81
g82
ssg70
g2853
sg63
(lp2860
S'registration_key'
p2861
asbag56
(g77
g58
NtRp2862
(dp2863
g61
(dp2864
g88
g89
ssg70
g2853
sg63
(lp2865
S':'
asbag56
(g77
g58
NtRp2866
(dp2867
g61
(dp2868
sg70
g2853
sg63
(lp2869
g56
(g57
g58
NtRp2870
(dp2871
g61
(dp2872
g69
I3
ssg70
g2866
sg63
(lp2873
S''
asbasbasbag56
(g72
g58
NtRp2874
(dp2875
g61
(dp2876
sg70
g2740
sg63
(lp2877
g56
(g77
g58
NtRp2878
(dp2879
g61
(dp2880
g81
g82
ssg70
g2874
sg63
(lp2881
S'reset_password_key'
p2882
asbag56
(g77
g58
NtRp2883
(dp2884
g61
(dp2885
g88
g89
ssg70
g2874
sg63
(lp2886
S':'
asbag56
(g77
g58
NtRp2887
(dp2888
g61
(dp2889
sg70
g2874
sg63
(lp2890
g56
(g57
g58
NtRp2891
(dp2892
g61
(dp2893
g69
I3
ssg70
g2887
sg63
(lp2894
S''
asbasbasbasbasbasbasbasbasbasbasbasbasbsS'etype'
p2895
S"<type 'exceptions.NameError'>"
p2896
sS'date'
p2897
S'Sat Aug 27 00:24:58 2011'
p2898
sS'response'
p2899
g56
(g57
g58
NtRp2900
(dp2901
g61
(dp2902
sg63
(lp2903
g56
(g65
g58
NtRp2904
(dp2905
g61
(dp2906
g69
I5
ssg70
Nsg63
(lp2907
g56
(g72
g58
NtRp2908
(dp2909
g61
(dp2910
sg70
g2904
sg63
(lp2911
g56
(g77
g58
NtRp2912
(dp2913
g61
(dp2914
g81
g82
ssg70
g2908
sg63
(lp2915
g154
asbag56
(g77
g58
NtRp2916
(dp2917
g61
(dp2918
g88
g89
ssg70
g2908
sg63
(lp2919
S':'
asbag56
(g77
g58
NtRp2920
(dp2921
g61
(dp2922
sg70
g2908
sg63
(lp2923
g56
(g57
g58
NtRp2924
(dp2925
g61
(dp2926
g69
I5
ssg70
g2920
sg63
(lp2927
S'<cStringIO.StringO object at 0x103d92bc8>'
p2928
asbasbasbag56
(g72
g58
NtRp2929
(dp2930
g61
(dp2931
sg70
g2904
sg63
(lp2932
g56
(g77
g58
NtRp2933
(dp2934
g61
(dp2935
g81
g82
ssg70
g2929
sg63
(lp2936
g220
asbag56
(g77
g58
NtRp2937
(dp2938
g61
(dp2939
g88
g89
ssg70
g2929
sg63
(lp2940
S':'
asbag56
(g77
g58
NtRp2941
(dp2942
g61
(dp2943
sg70
g2929
sg63
(lp2944
g56
(g57
g58
NtRp2945
(dp2946
g61
(dp2947
g69
I5
ssg70
g2941
sg63
(lp2948
g56
(g65
g58
NtRp2949
(dp2950
g61
(dp2951
g69
I4
ssg70
Nsg63
(lp2952
g56
(g72
g58
NtRp2953
(dp2954
g61
(dp2955
sg70
g2949
sg63
(lp2956
g56
(g77
g58
NtRp2957
(dp2958
g61
(dp2959
g81
g82
ssg70
g2953
sg63
(lp2960
S'session_id_globaleaks'
p2961
asbag56
(g77
g58
NtRp2962
(dp2963
g61
(dp2964
g88
g89
ssg70
g2953
sg63
(lp2965
S':'
asbag56
(g77
g58
NtRp2966
(dp2967
g61
(dp2968
sg70
g2953
sg63
(lp2969
g56
(g57
g58
NtRp2970
(dp2971
g61
(dp2972
g69
I4
ssg70
g2966
sg63
(lp2973
g56
(g65
g58
NtRp2974
(dp2975
g61
(dp2976
g69
I3
ssg70
Nsg63
(lp2977
g56
(g72
g58
NtRp2978
(dp2979
g61
(dp2980
sg70
g2974
sg63
(lp2981
g56
(g77
g58
NtRp2982
(dp2983
g61
(dp2984
g81
g82
ssg70
g2978
sg63
(lp2985
g270
asbag56
(g77
g58
NtRp2986
(dp2987
g61
(dp2988
g88
g89
ssg70
g2978
sg63
(lp2989
S':'
asbag56
(g77
g58
NtRp2990
(dp2991
g61
(dp2992
sg70
g2978
sg63
(lp2993
g56
(g57
g58
NtRp2994
(dp2995
g61
(dp2996
g69
I3
ssg70
g2990
sg63
(lp2997
S''
asbasbasbag56
(g72
g58
NtRp2998
(dp2999
g61
(dp3000
sg70
g2974
sg63
(lp3001
g56
(g77
g58
NtRp3002
(dp3003
g61
(dp3004
g81
g82
ssg70
g2998
sg63
(lp3005
g291
asbag56
(g77
g58
NtRp3006
(dp3007
g61
(dp3008
g88
g89
ssg70
g2998
sg63
(lp3009
S':'
asbag56
(g77
g58
NtRp3010
(dp3011
g61
(dp3012
sg70
g2998
sg63
(lp3013
g56
(g57
g58
NtRp3014
(dp3015
g61
(dp3016
g69
I3
ssg70
g3010
sg63
(lp3017
S''
asbasbasbag56
(g72
g58
NtRp3018
(dp3019
g61
(dp3020
sg70
g2974
sg63
(lp3021
g56
(g77
g58
NtRp3022
(dp3023
g61
(dp3024
g81
g82
ssg70
g3018
sg63
(lp3025
g312
asbag56
(g77
g58
NtRp3026
(dp3027
g61
(dp3028
g88
g89
ssg70
g3018
sg63
(lp3029
S':'
asbag56
(g77
g58
NtRp3030
(dp3031
g61
(dp3032
sg70
g3018
sg63
(lp3033
g56
(g57
g58
NtRp3034
(dp3035
g61
(dp3036
g69
I3
ssg70
g3030
sg63
(lp3037
S''
asbasbasbag56
(g72
g58
NtRp3038
(dp3039
g61
(dp3040
sg70
g2974
sg63
(lp3041
g56
(g77
g58
NtRp3042
(dp3043
g61
(dp3044
g81
g82
ssg70
g3038
sg63
(lp3045
g333
asbag56
(g77
g58
NtRp3046
(dp3047
g61
(dp3048
g88
g89
ssg70
g3038
sg63
(lp3049
S':'
asbag56
(g77
g58
NtRp3050
(dp3051
g61
(dp3052
sg70
g3038
sg63
(lp3053
g56
(g57
g58
NtRp3054
(dp3055
g61
(dp3056
g69
I3
ssg70
g3050
sg63
(lp3057
S''
asbasbasbag56
(g72
g58
NtRp3058
(dp3059
g61
(dp3060
sg70
g2974
sg63
(lp3061
g56
(g77
g58
NtRp3062
(dp3063
g61
(dp3064
g81
g82
ssg70
g3058
sg63
(lp3065
g354
asbag56
(g77
g58
NtRp3066
(dp3067
g61
(dp3068
g88
g89
ssg70
g3058
sg63
(lp3069
S':'
asbag56
(g77
g58
NtRp3070
(dp3071
g61
(dp3072
sg70
g3058
sg63
(lp3073
g56
(g57
g58
NtRp3074
(dp3075
g61
(dp3076
g69
I3
ssg70
g3070
sg63
(lp3077
S''
asbasbasbag56
(g72
g58
NtRp3078
(dp3079
g61
(dp3080
sg70
g2974
sg63
(lp3081
g56
(g77
g58
NtRp3082
(dp3083
g61
(dp3084
g81
g82
ssg70
g3078
sg63
(lp3085
g375
asbag56
(g77
g58
NtRp3086
(dp3087
g61
(dp3088
g88
g89
ssg70
g3078
sg63
(lp3089
S':'
asbag56
(g77
g58
NtRp3090
(dp3091
g61
(dp3092
sg70
g3078
sg63
(lp3093
g56
(g57
g58
NtRp3094
(dp3095
g61
(dp3096
g69
I3
ssg70
g3090
sg63
(lp3097
S'/'
asbasbasbag56
(g72
g58
NtRp3098
(dp3099
g61
(dp3100
sg70
g2974
sg63
(lp3101
g56
(g77
g58
NtRp3102
(dp3103
g61
(dp3104
g81
g82
ssg70
g3098
sg63
(lp3105
g396
asbag56
(g77
g58
NtRp3106
(dp3107
g61
(dp3108
g88
g89
ssg70
g3098
sg63
(lp3109
S':'
asbag56
(g77
g58
NtRp3110
(dp3111
g61
(dp3112
sg70
g3098
sg63
(lp3113
g56
(g57
g58
NtRp3114
(dp3115
g61
(dp3116
g69
I3
ssg70
g3110
sg63
(lp3117
S''
asbasbasbag56
(g72
g58
NtRp3118
(dp3119
g61
(dp3120
sg70
g2974
sg63
(lp3121
g56
(g77
g58
NtRp3122
(dp3123
g61
(dp3124
g81
g82
ssg70
g3118
sg63
(lp3125
g417
asbag56
(g77
g58
NtRp3126
(dp3127
g61
(dp3128
g88
g89
ssg70
g3118
sg63
(lp3129
S':'
asbag56
(g77
g58
NtRp3130
(dp3131
g61
(dp3132
sg70
g3118
sg63
(lp3133
g56
(g57
g58
NtRp3134
(dp3135
g61
(dp3136
g69
I3
ssg70
g3130
sg63
(lp3137
S''
asbasbasbasbasbasbasbasbasbasbasbag56
(g72
g58
NtRp3138
(dp3139
g61
(dp3140
sg70
g2904
sg63
(lp3141
g56
(g77
g58
NtRp3142
(dp3143
g61
(dp3144
g81
g82
ssg70
g3138
sg63
(lp3145
S'files'
p3146
asbag56
(g77
g58
NtRp3147
(dp3148
g61
(dp3149
g88
g89
ssg70
g3138
sg63
(lp3150
S':'
asbag56
(g77
g58
NtRp3151
(dp3152
g61
(dp3153
sg70
g3138
sg63
(lp3154
g56
(g57
g58
NtRp3155
(dp3156
g61
(dp3157
g69
I5
ssg70
g3151
sg63
(lp3158
g56
(g65
g58
NtRp3159
(dp3160
g61
(dp3161
g69
I4
ssg70
Nsg63
(lp3162
sbasbasbasbag56
(g72
g58
NtRp3163
(dp3164
g61
(dp3165
sg70
g2904
sg63
(lp3166
g56
(g77
g58
NtRp3167
(dp3168
g61
(dp3169
g81
g82
ssg70
g3163
sg63
(lp3170
S'flash'
p3171
asbag56
(g77
g58
NtRp3172
(dp3173
g61
(dp3174
g88
g89
ssg70
g3163
sg63
(lp3175
S':'
asbag56
(g77
g58
NtRp3176
(dp3177
g61
(dp3178
sg70
g3163
sg63
(lp3179
g56
(g57
g58
NtRp3180
(dp3181
g61
(dp3182
g69
I5
ssg70
g3176
sg63
(lp3183
S''
asbasbasbag56
(g72
g58
NtRp3184
(dp3185
g61
(dp3186
sg70
g2904
sg63
(lp3187
g56
(g77
g58
NtRp3188
(dp3189
g61
(dp3190
g81
g82
ssg70
g3184
sg63
(lp3191
S'generic_patterns'
p3192
asbag56
(g77
g58
NtRp3193
(dp3194
g61
(dp3195
g88
g89
ssg70
g3184
sg63
(lp3196
S':'
asbag56
(g77
g58
NtRp3197
(dp3198
g61
(dp3199
sg70
g3184
sg63
(lp3200
g56
(g57
g58
NtRp3201
(dp3202
g61
(dp3203
g69
I5
ssg70
g3197
sg63
(lp3204
g56
(g65
g58
NtRp3205
(dp3206
g61
(dp3207
g69
I4
ssg70
Nsg63
(lp3208
sbasbasbasbag56
(g72
g58
NtRp3209
(dp3210
g61
(dp3211
sg70
g2904
sg63
(lp3212
g56
(g77
g58
NtRp3213
(dp3214
g61
(dp3215
g81
g82
ssg70
g3209
sg63
(lp3216
S'headers'
p3217
asbag56
(g77
g58
NtRp3218
(dp3219
g61
(dp3220
g88
g89
ssg70
g3209
sg63
(lp3221
S':'
asbag56
(g77
g58
NtRp3222
(dp3223
g61
(dp3224
sg70
g3209
sg63
(lp3225
g56
(g57
g58
NtRp3226
(dp3227
g61
(dp3228
g69
I5
ssg70
g3222
sg63
(lp3229
g56
(g65
g58
NtRp3230
(dp3231
g61
(dp3232
g69
I4
ssg70
Nsg63
(lp3233
g56
(g72
g58
NtRp3234
(dp3235
g61
(dp3236
sg70
g3230
sg63
(lp3237
g56
(g77
g58
NtRp3238
(dp3239
g61
(dp3240
g81
g82
ssg70
g3234
sg63
(lp3241
S'Cache-Control'
p3242
asbag56
(g77
g58
NtRp3243
(dp3244
g61
(dp3245
g88
g89
ssg70
g3234
sg63
(lp3246
S':'
asbag56
(g77
g58
NtRp3247
(dp3248
g61
(dp3249
sg70
g3234
sg63
(lp3250
g56
(g57
g58
NtRp3251
(dp3252
g61
(dp3253
g69
I4
ssg70
g3247
sg63
(lp3254
S'no-store, no-cache, must-revalidate, post-check=0, pre-check=0'
p3255
asbasbasbag56
(g72
g58
NtRp3256
(dp3257
g61
(dp3258
sg70
g3230
sg63
(lp3259
g56
(g77
g58
NtRp3260
(dp3261
g61
(dp3262
g81
g82
ssg70
g3256
sg63
(lp3263
S'Content-Type'
p3264
asbag56
(g77
g58
NtRp3265
(dp3266
g61
(dp3267
g88
g89
ssg70
g3256
sg63
(lp3268
S':'
asbag56
(g77
g58
NtRp3269
(dp3270
g61
(dp3271
sg70
g3256
sg63
(lp3272
g56
(g57
g58
NtRp3273
(dp3274
g61
(dp3275
g69
I4
ssg70
g3269
sg63
(lp3276
S'text/html; charset=utf-8'
p3277
asbasbasbag56
(g72
g58
NtRp3278
(dp3279
g61
(dp3280
sg70
g3230
sg63
(lp3281
g56
(g77
g58
NtRp3282
(dp3283
g61
(dp3284
g81
g82
ssg70
g3278
sg63
(lp3285
S'Expires'
p3286
asbag56
(g77
g58
NtRp3287
(dp3288
g61
(dp3289
g88
g89
ssg70
g3278
sg63
(lp3290
S':'
asbag56
(g77
g58
NtRp3291
(dp3292
g61
(dp3293
sg70
g3278
sg63
(lp3294
g56
(g57
g58
NtRp3295
(dp3296
g61
(dp3297
g69
I4
ssg70
g3291
sg63
(lp3298
S'Fri, 26 Aug 2011 22:24:58 GMT'
p3299
asbasbasbag56
(g72
g58
NtRp3300
(dp3301
g61
(dp3302
sg70
g3230
sg63
(lp3303
g56
(g77
g58
NtRp3304
(dp3305
g61
(dp3306
g81
g82
ssg70
g3300
sg63
(lp3307
S'Pragma'
p3308
asbag56
(g77
g58
NtRp3309
(dp3310
g61
(dp3311
g88
g89
ssg70
g3300
sg63
(lp3312
S':'
asbag56
(g77
g58
NtRp3313
(dp3314
g61
(dp3315
sg70
g3300
sg63
(lp3316
g56
(g57
g58
NtRp3317
(dp3318
g61
(dp3319
g69
I4
ssg70
g3313
sg63
(lp3320
S'no-cache'
p3321
asbasbasbag56
(g72
g58
NtRp3322
(dp3323
g61
(dp3324
sg70
g3230
sg63
(lp3325
g56
(g77
g58
NtRp3326
(dp3327
g61
(dp3328
g81
g82
ssg70
g3322
sg63
(lp3329
S'X-Powered-By'
p3330
asbag56
(g77
g58
NtRp3331
(dp3332
g61
(dp3333
g88
g89
ssg70
g3322
sg63
(lp3334
S':'
asbag56
(g77
g58
NtRp3335
(dp3336
g61
(dp3337
sg70
g3322
sg63
(lp3338
g56
(g57
g58
NtRp3339
(dp3340
g61
(dp3341
g69
I4
ssg70
g3335
sg63
(lp3342
S'web2py'
p3343
asbasbasbasbasbasbasbag56
(g72
g58
NtRp3344
(dp3345
g61
(dp3346
sg70
g2904
sg63
(lp3347
g56
(g77
g58
NtRp3348
(dp3349
g61
(dp3350
g81
g82
ssg70
g3344
sg63
(lp3351
S'menu'
p3352
asbag56
(g77
g58
NtRp3353
(dp3354
g61
(dp3355
g88
g89
ssg70
g3344
sg63
(lp3356
S':'
asbag56
(g77
g58
NtRp3357
(dp3358
g61
(dp3359
sg70
g3344
sg63
(lp3360
g56
(g57
g58
NtRp3361
(dp3362
g61
(dp3363
g69
I5
ssg70
g3357
sg63
(lp3364
g56
(g65
g58
NtRp3365
(dp3366
g61
(dp3367
g69
I4
ssg70
Nsg63
(lp3368
sbasbasbasbag56
(g72
g58
NtRp3369
(dp3370
g61
(dp3371
sg70
g2904
sg63
(lp3372
g56
(g77
g58
NtRp3373
(dp3374
g61
(dp3375
g81
g82
ssg70
g3369
sg63
(lp3376
S'meta'
p3377
asbag56
(g77
g58
NtRp3378
(dp3379
g61
(dp3380
g88
g89
ssg70
g3369
sg63
(lp3381
S':'
asbag56
(g77
g58
NtRp3382
(dp3383
g61
(dp3384
sg70
g3369
sg63
(lp3385
g56
(g57
g58
NtRp3386
(dp3387
g61
(dp3388
g69
I5
ssg70
g3382
sg63
(lp3389
g56
(g65
g58
NtRp3390
(dp3391
g61
(dp3392
g69
I4
ssg70
Nsg63
(lp3393
sbasbasbasbag56
(g72
g58
NtRp3394
(dp3395
g61
(dp3396
sg70
g2904
sg63
(lp3397
g56
(g77
g58
NtRp3398
(dp3399
g61
(dp3400
g81
g82
ssg70
g3394
sg63
(lp3401
S'postprocessing'
p3402
asbag56
(g77
g58
NtRp3403
(dp3404
g61
(dp3405
g88
g89
ssg70
g3394
sg63
(lp3406
S':'
asbag56
(g77
g58
NtRp3407
(dp3408
g61
(dp3409
sg70
g3394
sg63
(lp3410
g56
(g57
g58
NtRp3411
(dp3412
g61
(dp3413
g69
I5
ssg70
g3407
sg63
(lp3414
g56
(g65
g58
NtRp3415
(dp3416
g61
(dp3417
g69
I4
ssg70
Nsg63
(lp3418
sbasbasbasbag56
(g72
g58
NtRp3419
(dp3420
g61
(dp3421
sg70
g2904
sg63
(lp3422
g56
(g77
g58
NtRp3423
(dp3424
g61
(dp3425
g81
g82
ssg70
g3419
sg63
(lp3426
S'session_file'
p3427
asbag56
(g77
g58
NtRp3428
(dp3429
g61
(dp3430
g88
g89
ssg70
g3419
sg63
(lp3431
S':'
asbag56
(g77
g58
NtRp3432
(dp3433
g61
(dp3434
sg70
g3419
sg63
(lp3435
g56
(g57
g58
NtRp3436
(dp3437
g61
(dp3438
g69
I5
ssg70
g3432
sg63
(lp3439
S"<open file '/Users/hellais/Documents/code/sorci/web2py/applications/globaleaks/sessions/127.0.0.1-c6d5b9b3-1ec7-41c1-8d72-04c21b7a6b11', mode 'rb+' at 0x1039e8540>"
p3440
asbasbasbag56
(g72
g58
NtRp3441
(dp3442
g61
(dp3443
sg70
g2904
sg63
(lp3444
g56
(g77
g58
NtRp3445
(dp3446
g61
(dp3447
g81
g82
ssg70
g3441
sg63
(lp3448
S'session_filename'
p3449
asbag56
(g77
g58
NtRp3450
(dp3451
g61
(dp3452
g88
g89
ssg70
g3441
sg63
(lp3453
S':'
asbag56
(g77
g58
NtRp3454
(dp3455
g61
(dp3456
sg70
g3441
sg63
(lp3457
g56
(g57
g58
NtRp3458
(dp3459
g61
(dp3460
g69
I5
ssg70
g3454
sg63
(lp3461
S'/Users/hellais/Documents/code/sorci/web2py/applications/globaleaks/sessions/127.0.0.1-c6d5b9b3-1ec7-41c1-8d72-04c21b7a6b11'
p3462
asbasbasbag56
(g72
g58
NtRp3463
(dp3464
g61
(dp3465
sg70
g2904
sg63
(lp3466
g56
(g77
g58
NtRp3467
(dp3468
g61
(dp3469
g81
g82
ssg70
g3463
sg63
(lp3470
S'session_id'
p3471
asbag56
(g77
g58
NtRp3472
(dp3473
g61
(dp3474
g88
g89
ssg70
g3463
sg63
(lp3475
S':'
asbag56
(g77
g58
NtRp3476
(dp3477
g61
(dp3478
sg70
g3463
sg63
(lp3479
g56
(g57
g58
NtRp3480
(dp3481
g61
(dp3482
g69
I5
ssg70
g3476
sg63
(lp3483
S'127.0.0.1-c6d5b9b3-1ec7-41c1-8d72-04c21b7a6b11'
p3484
asbasbasbag56
(g72
g58
NtRp3485
(dp3486
g61
(dp3487
sg70
g2904
sg63
(lp3488
g56
(g77
g58
NtRp3489
(dp3490
g61
(dp3491
g81
g82
ssg70
g3485
sg63
(lp3492
S'session_id_name'
p3493
asbag56
(g77
g58
NtRp3494
(dp3495
g61
(dp3496
g88
g89
ssg70
g3485
sg63
(lp3497
S':'
asbag56
(g77
g58
NtRp3498
(dp3499
g61
(dp3500
sg70
g3485
sg63
(lp3501
g56
(g57
g58
NtRp3502
(dp3503
g61
(dp3504
g69
I5
ssg70
g3498
sg63
(lp3505
g2961
asbasbasbag56
(g72
g58
NtRp3506
(dp3507
g61
(dp3508
sg70
g2904
sg63
(lp3509
g56
(g77
g58
NtRp3510
(dp3511
g61
(dp3512
g81
g82
ssg70
g3506
sg63
(lp3513
S'session_locked'
p3514
asbag56
(g77
g58
NtRp3515
(dp3516
g61
(dp3517
g88
g89
ssg70
g3506
sg63
(lp3518
S':'
asbag56
(g77
g58
NtRp3519
(dp3520
g61
(dp3521
sg70
g3506
sg63
(lp3522
g56
(g57
g58
NtRp3523
(dp3524
g61
(dp3525
g69
I5
ssg70
g3519
sg63
(lp3526
g1590
asbasbasbag56
(g72
g58
NtRp3527
(dp3528
g61
(dp3529
sg70
g2904
sg63
(lp3530
g56
(g77
g58
NtRp3531
(dp3532
g61
(dp3533
g81
g82
ssg70
g3527
sg63
(lp3534
S'session_new'
p3535
asbag56
(g77
g58
NtRp3536
(dp3537
g61
(dp3538
g88
g89
ssg70
g3527
sg63
(lp3539
S':'
asbag56
(g77
g58
NtRp3540
(dp3541
g61
(dp3542
sg70
g3527
sg63
(lp3543
g56
(g57
g58
NtRp3544
(dp3545
g61
(dp3546
g69
I5
ssg70
g3540
sg63
(lp3547
g99
asbasbasbag56
(g72
g58
NtRp3548
(dp3549
g61
(dp3550
sg70
g2904
sg63
(lp3551
g56
(g77
g58
NtRp3552
(dp3553
g61
(dp3554
g81
g82
ssg70
g3548
sg63
(lp3555
S'status'
p3556
asbag56
(g77
g58
NtRp3557
(dp3558
g61
(dp3559
g88
g89
ssg70
g3548
sg63
(lp3560
S':'
asbag56
(g77
g58
NtRp3561
(dp3562
g61
(dp3563
sg70
g3548
sg63
(lp3564
g56
(g57
g58
NtRp3565
(dp3566
g61
(dp3567
g69
I5
ssg70
g3561
sg63
(lp3568
S'200'
p3569
asbasbasbag56
(g72
g58
NtRp3570
(dp3571
g61
(dp3572
sg70
g2904
sg63
(lp3573
g56
(g77
g58
NtRp3574
(dp3575
g61
(dp3576
g81
g82
ssg70
g3570
sg63
(lp3577
g1914
asbag56
(g77
g58
NtRp3578
(dp3579
g61
(dp3580
g88
g89
ssg70
g3570
sg63
(lp3581
S':'
asbag56
(g77
g58
NtRp3582
(dp3583
g61
(dp3584
sg70
g3570
sg63
(lp3585
g56
(g57
g58
NtRp3586
(dp3587
g61
(dp3588
g69
I5
ssg70
g3582
sg63
(lp3589
g1927
asbasbasbag56
(g72
g58
NtRp3590
(dp3591
g61
(dp3592
sg70
g2904
sg63
(lp3593
g56
(g77
g58
NtRp3594
(dp3595
g61
(dp3596
g81
g82
ssg70
g3590
sg63
(lp3597
S'view'
p3598
asbag56
(g77
g58
NtRp3599
(dp3600
g61
(dp3601
g88
g89
ssg70
g3590
sg63
(lp3602
S':'
asbag56
(g77
g58
NtRp3603
(dp3604
g61
(dp3605
sg70
g3590
sg63
(lp3606
g56
(g57
g58
NtRp3607
(dp3608
g61
(dp3609
g69
I5
ssg70
g3603
sg63
(lp3610
S'default/index.html'
p3611
asbasbasbasbasbsS'locals'
p3612
(dp3613
S'Service'
p3614
S"<class 'gluon.tools.Service'>"
p3615
sS'OBJECT'
p3616
S"<class 'gluon.html.OBJECT'>"
p3617
sS'SQLDB'
p3618
S"<class 'gluon.dal.DAL'>"
p3619
sg2619
S"<Storage {'auth': <Storage {'hmac_key': '17bd0b1...xa6;S\\xb0\\xab\\n\\x13\\xb4\\xc5X\\xdc\\xbdy\\xcbO\\xa6'}>"
p3620
sS'LINK'
p3621
S"<class 'gluon.html.LINK'>"
p3622
sS'BR'
p3623
S"<class 'gluon.html.BR'>"
p3624
sS'local_import'
p3625
S'<function <lambda>>'
p3626
sS'OPTGROUP'
p3627
S"<class 'gluon.html.OPTGROUP'>"
p3628
sS'PRE'
p3629
S"<class 'gluon.html.PRE'>"
p3630
sS'IS_INT_IN_RANGE'
p3631
S"<class 'gluon.validators.IS_INT_IN_RANGE'>"
p3632
sS'IS_LOWER'
p3633
S"<class 'gluon.validators.IS_LOWER'>"
p3634
sS'IS_STRONG'
p3635
S"<class 'gluon.validators.IS_STRONG'>"
p3636
sS'cache'
p3637
S'<gluon.cache.Cache object>'
p3638
sS'IS_IN_DB'
p3639
S"<class 'gluon.validators.IS_IN_DB'>"
p3640
sS'TAG'
p3641
S'<gluon.html.__TAG__ object>'
p3642
sS'SQLField'
p3643
S"<class 'gluon.dal.Field'>"
p3644
sS'BODY'
p3645
S"<class 'gluon.html.BODY'>"
p3646
sS'IS_DATE_IN_RANGE'
p3647
S"<class 'gluon.validators.IS_DATE_IN_RANGE'>"
p3648
sS'IFRAME'
p3649
S"<class 'gluon.html.IFRAME'>"
p3650
sS'URL'
p3651
S'<function URL>'
p3652
sS'__file__'
p3653
S"'/Users/hellais/Documents/code/sorci/web2py/applications/globaleaks/models/db.py'"
p3654
sS'db'
p3655
S"<DAL {'_migrate_enabled': True, '_lastsql': '', ...'_uri_hash': 'c8b669d15150d7109e5f7ab36744a5b7'}>"
p3656
sS'P'
S"<class 'gluon.html.P'>"
p3657
sS'TFOOT'
p3658
S"<class 'gluon.html.TFOOT'>"
p3659
sS'XHTML'
p3660
S"<class 'gluon.html.XHTML'>"
p3661
sS'ON'
p3662
g1590
sS'OL'
p3663
S"<class 'gluon.html.OL'>"
p3664
sS'TEXTAREA'
p3665
S"<class 'gluon.html.TEXTAREA'>"
p3666
sS'settings'
p3667
S"<Storage {'layout_theme': 'Default', 'subtitle':...l_server': 'localhost', 'login_method': 'local'}>"
p3668
sS'MENU'
p3669
S"<class 'gluon.html.MENU'>"
p3670
sS'EM'
p3671
S"<class 'gluon.html.EM'>"
p3672
sS'CODE'
p3673
S"<class 'gluon.html.CODE'>"
p3674
sS'HTTP'
p3675
S"<class 'gluon.http.HTTP'>"
p3676
sS'HR'
p3677
S"<class 'gluon.html.HR'>"
p3678
sS'IS_DATETIME'
p3679
S"<class 'gluon.validators.IS_DATETIME'>"
p3680
sS'Storage'
p3681
S"<class 'gluon.storage.Storage'>"
p3682
sS'STYLE'
p3683
S"<class 'gluon.html.STYLE'>"
p3684
sS'LABEL'
p3685
S"<class 'gluon.html.LABEL'>"
p3686
sS'META'
p3687
S"<class 'gluon.html.META'>"
p3688
sS'plugins'
p3689
S'<gluon.tools.PluginManager object>'
p3690
sS'SELECT'
p3691
S"<class 'gluon.html.SELECT'>"
p3692
sS'CENTER'
p3693
S"<class 'gluon.html.CENTER'>"
p3694
sS'prettydate'
p3695
S'<function prettydate>'
p3696
sS'Crud'
p3697
S"<class 'gluon.tools.Crud'>"
p3698
sS'Auth'
p3699
S"<class 'gluon.tools.Auth'>"
p3700
sS'__builtins__'
p3701
S"{'ArithmeticError': <type 'exceptions.ArithmeticError'>, 'AssertionError': <type 'exceptions.AssertionError'>, 'AttributeError': <type 'exceptions.AttributeError'>, 'BaseException': <type 'exceptions.BaseException'>, 'BufferError': <type 'exceptions.BufferError'>, 'BytesWarning': <type 'exceptions.BytesWarning'>, 'DeprecationWarning': <type 'exceptions.DeprecationWarning'>, 'EOFError': <type 'exceptions.EOFError'>, 'Ellipsis': Ellipsis, 'EnvironmentError': <type 'exceptions.EnvironmentError'>, ...}"
p3702
sS'IS_LIST_OF'
p3703
S"<class 'gluon.validators.IS_LIST_OF'>"
p3704
sS'SQLFORM'
p3705
S"<class 'gluon.sqlhtml.SQLFORM'>"
p3706
sS'LOAD'
p3707
S'<gluon.compileapp.LoadFactory object>'
p3708
sS'redirect'
p3709
S'<function redirect>'
p3710
sS'FIELDSET'
p3711
S"<class 'gluon.html.FIELDSET'>"
p3712
sS'IS_EQUAL_TO'
p3713
S"<class 'gluon.validators.IS_EQUAL_TO'>"
p3714
sS'embed64'
p3715
S'<function embed64>'
p3716
sS'INPUT'
p3717
S"<class 'gluon.html.INPUT'>"
p3718
sS'EMBED'
p3719
S"<class 'gluon.html.EMBED'>"
p3720
sS'FORM'
p3721
S"<class 'gluon.html.FORM'>"
p3722
sS'H2'
p3723
S"<class 'gluon.html.H2'>"
p3724
sS'H3'
p3725
S"<class 'gluon.html.H3'>"
p3726
sS'BUTTON'
p3727
S"<class 'gluon.html.BUTTON'>"
p3728
sS'H1'
p3729
S"<class 'gluon.html.H1'>"
p3730
sS'H6'
p3731
S"<class 'gluon.html.H6'>"
p3732
sS'H4'
p3733
S"<class 'gluon.html.H4'>"
p3734
sS'H5'
p3735
S"<class 'gluon.html.H5'>"
p3736
sS'UL'
p3737
S"<class 'gluon.html.UL'>"
p3738
sS'IS_UPPER'
p3739
S"<class 'gluon.validators.IS_UPPER'>"
p3740
sS'xmlescape'
p3741
S'<function xmlescape>'
p3742
sS'IS_TIME'
p3743
S"<class 'gluon.validators.IS_TIME'>"
p3744
sS'OPTION'
p3745
S"<class 'gluon.html.OPTION'>"
p3746
sS'TITLE'
p3747
S"<class 'gluon.html.TITLE'>"
p3748
sS'CRYPT'
p3749
S"<class 'gluon.validators.CRYPT'>"
p3750
sS'IS_EMPTY_OR'
p3751
S"<class 'gluon.validators.IS_EMPTY_OR'>"
p3752
sS'MARKMIN'
p3753
S"<class 'gluon.html.MARKMIN'>"
p3754
sS'service'
p3755
S'<gluon.tools.Service object>'
p3756
sS'SCRIPT'
p3757
S"<class 'gluon.html.SCRIPT'>"
p3758
sS'TABLE'
p3759
S"<class 'gluon.html.TABLE'>"
p3760
sg47
S'"\\nif request.env.web2py_runtime_gae:            #....sqlite\')       # if not, use SQLite or other DB\\n"'
p3761
sS'IS_LENGTH'
p3762
S"<class 'gluon.validators.IS_LENGTH'>"
p3763
sS'XML'
p3764
S"<class 'gluon.html.XML'>"
p3765
sS'B'
S"<class 'gluon.html.B'>"
p3766
sS'IMG'
p3767
S"<class 'gluon.html.IMG'>"
p3768
sS'SQLTABLE'
p3769
S"<class 'gluon.sqlhtml.SQLTABLE'>"
p3770
sS'IS_MATCH'
p3771
S"<class 'gluon.validators.IS_MATCH'>"
p3772
sS'IS_ALPHANUMERIC'
p3773
S"<class 'gluon.validators.IS_ALPHANUMERIC'>"
p3774
sS'SPAN'
p3775
S"<class 'gluon.html.SPAN'>"
p3776
sS'IS_SLUG'
p3777
S"<class 'gluon.validators.IS_SLUG'>"
p3778
sS'IS_IPV4'
p3779
S"<class 'gluon.validators.IS_IPV4'>"
p3780
sS'CLEANUP'
p3781
S"<class 'gluon.validators.CLEANUP'>"
p3782
sS'IS_DATE'
p3783
S"<class 'gluon.validators.IS_DATE'>"
p3784
sS'IS_EMAIL'
p3785
S"<class 'gluon.validators.IS_EMAIL'>"
p3786
sS'IS_NOT_EMPTY'
p3787
S"<class 'gluon.validators.IS_NOT_EMPTY'>"
p3788
sS'IS_FLOAT_IN_RANGE'
p3789
S"<class 'gluon.validators.IS_FLOAT_IN_RANGE'>"
p3790
sS'BEAUTIFY'
p3791
S"<class 'gluon.html.BEAUTIFY'>"
p3792
sS'TBODY'
p3793
S"<class 'gluon.html.TBODY'>"
p3794
sS'CAT'
p3795
S"<class 'gluon.html.CAT'>"
p3796
sS'Field'
p3797
S"<class 'gluon.dal.Field'>"
p3798
sS'Mail'
p3799
S"<class 'gluon.tools.Mail'>"
p3800
sS'DIV'
p3801
S"<class 'gluon.html.DIV'>"
p3802
sS'LEGEND'
p3803
S"<class 'gluon.html.LEGEND'>"
p3804
sS'DAL'
p3805
S"<class 'gluon.dal.DAL'>"
p3806
sS'TT'
p3807
S"<class 'gluon.html.TT'>"
p3808
sS'TR'
p3809
S"<class 'gluon.html.TR'>"
p3810
sS'LI'
p3811
S"<class 'gluon.html.LI'>"
p3812
sS'TH'
p3813
S"<class 'gluon.html.TH'>"
p3814
sS'TD'
p3815
S"<class 'gluon.html.TD'>"
p3816
sS'PluginManager'
p3817
S"<class 'gluon.tools.PluginManager'>"
p3818
sS'IS_URL'
p3819
S"<class 'gluon.validators.IS_URL'>"
p3820
sS'A'
S"<class 'gluon.html.A'>"
p3821
sS'HEAD'
p3822
S"<class 'gluon.html.HEAD'>"
p3823
sS'IS_DATETIME_IN_RANGE'
p3824
S"<class 'gluon.validators.IS_DATETIME_IN_RANGE'>"
p3825
sS'HTML'
p3826
S"<class 'gluon.html.HTML'>"
p3827
sS'IS_IMAGE'
p3828
S"<class 'gluon.validators.IS_IMAGE'>"
p3829
sS'I'
S"<class 'gluon.html.I'>"
p3830
sS'crud'
p3831
S'<gluon.tools.Crud object>'
p3832
sS'IS_NOT_IN_DB'
p3833
S"<class 'gluon.validators.IS_NOT_IN_DB'>"
p3834
sg2899
S"<Storage {'status': 200, 'body': <cStringIO.Stri...2a8>, 'files': [], 'view': 'default/index.html'}>"
p3835
sS'THEAD'
p3836
S"<class 'gluon.html.THEAD'>"
p3837
sS'IS_NULL_OR'
p3838
S"<class 'gluon.validators.IS_EMPTY_OR'>"
p3839
sg55
S"<Storage {'is_local': True, 'function': 'index',....00-24-58.fdf5ff1e-f9d2-4950-9e07-7971fc06f8ed'}>"
p3840
sS'IS_EXPR'
p3841
S"<class 'gluon.validators.IS_EXPR'>"
p3842
sS'IS_IN_SET'
p3843
S"<class 'gluon.validators.IS_IN_SET'>"
p3844
sS'IS_UPLOAD_FILENAME'
p3845
S"<class 'gluon.validators.IS_UPLOAD_FILENAME'>"
p3846
sS'IS_DECIMAL_IN_RANGE'
p3847
S"<class 'gluon.validators.IS_DECIMAL_IN_RANGE'>"
p3848
sS'T'
S'<gluon.languages.translator object>'
p3849
sssS'traceback'
p3850
S'Traceback (most recent call last):\n  File "/Users/hellais/Documents/code/sorci/web2py/gluon/restricted.py", line 192, in restricted\n    exec ccode in environment\n  File "/Users/hellais/Documents/code/sorci/web2py/applications/globaleaks/models/db.py", line 51, in <module>\n    mail.settings.server = \'logging\' or \'smtp.gmail.com:587\'  # your SMTP server\nNameError: name \'mail\' is not defined\n'
p3851
s.