(dp1
S'output'
p2
S''
sS'layer'
p3
S'/Users/hellais/Documents/code/mygit/globaleaks/webapp/applications/init/controllers/default.py'
p4
sS'code'
p5
S'# -*- coding: utf-8 -*-\n### required - do no delete\ndef user(): return dict(form=auth())\ndef download(): return response.download(request,db)\ndef call():\n    session.forget()\n    return service()\n### end requires\ndef index():\n    return dict(message=T("Diocane"))\n\ndef submission():\n    form_content = (Field(\'Title\', requires=IS_NOT_EMPTY()),\n                    Field(\'Description\', \'text\', requires=IS_NOT_EMPTY()),\n                    Field(\'Tags\'),Field(\'material\', \'upload\', uploadfolder="uploads/"),\n                    Field(\'dislaimer\', \'boolean\', requires=IS_EQUAL_TO("on", error_message="Please read the disclaimer")))\n   \n    form = SQLFORM.factory(*form_content)\n    \n    if form.accepts(request.vars, session):\n        l = request.vars\n        gl.create_leak(l.Title, l.Description, None, None \n            {"Al Jazeera":10 , "CNN":20}, l.Tags)\n\n        response.flash = \'form accepted\'\n    elif form.errors:\n        response.flash = \'form has errors\'\n    else:\n        response.flash = \'please fill the form\'        \n        \n    return dict(form=form)\n\ndef error():\n    return dict()\n\nresponse._vars=response._caller(submission)\n'
p6
sS'snapshot'
p7
(dp8
S'exception'
p9
(dp10
S'__getslice__'
p11
S"<method-wrapper '__getslice__' of exceptions.SyntaxError object>"
p12
sS'text'
p13
S'\'            {"Al Jazeera":10 , "CNN":20}, l.Tags)\\n\''
p14
sS'__str__'
p15
S"<method-wrapper '__str__' of exceptions.SyntaxError object>"
p16
sS'__reduce__'
p17
S'<built-in method __reduce__ of exceptions.SyntaxError object>'
p18
sS'__dict__'
p19
S'{}'
p20
sS'__sizeof__'
p21
S'<built-in method __sizeof__ of exceptions.SyntaxError object>'
p22
sS'__init__'
p23
S"<method-wrapper '__init__' of exceptions.SyntaxError object>"
p24
sS'__setattr__'
p25
S"<method-wrapper '__setattr__' of exceptions.SyntaxError object>"
p26
sS'__reduce_ex__'
p27
S'<built-in method __reduce_ex__ of exceptions.SyntaxError object>'
p28
sS'__new__'
p29
S'<built-in method __new__ of type object>'
p30
sS'__format__'
p31
S'<built-in method __format__ of exceptions.SyntaxError object>'
p32
sS'__class__'
p33
S"<type 'exceptions.SyntaxError'>"
p34
sS'filename'
p35
S"'/Users/hellais/Documents/code/mygit/globaleaks/webapp/applications/init/controllers/default.py'"
p36
sS'lineno'
p37
S'23'
p38
sS'msg'
p39
S"'invalid syntax'"
p40
sS'__doc__'
p41
S"'Invalid syntax.'"
p42
sS'__getitem__'
p43
S"<method-wrapper '__getitem__' of exceptions.SyntaxError object>"
p44
sS'__setstate__'
p45
S'<built-in method __setstate__ of exceptions.SyntaxError object>'
p46
sS'__getattribute__'
p47
S"<method-wrapper '__getattribute__' of exceptions.SyntaxError object>"
p48
sS'print_file_and_line'
p49
S'None'
p50
sS'args'
p51
S'(\'invalid syntax\', (\'/Users/hellais/Documents/code/mygit/globaleaks/webapp/applications/init/controllers/default.py\', 23, 13, \'            {"Al Jazeera":10 , "CNN":20}, l.Tags)\\n\'))'
p52
sS'__subclasshook__'
p53
S'<built-in method __subclasshook__ of type object>'
p54
sS'offset'
p55
S'13'
p56
sS'__unicode__'
p57
S'<built-in method __unicode__ of exceptions.SyntaxError object>'
p58
sS'__delattr__'
p59
S"<method-wrapper '__delattr__' of exceptions.SyntaxError object>"
p60
sS'__repr__'
p61
S"<method-wrapper '__repr__' of exceptions.SyntaxError object>"
p62
sS'__hash__'
p63
S"<method-wrapper '__hash__' of exceptions.SyntaxError object>"
p64
ssS'evalue'
p65
S'invalid syntax (default.py, line 23)'
p66
sS'request'
p67
ccopy_reg
_reconstructor
p68
(cgluon.html
BEAUTIFY
p69
c__builtin__
object
p70
NtRp71
(dp72
S'attributes'
p73
(dp74
sS'components'
p75
(lp76
g68
(cgluon.html
TABLE
p77
g70
NtRp78
(dp79
g73
(dp80
S'level'
p81
I5
ssS'parent'
p82
Nsg75
(lp83
g68
(cgluon.html
TR
p84
g70
NtRp85
(dp86
g73
(dp87
sg82
g78
sg75
(lp88
g68
(cgluon.html
TD
p89
g70
NtRp90
(dp91
g73
(dp92
S'_style'
p93
S'font-weight:bold;'
p94
ssg82
g85
sg75
(lp95
S'ajax'
p96
asbag68
(g89
g70
NtRp97
(dp98
g73
(dp99
S'_valign'
p100
S'top'
p101
ssg82
g85
sg75
(lp102
S':'
asbag68
(g89
g70
NtRp103
(dp104
g73
(dp105
sg82
g85
sg75
(lp106
g68
(g69
g70
NtRp107
(dp108
g73
(dp109
g81
I5
ssg82
g103
sg75
(lp110
S'False'
p111
asbasbasbag68
(g84
g70
NtRp112
(dp113
g73
(dp114
sg82
g78
sg75
(lp115
g68
(g89
g70
NtRp116
(dp117
g73
(dp118
g93
g94
ssg82
g112
sg75
(lp119
S'application'
p120
asbag68
(g89
g70
NtRp121
(dp122
g73
(dp123
g100
g101
ssg82
g112
sg75
(lp124
S':'
asbag68
(g89
g70
NtRp125
(dp126
g73
(dp127
sg82
g112
sg75
(lp128
g68
(g69
g70
NtRp129
(dp130
g73
(dp131
g81
I5
ssg82
g125
sg75
(lp132
S'init'
p133
asbasbasbag68
(g84
g70
NtRp134
(dp135
g73
(dp136
sg82
g78
sg75
(lp137
g68
(g89
g70
NtRp138
(dp139
g73
(dp140
g93
g94
ssg82
g134
sg75
(lp141
g51
asbag68
(g89
g70
NtRp142
(dp143
g73
(dp144
g100
g101
ssg82
g134
sg75
(lp145
S':'
asbag68
(g89
g70
NtRp146
(dp147
g73
(dp148
sg82
g134
sg75
(lp149
g68
(g69
g70
NtRp150
(dp151
g73
(dp152
g81
I5
ssg82
g146
sg75
(lp153
g68
(g77
g70
NtRp154
(dp155
g73
(dp156
g81
I4
ssg82
Nsg75
(lp157
sbasbasbasbag68
(g84
g70
NtRp158
(dp159
g73
(dp160
sg82
g78
sg75
(lp161
g68
(g89
g70
NtRp162
(dp163
g73
(dp164
g93
g94
ssg82
g158
sg75
(lp165
S'body'
p166
asbag68
(g89
g70
NtRp167
(dp168
g73
(dp169
g100
g101
ssg82
g158
sg75
(lp170
S':'
asbag68
(g89
g70
NtRp171
(dp172
g73
(dp173
sg82
g158
sg75
(lp174
g68
(g69
g70
NtRp175
(dp176
g73
(dp177
g81
I5
ssg82
g171
sg75
(lp178
S"<open file '<fdopen>', mode 'w+b' at 0x1021b3030>"
p179
asbasbasbag68
(g84
g70
NtRp180
(dp181
g73
(dp182
sg82
g78
sg75
(lp183
g68
(g89
g70
NtRp184
(dp185
g73
(dp186
g93
g94
ssg82
g180
sg75
(lp187
S'client'
p188
asbag68
(g89
g70
NtRp189
(dp190
g73
(dp191
g100
g101
ssg82
g180
sg75
(lp192
S':'
asbag68
(g89
g70
NtRp193
(dp194
g73
(dp195
sg82
g180
sg75
(lp196
g68
(g69
g70
NtRp197
(dp198
g73
(dp199
g81
I5
ssg82
g193
sg75
(lp200
S'127.0.0.1'
p201
asbasbasbag68
(g84
g70
NtRp202
(dp203
g73
(dp204
sg82
g78
sg75
(lp205
g68
(g89
g70
NtRp206
(dp207
g73
(dp208
g93
g94
ssg82
g202
sg75
(lp209
S'controller'
p210
asbag68
(g89
g70
NtRp211
(dp212
g73
(dp213
g100
g101
ssg82
g202
sg75
(lp214
S':'
asbag68
(g89
g70
NtRp215
(dp216
g73
(dp217
sg82
g202
sg75
(lp218
g68
(g69
g70
NtRp219
(dp220
g73
(dp221
g81
I5
ssg82
g215
sg75
(lp222
S'default'
p223
asbasbasbag68
(g84
g70
NtRp224
(dp225
g73
(dp226
sg82
g78
sg75
(lp227
g68
(g89
g70
NtRp228
(dp229
g73
(dp230
g93
g94
ssg82
g224
sg75
(lp231
S'cookies'
p232
asbag68
(g89
g70
NtRp233
(dp234
g73
(dp235
g100
g101
ssg82
g224
sg75
(lp236
S':'
asbag68
(g89
g70
NtRp237
(dp238
g73
(dp239
sg82
g224
sg75
(lp240
g68
(g69
g70
NtRp241
(dp242
g73
(dp243
g81
I5
ssg82
g237
sg75
(lp244
g68
(g77
g70
NtRp245
(dp246
g73
(dp247
g81
I4
ssg82
Nsg75
(lp248
g68
(g84
g70
NtRp249
(dp250
g73
(dp251
sg82
g245
sg75
(lp252
g68
(g89
g70
NtRp253
(dp254
g73
(dp255
g93
g94
ssg82
g249
sg75
(lp256
S'session_id_admin'
p257
asbag68
(g89
g70
NtRp258
(dp259
g73
(dp260
g100
g101
ssg82
g249
sg75
(lp261
S':'
asbag68
(g89
g70
NtRp262
(dp263
g73
(dp264
sg82
g249
sg75
(lp265
g68
(g69
g70
NtRp266
(dp267
g73
(dp268
g81
I4
ssg82
g262
sg75
(lp269
g68
(g77
g70
NtRp270
(dp271
g73
(dp272
g81
I3
ssg82
Nsg75
(lp273
g68
(g84
g70
NtRp274
(dp275
g73
(dp276
sg82
g270
sg75
(lp277
g68
(g89
g70
NtRp278
(dp279
g73
(dp280
g93
g94
ssg82
g274
sg75
(lp281
S'comment'
p282
asbag68
(g89
g70
NtRp283
(dp284
g73
(dp285
g100
g101
ssg82
g274
sg75
(lp286
S':'
asbag68
(g89
g70
NtRp287
(dp288
g73
(dp289
sg82
g274
sg75
(lp290
g68
(g69
g70
NtRp291
(dp292
g73
(dp293
g81
I3
ssg82
g287
sg75
(lp294
S''
asbasbasbag68
(g84
g70
NtRp295
(dp296
g73
(dp297
sg82
g270
sg75
(lp298
g68
(g89
g70
NtRp299
(dp300
g73
(dp301
g93
g94
ssg82
g295
sg75
(lp302
S'domain'
p303
asbag68
(g89
g70
NtRp304
(dp305
g73
(dp306
g100
g101
ssg82
g295
sg75
(lp307
S':'
asbag68
(g89
g70
NtRp308
(dp309
g73
(dp310
sg82
g295
sg75
(lp311
g68
(g69
g70
NtRp312
(dp313
g73
(dp314
g81
I3
ssg82
g308
sg75
(lp315
S''
asbasbasbag68
(g84
g70
NtRp316
(dp317
g73
(dp318
sg82
g270
sg75
(lp319
g68
(g89
g70
NtRp320
(dp321
g73
(dp322
g93
g94
ssg82
g316
sg75
(lp323
S'expires'
p324
asbag68
(g89
g70
NtRp325
(dp326
g73
(dp327
g100
g101
ssg82
g316
sg75
(lp328
S':'
asbag68
(g89
g70
NtRp329
(dp330
g73
(dp331
sg82
g316
sg75
(lp332
g68
(g69
g70
NtRp333
(dp334
g73
(dp335
g81
I3
ssg82
g329
sg75
(lp336
S''
asbasbasbag68
(g84
g70
NtRp337
(dp338
g73
(dp339
sg82
g270
sg75
(lp340
g68
(g89
g70
NtRp341
(dp342
g73
(dp343
g93
g94
ssg82
g337
sg75
(lp344
S'httponly'
p345
asbag68
(g89
g70
NtRp346
(dp347
g73
(dp348
g100
g101
ssg82
g337
sg75
(lp349
S':'
asbag68
(g89
g70
NtRp350
(dp351
g73
(dp352
sg82
g337
sg75
(lp353
g68
(g69
g70
NtRp354
(dp355
g73
(dp356
g81
I3
ssg82
g350
sg75
(lp357
S''
asbasbasbag68
(g84
g70
NtRp358
(dp359
g73
(dp360
sg82
g270
sg75
(lp361
g68
(g89
g70
NtRp362
(dp363
g73
(dp364
g93
g94
ssg82
g358
sg75
(lp365
S'max-age'
p366
asbag68
(g89
g70
NtRp367
(dp368
g73
(dp369
g100
g101
ssg82
g358
sg75
(lp370
S':'
asbag68
(g89
g70
NtRp371
(dp372
g73
(dp373
sg82
g358
sg75
(lp374
g68
(g69
g70
NtRp375
(dp376
g73
(dp377
g81
I3
ssg82
g371
sg75
(lp378
S''
asbasbasbag68
(g84
g70
NtRp379
(dp380
g73
(dp381
sg82
g270
sg75
(lp382
g68
(g89
g70
NtRp383
(dp384
g73
(dp385
g93
g94
ssg82
g379
sg75
(lp386
S'path'
p387
asbag68
(g89
g70
NtRp388
(dp389
g73
(dp390
g100
g101
ssg82
g379
sg75
(lp391
S':'
asbag68
(g89
g70
NtRp392
(dp393
g73
(dp394
sg82
g379
sg75
(lp395
g68
(g69
g70
NtRp396
(dp397
g73
(dp398
g81
I3
ssg82
g392
sg75
(lp399
S''
asbasbasbag68
(g84
g70
NtRp400
(dp401
g73
(dp402
sg82
g270
sg75
(lp403
g68
(g89
g70
NtRp404
(dp405
g73
(dp406
g93
g94
ssg82
g400
sg75
(lp407
S'secure'
p408
asbag68
(g89
g70
NtRp409
(dp410
g73
(dp411
g100
g101
ssg82
g400
sg75
(lp412
S':'
asbag68
(g89
g70
NtRp413
(dp414
g73
(dp415
sg82
g400
sg75
(lp416
g68
(g69
g70
NtRp417
(dp418
g73
(dp419
g81
I3
ssg82
g413
sg75
(lp420
S''
asbasbasbag68
(g84
g70
NtRp421
(dp422
g73
(dp423
sg82
g270
sg75
(lp424
g68
(g89
g70
NtRp425
(dp426
g73
(dp427
g93
g94
ssg82
g421
sg75
(lp428
S'version'
p429
asbag68
(g89
g70
NtRp430
(dp431
g73
(dp432
g100
g101
ssg82
g421
sg75
(lp433
S':'
asbag68
(g89
g70
NtRp434
(dp435
g73
(dp436
sg82
g421
sg75
(lp437
g68
(g69
g70
NtRp438
(dp439
g73
(dp440
g81
I3
ssg82
g434
sg75
(lp441
S''
asbasbasbasbasbasbasbag68
(g84
g70
NtRp442
(dp443
g73
(dp444
sg82
g245
sg75
(lp445
g68
(g89
g70
NtRp446
(dp447
g73
(dp448
g93
g94
ssg82
g442
sg75
(lp449
S'session_id_blabla'
p450
asbag68
(g89
g70
NtRp451
(dp452
g73
(dp453
g100
g101
ssg82
g442
sg75
(lp454
S':'
asbag68
(g89
g70
NtRp455
(dp456
g73
(dp457
sg82
g442
sg75
(lp458
g68
(g69
g70
NtRp459
(dp460
g73
(dp461
g81
I4
ssg82
g455
sg75
(lp462
g68
(g77
g70
NtRp463
(dp464
g73
(dp465
g81
I3
ssg82
Nsg75
(lp466
g68
(g84
g70
NtRp467
(dp468
g73
(dp469
sg82
g463
sg75
(lp470
g68
(g89
g70
NtRp471
(dp472
g73
(dp473
g93
g94
ssg82
g467
sg75
(lp474
g282
asbag68
(g89
g70
NtRp475
(dp476
g73
(dp477
g100
g101
ssg82
g467
sg75
(lp478
S':'
asbag68
(g89
g70
NtRp479
(dp480
g73
(dp481
sg82
g467
sg75
(lp482
g68
(g69
g70
NtRp483
(dp484
g73
(dp485
g81
I3
ssg82
g479
sg75
(lp486
S''
asbasbasbag68
(g84
g70
NtRp487
(dp488
g73
(dp489
sg82
g463
sg75
(lp490
g68
(g89
g70
NtRp491
(dp492
g73
(dp493
g93
g94
ssg82
g487
sg75
(lp494
g303
asbag68
(g89
g70
NtRp495
(dp496
g73
(dp497
g100
g101
ssg82
g487
sg75
(lp498
S':'
asbag68
(g89
g70
NtRp499
(dp500
g73
(dp501
sg82
g487
sg75
(lp502
g68
(g69
g70
NtRp503
(dp504
g73
(dp505
g81
I3
ssg82
g499
sg75
(lp506
S''
asbasbasbag68
(g84
g70
NtRp507
(dp508
g73
(dp509
sg82
g463
sg75
(lp510
g68
(g89
g70
NtRp511
(dp512
g73
(dp513
g93
g94
ssg82
g507
sg75
(lp514
g324
asbag68
(g89
g70
NtRp515
(dp516
g73
(dp517
g100
g101
ssg82
g507
sg75
(lp518
S':'
asbag68
(g89
g70
NtRp519
(dp520
g73
(dp521
sg82
g507
sg75
(lp522
g68
(g69
g70
NtRp523
(dp524
g73
(dp525
g81
I3
ssg82
g519
sg75
(lp526
S''
asbasbasbag68
(g84
g70
NtRp527
(dp528
g73
(dp529
sg82
g463
sg75
(lp530
g68
(g89
g70
NtRp531
(dp532
g73
(dp533
g93
g94
ssg82
g527
sg75
(lp534
g345
asbag68
(g89
g70
NtRp535
(dp536
g73
(dp537
g100
g101
ssg82
g527
sg75
(lp538
S':'
asbag68
(g89
g70
NtRp539
(dp540
g73
(dp541
sg82
g527
sg75
(lp542
g68
(g69
g70
NtRp543
(dp544
g73
(dp545
g81
I3
ssg82
g539
sg75
(lp546
S''
asbasbasbag68
(g84
g70
NtRp547
(dp548
g73
(dp549
sg82
g463
sg75
(lp550
g68
(g89
g70
NtRp551
(dp552
g73
(dp553
g93
g94
ssg82
g547
sg75
(lp554
g366
asbag68
(g89
g70
NtRp555
(dp556
g73
(dp557
g100
g101
ssg82
g547
sg75
(lp558
S':'
asbag68
(g89
g70
NtRp559
(dp560
g73
(dp561
sg82
g547
sg75
(lp562
g68
(g69
g70
NtRp563
(dp564
g73
(dp565
g81
I3
ssg82
g559
sg75
(lp566
S''
asbasbasbag68
(g84
g70
NtRp567
(dp568
g73
(dp569
sg82
g463
sg75
(lp570
g68
(g89
g70
NtRp571
(dp572
g73
(dp573
g93
g94
ssg82
g567
sg75
(lp574
g387
asbag68
(g89
g70
NtRp575
(dp576
g73
(dp577
g100
g101
ssg82
g567
sg75
(lp578
S':'
asbag68
(g89
g70
NtRp579
(dp580
g73
(dp581
sg82
g567
sg75
(lp582
g68
(g69
g70
NtRp583
(dp584
g73
(dp585
g81
I3
ssg82
g579
sg75
(lp586
S''
asbasbasbag68
(g84
g70
NtRp587
(dp588
g73
(dp589
sg82
g463
sg75
(lp590
g68
(g89
g70
NtRp591
(dp592
g73
(dp593
g93
g94
ssg82
g587
sg75
(lp594
g408
asbag68
(g89
g70
NtRp595
(dp596
g73
(dp597
g100
g101
ssg82
g587
sg75
(lp598
S':'
asbag68
(g89
g70
NtRp599
(dp600
g73
(dp601
sg82
g587
sg75
(lp602
g68
(g69
g70
NtRp603
(dp604
g73
(dp605
g81
I3
ssg82
g599
sg75
(lp606
S''
asbasbasbag68
(g84
g70
NtRp607
(dp608
g73
(dp609
sg82
g463
sg75
(lp610
g68
(g89
g70
NtRp611
(dp612
g73
(dp613
g93
g94
ssg82
g607
sg75
(lp614
g429
asbag68
(g89
g70
NtRp615
(dp616
g73
(dp617
g100
g101
ssg82
g607
sg75
(lp618
S':'
asbag68
(g89
g70
NtRp619
(dp620
g73
(dp621
sg82
g607
sg75
(lp622
g68
(g69
g70
NtRp623
(dp624
g73
(dp625
g81
I3
ssg82
g619
sg75
(lp626
S''
asbasbasbasbasbasbasbag68
(g84
g70
NtRp627
(dp628
g73
(dp629
sg82
g245
sg75
(lp630
g68
(g89
g70
NtRp631
(dp632
g73
(dp633
g93
g94
ssg82
g627
sg75
(lp634
S'session_id_globaleaks'
p635
asbag68
(g89
g70
NtRp636
(dp637
g73
(dp638
g100
g101
ssg82
g627
sg75
(lp639
S':'
asbag68
(g89
g70
NtRp640
(dp641
g73
(dp642
sg82
g627
sg75
(lp643
g68
(g69
g70
NtRp644
(dp645
g73
(dp646
g81
I4
ssg82
g640
sg75
(lp647
g68
(g77
g70
NtRp648
(dp649
g73
(dp650
g81
I3
ssg82
Nsg75
(lp651
g68
(g84
g70
NtRp652
(dp653
g73
(dp654
sg82
g648
sg75
(lp655
g68
(g89
g70
NtRp656
(dp657
g73
(dp658
g93
g94
ssg82
g652
sg75
(lp659
g282
asbag68
(g89
g70
NtRp660
(dp661
g73
(dp662
g100
g101
ssg82
g652
sg75
(lp663
S':'
asbag68
(g89
g70
NtRp664
(dp665
g73
(dp666
sg82
g652
sg75
(lp667
g68
(g69
g70
NtRp668
(dp669
g73
(dp670
g81
I3
ssg82
g664
sg75
(lp671
S''
asbasbasbag68
(g84
g70
NtRp672
(dp673
g73
(dp674
sg82
g648
sg75
(lp675
g68
(g89
g70
NtRp676
(dp677
g73
(dp678
g93
g94
ssg82
g672
sg75
(lp679
g303
asbag68
(g89
g70
NtRp680
(dp681
g73
(dp682
g100
g101
ssg82
g672
sg75
(lp683
S':'
asbag68
(g89
g70
NtRp684
(dp685
g73
(dp686
sg82
g672
sg75
(lp687
g68
(g69
g70
NtRp688
(dp689
g73
(dp690
g81
I3
ssg82
g684
sg75
(lp691
S''
asbasbasbag68
(g84
g70
NtRp692
(dp693
g73
(dp694
sg82
g648
sg75
(lp695
g68
(g89
g70
NtRp696
(dp697
g73
(dp698
g93
g94
ssg82
g692
sg75
(lp699
g324
asbag68
(g89
g70
NtRp700
(dp701
g73
(dp702
g100
g101
ssg82
g692
sg75
(lp703
S':'
asbag68
(g89
g70
NtRp704
(dp705
g73
(dp706
sg82
g692
sg75
(lp707
g68
(g69
g70
NtRp708
(dp709
g73
(dp710
g81
I3
ssg82
g704
sg75
(lp711
S''
asbasbasbag68
(g84
g70
NtRp712
(dp713
g73
(dp714
sg82
g648
sg75
(lp715
g68
(g89
g70
NtRp716
(dp717
g73
(dp718
g93
g94
ssg82
g712
sg75
(lp719
g345
asbag68
(g89
g70
NtRp720
(dp721
g73
(dp722
g100
g101
ssg82
g712
sg75
(lp723
S':'
asbag68
(g89
g70
NtRp724
(dp725
g73
(dp726
sg82
g712
sg75
(lp727
g68
(g69
g70
NtRp728
(dp729
g73
(dp730
g81
I3
ssg82
g724
sg75
(lp731
S''
asbasbasbag68
(g84
g70
NtRp732
(dp733
g73
(dp734
sg82
g648
sg75
(lp735
g68
(g89
g70
NtRp736
(dp737
g73
(dp738
g93
g94
ssg82
g732
sg75
(lp739
g366
asbag68
(g89
g70
NtRp740
(dp741
g73
(dp742
g100
g101
ssg82
g732
sg75
(lp743
S':'
asbag68
(g89
g70
NtRp744
(dp745
g73
(dp746
sg82
g732
sg75
(lp747
g68
(g69
g70
NtRp748
(dp749
g73
(dp750
g81
I3
ssg82
g744
sg75
(lp751
S''
asbasbasbag68
(g84
g70
NtRp752
(dp753
g73
(dp754
sg82
g648
sg75
(lp755
g68
(g89
g70
NtRp756
(dp757
g73
(dp758
g93
g94
ssg82
g752
sg75
(lp759
g387
asbag68
(g89
g70
NtRp760
(dp761
g73
(dp762
g100
g101
ssg82
g752
sg75
(lp763
S':'
asbag68
(g89
g70
NtRp764
(dp765
g73
(dp766
sg82
g752
sg75
(lp767
g68
(g69
g70
NtRp768
(dp769
g73
(dp770
g81
I3
ssg82
g764
sg75
(lp771
S''
asbasbasbag68
(g84
g70
NtRp772
(dp773
g73
(dp774
sg82
g648
sg75
(lp775
g68
(g89
g70
NtRp776
(dp777
g73
(dp778
g93
g94
ssg82
g772
sg75
(lp779
g408
asbag68
(g89
g70
NtRp780
(dp781
g73
(dp782
g100
g101
ssg82
g772
sg75
(lp783
S':'
asbag68
(g89
g70
NtRp784
(dp785
g73
(dp786
sg82
g772
sg75
(lp787
g68
(g69
g70
NtRp788
(dp789
g73
(dp790
g81
I3
ssg82
g784
sg75
(lp791
S''
asbasbasbag68
(g84
g70
NtRp792
(dp793
g73
(dp794
sg82
g648
sg75
(lp795
g68
(g89
g70
NtRp796
(dp797
g73
(dp798
g93
g94
ssg82
g792
sg75
(lp799
g429
asbag68
(g89
g70
NtRp800
(dp801
g73
(dp802
g100
g101
ssg82
g792
sg75
(lp803
S':'
asbag68
(g89
g70
NtRp804
(dp805
g73
(dp806
sg82
g792
sg75
(lp807
g68
(g69
g70
NtRp808
(dp809
g73
(dp810
g81
I3
ssg82
g804
sg75
(lp811
S''
asbasbasbasbasbasbasbag68
(g84
g70
NtRp812
(dp813
g73
(dp814
sg82
g245
sg75
(lp815
g68
(g89
g70
NtRp816
(dp817
g73
(dp818
g93
g94
ssg82
g812
sg75
(lp819
S'session_id_init'
p820
asbag68
(g89
g70
NtRp821
(dp822
g73
(dp823
g100
g101
ssg82
g812
sg75
(lp824
S':'
asbag68
(g89
g70
NtRp825
(dp826
g73
(dp827
sg82
g812
sg75
(lp828
g68
(g69
g70
NtRp829
(dp830
g73
(dp831
g81
I4
ssg82
g825
sg75
(lp832
g68
(g77
g70
NtRp833
(dp834
g73
(dp835
g81
I3
ssg82
Nsg75
(lp836
g68
(g84
g70
NtRp837
(dp838
g73
(dp839
sg82
g833
sg75
(lp840
g68
(g89
g70
NtRp841
(dp842
g73
(dp843
g93
g94
ssg82
g837
sg75
(lp844
g282
asbag68
(g89
g70
NtRp845
(dp846
g73
(dp847
g100
g101
ssg82
g837
sg75
(lp848
S':'
asbag68
(g89
g70
NtRp849
(dp850
g73
(dp851
sg82
g837
sg75
(lp852
g68
(g69
g70
NtRp853
(dp854
g73
(dp855
g81
I3
ssg82
g849
sg75
(lp856
S''
asbasbasbag68
(g84
g70
NtRp857
(dp858
g73
(dp859
sg82
g833
sg75
(lp860
g68
(g89
g70
NtRp861
(dp862
g73
(dp863
g93
g94
ssg82
g857
sg75
(lp864
g303
asbag68
(g89
g70
NtRp865
(dp866
g73
(dp867
g100
g101
ssg82
g857
sg75
(lp868
S':'
asbag68
(g89
g70
NtRp869
(dp870
g73
(dp871
sg82
g857
sg75
(lp872
g68
(g69
g70
NtRp873
(dp874
g73
(dp875
g81
I3
ssg82
g869
sg75
(lp876
S''
asbasbasbag68
(g84
g70
NtRp877
(dp878
g73
(dp879
sg82
g833
sg75
(lp880
g68
(g89
g70
NtRp881
(dp882
g73
(dp883
g93
g94
ssg82
g877
sg75
(lp884
g324
asbag68
(g89
g70
NtRp885
(dp886
g73
(dp887
g100
g101
ssg82
g877
sg75
(lp888
S':'
asbag68
(g89
g70
NtRp889
(dp890
g73
(dp891
sg82
g877
sg75
(lp892
g68
(g69
g70
NtRp893
(dp894
g73
(dp895
g81
I3
ssg82
g889
sg75
(lp896
S''
asbasbasbag68
(g84
g70
NtRp897
(dp898
g73
(dp899
sg82
g833
sg75
(lp900
g68
(g89
g70
NtRp901
(dp902
g73
(dp903
g93
g94
ssg82
g897
sg75
(lp904
g345
asbag68
(g89
g70
NtRp905
(dp906
g73
(dp907
g100
g101
ssg82
g897
sg75
(lp908
S':'
asbag68
(g89
g70
NtRp909
(dp910
g73
(dp911
sg82
g897
sg75
(lp912
g68
(g69
g70
NtRp913
(dp914
g73
(dp915
g81
I3
ssg82
g909
sg75
(lp916
S''
asbasbasbag68
(g84
g70
NtRp917
(dp918
g73
(dp919
sg82
g833
sg75
(lp920
g68
(g89
g70
NtRp921
(dp922
g73
(dp923
g93
g94
ssg82
g917
sg75
(lp924
g366
asbag68
(g89
g70
NtRp925
(dp926
g73
(dp927
g100
g101
ssg82
g917
sg75
(lp928
S':'
asbag68
(g89
g70
NtRp929
(dp930
g73
(dp931
sg82
g917
sg75
(lp932
g68
(g69
g70
NtRp933
(dp934
g73
(dp935
g81
I3
ssg82
g929
sg75
(lp936
S''
asbasbasbag68
(g84
g70
NtRp937
(dp938
g73
(dp939
sg82
g833
sg75
(lp940
g68
(g89
g70
NtRp941
(dp942
g73
(dp943
g93
g94
ssg82
g937
sg75
(lp944
g387
asbag68
(g89
g70
NtRp945
(dp946
g73
(dp947
g100
g101
ssg82
g937
sg75
(lp948
S':'
asbag68
(g89
g70
NtRp949
(dp950
g73
(dp951
sg82
g937
sg75
(lp952
g68
(g69
g70
NtRp953
(dp954
g73
(dp955
g81
I3
ssg82
g949
sg75
(lp956
S''
asbasbasbag68
(g84
g70
NtRp957
(dp958
g73
(dp959
sg82
g833
sg75
(lp960
g68
(g89
g70
NtRp961
(dp962
g73
(dp963
g93
g94
ssg82
g957
sg75
(lp964
g408
asbag68
(g89
g70
NtRp965
(dp966
g73
(dp967
g100
g101
ssg82
g957
sg75
(lp968
S':'
asbag68
(g89
g70
NtRp969
(dp970
g73
(dp971
sg82
g957
sg75
(lp972
g68
(g69
g70
NtRp973
(dp974
g73
(dp975
g81
I3
ssg82
g969
sg75
(lp976
S''
asbasbasbag68
(g84
g70
NtRp977
(dp978
g73
(dp979
sg82
g833
sg75
(lp980
g68
(g89
g70
NtRp981
(dp982
g73
(dp983
g93
g94
ssg82
g977
sg75
(lp984
g429
asbag68
(g89
g70
NtRp985
(dp986
g73
(dp987
g100
g101
ssg82
g977
sg75
(lp988
S':'
asbag68
(g89
g70
NtRp989
(dp990
g73
(dp991
sg82
g977
sg75
(lp992
g68
(g69
g70
NtRp993
(dp994
g73
(dp995
g81
I3
ssg82
g989
sg75
(lp996
S''
asbasbasbasbasbasbasbasbasbasbasbag68
(g84
g70
NtRp997
(dp998
g73
(dp999
sg82
g78
sg75
(lp1000
g68
(g89
g70
NtRp1001
(dp1002
g73
(dp1003
g93
g94
ssg82
g997
sg75
(lp1004
S'env'
p1005
asbag68
(g89
g70
NtRp1006
(dp1007
g73
(dp1008
g100
g101
ssg82
g997
sg75
(lp1009
S':'
asbag68
(g89
g70
NtRp1010
(dp1011
g73
(dp1012
sg82
g997
sg75
(lp1013
g68
(g69
g70
NtRp1014
(dp1015
g73
(dp1016
g81
I5
ssg82
g1010
sg75
(lp1017
g68
(g77
g70
NtRp1018
(dp1019
g73
(dp1020
g81
I4
ssg82
Nsg75
(lp1021
g68
(g84
g70
NtRp1022
(dp1023
g73
(dp1024
sg82
g1018
sg75
(lp1025
g68
(g89
g70
NtRp1026
(dp1027
g73
(dp1028
g93
g94
ssg82
g1022
sg75
(lp1029
S'app_folders'
p1030
asbag68
(g89
g70
NtRp1031
(dp1032
g73
(dp1033
g100
g101
ssg82
g1022
sg75
(lp1034
S':'
asbag68
(g89
g70
NtRp1035
(dp1036
g73
(dp1037
sg82
g1022
sg75
(lp1038
g68
(g69
g70
NtRp1039
(dp1040
g73
(dp1041
g81
I4
ssg82
g1035
sg75
(lp1042
S"set(['/Users/hellais/Documents/code/mygit/globaleaks/webapp/applications/init/', '/Users/hellais/Documents/code/mygit/globaleaks/webapp/applications/admin/'])"
p1043
asbasbasbag68
(g84
g70
NtRp1044
(dp1045
g73
(dp1046
sg82
g1018
sg75
(lp1047
g68
(g89
g70
NtRp1048
(dp1049
g73
(dp1050
g93
g94
ssg82
g1044
sg75
(lp1051
S'applications_parent'
p1052
asbag68
(g89
g70
NtRp1053
(dp1054
g73
(dp1055
g100
g101
ssg82
g1044
sg75
(lp1056
S':'
asbag68
(g89
g70
NtRp1057
(dp1058
g73
(dp1059
sg82
g1044
sg75
(lp1060
g68
(g69
g70
NtRp1061
(dp1062
g73
(dp1063
g81
I4
ssg82
g1057
sg75
(lp1064
S'/Users/hellais/Documents/code/mygit/globaleaks/webapp'
p1065
asbasbasbag68
(g84
g70
NtRp1066
(dp1067
g73
(dp1068
sg82
g1018
sg75
(lp1069
g68
(g89
g70
NtRp1070
(dp1071
g73
(dp1072
g93
g94
ssg82
g1066
sg75
(lp1073
S'cmd_args'
p1074
asbag68
(g89
g70
NtRp1075
(dp1076
g73
(dp1077
g100
g101
ssg82
g1066
sg75
(lp1078
S':'
asbag68
(g89
g70
NtRp1079
(dp1080
g73
(dp1081
sg82
g1066
sg75
(lp1082
g68
(g69
g70
NtRp1083
(dp1084
g73
(dp1085
g81
I4
ssg82
g1079
sg75
(lp1086
g68
(g77
g70
NtRp1087
(dp1088
g73
(dp1089
g81
I3
ssg82
Nsg75
(lp1090
sbasbasbasbag68
(g84
g70
NtRp1091
(dp1092
g73
(dp1093
sg82
g1018
sg75
(lp1094
g68
(g89
g70
NtRp1095
(dp1096
g73
(dp1097
g93
g94
ssg82
g1091
sg75
(lp1098
S'cmd_options'
p1099
asbag68
(g89
g70
NtRp1100
(dp1101
g73
(dp1102
g100
g101
ssg82
g1091
sg75
(lp1103
S':'
asbag68
(g89
g70
NtRp1104
(dp1105
g73
(dp1106
sg82
g1091
sg75
(lp1107
g68
(g69
g70
NtRp1108
(dp1109
g73
(dp1110
g81
I4
ssg82
g1104
sg75
(lp1111
S"<Values at 0x1015f1320: {'verbose': False, 'ip': '127.0.0.1', 'shutdown_timeout': 5, 'taskbar': False, 'port': 8000, 'maxthreads': None, 'softcron': False, 'server_name': 'Jeanne.local', 'bpython': False, 'nogui': False, 'nocron': False, 'extcron': False, 'debuglevel': 30, 'test': None, 'folder': '/Users/hellais/Documents/code/mygit/globaleaks/webapp', 'config': '', 'import_models': False, 'winservice': '', 'shell': None, 'run': '', 'log_filename': 'httpserver.log', 'args': [''], 'profiler_filename': None, 'ssl_private_key': '', 'password': 'antani', 'request_queue_size': 5, 'ssl_certificate': '', 'cronjob': False, 'plain': False, 'quiet': False, 'interfaces': None, 'minthreads': None, 'timeout': 10, 'numthreads': None, 'nobanner': False, 'pid_filename': 'httpserver.pid'}>"
p1112
asbasbasbag68
(g84
g70
NtRp1113
(dp1114
g73
(dp1115
sg82
g1018
sg75
(lp1116
g68
(g89
g70
NtRp1117
(dp1118
g73
(dp1119
g93
g94
ssg82
g1113
sg75
(lp1120
S'content_length'
p1121
asbag68
(g89
g70
NtRp1122
(dp1123
g73
(dp1124
g100
g101
ssg82
g1113
sg75
(lp1125
S':'
asbag68
(g89
g70
NtRp1126
(dp1127
g73
(dp1128
sg82
g1113
sg75
(lp1129
g68
(g69
g70
NtRp1130
(dp1131
g73
(dp1132
g81
I4
ssg82
g1126
sg75
(lp1133
S'90173'
p1134
asbasbasbag68
(g84
g70
NtRp1135
(dp1136
g73
(dp1137
sg82
g1018
sg75
(lp1138
g68
(g89
g70
NtRp1139
(dp1140
g73
(dp1141
g93
g94
ssg82
g1135
sg75
(lp1142
S'content_type'
p1143
asbag68
(g89
g70
NtRp1144
(dp1145
g73
(dp1146
g100
g101
ssg82
g1135
sg75
(lp1147
S':'
asbag68
(g89
g70
NtRp1148
(dp1149
g73
(dp1150
sg82
g1135
sg75
(lp1151
g68
(g69
g70
NtRp1152
(dp1153
g73
(dp1154
g81
I4
ssg82
g1148
sg75
(lp1155
S'multipart/form-data; boundary=---------------------------996760128275410491173426438'
p1156
asbasbasbag68
(g84
g70
NtRp1157
(dp1158
g73
(dp1159
sg82
g1018
sg75
(lp1160
g68
(g89
g70
NtRp1161
(dp1162
g73
(dp1163
g93
g94
ssg82
g1157
sg75
(lp1164
S'db_sessions'
p1165
asbag68
(g89
g70
NtRp1166
(dp1167
g73
(dp1168
g100
g101
ssg82
g1157
sg75
(lp1169
S':'
asbag68
(g89
g70
NtRp1170
(dp1171
g73
(dp1172
sg82
g1157
sg75
(lp1173
g68
(g69
g70
NtRp1174
(dp1175
g73
(dp1176
g81
I4
ssg82
g1170
sg75
(lp1177
S'set([])'
p1178
asbasbasbag68
(g84
g70
NtRp1179
(dp1180
g73
(dp1181
sg82
g1018
sg75
(lp1182
g68
(g89
g70
NtRp1183
(dp1184
g73
(dp1185
g93
g94
ssg82
g1179
sg75
(lp1186
S'debugging'
p1187
asbag68
(g89
g70
NtRp1188
(dp1189
g73
(dp1190
g100
g101
ssg82
g1179
sg75
(lp1191
S':'
asbag68
(g89
g70
NtRp1192
(dp1193
g73
(dp1194
sg82
g1179
sg75
(lp1195
g68
(g69
g70
NtRp1196
(dp1197
g73
(dp1198
g81
I4
ssg82
g1192
sg75
(lp1199
g111
asbasbasbag68
(g84
g70
NtRp1200
(dp1201
g73
(dp1202
sg82
g1018
sg75
(lp1203
g68
(g89
g70
NtRp1204
(dp1205
g73
(dp1206
g93
g94
ssg82
g1200
sg75
(lp1207
S'gluon_parent'
p1208
asbag68
(g89
g70
NtRp1209
(dp1210
g73
(dp1211
g100
g101
ssg82
g1200
sg75
(lp1212
S':'
asbag68
(g89
g70
NtRp1213
(dp1214
g73
(dp1215
sg82
g1200
sg75
(lp1216
g68
(g69
g70
NtRp1217
(dp1218
g73
(dp1219
g81
I4
ssg82
g1213
sg75
(lp1220
S'/Users/hellais/Documents/code/mygit/globaleaks/webapp'
p1221
asbasbasbag68
(g84
g70
NtRp1222
(dp1223
g73
(dp1224
sg82
g1018
sg75
(lp1225
g68
(g89
g70
NtRp1226
(dp1227
g73
(dp1228
g93
g94
ssg82
g1222
sg75
(lp1229
S'http_accept'
p1230
asbag68
(g89
g70
NtRp1231
(dp1232
g73
(dp1233
g100
g101
ssg82
g1222
sg75
(lp1234
S':'
asbag68
(g89
g70
NtRp1235
(dp1236
g73
(dp1237
sg82
g1222
sg75
(lp1238
g68
(g69
g70
NtRp1239
(dp1240
g73
(dp1241
g81
I4
ssg82
g1235
sg75
(lp1242
S'text/html,application/xhtml+xml,application/xml;q=0.9,*/*;q=0.8'
p1243
asbasbasbag68
(g84
g70
NtRp1244
(dp1245
g73
(dp1246
sg82
g1018
sg75
(lp1247
g68
(g89
g70
NtRp1248
(dp1249
g73
(dp1250
g93
g94
ssg82
g1244
sg75
(lp1251
S'http_accept_charset'
p1252
asbag68
(g89
g70
NtRp1253
(dp1254
g73
(dp1255
g100
g101
ssg82
g1244
sg75
(lp1256
S':'
asbag68
(g89
g70
NtRp1257
(dp1258
g73
(dp1259
sg82
g1244
sg75
(lp1260
g68
(g69
g70
NtRp1261
(dp1262
g73
(dp1263
g81
I4
ssg82
g1257
sg75
(lp1264
S'ISO-8859-1,utf-8;q=0.7,*;q=0.7'
p1265
asbasbasbag68
(g84
g70
NtRp1266
(dp1267
g73
(dp1268
sg82
g1018
sg75
(lp1269
g68
(g89
g70
NtRp1270
(dp1271
g73
(dp1272
g93
g94
ssg82
g1266
sg75
(lp1273
S'http_accept_encoding'
p1274
asbag68
(g89
g70
NtRp1275
(dp1276
g73
(dp1277
g100
g101
ssg82
g1266
sg75
(lp1278
S':'
asbag68
(g89
g70
NtRp1279
(dp1280
g73
(dp1281
sg82
g1266
sg75
(lp1282
g68
(g69
g70
NtRp1283
(dp1284
g73
(dp1285
g81
I4
ssg82
g1279
sg75
(lp1286
S'gzip, deflate'
p1287
asbasbasbag68
(g84
g70
NtRp1288
(dp1289
g73
(dp1290
sg82
g1018
sg75
(lp1291
g68
(g89
g70
NtRp1292
(dp1293
g73
(dp1294
g93
g94
ssg82
g1288
sg75
(lp1295
S'http_accept_language'
p1296
asbag68
(g89
g70
NtRp1297
(dp1298
g73
(dp1299
g100
g101
ssg82
g1288
sg75
(lp1300
S':'
asbag68
(g89
g70
NtRp1301
(dp1302
g73
(dp1303
sg82
g1288
sg75
(lp1304
g68
(g69
g70
NtRp1305
(dp1306
g73
(dp1307
g81
I4
ssg82
g1301
sg75
(lp1308
S'en-us,en;q=0.5'
p1309
asbasbasbag68
(g84
g70
NtRp1310
(dp1311
g73
(dp1312
sg82
g1018
sg75
(lp1313
g68
(g89
g70
NtRp1314
(dp1315
g73
(dp1316
g93
g94
ssg82
g1310
sg75
(lp1317
S'http_connection'
p1318
asbag68
(g89
g70
NtRp1319
(dp1320
g73
(dp1321
g100
g101
ssg82
g1310
sg75
(lp1322
S':'
asbag68
(g89
g70
NtRp1323
(dp1324
g73
(dp1325
sg82
g1310
sg75
(lp1326
g68
(g69
g70
NtRp1327
(dp1328
g73
(dp1329
g81
I4
ssg82
g1323
sg75
(lp1330
S'keep-alive'
p1331
asbasbasbag68
(g84
g70
NtRp1332
(dp1333
g73
(dp1334
sg82
g1018
sg75
(lp1335
g68
(g89
g70
NtRp1336
(dp1337
g73
(dp1338
g93
g94
ssg82
g1332
sg75
(lp1339
S'http_content_length'
p1340
asbag68
(g89
g70
NtRp1341
(dp1342
g73
(dp1343
g100
g101
ssg82
g1332
sg75
(lp1344
S':'
asbag68
(g89
g70
NtRp1345
(dp1346
g73
(dp1347
sg82
g1332
sg75
(lp1348
g68
(g69
g70
NtRp1349
(dp1350
g73
(dp1351
g81
I4
ssg82
g1345
sg75
(lp1352
g1134
asbasbasbag68
(g84
g70
NtRp1353
(dp1354
g73
(dp1355
sg82
g1018
sg75
(lp1356
g68
(g89
g70
NtRp1357
(dp1358
g73
(dp1359
g93
g94
ssg82
g1353
sg75
(lp1360
S'http_content_type'
p1361
asbag68
(g89
g70
NtRp1362
(dp1363
g73
(dp1364
g100
g101
ssg82
g1353
sg75
(lp1365
S':'
asbag68
(g89
g70
NtRp1366
(dp1367
g73
(dp1368
sg82
g1353
sg75
(lp1369
g68
(g69
g70
NtRp1370
(dp1371
g73
(dp1372
g81
I4
ssg82
g1366
sg75
(lp1373
g1156
asbasbasbag68
(g84
g70
NtRp1374
(dp1375
g73
(dp1376
sg82
g1018
sg75
(lp1377
g68
(g89
g70
NtRp1378
(dp1379
g73
(dp1380
g93
g94
ssg82
g1374
sg75
(lp1381
S'http_cookie'
p1382
asbag68
(g89
g70
NtRp1383
(dp1384
g73
(dp1385
g100
g101
ssg82
g1374
sg75
(lp1386
S':'
asbag68
(g89
g70
NtRp1387
(dp1388
g73
(dp1389
sg82
g1374
sg75
(lp1390
g68
(g69
g70
NtRp1391
(dp1392
g73
(dp1393
g81
I4
ssg82
g1387
sg75
(lp1394
S'session_id_admin=127.0.0.1-67122ce4-50b2-4acf-b28e-7a14feeff4d9; session_id_globaleaks=127.0.0.1-c6d5b9b3-1ec7-41c1-8d72-04c21b7a6b11; session_id_blabla=127.0.0.1-c445384e-a3ea-4484-8fe2-52f3295bbb7c; session_id_init=127.0.0.1-a8551263-bc3c-430c-abb2-8711fac671c1'
p1395
asbasbasbag68
(g84
g70
NtRp1396
(dp1397
g73
(dp1398
sg82
g1018
sg75
(lp1399
g68
(g89
g70
NtRp1400
(dp1401
g73
(dp1402
g93
g94
ssg82
g1396
sg75
(lp1403
S'http_host'
p1404
asbag68
(g89
g70
NtRp1405
(dp1406
g73
(dp1407
g100
g101
ssg82
g1396
sg75
(lp1408
S':'
asbag68
(g89
g70
NtRp1409
(dp1410
g73
(dp1411
sg82
g1396
sg75
(lp1412
g68
(g69
g70
NtRp1413
(dp1414
g73
(dp1415
g81
I4
ssg82
g1409
sg75
(lp1416
S'127.0.0.1:8000'
p1417
asbasbasbag68
(g84
g70
NtRp1418
(dp1419
g73
(dp1420
sg82
g1018
sg75
(lp1421
g68
(g89
g70
NtRp1422
(dp1423
g73
(dp1424
g93
g94
ssg82
g1418
sg75
(lp1425
S'http_referer'
p1426
asbag68
(g89
g70
NtRp1427
(dp1428
g73
(dp1429
g100
g101
ssg82
g1418
sg75
(lp1430
S':'
asbag68
(g89
g70
NtRp1431
(dp1432
g73
(dp1433
sg82
g1418
sg75
(lp1434
g68
(g69
g70
NtRp1435
(dp1436
g73
(dp1437
g81
I4
ssg82
g1431
sg75
(lp1438
S'http://127.0.0.1:8000/init/default/submission'
p1439
asbasbasbag68
(g84
g70
NtRp1440
(dp1441
g73
(dp1442
sg82
g1018
sg75
(lp1443
g68
(g89
g70
NtRp1444
(dp1445
g73
(dp1446
g93
g94
ssg82
g1440
sg75
(lp1447
S'http_user_agent'
p1448
asbag68
(g89
g70
NtRp1449
(dp1450
g73
(dp1451
g100
g101
ssg82
g1440
sg75
(lp1452
S':'
asbag68
(g89
g70
NtRp1453
(dp1454
g73
(dp1455
sg82
g1440
sg75
(lp1456
g68
(g69
g70
NtRp1457
(dp1458
g73
(dp1459
g81
I4
ssg82
g1453
sg75
(lp1460
S'Mozilla/5.0 (Macintosh; Intel Mac OS X 10.6; rv:5.0.1) Gecko/20100101 Firefox/5.0.1'
p1461
asbasbasbag68
(g84
g70
NtRp1462
(dp1463
g73
(dp1464
sg82
g1018
sg75
(lp1465
g68
(g89
g70
NtRp1466
(dp1467
g73
(dp1468
g93
g94
ssg82
g1462
sg75
(lp1469
S'is_jython'
p1470
asbag68
(g89
g70
NtRp1471
(dp1472
g73
(dp1473
g100
g101
ssg82
g1462
sg75
(lp1474
S':'
asbag68
(g89
g70
NtRp1475
(dp1476
g73
(dp1477
sg82
g1462
sg75
(lp1478
g68
(g69
g70
NtRp1479
(dp1480
g73
(dp1481
g81
I4
ssg82
g1475
sg75
(lp1482
g111
asbasbasbag68
(g84
g70
NtRp1483
(dp1484
g73
(dp1485
sg82
g1018
sg75
(lp1486
g68
(g89
g70
NtRp1487
(dp1488
g73
(dp1489
g93
g94
ssg82
g1483
sg75
(lp1490
S'path_info'
p1491
asbag68
(g89
g70
NtRp1492
(dp1493
g73
(dp1494
g100
g101
ssg82
g1483
sg75
(lp1495
S':'
asbag68
(g89
g70
NtRp1496
(dp1497
g73
(dp1498
sg82
g1483
sg75
(lp1499
g68
(g69
g70
NtRp1500
(dp1501
g73
(dp1502
g81
I4
ssg82
g1496
sg75
(lp1503
S'/init/default/submission'
p1504
asbasbasbag68
(g84
g70
NtRp1505
(dp1506
g73
(dp1507
sg82
g1018
sg75
(lp1508
g68
(g89
g70
NtRp1509
(dp1510
g73
(dp1511
g93
g94
ssg82
g1505
sg75
(lp1512
S'query_string'
p1513
asbag68
(g89
g70
NtRp1514
(dp1515
g73
(dp1516
g100
g101
ssg82
g1505
sg75
(lp1517
S':'
asbag68
(g89
g70
NtRp1518
(dp1519
g73
(dp1520
sg82
g1505
sg75
(lp1521
g68
(g69
g70
NtRp1522
(dp1523
g73
(dp1524
g81
I4
ssg82
g1518
sg75
(lp1525
S''
asbasbasbag68
(g84
g70
NtRp1526
(dp1527
g73
(dp1528
sg82
g1018
sg75
(lp1529
g68
(g89
g70
NtRp1530
(dp1531
g73
(dp1532
g93
g94
ssg82
g1526
sg75
(lp1533
S'remote_addr'
p1534
asbag68
(g89
g70
NtRp1535
(dp1536
g73
(dp1537
g100
g101
ssg82
g1526
sg75
(lp1538
S':'
asbag68
(g89
g70
NtRp1539
(dp1540
g73
(dp1541
sg82
g1526
sg75
(lp1542
g68
(g69
g70
NtRp1543
(dp1544
g73
(dp1545
g81
I4
ssg82
g1539
sg75
(lp1546
g201
asbasbasbag68
(g84
g70
NtRp1547
(dp1548
g73
(dp1549
sg82
g1018
sg75
(lp1550
g68
(g89
g70
NtRp1551
(dp1552
g73
(dp1553
g93
g94
ssg82
g1547
sg75
(lp1554
S'remote_port'
p1555
asbag68
(g89
g70
NtRp1556
(dp1557
g73
(dp1558
g100
g101
ssg82
g1547
sg75
(lp1559
S':'
asbag68
(g89
g70
NtRp1560
(dp1561
g73
(dp1562
sg82
g1547
sg75
(lp1563
g68
(g69
g70
NtRp1564
(dp1565
g73
(dp1566
g81
I4
ssg82
g1560
sg75
(lp1567
S'55232'
p1568
asbasbasbag68
(g84
g70
NtRp1569
(dp1570
g73
(dp1571
sg82
g1018
sg75
(lp1572
g68
(g89
g70
NtRp1573
(dp1574
g73
(dp1575
g93
g94
ssg82
g1569
sg75
(lp1576
S'request_method'
p1577
asbag68
(g89
g70
NtRp1578
(dp1579
g73
(dp1580
g100
g101
ssg82
g1569
sg75
(lp1581
S':'
asbag68
(g89
g70
NtRp1582
(dp1583
g73
(dp1584
sg82
g1569
sg75
(lp1585
g68
(g69
g70
NtRp1586
(dp1587
g73
(dp1588
g81
I4
ssg82
g1582
sg75
(lp1589
S'POST'
p1590
asbasbasbag68
(g84
g70
NtRp1591
(dp1592
g73
(dp1593
sg82
g1018
sg75
(lp1594
g68
(g89
g70
NtRp1595
(dp1596
g73
(dp1597
g93
g94
ssg82
g1591
sg75
(lp1598
S'script_name'
p1599
asbag68
(g89
g70
NtRp1600
(dp1601
g73
(dp1602
g100
g101
ssg82
g1591
sg75
(lp1603
S':'
asbag68
(g89
g70
NtRp1604
(dp1605
g73
(dp1606
sg82
g1591
sg75
(lp1607
g68
(g69
g70
NtRp1608
(dp1609
g73
(dp1610
g81
I4
ssg82
g1604
sg75
(lp1611
S''
asbasbasbag68
(g84
g70
NtRp1612
(dp1613
g73
(dp1614
sg82
g1018
sg75
(lp1615
g68
(g89
g70
NtRp1616
(dp1617
g73
(dp1618
g93
g94
ssg82
g1612
sg75
(lp1619
S'server_name'
p1620
asbag68
(g89
g70
NtRp1621
(dp1622
g73
(dp1623
g100
g101
ssg82
g1612
sg75
(lp1624
S':'
asbag68
(g89
g70
NtRp1625
(dp1626
g73
(dp1627
sg82
g1612
sg75
(lp1628
g68
(g69
g70
NtRp1629
(dp1630
g73
(dp1631
g81
I4
ssg82
g1625
sg75
(lp1632
S'Jeanne.local'
p1633
asbasbasbag68
(g84
g70
NtRp1634
(dp1635
g73
(dp1636
sg82
g1018
sg75
(lp1637
g68
(g89
g70
NtRp1638
(dp1639
g73
(dp1640
g93
g94
ssg82
g1634
sg75
(lp1641
S'server_port'
p1642
asbag68
(g89
g70
NtRp1643
(dp1644
g73
(dp1645
g100
g101
ssg82
g1634
sg75
(lp1646
S':'
asbag68
(g89
g70
NtRp1647
(dp1648
g73
(dp1649
sg82
g1634
sg75
(lp1650
g68
(g69
g70
NtRp1651
(dp1652
g73
(dp1653
g81
I4
ssg82
g1647
sg75
(lp1654
S'8000'
p1655
asbasbasbag68
(g84
g70
NtRp1656
(dp1657
g73
(dp1658
sg82
g1018
sg75
(lp1659
g68
(g89
g70
NtRp1660
(dp1661
g73
(dp1662
g93
g94
ssg82
g1656
sg75
(lp1663
S'server_protocol'
p1664
asbag68
(g89
g70
NtRp1665
(dp1666
g73
(dp1667
g100
g101
ssg82
g1656
sg75
(lp1668
S':'
asbag68
(g89
g70
NtRp1669
(dp1670
g73
(dp1671
sg82
g1656
sg75
(lp1672
g68
(g69
g70
NtRp1673
(dp1674
g73
(dp1675
g81
I4
ssg82
g1669
sg75
(lp1676
S'HTTP/1.1'
p1677
asbasbasbag68
(g84
g70
NtRp1678
(dp1679
g73
(dp1680
sg82
g1018
sg75
(lp1681
g68
(g89
g70
NtRp1682
(dp1683
g73
(dp1684
g93
g94
ssg82
g1678
sg75
(lp1685
S'server_software'
p1686
asbag68
(g89
g70
NtRp1687
(dp1688
g73
(dp1689
g100
g101
ssg82
g1678
sg75
(lp1690
S':'
asbag68
(g89
g70
NtRp1691
(dp1692
g73
(dp1693
sg82
g1678
sg75
(lp1694
g68
(g69
g70
NtRp1695
(dp1696
g73
(dp1697
g81
I4
ssg82
g1691
sg75
(lp1698
S'Rocket 1.2.2'
p1699
asbasbasbag68
(g84
g70
NtRp1700
(dp1701
g73
(dp1702
sg82
g1018
sg75
(lp1703
g68
(g89
g70
NtRp1704
(dp1705
g73
(dp1706
g93
g94
ssg82
g1700
sg75
(lp1707
S'web2py_crontype'
p1708
asbag68
(g89
g70
NtRp1709
(dp1710
g73
(dp1711
g100
g101
ssg82
g1700
sg75
(lp1712
S':'
asbag68
(g89
g70
NtRp1713
(dp1714
g73
(dp1715
sg82
g1700
sg75
(lp1716
g68
(g69
g70
NtRp1717
(dp1718
g73
(dp1719
g81
I4
ssg82
g1713
sg75
(lp1720
S'hard'
p1721
asbasbasbag68
(g84
g70
NtRp1722
(dp1723
g73
(dp1724
sg82
g1018
sg75
(lp1725
g68
(g89
g70
NtRp1726
(dp1727
g73
(dp1728
g93
g94
ssg82
g1722
sg75
(lp1729
S'web2py_path'
p1730
asbag68
(g89
g70
NtRp1731
(dp1732
g73
(dp1733
g100
g101
ssg82
g1722
sg75
(lp1734
S':'
asbag68
(g89
g70
NtRp1735
(dp1736
g73
(dp1737
sg82
g1722
sg75
(lp1738
g68
(g69
g70
NtRp1739
(dp1740
g73
(dp1741
g81
I4
ssg82
g1735
sg75
(lp1742
g1065
asbasbasbag68
(g84
g70
NtRp1743
(dp1744
g73
(dp1745
sg82
g1018
sg75
(lp1746
g68
(g89
g70
NtRp1747
(dp1748
g73
(dp1749
g93
g94
ssg82
g1743
sg75
(lp1750
S'web2py_version'
p1751
asbag68
(g89
g70
NtRp1752
(dp1753
g73
(dp1754
g100
g101
ssg82
g1743
sg75
(lp1755
S':'
asbag68
(g89
g70
NtRp1756
(dp1757
g73
(dp1758
sg82
g1743
sg75
(lp1759
g68
(g69
g70
NtRp1760
(dp1761
g73
(dp1762
g81
I4
ssg82
g1756
sg75
(lp1763
S'Version 1.98.2 (2011-08-04 00:47:09)\n'
p1764
asbasbasbag68
(g84
g70
NtRp1765
(dp1766
g73
(dp1767
sg82
g1018
sg75
(lp1768
g68
(g89
g70
NtRp1769
(dp1770
g73
(dp1771
g93
g94
ssg82
g1765
sg75
(lp1772
S'wsgi_errors'
p1773
asbag68
(g89
g70
NtRp1774
(dp1775
g73
(dp1776
g100
g101
ssg82
g1765
sg75
(lp1777
S':'
asbag68
(g89
g70
NtRp1778
(dp1779
g73
(dp1780
sg82
g1765
sg75
(lp1781
g68
(g69
g70
NtRp1782
(dp1783
g73
(dp1784
g81
I4
ssg82
g1778
sg75
(lp1785
S"<open file '<stderr>', mode 'w' at 0x100287270>"
p1786
asbasbasbag68
(g84
g70
NtRp1787
(dp1788
g73
(dp1789
sg82
g1018
sg75
(lp1790
g68
(g89
g70
NtRp1791
(dp1792
g73
(dp1793
g93
g94
ssg82
g1787
sg75
(lp1794
S'wsgi_file_wrapper'
p1795
asbag68
(g89
g70
NtRp1796
(dp1797
g73
(dp1798
g100
g101
ssg82
g1787
sg75
(lp1799
S':'
asbag68
(g89
g70
NtRp1800
(dp1801
g73
(dp1802
sg82
g1787
sg75
(lp1803
g68
(g69
g70
NtRp1804
(dp1805
g73
(dp1806
g81
I4
ssg82
g1800
sg75
(lp1807
S'<class gluon.rocket.FileWrapper at 0x101668e20>'
p1808
asbasbasbag68
(g84
g70
NtRp1809
(dp1810
g73
(dp1811
sg82
g1018
sg75
(lp1812
g68
(g89
g70
NtRp1813
(dp1814
g73
(dp1815
g93
g94
ssg82
g1809
sg75
(lp1816
S'wsgi_input'
p1817
asbag68
(g89
g70
NtRp1818
(dp1819
g73
(dp1820
g100
g101
ssg82
g1809
sg75
(lp1821
S':'
asbag68
(g89
g70
NtRp1822
(dp1823
g73
(dp1824
sg82
g1809
sg75
(lp1825
g68
(g69
g70
NtRp1826
(dp1827
g73
(dp1828
g81
I4
ssg82
g1822
sg75
(lp1829
S'<socket._fileobject object at 0x1021e5850>'
p1830
asbasbasbag68
(g84
g70
NtRp1831
(dp1832
g73
(dp1833
sg82
g1018
sg75
(lp1834
g68
(g89
g70
NtRp1835
(dp1836
g73
(dp1837
g93
g94
ssg82
g1831
sg75
(lp1838
S'wsgi_multiprocess'
p1839
asbag68
(g89
g70
NtRp1840
(dp1841
g73
(dp1842
g100
g101
ssg82
g1831
sg75
(lp1843
S':'
asbag68
(g89
g70
NtRp1844
(dp1845
g73
(dp1846
sg82
g1831
sg75
(lp1847
g68
(g69
g70
NtRp1848
(dp1849
g73
(dp1850
g81
I4
ssg82
g1844
sg75
(lp1851
g111
asbasbasbag68
(g84
g70
NtRp1852
(dp1853
g73
(dp1854
sg82
g1018
sg75
(lp1855
g68
(g89
g70
NtRp1856
(dp1857
g73
(dp1858
g93
g94
ssg82
g1852
sg75
(lp1859
S'wsgi_multithread'
p1860
asbag68
(g89
g70
NtRp1861
(dp1862
g73
(dp1863
g100
g101
ssg82
g1852
sg75
(lp1864
S':'
asbag68
(g89
g70
NtRp1865
(dp1866
g73
(dp1867
sg82
g1852
sg75
(lp1868
g68
(g69
g70
NtRp1869
(dp1870
g73
(dp1871
g81
I4
ssg82
g1865
sg75
(lp1872
S'True'
p1873
asbasbasbag68
(g84
g70
NtRp1874
(dp1875
g73
(dp1876
sg82
g1018
sg75
(lp1877
g68
(g89
g70
NtRp1878
(dp1879
g73
(dp1880
g93
g94
ssg82
g1874
sg75
(lp1881
S'wsgi_run_once'
p1882
asbag68
(g89
g70
NtRp1883
(dp1884
g73
(dp1885
g100
g101
ssg82
g1874
sg75
(lp1886
S':'
asbag68
(g89
g70
NtRp1887
(dp1888
g73
(dp1889
sg82
g1874
sg75
(lp1890
g68
(g69
g70
NtRp1891
(dp1892
g73
(dp1893
g81
I4
ssg82
g1887
sg75
(lp1894
g111
asbasbasbag68
(g84
g70
NtRp1895
(dp1896
g73
(dp1897
sg82
g1018
sg75
(lp1898
g68
(g89
g70
NtRp1899
(dp1900
g73
(dp1901
g93
g94
ssg82
g1895
sg75
(lp1902
S'wsgi_url_scheme'
p1903
asbag68
(g89
g70
NtRp1904
(dp1905
g73
(dp1906
g100
g101
ssg82
g1895
sg75
(lp1907
S':'
asbag68
(g89
g70
NtRp1908
(dp1909
g73
(dp1910
sg82
g1895
sg75
(lp1911
g68
(g69
g70
NtRp1912
(dp1913
g73
(dp1914
g81
I4
ssg82
g1908
sg75
(lp1915
S'http'
p1916
asbasbasbag68
(g84
g70
NtRp1917
(dp1918
g73
(dp1919
sg82
g1018
sg75
(lp1920
g68
(g89
g70
NtRp1921
(dp1922
g73
(dp1923
g93
g94
ssg82
g1917
sg75
(lp1924
S'wsgi_version'
p1925
asbag68
(g89
g70
NtRp1926
(dp1927
g73
(dp1928
g100
g101
ssg82
g1917
sg75
(lp1929
S':'
asbag68
(g89
g70
NtRp1930
(dp1931
g73
(dp1932
sg82
g1917
sg75
(lp1933
g68
(g69
g70
NtRp1934
(dp1935
g73
(dp1936
g81
I4
ssg82
g1930
sg75
(lp1937
g68
(g77
g70
NtRp1938
(dp1939
g73
(dp1940
g81
I3
ssg82
Nsg75
(lp1941
g68
(g84
g70
NtRp1942
(dp1943
g73
(dp1944
sg82
g1938
sg75
(lp1945
g68
(g89
g70
NtRp1946
(dp1947
g73
(dp1948
sg82
g1942
sg75
(lp1949
g68
(g69
g70
NtRp1950
(dp1951
g73
(dp1952
g81
I3
ssg82
g1946
sg75
(lp1953
S'1'
asbasbasbag68
(g84
g70
NtRp1954
(dp1955
g73
(dp1956
sg82
g1938
sg75
(lp1957
g68
(g89
g70
NtRp1958
(dp1959
g73
(dp1960
sg82
g1954
sg75
(lp1961
g68
(g69
g70
NtRp1962
(dp1963
g73
(dp1964
g81
I3
ssg82
g1958
sg75
(lp1965
S'0'
asbasbasbasbasbasbasbasbasbasbasbag68
(g84
g70
NtRp1966
(dp1967
g73
(dp1968
sg82
g78
sg75
(lp1969
g68
(g89
g70
NtRp1970
(dp1971
g73
(dp1972
g93
g94
ssg82
g1966
sg75
(lp1973
S'extension'
p1974
asbag68
(g89
g70
NtRp1975
(dp1976
g73
(dp1977
g100
g101
ssg82
g1966
sg75
(lp1978
S':'
asbag68
(g89
g70
NtRp1979
(dp1980
g73
(dp1981
sg82
g1966
sg75
(lp1982
g68
(g69
g70
NtRp1983
(dp1984
g73
(dp1985
g81
I5
ssg82
g1979
sg75
(lp1986
S'html'
p1987
asbasbasbag68
(g84
g70
NtRp1988
(dp1989
g73
(dp1990
sg82
g78
sg75
(lp1991
g68
(g89
g70
NtRp1992
(dp1993
g73
(dp1994
g93
g94
ssg82
g1988
sg75
(lp1995
S'folder'
p1996
asbag68
(g89
g70
NtRp1997
(dp1998
g73
(dp1999
g100
g101
ssg82
g1988
sg75
(lp2000
S':'
asbag68
(g89
g70
NtRp2001
(dp2002
g73
(dp2003
sg82
g1988
sg75
(lp2004
g68
(g69
g70
NtRp2005
(dp2006
g73
(dp2007
g81
I5
ssg82
g2001
sg75
(lp2008
S'/Users/hellais/Documents/code/mygit/globaleaks/webapp/applications/init/'
p2009
asbasbasbag68
(g84
g70
NtRp2010
(dp2011
g73
(dp2012
sg82
g78
sg75
(lp2013
g68
(g89
g70
NtRp2014
(dp2015
g73
(dp2016
g93
g94
ssg82
g2010
sg75
(lp2017
S'function'
p2018
asbag68
(g89
g70
NtRp2019
(dp2020
g73
(dp2021
g100
g101
ssg82
g2010
sg75
(lp2022
S':'
asbag68
(g89
g70
NtRp2023
(dp2024
g73
(dp2025
sg82
g2010
sg75
(lp2026
g68
(g69
g70
NtRp2027
(dp2028
g73
(dp2029
g81
I5
ssg82
g2023
sg75
(lp2030
S'submission'
p2031
asbasbasbag68
(g84
g70
NtRp2032
(dp2033
g73
(dp2034
sg82
g78
sg75
(lp2035
g68
(g89
g70
NtRp2036
(dp2037
g73
(dp2038
g93
g94
ssg82
g2032
sg75
(lp2039
S'get_vars'
p2040
asbag68
(g89
g70
NtRp2041
(dp2042
g73
(dp2043
g100
g101
ssg82
g2032
sg75
(lp2044
S':'
asbag68
(g89
g70
NtRp2045
(dp2046
g73
(dp2047
sg82
g2032
sg75
(lp2048
g68
(g69
g70
NtRp2049
(dp2050
g73
(dp2051
g81
I5
ssg82
g2045
sg75
(lp2052
g68
(g77
g70
NtRp2053
(dp2054
g73
(dp2055
g81
I4
ssg82
Nsg75
(lp2056
sbasbasbasbag68
(g84
g70
NtRp2057
(dp2058
g73
(dp2059
sg82
g78
sg75
(lp2060
g68
(g89
g70
NtRp2061
(dp2062
g73
(dp2063
g93
g94
ssg82
g2057
sg75
(lp2064
S'is_https'
p2065
asbag68
(g89
g70
NtRp2066
(dp2067
g73
(dp2068
g100
g101
ssg82
g2057
sg75
(lp2069
S':'
asbag68
(g89
g70
NtRp2070
(dp2071
g73
(dp2072
sg82
g2057
sg75
(lp2073
g68
(g69
g70
NtRp2074
(dp2075
g73
(dp2076
g81
I5
ssg82
g2070
sg75
(lp2077
g111
asbasbasbag68
(g84
g70
NtRp2078
(dp2079
g73
(dp2080
sg82
g78
sg75
(lp2081
g68
(g89
g70
NtRp2082
(dp2083
g73
(dp2084
g93
g94
ssg82
g2078
sg75
(lp2085
S'is_local'
p2086
asbag68
(g89
g70
NtRp2087
(dp2088
g73
(dp2089
g100
g101
ssg82
g2078
sg75
(lp2090
S':'
asbag68
(g89
g70
NtRp2091
(dp2092
g73
(dp2093
sg82
g2078
sg75
(lp2094
g68
(g69
g70
NtRp2095
(dp2096
g73
(dp2097
g81
I5
ssg82
g2091
sg75
(lp2098
g1873
asbasbasbag68
(g84
g70
NtRp2099
(dp2100
g73
(dp2101
sg82
g78
sg75
(lp2102
g68
(g89
g70
NtRp2103
(dp2104
g73
(dp2105
g93
g94
ssg82
g2099
sg75
(lp2106
S'is_restful'
p2107
asbag68
(g89
g70
NtRp2108
(dp2109
g73
(dp2110
g100
g101
ssg82
g2099
sg75
(lp2111
S':'
asbag68
(g89
g70
NtRp2112
(dp2113
g73
(dp2114
sg82
g2099
sg75
(lp2115
g68
(g69
g70
NtRp2116
(dp2117
g73
(dp2118
g81
I5
ssg82
g2112
sg75
(lp2119
g111
asbasbasbag68
(g84
g70
NtRp2120
(dp2121
g73
(dp2122
sg82
g78
sg75
(lp2123
g68
(g89
g70
NtRp2124
(dp2125
g73
(dp2126
g93
g94
ssg82
g2120
sg75
(lp2127
S'now'
p2128
asbag68
(g89
g70
NtRp2129
(dp2130
g73
(dp2131
g100
g101
ssg82
g2120
sg75
(lp2132
S':'
asbag68
(g89
g70
NtRp2133
(dp2134
g73
(dp2135
sg82
g2120
sg75
(lp2136
g68
(g69
g70
NtRp2137
(dp2138
g73
(dp2139
g81
I5
ssg82
g2133
sg75
(lp2140
S'datetime.datetime(2011, 8, 28, 1, 2, 54, 583213)'
p2141
asbasbasbag68
(g84
g70
NtRp2142
(dp2143
g73
(dp2144
sg82
g78
sg75
(lp2145
g68
(g89
g70
NtRp2146
(dp2147
g73
(dp2148
g93
g94
ssg82
g2142
sg75
(lp2149
S'post_vars'
p2150
asbag68
(g89
g70
NtRp2151
(dp2152
g73
(dp2153
g100
g101
ssg82
g2142
sg75
(lp2154
S':'
asbag68
(g89
g70
NtRp2155
(dp2156
g73
(dp2157
sg82
g2142
sg75
(lp2158
g68
(g69
g70
NtRp2159
(dp2160
g73
(dp2161
g81
I5
ssg82
g2155
sg75
(lp2162
g68
(g77
g70
NtRp2163
(dp2164
g73
(dp2165
g81
I4
ssg82
Nsg75
(lp2166
g68
(g84
g70
NtRp2167
(dp2168
g73
(dp2169
sg82
g2163
sg75
(lp2170
g68
(g89
g70
NtRp2171
(dp2172
g73
(dp2173
g93
g94
ssg82
g2167
sg75
(lp2174
S'Description'
p2175
asbag68
(g89
g70
NtRp2176
(dp2177
g73
(dp2178
g100
g101
ssg82
g2167
sg75
(lp2179
S':'
asbag68
(g89
g70
NtRp2180
(dp2181
g73
(dp2182
sg82
g2167
sg75
(lp2183
g68
(g69
g70
NtRp2184
(dp2185
g73
(dp2186
g81
I4
ssg82
g2180
sg75
(lp2187
S'Fuffa'
p2188
asbasbasbag68
(g84
g70
NtRp2189
(dp2190
g73
(dp2191
sg82
g2163
sg75
(lp2192
g68
(g89
g70
NtRp2193
(dp2194
g73
(dp2195
g93
g94
ssg82
g2189
sg75
(lp2196
S'Tags'
p2197
asbag68
(g89
g70
NtRp2198
(dp2199
g73
(dp2200
g100
g101
ssg82
g2189
sg75
(lp2201
S':'
asbag68
(g89
g70
NtRp2202
(dp2203
g73
(dp2204
sg82
g2189
sg75
(lp2205
g68
(g69
g70
NtRp2206
(dp2207
g73
(dp2208
g81
I4
ssg82
g2202
sg75
(lp2209
S'tag1, tag2, tag3'
p2210
asbasbasbag68
(g84
g70
NtRp2211
(dp2212
g73
(dp2213
sg82
g2163
sg75
(lp2214
g68
(g89
g70
NtRp2215
(dp2216
g73
(dp2217
g93
g94
ssg82
g2211
sg75
(lp2218
S'Title'
p2219
asbag68
(g89
g70
NtRp2220
(dp2221
g73
(dp2222
g100
g101
ssg82
g2211
sg75
(lp2223
S':'
asbag68
(g89
g70
NtRp2224
(dp2225
g73
(dp2226
sg82
g2211
sg75
(lp2227
g68
(g69
g70
NtRp2228
(dp2229
g73
(dp2230
g81
I4
ssg82
g2224
sg75
(lp2231
S'Dio cane'
p2232
asbasbasbag68
(g84
g70
NtRp2233
(dp2234
g73
(dp2235
sg82
g2163
sg75
(lp2236
g68
(g89
g70
NtRp2237
(dp2238
g73
(dp2239
g93
g94
ssg82
g2233
sg75
(lp2240
S'dislaimer'
p2241
asbag68
(g89
g70
NtRp2242
(dp2243
g73
(dp2244
g100
g101
ssg82
g2233
sg75
(lp2245
S':'
asbag68
(g89
g70
NtRp2246
(dp2247
g73
(dp2248
sg82
g2233
sg75
(lp2249
g68
(g69
g70
NtRp2250
(dp2251
g73
(dp2252
g81
I4
ssg82
g2246
sg75
(lp2253
S'on'
p2254
asbasbasbag68
(g84
g70
NtRp2255
(dp2256
g73
(dp2257
sg82
g2163
sg75
(lp2258
g68
(g89
g70
NtRp2259
(dp2260
g73
(dp2261
g93
g94
ssg82
g2255
sg75
(lp2262
S'material'
p2263
asbag68
(g89
g70
NtRp2264
(dp2265
g73
(dp2266
g100
g101
ssg82
g2255
sg75
(lp2267
S':'
asbag68
(g89
g70
NtRp2268
(dp2269
g73
(dp2270
sg82
g2255
sg75
(lp2271
g68
(g69
g70
NtRp2272
(dp2273
g73
(dp2274
g81
I4
ssg82
g2268
sg75
(lp2275
S'FieldStorage object'
p2276
asbasbasbasbasbasbasbag68
(g84
g70
NtRp2277
(dp2278
g73
(dp2279
sg82
g78
sg75
(lp2280
g68
(g89
g70
NtRp2281
(dp2282
g73
(dp2283
g93
g94
ssg82
g2277
sg75
(lp2284
S'url'
p2285
asbag68
(g89
g70
NtRp2286
(dp2287
g73
(dp2288
g100
g101
ssg82
g2277
sg75
(lp2289
S':'
asbag68
(g89
g70
NtRp2290
(dp2291
g73
(dp2292
sg82
g2277
sg75
(lp2293
g68
(g69
g70
NtRp2294
(dp2295
g73
(dp2296
g81
I5
ssg82
g2290
sg75
(lp2297
S'/init/default/submission'
p2298
asbasbasbag68
(g84
g70
NtRp2299
(dp2300
g73
(dp2301
sg82
g78
sg75
(lp2302
g68
(g89
g70
NtRp2303
(dp2304
g73
(dp2305
g93
g94
ssg82
g2299
sg75
(lp2306
S'uuid'
p2307
asbag68
(g89
g70
NtRp2308
(dp2309
g73
(dp2310
g100
g101
ssg82
g2299
sg75
(lp2311
S':'
asbag68
(g89
g70
NtRp2312
(dp2313
g73
(dp2314
sg82
g2299
sg75
(lp2315
g68
(g69
g70
NtRp2316
(dp2317
g73
(dp2318
g81
I5
ssg82
g2312
sg75
(lp2319
S'init/127.0.0.1.2011-08-28.01-02-54.024d92a3-0258-42ee-9ca3-95add82cd7b1'
p2320
asbasbasbag68
(g84
g70
NtRp2321
(dp2322
g73
(dp2323
sg82
g78
sg75
(lp2324
g68
(g89
g70
NtRp2325
(dp2326
g73
(dp2327
g93
g94
ssg82
g2321
sg75
(lp2328
S'vars'
p2329
asbag68
(g89
g70
NtRp2330
(dp2331
g73
(dp2332
g100
g101
ssg82
g2321
sg75
(lp2333
S':'
asbag68
(g89
g70
NtRp2334
(dp2335
g73
(dp2336
sg82
g2321
sg75
(lp2337
g68
(g69
g70
NtRp2338
(dp2339
g73
(dp2340
g81
I5
ssg82
g2334
sg75
(lp2341
g68
(g77
g70
NtRp2342
(dp2343
g73
(dp2344
g81
I4
ssg82
Nsg75
(lp2345
g68
(g84
g70
NtRp2346
(dp2347
g73
(dp2348
sg82
g2342
sg75
(lp2349
g68
(g89
g70
NtRp2350
(dp2351
g73
(dp2352
g93
g94
ssg82
g2346
sg75
(lp2353
g2175
asbag68
(g89
g70
NtRp2354
(dp2355
g73
(dp2356
g100
g101
ssg82
g2346
sg75
(lp2357
S':'
asbag68
(g89
g70
NtRp2358
(dp2359
g73
(dp2360
sg82
g2346
sg75
(lp2361
g68
(g69
g70
NtRp2362
(dp2363
g73
(dp2364
g81
I4
ssg82
g2358
sg75
(lp2365
g2188
asbasbasbag68
(g84
g70
NtRp2366
(dp2367
g73
(dp2368
sg82
g2342
sg75
(lp2369
g68
(g89
g70
NtRp2370
(dp2371
g73
(dp2372
g93
g94
ssg82
g2366
sg75
(lp2373
g2197
asbag68
(g89
g70
NtRp2374
(dp2375
g73
(dp2376
g100
g101
ssg82
g2366
sg75
(lp2377
S':'
asbag68
(g89
g70
NtRp2378
(dp2379
g73
(dp2380
sg82
g2366
sg75
(lp2381
g68
(g69
g70
NtRp2382
(dp2383
g73
(dp2384
g81
I4
ssg82
g2378
sg75
(lp2385
g2210
asbasbasbag68
(g84
g70
NtRp2386
(dp2387
g73
(dp2388
sg82
g2342
sg75
(lp2389
g68
(g89
g70
NtRp2390
(dp2391
g73
(dp2392
g93
g94
ssg82
g2386
sg75
(lp2393
g2219
asbag68
(g89
g70
NtRp2394
(dp2395
g73
(dp2396
g100
g101
ssg82
g2386
sg75
(lp2397
S':'
asbag68
(g89
g70
NtRp2398
(dp2399
g73
(dp2400
sg82
g2386
sg75
(lp2401
g68
(g69
g70
NtRp2402
(dp2403
g73
(dp2404
g81
I4
ssg82
g2398
sg75
(lp2405
g2232
asbasbasbag68
(g84
g70
NtRp2406
(dp2407
g73
(dp2408
sg82
g2342
sg75
(lp2409
g68
(g89
g70
NtRp2410
(dp2411
g73
(dp2412
g93
g94
ssg82
g2406
sg75
(lp2413
g2241
asbag68
(g89
g70
NtRp2414
(dp2415
g73
(dp2416
g100
g101
ssg82
g2406
sg75
(lp2417
S':'
asbag68
(g89
g70
NtRp2418
(dp2419
g73
(dp2420
sg82
g2406
sg75
(lp2421
g68
(g69
g70
NtRp2422
(dp2423
g73
(dp2424
g81
I4
ssg82
g2418
sg75
(lp2425
g2254
asbasbasbag68
(g84
g70
NtRp2426
(dp2427
g73
(dp2428
sg82
g2342
sg75
(lp2429
g68
(g89
g70
NtRp2430
(dp2431
g73
(dp2432
g93
g94
ssg82
g2426
sg75
(lp2433
g2263
asbag68
(g89
g70
NtRp2434
(dp2435
g73
(dp2436
g100
g101
ssg82
g2426
sg75
(lp2437
S':'
asbag68
(g89
g70
NtRp2438
(dp2439
g73
(dp2440
sg82
g2426
sg75
(lp2441
g68
(g69
g70
NtRp2442
(dp2443
g73
(dp2444
g81
I4
ssg82
g2438
sg75
(lp2445
g2276
asbasbasbasbasbasbasbag68
(g84
g70
NtRp2446
(dp2447
g73
(dp2448
sg82
g78
sg75
(lp2449
g68
(g89
g70
NtRp2450
(dp2451
g73
(dp2452
g93
g94
ssg82
g2446
sg75
(lp2453
S'wsgi'
p2454
asbag68
(g89
g70
NtRp2455
(dp2456
g73
(dp2457
g100
g101
ssg82
g2446
sg75
(lp2458
S':'
asbag68
(g89
g70
NtRp2459
(dp2460
g73
(dp2461
sg82
g2446
sg75
(lp2462
g68
(g69
g70
NtRp2463
(dp2464
g73
(dp2465
g81
I5
ssg82
g2459
sg75
(lp2466
g68
(g77
g70
NtRp2467
(dp2468
g73
(dp2469
g81
I4
ssg82
Nsg75
(lp2470
g68
(g84
g70
NtRp2471
(dp2472
g73
(dp2473
sg82
g2467
sg75
(lp2474
g68
(g89
g70
NtRp2475
(dp2476
g73
(dp2477
g93
g94
ssg82
g2471
sg75
(lp2478
S'environ'
p2479
asbag68
(g89
g70
NtRp2480
(dp2481
g73
(dp2482
g100
g101
ssg82
g2471
sg75
(lp2483
S':'
asbag68
(g89
g70
NtRp2484
(dp2485
g73
(dp2486
sg82
g2471
sg75
(lp2487
g68
(g69
g70
NtRp2488
(dp2489
g73
(dp2490
g81
I4
ssg82
g2484
sg75
(lp2491
g68
(g77
g70
NtRp2492
(dp2493
g73
(dp2494
g81
I3
ssg82
Nsg75
(lp2495
g68
(g84
g70
NtRp2496
(dp2497
g73
(dp2498
sg82
g2492
sg75
(lp2499
g68
(g89
g70
NtRp2500
(dp2501
g73
(dp2502
g93
g94
ssg82
g2496
sg75
(lp2503
S'CONTENT_LENGTH'
p2504
asbag68
(g89
g70
NtRp2505
(dp2506
g73
(dp2507
g100
g101
ssg82
g2496
sg75
(lp2508
S':'
asbag68
(g89
g70
NtRp2509
(dp2510
g73
(dp2511
sg82
g2496
sg75
(lp2512
g68
(g69
g70
NtRp2513
(dp2514
g73
(dp2515
g81
I3
ssg82
g2509
sg75
(lp2516
g1134
asbasbasbag68
(g84
g70
NtRp2517
(dp2518
g73
(dp2519
sg82
g2492
sg75
(lp2520
g68
(g89
g70
NtRp2521
(dp2522
g73
(dp2523
g93
g94
ssg82
g2517
sg75
(lp2524
S'CONTENT_TYPE'
p2525
asbag68
(g89
g70
NtRp2526
(dp2527
g73
(dp2528
g100
g101
ssg82
g2517
sg75
(lp2529
S':'
asbag68
(g89
g70
NtRp2530
(dp2531
g73
(dp2532
sg82
g2517
sg75
(lp2533
g68
(g69
g70
NtRp2534
(dp2535
g73
(dp2536
g81
I3
ssg82
g2530
sg75
(lp2537
g1156
asbasbasbag68
(g84
g70
NtRp2538
(dp2539
g73
(dp2540
sg82
g2492
sg75
(lp2541
g68
(g89
g70
NtRp2542
(dp2543
g73
(dp2544
g93
g94
ssg82
g2538
sg75
(lp2545
S'HTTP_ACCEPT'
p2546
asbag68
(g89
g70
NtRp2547
(dp2548
g73
(dp2549
g100
g101
ssg82
g2538
sg75
(lp2550
S':'
asbag68
(g89
g70
NtRp2551
(dp2552
g73
(dp2553
sg82
g2538
sg75
(lp2554
g68
(g69
g70
NtRp2555
(dp2556
g73
(dp2557
g81
I3
ssg82
g2551
sg75
(lp2558
g1243
asbasbasbag68
(g84
g70
NtRp2559
(dp2560
g73
(dp2561
sg82
g2492
sg75
(lp2562
g68
(g89
g70
NtRp2563
(dp2564
g73
(dp2565
g93
g94
ssg82
g2559
sg75
(lp2566
S'HTTP_ACCEPT_CHARSET'
p2567
asbag68
(g89
g70
NtRp2568
(dp2569
g73
(dp2570
g100
g101
ssg82
g2559
sg75
(lp2571
S':'
asbag68
(g89
g70
NtRp2572
(dp2573
g73
(dp2574
sg82
g2559
sg75
(lp2575
g68
(g69
g70
NtRp2576
(dp2577
g73
(dp2578
g81
I3
ssg82
g2572
sg75
(lp2579
g1265
asbasbasbag68
(g84
g70
NtRp2580
(dp2581
g73
(dp2582
sg82
g2492
sg75
(lp2583
g68
(g89
g70
NtRp2584
(dp2585
g73
(dp2586
g93
g94
ssg82
g2580
sg75
(lp2587
S'HTTP_ACCEPT_ENCODING'
p2588
asbag68
(g89
g70
NtRp2589
(dp2590
g73
(dp2591
g100
g101
ssg82
g2580
sg75
(lp2592
S':'
asbag68
(g89
g70
NtRp2593
(dp2594
g73
(dp2595
sg82
g2580
sg75
(lp2596
g68
(g69
g70
NtRp2597
(dp2598
g73
(dp2599
g81
I3
ssg82
g2593
sg75
(lp2600
g1287
asbasbasbag68
(g84
g70
NtRp2601
(dp2602
g73
(dp2603
sg82
g2492
sg75
(lp2604
g68
(g89
g70
NtRp2605
(dp2606
g73
(dp2607
g93
g94
ssg82
g2601
sg75
(lp2608
S'HTTP_ACCEPT_LANGUAGE'
p2609
asbag68
(g89
g70
NtRp2610
(dp2611
g73
(dp2612
g100
g101
ssg82
g2601
sg75
(lp2613
S':'
asbag68
(g89
g70
NtRp2614
(dp2615
g73
(dp2616
sg82
g2601
sg75
(lp2617
g68
(g69
g70
NtRp2618
(dp2619
g73
(dp2620
g81
I3
ssg82
g2614
sg75
(lp2621
g1309
asbasbasbag68
(g84
g70
NtRp2622
(dp2623
g73
(dp2624
sg82
g2492
sg75
(lp2625
g68
(g89
g70
NtRp2626
(dp2627
g73
(dp2628
g93
g94
ssg82
g2622
sg75
(lp2629
S'HTTP_CONNECTION'
p2630
asbag68
(g89
g70
NtRp2631
(dp2632
g73
(dp2633
g100
g101
ssg82
g2622
sg75
(lp2634
S':'
asbag68
(g89
g70
NtRp2635
(dp2636
g73
(dp2637
sg82
g2622
sg75
(lp2638
g68
(g69
g70
NtRp2639
(dp2640
g73
(dp2641
g81
I3
ssg82
g2635
sg75
(lp2642
g1331
asbasbasbag68
(g84
g70
NtRp2643
(dp2644
g73
(dp2645
sg82
g2492
sg75
(lp2646
g68
(g89
g70
NtRp2647
(dp2648
g73
(dp2649
g93
g94
ssg82
g2643
sg75
(lp2650
S'HTTP_CONTENT_LENGTH'
p2651
asbag68
(g89
g70
NtRp2652
(dp2653
g73
(dp2654
g100
g101
ssg82
g2643
sg75
(lp2655
S':'
asbag68
(g89
g70
NtRp2656
(dp2657
g73
(dp2658
sg82
g2643
sg75
(lp2659
g68
(g69
g70
NtRp2660
(dp2661
g73
(dp2662
g81
I3
ssg82
g2656
sg75
(lp2663
g1134
asbasbasbag68
(g84
g70
NtRp2664
(dp2665
g73
(dp2666
sg82
g2492
sg75
(lp2667
g68
(g89
g70
NtRp2668
(dp2669
g73
(dp2670
g93
g94
ssg82
g2664
sg75
(lp2671
S'HTTP_CONTENT_TYPE'
p2672
asbag68
(g89
g70
NtRp2673
(dp2674
g73
(dp2675
g100
g101
ssg82
g2664
sg75
(lp2676
S':'
asbag68
(g89
g70
NtRp2677
(dp2678
g73
(dp2679
sg82
g2664
sg75
(lp2680
g68
(g69
g70
NtRp2681
(dp2682
g73
(dp2683
g81
I3
ssg82
g2677
sg75
(lp2684
g1156
asbasbasbag68
(g84
g70
NtRp2685
(dp2686
g73
(dp2687
sg82
g2492
sg75
(lp2688
g68
(g89
g70
NtRp2689
(dp2690
g73
(dp2691
g93
g94
ssg82
g2685
sg75
(lp2692
S'HTTP_COOKIE'
p2693
asbag68
(g89
g70
NtRp2694
(dp2695
g73
(dp2696
g100
g101
ssg82
g2685
sg75
(lp2697
S':'
asbag68
(g89
g70
NtRp2698
(dp2699
g73
(dp2700
sg82
g2685
sg75
(lp2701
g68
(g69
g70
NtRp2702
(dp2703
g73
(dp2704
g81
I3
ssg82
g2698
sg75
(lp2705
g1395
asbasbasbag68
(g84
g70
NtRp2706
(dp2707
g73
(dp2708
sg82
g2492
sg75
(lp2709
g68
(g89
g70
NtRp2710
(dp2711
g73
(dp2712
g93
g94
ssg82
g2706
sg75
(lp2713
S'HTTP_HOST'
p2714
asbag68
(g89
g70
NtRp2715
(dp2716
g73
(dp2717
g100
g101
ssg82
g2706
sg75
(lp2718
S':'
asbag68
(g89
g70
NtRp2719
(dp2720
g73
(dp2721
sg82
g2706
sg75
(lp2722
g68
(g69
g70
NtRp2723
(dp2724
g73
(dp2725
g81
I3
ssg82
g2719
sg75
(lp2726
g1417
asbasbasbag68
(g84
g70
NtRp2727
(dp2728
g73
(dp2729
sg82
g2492
sg75
(lp2730
g68
(g89
g70
NtRp2731
(dp2732
g73
(dp2733
g93
g94
ssg82
g2727
sg75
(lp2734
S'HTTP_REFERER'
p2735
asbag68
(g89
g70
NtRp2736
(dp2737
g73
(dp2738
g100
g101
ssg82
g2727
sg75
(lp2739
S':'
asbag68
(g89
g70
NtRp2740
(dp2741
g73
(dp2742
sg82
g2727
sg75
(lp2743
g68
(g69
g70
NtRp2744
(dp2745
g73
(dp2746
g81
I3
ssg82
g2740
sg75
(lp2747
g1439
asbasbasbag68
(g84
g70
NtRp2748
(dp2749
g73
(dp2750
sg82
g2492
sg75
(lp2751
g68
(g89
g70
NtRp2752
(dp2753
g73
(dp2754
g93
g94
ssg82
g2748
sg75
(lp2755
S'HTTP_USER_AGENT'
p2756
asbag68
(g89
g70
NtRp2757
(dp2758
g73
(dp2759
g100
g101
ssg82
g2748
sg75
(lp2760
S':'
asbag68
(g89
g70
NtRp2761
(dp2762
g73
(dp2763
sg82
g2748
sg75
(lp2764
g68
(g69
g70
NtRp2765
(dp2766
g73
(dp2767
g81
I3
ssg82
g2761
sg75
(lp2768
g1461
asbasbasbag68
(g84
g70
NtRp2769
(dp2770
g73
(dp2771
sg82
g2492
sg75
(lp2772
g68
(g89
g70
NtRp2773
(dp2774
g73
(dp2775
g93
g94
ssg82
g2769
sg75
(lp2776
S'PATH_INFO'
p2777
asbag68
(g89
g70
NtRp2778
(dp2779
g73
(dp2780
g100
g101
ssg82
g2769
sg75
(lp2781
S':'
asbag68
(g89
g70
NtRp2782
(dp2783
g73
(dp2784
sg82
g2769
sg75
(lp2785
g68
(g69
g70
NtRp2786
(dp2787
g73
(dp2788
g81
I3
ssg82
g2782
sg75
(lp2789
g1504
asbasbasbag68
(g84
g70
NtRp2790
(dp2791
g73
(dp2792
sg82
g2492
sg75
(lp2793
g68
(g89
g70
NtRp2794
(dp2795
g73
(dp2796
g93
g94
ssg82
g2790
sg75
(lp2797
S'QUERY_STRING'
p2798
asbag68
(g89
g70
NtRp2799
(dp2800
g73
(dp2801
g100
g101
ssg82
g2790
sg75
(lp2802
S':'
asbag68
(g89
g70
NtRp2803
(dp2804
g73
(dp2805
sg82
g2790
sg75
(lp2806
g68
(g69
g70
NtRp2807
(dp2808
g73
(dp2809
g81
I3
ssg82
g2803
sg75
(lp2810
S''
asbasbasbag68
(g84
g70
NtRp2811
(dp2812
g73
(dp2813
sg82
g2492
sg75
(lp2814
g68
(g89
g70
NtRp2815
(dp2816
g73
(dp2817
g93
g94
ssg82
g2811
sg75
(lp2818
S'REMOTE_ADDR'
p2819
asbag68
(g89
g70
NtRp2820
(dp2821
g73
(dp2822
g100
g101
ssg82
g2811
sg75
(lp2823
S':'
asbag68
(g89
g70
NtRp2824
(dp2825
g73
(dp2826
sg82
g2811
sg75
(lp2827
g68
(g69
g70
NtRp2828
(dp2829
g73
(dp2830
g81
I3
ssg82
g2824
sg75
(lp2831
g201
asbasbasbag68
(g84
g70
NtRp2832
(dp2833
g73
(dp2834
sg82
g2492
sg75
(lp2835
g68
(g89
g70
NtRp2836
(dp2837
g73
(dp2838
g93
g94
ssg82
g2832
sg75
(lp2839
S'REMOTE_PORT'
p2840
asbag68
(g89
g70
NtRp2841
(dp2842
g73
(dp2843
g100
g101
ssg82
g2832
sg75
(lp2844
S':'
asbag68
(g89
g70
NtRp2845
(dp2846
g73
(dp2847
sg82
g2832
sg75
(lp2848
g68
(g69
g70
NtRp2849
(dp2850
g73
(dp2851
g81
I3
ssg82
g2845
sg75
(lp2852
g1568
asbasbasbag68
(g84
g70
NtRp2853
(dp2854
g73
(dp2855
sg82
g2492
sg75
(lp2856
g68
(g89
g70
NtRp2857
(dp2858
g73
(dp2859
g93
g94
ssg82
g2853
sg75
(lp2860
S'REQUEST_METHOD'
p2861
asbag68
(g89
g70
NtRp2862
(dp2863
g73
(dp2864
g100
g101
ssg82
g2853
sg75
(lp2865
S':'
asbag68
(g89
g70
NtRp2866
(dp2867
g73
(dp2868
sg82
g2853
sg75
(lp2869
g68
(g69
g70
NtRp2870
(dp2871
g73
(dp2872
g81
I3
ssg82
g2866
sg75
(lp2873
g1590
asbasbasbag68
(g84
g70
NtRp2874
(dp2875
g73
(dp2876
sg82
g2492
sg75
(lp2877
g68
(g89
g70
NtRp2878
(dp2879
g73
(dp2880
g93
g94
ssg82
g2874
sg75
(lp2881
S'SCRIPT_NAME'
p2882
asbag68
(g89
g70
NtRp2883
(dp2884
g73
(dp2885
g100
g101
ssg82
g2874
sg75
(lp2886
S':'
asbag68
(g89
g70
NtRp2887
(dp2888
g73
(dp2889
sg82
g2874
sg75
(lp2890
g68
(g69
g70
NtRp2891
(dp2892
g73
(dp2893
g81
I3
ssg82
g2887
sg75
(lp2894
S''
asbasbasbag68
(g84
g70
NtRp2895
(dp2896
g73
(dp2897
sg82
g2492
sg75
(lp2898
g68
(g89
g70
NtRp2899
(dp2900
g73
(dp2901
g93
g94
ssg82
g2895
sg75
(lp2902
S'SERVER_NAME'
p2903
asbag68
(g89
g70
NtRp2904
(dp2905
g73
(dp2906
g100
g101
ssg82
g2895
sg75
(lp2907
S':'
asbag68
(g89
g70
NtRp2908
(dp2909
g73
(dp2910
sg82
g2895
sg75
(lp2911
g68
(g69
g70
NtRp2912
(dp2913
g73
(dp2914
g81
I3
ssg82
g2908
sg75
(lp2915
g1633
asbasbasbag68
(g84
g70
NtRp2916
(dp2917
g73
(dp2918
sg82
g2492
sg75
(lp2919
g68
(g89
g70
NtRp2920
(dp2921
g73
(dp2922
g93
g94
ssg82
g2916
sg75
(lp2923
S'SERVER_PORT'
p2924
asbag68
(g89
g70
NtRp2925
(dp2926
g73
(dp2927
g100
g101
ssg82
g2916
sg75
(lp2928
S':'
asbag68
(g89
g70
NtRp2929
(dp2930
g73
(dp2931
sg82
g2916
sg75
(lp2932
g68
(g69
g70
NtRp2933
(dp2934
g73
(dp2935
g81
I3
ssg82
g2929
sg75
(lp2936
g1655
asbasbasbag68
(g84
g70
NtRp2937
(dp2938
g73
(dp2939
sg82
g2492
sg75
(lp2940
g68
(g89
g70
NtRp2941
(dp2942
g73
(dp2943
g93
g94
ssg82
g2937
sg75
(lp2944
S'SERVER_PROTOCOL'
p2945
asbag68
(g89
g70
NtRp2946
(dp2947
g73
(dp2948
g100
g101
ssg82
g2937
sg75
(lp2949
S':'
asbag68
(g89
g70
NtRp2950
(dp2951
g73
(dp2952
sg82
g2937
sg75
(lp2953
g68
(g69
g70
NtRp2954
(dp2955
g73
(dp2956
g81
I3
ssg82
g2950
sg75
(lp2957
g1677
asbasbasbag68
(g84
g70
NtRp2958
(dp2959
g73
(dp2960
sg82
g2492
sg75
(lp2961
g68
(g89
g70
NtRp2962
(dp2963
g73
(dp2964
g93
g94
ssg82
g2958
sg75
(lp2965
S'SERVER_SOFTWARE'
p2966
asbag68
(g89
g70
NtRp2967
(dp2968
g73
(dp2969
g100
g101
ssg82
g2958
sg75
(lp2970
S':'
asbag68
(g89
g70
NtRp2971
(dp2972
g73
(dp2973
sg82
g2958
sg75
(lp2974
g68
(g69
g70
NtRp2975
(dp2976
g73
(dp2977
g81
I3
ssg82
g2971
sg75
(lp2978
g1699
asbasbasbag68
(g84
g70
NtRp2979
(dp2980
g73
(dp2981
sg82
g2492
sg75
(lp2982
g68
(g89
g70
NtRp2983
(dp2984
g73
(dp2985
g93
g94
ssg82
g2979
sg75
(lp2986
S'wsgi.errors'
p2987
asbag68
(g89
g70
NtRp2988
(dp2989
g73
(dp2990
g100
g101
ssg82
g2979
sg75
(lp2991
S':'
asbag68
(g89
g70
NtRp2992
(dp2993
g73
(dp2994
sg82
g2979
sg75
(lp2995
g68
(g69
g70
NtRp2996
(dp2997
g73
(dp2998
g81
I3
ssg82
g2992
sg75
(lp2999
S"<open file '<stderr>', mode 'w' at 0x100287270>"
p3000
asbasbasbag68
(g84
g70
NtRp3001
(dp3002
g73
(dp3003
sg82
g2492
sg75
(lp3004
g68
(g89
g70
NtRp3005
(dp3006
g73
(dp3007
g93
g94
ssg82
g3001
sg75
(lp3008
S'wsgi.file_wrapper'
p3009
asbag68
(g89
g70
NtRp3010
(dp3011
g73
(dp3012
g100
g101
ssg82
g3001
sg75
(lp3013
S':'
asbag68
(g89
g70
NtRp3014
(dp3015
g73
(dp3016
sg82
g3001
sg75
(lp3017
g68
(g69
g70
NtRp3018
(dp3019
g73
(dp3020
g81
I3
ssg82
g3014
sg75
(lp3021
S'<class gluon.rocket.FileWrapper at 0x101668e20>'
p3022
asbasbasbag68
(g84
g70
NtRp3023
(dp3024
g73
(dp3025
sg82
g2492
sg75
(lp3026
g68
(g89
g70
NtRp3027
(dp3028
g73
(dp3029
g93
g94
ssg82
g3023
sg75
(lp3030
S'wsgi.input'
p3031
asbag68
(g89
g70
NtRp3032
(dp3033
g73
(dp3034
g100
g101
ssg82
g3023
sg75
(lp3035
S':'
asbag68
(g89
g70
NtRp3036
(dp3037
g73
(dp3038
sg82
g3023
sg75
(lp3039
g68
(g69
g70
NtRp3040
(dp3041
g73
(dp3042
g81
I3
ssg82
g3036
sg75
(lp3043
S"<open file '<fdopen>', mode 'w+b' at 0x1021b3030>"
p3044
asbasbasbag68
(g84
g70
NtRp3045
(dp3046
g73
(dp3047
sg82
g2492
sg75
(lp3048
g68
(g89
g70
NtRp3049
(dp3050
g73
(dp3051
g93
g94
ssg82
g3045
sg75
(lp3052
S'wsgi.multiprocess'
p3053
asbag68
(g89
g70
NtRp3054
(dp3055
g73
(dp3056
g100
g101
ssg82
g3045
sg75
(lp3057
S':'
asbag68
(g89
g70
NtRp3058
(dp3059
g73
(dp3060
sg82
g3045
sg75
(lp3061
g68
(g69
g70
NtRp3062
(dp3063
g73
(dp3064
g81
I3
ssg82
g3058
sg75
(lp3065
g111
asbasbasbag68
(g84
g70
NtRp3066
(dp3067
g73
(dp3068
sg82
g2492
sg75
(lp3069
g68
(g89
g70
NtRp3070
(dp3071
g73
(dp3072
g93
g94
ssg82
g3066
sg75
(lp3073
S'wsgi.multithread'
p3074
asbag68
(g89
g70
NtRp3075
(dp3076
g73
(dp3077
g100
g101
ssg82
g3066
sg75
(lp3078
S':'
asbag68
(g89
g70
NtRp3079
(dp3080
g73
(dp3081
sg82
g3066
sg75
(lp3082
g68
(g69
g70
NtRp3083
(dp3084
g73
(dp3085
g81
I3
ssg82
g3079
sg75
(lp3086
g1873
asbasbasbag68
(g84
g70
NtRp3087
(dp3088
g73
(dp3089
sg82
g2492
sg75
(lp3090
g68
(g89
g70
NtRp3091
(dp3092
g73
(dp3093
g93
g94
ssg82
g3087
sg75
(lp3094
S'wsgi.run_once'
p3095
asbag68
(g89
g70
NtRp3096
(dp3097
g73
(dp3098
g100
g101
ssg82
g3087
sg75
(lp3099
S':'
asbag68
(g89
g70
NtRp3100
(dp3101
g73
(dp3102
sg82
g3087
sg75
(lp3103
g68
(g69
g70
NtRp3104
(dp3105
g73
(dp3106
g81
I3
ssg82
g3100
sg75
(lp3107
g111
asbasbasbag68
(g84
g70
NtRp3108
(dp3109
g73
(dp3110
sg82
g2492
sg75
(lp3111
g68
(g89
g70
NtRp3112
(dp3113
g73
(dp3114
g93
g94
ssg82
g3108
sg75
(lp3115
S'wsgi.url_scheme'
p3116
asbag68
(g89
g70
NtRp3117
(dp3118
g73
(dp3119
g100
g101
ssg82
g3108
sg75
(lp3120
S':'
asbag68
(g89
g70
NtRp3121
(dp3122
g73
(dp3123
sg82
g3108
sg75
(lp3124
g68
(g69
g70
NtRp3125
(dp3126
g73
(dp3127
g81
I3
ssg82
g3121
sg75
(lp3128
g1916
asbasbasbag68
(g84
g70
NtRp3129
(dp3130
g73
(dp3131
sg82
g2492
sg75
(lp3132
g68
(g89
g70
NtRp3133
(dp3134
g73
(dp3135
g93
g94
ssg82
g3129
sg75
(lp3136
S'wsgi.version'
p3137
asbag68
(g89
g70
NtRp3138
(dp3139
g73
(dp3140
g100
g101
ssg82
g3129
sg75
(lp3141
S':'
asbag68
(g89
g70
NtRp3142
(dp3143
g73
(dp3144
sg82
g3129
sg75
(lp3145
g68
(g69
g70
NtRp3146
(dp3147
g73
(dp3148
g81
I3
ssg82
g3142
sg75
(lp3149
S'1'
asbasbasbasbasbasbasbasbasbasbasbasbasbsS'frames'
p3150
(lp3151
(dp3152
S'file'
p3153
S'/opt/local/Library/Frameworks/Python.framework/Versions/2.7/lib/python2.7/gluon/restricted.py'
p3154
sS'dump'
p3155
(dp3156
S'code'
p3157
S"'# -*- coding: utf-8 -*-\\n### required - do no del...t()\\n\\nresponse._vars=response._caller(submission)\\n'"
p3158
sS'layer'
p3159
S"'/Users/hellais/Documents/code/mygit/globaleaks/webapp/applications/init/controllers/default.py'"
p3160
sS'global compile2'
p3161
S'<function compile2>'
p3162
sS'ccode'
p3163
S'undefined'
p3164
ssS'lnum'
p3165
I191
sS'lines'
p3166
(dp3167
I192
S'        exec ccode in environment'
p3168
sI193
S'    except HTTP:'
p3169
sI194
S'        raise'
p3170
sI195
S'    except Exception, error:'
p3171
sI186
S"    environment['__file__'] = layer"
p3172
sI187
S'    try:'
p3173
sI188
S'        if type(code) == types.CodeType:'
p3174
sI189
S'            ccode = code'
p3175
sI190
S'        else:'
p3176
sI191
S'            ccode = compile2(code,layer)'
p3177
ssS'call'
p3178
S"(code='# -*- coding: utf-8 -*-\\n### required - do no del...t()\\n\\nresponse._vars=response._caller(submission)\\n', environment={'A': <class 'gluon.html.A'>, 'Auth': <class 'gluon.tools.Auth'>, 'B': <class 'gluon.html.B'>, 'BEAUTIFY': <class 'gluon.html.BEAUTIFY'>, 'BODY': <class 'gluon.html.BODY'>, 'BR': <class 'gluon.html.BR'>, 'BUTTON': <class 'gluon.html.BUTTON'>, 'CAT': <class 'gluon.html.CAT'>, 'CENTER': <class 'gluon.html.CENTER'>, 'CLEANUP': <class 'gluon.validators.CLEANUP'>, ...}, layer='/Users/hellais/Documents/code/mygit/globaleaks/webapp/applications/init/controllers/default.py')"
p3179
sS'func'
p3180
S'restricted'
p3181
sa(dp3182
g3153
S'/opt/local/Library/Frameworks/Python.framework/Versions/2.7/lib/python2.7/gluon/restricted.py'
p3183
sg3155
(dp3184
S'builtincompile'
p3185
S'<built-in function compile>'
p3186
sS'code'
p3187
S"'# -*- coding: utf-8 -*-\\n### required - do no del...t()\\n\\nresponse._vars=response._caller(submission)\\n'"
p3188
sS'code.rstrip'
p3189
S'<built-in method rstrip of str object>'
p3190
sS').replace'
p3191
g3164
sS'layer'
p3192
S"'/Users/hellais/Documents/code/mygit/globaleaks/webapp/applications/init/controllers/default.py'"
p3193
ssg3165
I178
sg3166
(dp3194
I173
S''
sI174
S'def compile2(code,layer):'
p3195
sI175
S'    """'
p3196
sI176
S"    The +'\\n' is necessary else compile fails when code ends in a comment."
p3197
sI177
S'    """'
p3198
sI178
S"    return compile(code.rstrip().replace('\\r\\n','\\n')+'\\n', layer, 'exec')"
p3199
sI179
S''
sI180
S"def restricted(code, environment={}, layer='Unknown'):"
p3200
sI181
S'    """'
p3201
sI182
S'    runs code in environment and returns the output. if an exception occurs'
p3202
ssg3178
S"(code='# -*- coding: utf-8 -*-\\n### required - do no del...t()\\n\\nresponse._vars=response._caller(submission)\\n', layer='/Users/hellais/Documents/code/mygit/globaleaks/webapp/applications/init/controllers/default.py')"
p3203
sg3180
S'compile2'
p3204
sasS'pyver'
p3205
S'Python 2.7.1: /opt/local/Library/Frameworks/Python.framework/Versions/2.7/Resources/Python.app/Contents/MacOS/Python'
p3206
sS'session'
p3207
g68
(g69
g70
NtRp3208
(dp3209
g73
(dp3210
sg75
(lp3211
g68
(g77
g70
NtRp3212
(dp3213
g73
(dp3214
g81
I5
ssg82
Nsg75
(lp3215
sbasbsS'etype'
p3216
S"<type 'exceptions.SyntaxError'>"
p3217
sS'date'
p3218
S'Sun Aug 28 01:02:54 2011'
p3219
sS'response'
p3220
g68
(g69
g70
NtRp3221
(dp3222
g73
(dp3223
sg75
(lp3224
g68
(g77
g70
NtRp3225
(dp3226
g73
(dp3227
g81
I5
ssg82
Nsg75
(lp3228
g68
(g84
g70
NtRp3229
(dp3230
g73
(dp3231
sg82
g3225
sg75
(lp3232
g68
(g89
g70
NtRp3233
(dp3234
g73
(dp3235
g93
g94
ssg82
g3229
sg75
(lp3236
g166
asbag68
(g89
g70
NtRp3237
(dp3238
g73
(dp3239
g100
g101
ssg82
g3229
sg75
(lp3240
S':'
asbag68
(g89
g70
NtRp3241
(dp3242
g73
(dp3243
sg82
g3229
sg75
(lp3244
g68
(g69
g70
NtRp3245
(dp3246
g73
(dp3247
g81
I5
ssg82
g3241
sg75
(lp3248
S'<cStringIO.StringO object at 0x1021b2a08>'
p3249
asbasbasbag68
(g84
g70
NtRp3250
(dp3251
g73
(dp3252
sg82
g3225
sg75
(lp3253
g68
(g89
g70
NtRp3254
(dp3255
g73
(dp3256
g93
g94
ssg82
g3250
sg75
(lp3257
g232
asbag68
(g89
g70
NtRp3258
(dp3259
g73
(dp3260
g100
g101
ssg82
g3250
sg75
(lp3261
S':'
asbag68
(g89
g70
NtRp3262
(dp3263
g73
(dp3264
sg82
g3250
sg75
(lp3265
g68
(g69
g70
NtRp3266
(dp3267
g73
(dp3268
g81
I5
ssg82
g3262
sg75
(lp3269
g68
(g77
g70
NtRp3270
(dp3271
g73
(dp3272
g81
I4
ssg82
Nsg75
(lp3273
g68
(g84
g70
NtRp3274
(dp3275
g73
(dp3276
sg82
g3270
sg75
(lp3277
g68
(g89
g70
NtRp3278
(dp3279
g73
(dp3280
g93
g94
ssg82
g3274
sg75
(lp3281
S'session_id_init'
p3282
asbag68
(g89
g70
NtRp3283
(dp3284
g73
(dp3285
g100
g101
ssg82
g3274
sg75
(lp3286
S':'
asbag68
(g89
g70
NtRp3287
(dp3288
g73
(dp3289
sg82
g3274
sg75
(lp3290
g68
(g69
g70
NtRp3291
(dp3292
g73
(dp3293
g81
I4
ssg82
g3287
sg75
(lp3294
g68
(g77
g70
NtRp3295
(dp3296
g73
(dp3297
g81
I3
ssg82
Nsg75
(lp3298
g68
(g84
g70
NtRp3299
(dp3300
g73
(dp3301
sg82
g3295
sg75
(lp3302
g68
(g89
g70
NtRp3303
(dp3304
g73
(dp3305
g93
g94
ssg82
g3299
sg75
(lp3306
g282
asbag68
(g89
g70
NtRp3307
(dp3308
g73
(dp3309
g100
g101
ssg82
g3299
sg75
(lp3310
S':'
asbag68
(g89
g70
NtRp3311
(dp3312
g73
(dp3313
sg82
g3299
sg75
(lp3314
g68
(g69
g70
NtRp3315
(dp3316
g73
(dp3317
g81
I3
ssg82
g3311
sg75
(lp3318
S''
asbasbasbag68
(g84
g70
NtRp3319
(dp3320
g73
(dp3321
sg82
g3295
sg75
(lp3322
g68
(g89
g70
NtRp3323
(dp3324
g73
(dp3325
g93
g94
ssg82
g3319
sg75
(lp3326
g303
asbag68
(g89
g70
NtRp3327
(dp3328
g73
(dp3329
g100
g101
ssg82
g3319
sg75
(lp3330
S':'
asbag68
(g89
g70
NtRp3331
(dp3332
g73
(dp3333
sg82
g3319
sg75
(lp3334
g68
(g69
g70
NtRp3335
(dp3336
g73
(dp3337
g81
I3
ssg82
g3331
sg75
(lp3338
S''
asbasbasbag68
(g84
g70
NtRp3339
(dp3340
g73
(dp3341
sg82
g3295
sg75
(lp3342
g68
(g89
g70
NtRp3343
(dp3344
g73
(dp3345
g93
g94
ssg82
g3339
sg75
(lp3346
g324
asbag68
(g89
g70
NtRp3347
(dp3348
g73
(dp3349
g100
g101
ssg82
g3339
sg75
(lp3350
S':'
asbag68
(g89
g70
NtRp3351
(dp3352
g73
(dp3353
sg82
g3339
sg75
(lp3354
g68
(g69
g70
NtRp3355
(dp3356
g73
(dp3357
g81
I3
ssg82
g3351
sg75
(lp3358
S''
asbasbasbag68
(g84
g70
NtRp3359
(dp3360
g73
(dp3361
sg82
g3295
sg75
(lp3362
g68
(g89
g70
NtRp3363
(dp3364
g73
(dp3365
g93
g94
ssg82
g3359
sg75
(lp3366
g345
asbag68
(g89
g70
NtRp3367
(dp3368
g73
(dp3369
g100
g101
ssg82
g3359
sg75
(lp3370
S':'
asbag68
(g89
g70
NtRp3371
(dp3372
g73
(dp3373
sg82
g3359
sg75
(lp3374
g68
(g69
g70
NtRp3375
(dp3376
g73
(dp3377
g81
I3
ssg82
g3371
sg75
(lp3378
S''
asbasbasbag68
(g84
g70
NtRp3379
(dp3380
g73
(dp3381
sg82
g3295
sg75
(lp3382
g68
(g89
g70
NtRp3383
(dp3384
g73
(dp3385
g93
g94
ssg82
g3379
sg75
(lp3386
g366
asbag68
(g89
g70
NtRp3387
(dp3388
g73
(dp3389
g100
g101
ssg82
g3379
sg75
(lp3390
S':'
asbag68
(g89
g70
NtRp3391
(dp3392
g73
(dp3393
sg82
g3379
sg75
(lp3394
g68
(g69
g70
NtRp3395
(dp3396
g73
(dp3397
g81
I3
ssg82
g3391
sg75
(lp3398
S''
asbasbasbag68
(g84
g70
NtRp3399
(dp3400
g73
(dp3401
sg82
g3295
sg75
(lp3402
g68
(g89
g70
NtRp3403
(dp3404
g73
(dp3405
g93
g94
ssg82
g3399
sg75
(lp3406
g387
asbag68
(g89
g70
NtRp3407
(dp3408
g73
(dp3409
g100
g101
ssg82
g3399
sg75
(lp3410
S':'
asbag68
(g89
g70
NtRp3411
(dp3412
g73
(dp3413
sg82
g3399
sg75
(lp3414
g68
(g69
g70
NtRp3415
(dp3416
g73
(dp3417
g81
I3
ssg82
g3411
sg75
(lp3418
S'/'
asbasbasbag68
(g84
g70
NtRp3419
(dp3420
g73
(dp3421
sg82
g3295
sg75
(lp3422
g68
(g89
g70
NtRp3423
(dp3424
g73
(dp3425
g93
g94
ssg82
g3419
sg75
(lp3426
g408
asbag68
(g89
g70
NtRp3427
(dp3428
g73
(dp3429
g100
g101
ssg82
g3419
sg75
(lp3430
S':'
asbag68
(g89
g70
NtRp3431
(dp3432
g73
(dp3433
sg82
g3419
sg75
(lp3434
g68
(g69
g70
NtRp3435
(dp3436
g73
(dp3437
g81
I3
ssg82
g3431
sg75
(lp3438
S''
asbasbasbag68
(g84
g70
NtRp3439
(dp3440
g73
(dp3441
sg82
g3295
sg75
(lp3442
g68
(g89
g70
NtRp3443
(dp3444
g73
(dp3445
g93
g94
ssg82
g3439
sg75
(lp3446
g429
asbag68
(g89
g70
NtRp3447
(dp3448
g73
(dp3449
g100
g101
ssg82
g3439
sg75
(lp3450
S':'
asbag68
(g89
g70
NtRp3451
(dp3452
g73
(dp3453
sg82
g3439
sg75
(lp3454
g68
(g69
g70
NtRp3455
(dp3456
g73
(dp3457
g81
I3
ssg82
g3451
sg75
(lp3458
S''
asbasbasbasbasbasbasbasbasbasbasbag68
(g84
g70
NtRp3459
(dp3460
g73
(dp3461
sg82
g3225
sg75
(lp3462
g68
(g89
g70
NtRp3463
(dp3464
g73
(dp3465
g93
g94
ssg82
g3459
sg75
(lp3466
S'files'
p3467
asbag68
(g89
g70
NtRp3468
(dp3469
g73
(dp3470
g100
g101
ssg82
g3459
sg75
(lp3471
S':'
asbag68
(g89
g70
NtRp3472
(dp3473
g73
(dp3474
sg82
g3459
sg75
(lp3475
g68
(g69
g70
NtRp3476
(dp3477
g73
(dp3478
g81
I5
ssg82
g3472
sg75
(lp3479
g68
(g77
g70
NtRp3480
(dp3481
g73
(dp3482
g81
I4
ssg82
Nsg75
(lp3483
sbasbasbasbag68
(g84
g70
NtRp3484
(dp3485
g73
(dp3486
sg82
g3225
sg75
(lp3487
g68
(g89
g70
NtRp3488
(dp3489
g73
(dp3490
g93
g94
ssg82
g3484
sg75
(lp3491
S'flash'
p3492
asbag68
(g89
g70
NtRp3493
(dp3494
g73
(dp3495
g100
g101
ssg82
g3484
sg75
(lp3496
S':'
asbag68
(g89
g70
NtRp3497
(dp3498
g73
(dp3499
sg82
g3484
sg75
(lp3500
g68
(g69
g70
NtRp3501
(dp3502
g73
(dp3503
g81
I5
ssg82
g3497
sg75
(lp3504
S''
asbasbasbag68
(g84
g70
NtRp3505
(dp3506
g73
(dp3507
sg82
g3225
sg75
(lp3508
g68
(g89
g70
NtRp3509
(dp3510
g73
(dp3511
g93
g94
ssg82
g3505
sg75
(lp3512
S'generic_patterns'
p3513
asbag68
(g89
g70
NtRp3514
(dp3515
g73
(dp3516
g100
g101
ssg82
g3505
sg75
(lp3517
S':'
asbag68
(g89
g70
NtRp3518
(dp3519
g73
(dp3520
sg82
g3505
sg75
(lp3521
g68
(g69
g70
NtRp3522
(dp3523
g73
(dp3524
g81
I5
ssg82
g3518
sg75
(lp3525
g68
(g77
g70
NtRp3526
(dp3527
g73
(dp3528
g81
I4
ssg82
Nsg75
(lp3529
sbasbasbasbag68
(g84
g70
NtRp3530
(dp3531
g73
(dp3532
sg82
g3225
sg75
(lp3533
g68
(g89
g70
NtRp3534
(dp3535
g73
(dp3536
g93
g94
ssg82
g3530
sg75
(lp3537
S'headers'
p3538
asbag68
(g89
g70
NtRp3539
(dp3540
g73
(dp3541
g100
g101
ssg82
g3530
sg75
(lp3542
S':'
asbag68
(g89
g70
NtRp3543
(dp3544
g73
(dp3545
sg82
g3530
sg75
(lp3546
g68
(g69
g70
NtRp3547
(dp3548
g73
(dp3549
g81
I5
ssg82
g3543
sg75
(lp3550
g68
(g77
g70
NtRp3551
(dp3552
g73
(dp3553
g81
I4
ssg82
Nsg75
(lp3554
g68
(g84
g70
NtRp3555
(dp3556
g73
(dp3557
sg82
g3551
sg75
(lp3558
g68
(g89
g70
NtRp3559
(dp3560
g73
(dp3561
g93
g94
ssg82
g3555
sg75
(lp3562
S'Cache-Control'
p3563
asbag68
(g89
g70
NtRp3564
(dp3565
g73
(dp3566
g100
g101
ssg82
g3555
sg75
(lp3567
S':'
asbag68
(g89
g70
NtRp3568
(dp3569
g73
(dp3570
sg82
g3555
sg75
(lp3571
g68
(g69
g70
NtRp3572
(dp3573
g73
(dp3574
g81
I4
ssg82
g3568
sg75
(lp3575
S'no-store, no-cache, must-revalidate, post-check=0, pre-check=0'
p3576
asbasbasbag68
(g84
g70
NtRp3577
(dp3578
g73
(dp3579
sg82
g3551
sg75
(lp3580
g68
(g89
g70
NtRp3581
(dp3582
g73
(dp3583
g93
g94
ssg82
g3577
sg75
(lp3584
S'Content-Type'
p3585
asbag68
(g89
g70
NtRp3586
(dp3587
g73
(dp3588
g100
g101
ssg82
g3577
sg75
(lp3589
S':'
asbag68
(g89
g70
NtRp3590
(dp3591
g73
(dp3592
sg82
g3577
sg75
(lp3593
g68
(g69
g70
NtRp3594
(dp3595
g73
(dp3596
g81
I4
ssg82
g3590
sg75
(lp3597
S'text/html; charset=utf-8'
p3598
asbasbasbag68
(g84
g70
NtRp3599
(dp3600
g73
(dp3601
sg82
g3551
sg75
(lp3602
g68
(g89
g70
NtRp3603
(dp3604
g73
(dp3605
g93
g94
ssg82
g3599
sg75
(lp3606
S'Expires'
p3607
asbag68
(g89
g70
NtRp3608
(dp3609
g73
(dp3610
g100
g101
ssg82
g3599
sg75
(lp3611
S':'
asbag68
(g89
g70
NtRp3612
(dp3613
g73
(dp3614
sg82
g3599
sg75
(lp3615
g68
(g69
g70
NtRp3616
(dp3617
g73
(dp3618
g81
I4
ssg82
g3612
sg75
(lp3619
S'Sat, 27 Aug 2011 23:02:54 GMT'
p3620
asbasbasbag68
(g84
g70
NtRp3621
(dp3622
g73
(dp3623
sg82
g3551
sg75
(lp3624
g68
(g89
g70
NtRp3625
(dp3626
g73
(dp3627
g93
g94
ssg82
g3621
sg75
(lp3628
S'Pragma'
p3629
asbag68
(g89
g70
NtRp3630
(dp3631
g73
(dp3632
g100
g101
ssg82
g3621
sg75
(lp3633
S':'
asbag68
(g89
g70
NtRp3634
(dp3635
g73
(dp3636
sg82
g3621
sg75
(lp3637
g68
(g69
g70
NtRp3638
(dp3639
g73
(dp3640
g81
I4
ssg82
g3634
sg75
(lp3641
S'no-cache'
p3642
asbasbasbag68
(g84
g70
NtRp3643
(dp3644
g73
(dp3645
sg82
g3551
sg75
(lp3646
g68
(g89
g70
NtRp3647
(dp3648
g73
(dp3649
g93
g94
ssg82
g3643
sg75
(lp3650
S'X-Powered-By'
p3651
asbag68
(g89
g70
NtRp3652
(dp3653
g73
(dp3654
g100
g101
ssg82
g3643
sg75
(lp3655
S':'
asbag68
(g89
g70
NtRp3656
(dp3657
g73
(dp3658
sg82
g3643
sg75
(lp3659
g68
(g69
g70
NtRp3660
(dp3661
g73
(dp3662
g81
I4
ssg82
g3656
sg75
(lp3663
S'web2py'
p3664
asbasbasbasbasbasbasbag68
(g84
g70
NtRp3665
(dp3666
g73
(dp3667
sg82
g3225
sg75
(lp3668
g68
(g89
g70
NtRp3669
(dp3670
g73
(dp3671
g93
g94
ssg82
g3665
sg75
(lp3672
S'menu'
p3673
asbag68
(g89
g70
NtRp3674
(dp3675
g73
(dp3676
g100
g101
ssg82
g3665
sg75
(lp3677
S':'
asbag68
(g89
g70
NtRp3678
(dp3679
g73
(dp3680
sg82
g3665
sg75
(lp3681
g68
(g69
g70
NtRp3682
(dp3683
g73
(dp3684
g81
I5
ssg82
g3678
sg75
(lp3685
g68
(g77
g70
NtRp3686
(dp3687
g73
(dp3688
g81
I4
ssg82
Nsg75
(lp3689
g68
(g84
g70
NtRp3690
(dp3691
g73
(dp3692
sg82
g3686
sg75
(lp3693
g68
(g89
g70
NtRp3694
(dp3695
g73
(dp3696
sg82
g3690
sg75
(lp3697
g68
(g69
g70
NtRp3698
(dp3699
g73
(dp3700
g81
I4
ssg82
g3694
sg75
(lp3701
g68
(g77
g70
NtRp3702
(dp3703
g73
(dp3704
g81
I3
ssg82
Nsg75
(lp3705
g68
(g84
g70
NtRp3706
(dp3707
g73
(dp3708
sg82
g3702
sg75
(lp3709
g68
(g89
g70
NtRp3710
(dp3711
g73
(dp3712
sg82
g3706
sg75
(lp3713
g68
(g69
g70
NtRp3714
(dp3715
g73
(dp3716
g81
I3
ssg82
g3710
sg75
(lp3717
cgluon.languages
lazyT_unpickle
p3718
(S't\x05\x00\x00\x00Index'
tRp3719
asbasbasbag68
(g84
g70
NtRp3720
(dp3721
g73
(dp3722
sg82
g3702
sg75
(lp3723
g68
(g89
g70
NtRp3724
(dp3725
g73
(dp3726
sg82
g3720
sg75
(lp3727
g68
(g69
g70
NtRp3728
(dp3729
g73
(dp3730
g81
I3
ssg82
g3724
sg75
(lp3731
g111
asbasbasbag68
(g84
g70
NtRp3732
(dp3733
g73
(dp3734
sg82
g3702
sg75
(lp3735
g68
(g89
g70
NtRp3736
(dp3737
g73
(dp3738
sg82
g3732
sg75
(lp3739
g68
(g69
g70
NtRp3740
(dp3741
g73
(dp3742
g81
I3
ssg82
g3736
sg75
(lp3743
S'/init/default/index'
p3744
asbasbasbag68
(g84
g70
NtRp3745
(dp3746
g73
(dp3747
sg82
g3702
sg75
(lp3748
g68
(g89
g70
NtRp3749
(dp3750
g73
(dp3751
sg82
g3745
sg75
(lp3752
g68
(g69
g70
NtRp3753
(dp3754
g73
(dp3755
g81
I3
ssg82
g3749
sg75
(lp3756
g68
(g77
g70
NtRp3757
(dp3758
g73
(dp3759
g81
I2
ssg82
Nsg75
(lp3760
sbasbasbasbasbasbasbasbasbasbasbasbag68
(g84
g70
NtRp3761
(dp3762
g73
(dp3763
sg82
g3225
sg75
(lp3764
g68
(g89
g70
NtRp3765
(dp3766
g73
(dp3767
g93
g94
ssg82
g3761
sg75
(lp3768
S'meta'
p3769
asbag68
(g89
g70
NtRp3770
(dp3771
g73
(dp3772
g100
g101
ssg82
g3761
sg75
(lp3773
S':'
asbag68
(g89
g70
NtRp3774
(dp3775
g73
(dp3776
sg82
g3761
sg75
(lp3777
g68
(g69
g70
NtRp3778
(dp3779
g73
(dp3780
g81
I5
ssg82
g3774
sg75
(lp3781
g68
(g77
g70
NtRp3782
(dp3783
g73
(dp3784
g81
I4
ssg82
Nsg75
(lp3785
g68
(g84
g70
NtRp3786
(dp3787
g73
(dp3788
sg82
g3782
sg75
(lp3789
g68
(g89
g70
NtRp3790
(dp3791
g73
(dp3792
g93
g94
ssg82
g3786
sg75
(lp3793
S'author'
p3794
asbag68
(g89
g70
NtRp3795
(dp3796
g73
(dp3797
g100
g101
ssg82
g3786
sg75
(lp3798
S':'
asbag68
(g89
g70
NtRp3799
(dp3800
g73
(dp3801
sg82
g3786
sg75
(lp3802
g68
(g69
g70
NtRp3803
(dp3804
g73
(dp3805
g81
I4
ssg82
g3799
sg75
(lp3806
S'RGC <info@globaleaks.org>'
p3807
asbasbasbag68
(g84
g70
NtRp3808
(dp3809
g73
(dp3810
sg82
g3782
sg75
(lp3811
g68
(g89
g70
NtRp3812
(dp3813
g73
(dp3814
g93
g94
ssg82
g3808
sg75
(lp3815
S'description'
p3816
asbag68
(g89
g70
NtRp3817
(dp3818
g73
(dp3819
g100
g101
ssg82
g3808
sg75
(lp3820
S':'
asbag68
(g89
g70
NtRp3821
(dp3822
g73
(dp3823
sg82
g3808
sg75
(lp3824
g68
(g69
g70
NtRp3825
(dp3826
g73
(dp3827
g81
I4
ssg82
g3821
sg75
(lp3828
S''
asbasbasbag68
(g84
g70
NtRp3829
(dp3830
g73
(dp3831
sg82
g3782
sg75
(lp3832
g68
(g89
g70
NtRp3833
(dp3834
g73
(dp3835
g93
g94
ssg82
g3829
sg75
(lp3836
S'keywords'
p3837
asbag68
(g89
g70
NtRp3838
(dp3839
g73
(dp3840
g100
g101
ssg82
g3829
sg75
(lp3841
S':'
asbag68
(g89
g70
NtRp3842
(dp3843
g73
(dp3844
sg82
g3829
sg75
(lp3845
g68
(g69
g70
NtRp3846
(dp3847
g73
(dp3848
g81
I4
ssg82
g3842
sg75
(lp3849
S''
asbasbasbasbasbasbasbag68
(g84
g70
NtRp3850
(dp3851
g73
(dp3852
sg82
g3225
sg75
(lp3853
g68
(g89
g70
NtRp3854
(dp3855
g73
(dp3856
g93
g94
ssg82
g3850
sg75
(lp3857
S'postprocessing'
p3858
asbag68
(g89
g70
NtRp3859
(dp3860
g73
(dp3861
g100
g101
ssg82
g3850
sg75
(lp3862
S':'
asbag68
(g89
g70
NtRp3863
(dp3864
g73
(dp3865
sg82
g3850
sg75
(lp3866
g68
(g69
g70
NtRp3867
(dp3868
g73
(dp3869
g81
I5
ssg82
g3863
sg75
(lp3870
g68
(g77
g70
NtRp3871
(dp3872
g73
(dp3873
g81
I4
ssg82
Nsg75
(lp3874
sbasbasbasbag68
(g84
g70
NtRp3875
(dp3876
g73
(dp3877
sg82
g3225
sg75
(lp3878
g68
(g89
g70
NtRp3879
(dp3880
g73
(dp3881
g93
g94
ssg82
g3875
sg75
(lp3882
S'session_file'
p3883
asbag68
(g89
g70
NtRp3884
(dp3885
g73
(dp3886
g100
g101
ssg82
g3875
sg75
(lp3887
S':'
asbag68
(g89
g70
NtRp3888
(dp3889
g73
(dp3890
sg82
g3875
sg75
(lp3891
g68
(g69
g70
NtRp3892
(dp3893
g73
(dp3894
g81
I5
ssg82
g3888
sg75
(lp3895
S"<open file '/Users/hellais/Documents/code/mygit/globaleaks/webapp/applications/init/sessions/127.0.0.1-a8551263-bc3c-430c-abb2-8711fac671c1', mode 'rb+' at 0x1021b3390>"
p3896
asbasbasbag68
(g84
g70
NtRp3897
(dp3898
g73
(dp3899
sg82
g3225
sg75
(lp3900
g68
(g89
g70
NtRp3901
(dp3902
g73
(dp3903
g93
g94
ssg82
g3897
sg75
(lp3904
S'session_filename'
p3905
asbag68
(g89
g70
NtRp3906
(dp3907
g73
(dp3908
g100
g101
ssg82
g3897
sg75
(lp3909
S':'
asbag68
(g89
g70
NtRp3910
(dp3911
g73
(dp3912
sg82
g3897
sg75
(lp3913
g68
(g69
g70
NtRp3914
(dp3915
g73
(dp3916
g81
I5
ssg82
g3910
sg75
(lp3917
S'/Users/hellais/Documents/code/mygit/globaleaks/webapp/applications/init/sessions/127.0.0.1-a8551263-bc3c-430c-abb2-8711fac671c1'
p3918
asbasbasbag68
(g84
g70
NtRp3919
(dp3920
g73
(dp3921
sg82
g3225
sg75
(lp3922
g68
(g89
g70
NtRp3923
(dp3924
g73
(dp3925
g93
g94
ssg82
g3919
sg75
(lp3926
S'session_id'
p3927
asbag68
(g89
g70
NtRp3928
(dp3929
g73
(dp3930
g100
g101
ssg82
g3919
sg75
(lp3931
S':'
asbag68
(g89
g70
NtRp3932
(dp3933
g73
(dp3934
sg82
g3919
sg75
(lp3935
g68
(g69
g70
NtRp3936
(dp3937
g73
(dp3938
g81
I5
ssg82
g3932
sg75
(lp3939
S'127.0.0.1-a8551263-bc3c-430c-abb2-8711fac671c1'
p3940
asbasbasbag68
(g84
g70
NtRp3941
(dp3942
g73
(dp3943
sg82
g3225
sg75
(lp3944
g68
(g89
g70
NtRp3945
(dp3946
g73
(dp3947
g93
g94
ssg82
g3941
sg75
(lp3948
S'session_id_name'
p3949
asbag68
(g89
g70
NtRp3950
(dp3951
g73
(dp3952
g100
g101
ssg82
g3941
sg75
(lp3953
S':'
asbag68
(g89
g70
NtRp3954
(dp3955
g73
(dp3956
sg82
g3941
sg75
(lp3957
g68
(g69
g70
NtRp3958
(dp3959
g73
(dp3960
g81
I5
ssg82
g3954
sg75
(lp3961
g3282
asbasbasbag68
(g84
g70
NtRp3962
(dp3963
g73
(dp3964
sg82
g3225
sg75
(lp3965
g68
(g89
g70
NtRp3966
(dp3967
g73
(dp3968
g93
g94
ssg82
g3962
sg75
(lp3969
S'session_locked'
p3970
asbag68
(g89
g70
NtRp3971
(dp3972
g73
(dp3973
g100
g101
ssg82
g3962
sg75
(lp3974
S':'
asbag68
(g89
g70
NtRp3975
(dp3976
g73
(dp3977
sg82
g3962
sg75
(lp3978
g68
(g69
g70
NtRp3979
(dp3980
g73
(dp3981
g81
I5
ssg82
g3975
sg75
(lp3982
g1873
asbasbasbag68
(g84
g70
NtRp3983
(dp3984
g73
(dp3985
sg82
g3225
sg75
(lp3986
g68
(g89
g70
NtRp3987
(dp3988
g73
(dp3989
g93
g94
ssg82
g3983
sg75
(lp3990
S'session_new'
p3991
asbag68
(g89
g70
NtRp3992
(dp3993
g73
(dp3994
g100
g101
ssg82
g3983
sg75
(lp3995
S':'
asbag68
(g89
g70
NtRp3996
(dp3997
g73
(dp3998
sg82
g3983
sg75
(lp3999
g68
(g69
g70
NtRp4000
(dp4001
g73
(dp4002
g81
I5
ssg82
g3996
sg75
(lp4003
g111
asbasbasbag68
(g84
g70
NtRp4004
(dp4005
g73
(dp4006
sg82
g3225
sg75
(lp4007
g68
(g89
g70
NtRp4008
(dp4009
g73
(dp4010
g93
g94
ssg82
g4004
sg75
(lp4011
S'status'
p4012
asbag68
(g89
g70
NtRp4013
(dp4014
g73
(dp4015
g100
g101
ssg82
g4004
sg75
(lp4016
S':'
asbag68
(g89
g70
NtRp4017
(dp4018
g73
(dp4019
sg82
g4004
sg75
(lp4020
g68
(g69
g70
NtRp4021
(dp4022
g73
(dp4023
g81
I5
ssg82
g4017
sg75
(lp4024
S'200'
p4025
asbasbasbag68
(g84
g70
NtRp4026
(dp4027
g73
(dp4028
sg82
g3225
sg75
(lp4029
g68
(g89
g70
NtRp4030
(dp4031
g73
(dp4032
g93
g94
ssg82
g4026
sg75
(lp4033
S'subtitle'
p4034
asbag68
(g89
g70
NtRp4035
(dp4036
g73
(dp4037
g100
g101
ssg82
g4026
sg75
(lp4038
S':'
asbag68
(g89
g70
NtRp4039
(dp4040
g73
(dp4041
sg82
g4026
sg75
(lp4042
g68
(g69
g70
NtRp4043
(dp4044
g73
(dp4045
g81
I5
ssg82
g4039
sg75
(lp4046
S'Open Source Whistleblowing Platform'
p4047
asbasbasbag68
(g84
g70
NtRp4048
(dp4049
g73
(dp4050
sg82
g3225
sg75
(lp4051
g68
(g89
g70
NtRp4052
(dp4053
g73
(dp4054
g93
g94
ssg82
g4048
sg75
(lp4055
S'title'
p4056
asbag68
(g89
g70
NtRp4057
(dp4058
g73
(dp4059
g100
g101
ssg82
g4048
sg75
(lp4060
S':'
asbag68
(g89
g70
NtRp4061
(dp4062
g73
(dp4063
sg82
g4048
sg75
(lp4064
g68
(g69
g70
NtRp4065
(dp4066
g73
(dp4067
g81
I5
ssg82
g4061
sg75
(lp4068
S'GlobaLeaks'
p4069
asbasbasbag68
(g84
g70
NtRp4070
(dp4071
g73
(dp4072
sg82
g3225
sg75
(lp4073
g68
(g89
g70
NtRp4074
(dp4075
g73
(dp4076
g93
g94
ssg82
g4070
sg75
(lp4077
g2307
asbag68
(g89
g70
NtRp4078
(dp4079
g73
(dp4080
g100
g101
ssg82
g4070
sg75
(lp4081
S':'
asbag68
(g89
g70
NtRp4082
(dp4083
g73
(dp4084
sg82
g4070
sg75
(lp4085
g68
(g69
g70
NtRp4086
(dp4087
g73
(dp4088
g81
I5
ssg82
g4082
sg75
(lp4089
g2320
asbasbasbag68
(g84
g70
NtRp4090
(dp4091
g73
(dp4092
sg82
g3225
sg75
(lp4093
g68
(g89
g70
NtRp4094
(dp4095
g73
(dp4096
g93
g94
ssg82
g4090
sg75
(lp4097
S'view'
p4098
asbag68
(g89
g70
NtRp4099
(dp4100
g73
(dp4101
g100
g101
ssg82
g4090
sg75
(lp4102
S':'
asbag68
(g89
g70
NtRp4103
(dp4104
g73
(dp4105
sg82
g4090
sg75
(lp4106
g68
(g69
g70
NtRp4107
(dp4108
g73
(dp4109
g81
I5
ssg82
g4103
sg75
(lp4110
S'default/submission.html'
p4111
asbasbasbasbasbsS'locals'
p4112
(dp4113
g3
S"'/Users/hellais/Documents/code/mygit/globaleaks/webapp/applications/init/controllers/default.py'"
p4114
sg5
S"'# -*- coding: utf-8 -*-\\n### required - do no del...t()\\n\\nresponse._vars=response._caller(submission)\\n'"
p4115
sssS'traceback'
p4116
S'Traceback (most recent call last):\n  File "/opt/local/Library/Frameworks/Python.framework/Versions/2.7/lib/python2.7/gluon/restricted.py", line 191, in restricted\n    ccode = compile2(code,layer)\n  File "/opt/local/Library/Frameworks/Python.framework/Versions/2.7/lib/python2.7/gluon/restricted.py", line 178, in compile2\n    return compile(code.rstrip().replace(\'\\r\\n\',\'\\n\')+\'\\n\', layer, \'exec\')\n  File "/Users/hellais/Documents/code/mygit/globaleaks/webapp/applications/init/controllers/default.py", line 23\n    {"Al Jazeera":10 , "CNN":20}, l.Tags)\n    ^\nSyntaxError: invalid syntax\n'
p4117
s.