(dp1
S'output'
p2
S''
sS'layer'
p3
S'/Users/hellais/Documents/code/mygit/globaleaks/webapp/applications/init/views/default/tulip.html'
p4
sS'code'
p5
S'response.write(\'<!DOCTYPE html>\\n<html lang="\', escape=False)\nresponse.write(T.accepted_language or \'en\')\nresponse.write(\'" class="no-js"><!-- no-js need it for modernzr -->\\n  <head>\\n    \\n    <meta charset="utf-8" />        \\n    <!-- www.phpied.com/conditional-comments-block-downloads/ -->\\n    <!--[if IE]><![endif]-->    \\n    <!-- Always force latest IE rendering engine \\n     (even in intranet) & Chrome Frame \\n     Remove this if you use the .htaccess -->\\n    <meta http-equiv="X-UA-Compatible" content="IE=edge,chrome=1">\\n    \\n    <title>\', escape=False)\nresponse.write(response.title or request.application)\nresponse.write(\'</title>\\n    \\n    <!-- http://dev.w3.org/html5/markup/meta.name.html -->\\n    <meta name="application-name" content="\', escape=False)\nresponse.write(request.application)\nresponse.write(\'" /> \\n    \\n    <!-- Speaking of Google, don\\\'t forget to set your site up: \\n     http://google.com/webmasters -->\\n    <meta name="google-site-verification" content="" />\\n    \\n    <!--  Mobile Viewport Fix\\n      j.mp/mobileviewport & davidbcalhoun.com/2010/viewport-metatag \\n      device-width: Occupy full width of the screen in its current orientation\\n      initial-scale = 1.0 retains dimensions instead of zooming out if page height > device height\\n      maximum-scale = 1.0 retains dimensions instead of zooming in if page width < device width\\n      -->\\n    <meta name="viewport" content="width=device-width, initial-scale=1.0, maximum-scale=1.0">\\n    \\n    <!-- Place favicon.ico and apple-touch-icon.png in the root of your domain and delete these references -->\\n    <link rel="shortcut icon" href="\', escape=False)\nresponse.write(URL(\'static\',\'favicon.ico\'))\nresponse.write(\'" type="image/x-icon">\\n    <link rel="apple-touch-icon" href="\', escape=False)\nresponse.write(URL(\'static\',\'favicon.png\'))\nresponse.write(\'">\\n\\n    <!-- For the less-enabled mobile browsers like Opera Mini -->\\n    <link rel="stylesheet" media="handheld" href="\', escape=False)\nresponse.write(URL(\'static\',\'css/handheld.css\'))\nresponse.write(\'">\\n    \\n    <!-- All JavaScript at the bottom, except for Modernizr which enables HTML5 elements & feature detects -->\\n    <script src="\', escape=False)\nresponse.write(URL(\'static\',\'js/modernizr-1.7.min.js\'))\nresponse.write(\'"></script>\\n    \\n    \', escape=False)\n#------  require CSS and JS files for this page (read info in base.css) ------\nresponse.write(\'\\n    \', escape=False)\nresponse.files.append(URL(\'static\',\'css/base.css\'))\nresponse.write(\'\\n    \', escape=False)\nresponse.files.append(URL(\'static\',\'css/superfish.css\'))\nresponse.write(\'\\n    \', escape=False)\nresponse.files.append(URL(\'static\',\'js/superfish.js\'))\nresponse.write(\'\\n    \', escape=False)\n#------ include web2py specific js code (jquery, calendar, form stuff) ------\nresponse.write(\'\\n    \', escape=False)\nresponse.files.insert(0,URL(\'static\',\'js/jquery.js\'))\nresponse.files.insert(1,URL(\'static\',\'css/calendar.css\'))\nresponse.files.insert(2,URL(\'static\',\'js/calendar.js\'))\nfor _item in response.meta or []:\n    response.write(\'\\n     <meta name="\', escape=False)\n    response.write(_item)\n    response.write(\'" content="\', escape=False)\n    response.write(response.meta[_item])\n    response.write(\'" />\', escape=False)\n    pass\nfor _k,_file in enumerate(response.files or []):\n    if _file in response.files[:_k]:\n        continue\n    _file0=_file.lower().split(\'?\')[0]\n    if _file0.endswith(\'.css\'):\n        response.write(\'\\n     <link href="\', escape=False)\n        response.write(_file)\n        response.write(\'" rel="stylesheet" type="text/css" />\', escape=False)\n    elif _file0.endswith(\'.js\'):\n        response.write(\'\\n     <script src="\', escape=False)\n        response.write(_file)\n        response.write(\'" type="text/javascript"></script>\', escape=False)\n        pass\n    pass\nresponse.write(\'\\n    <script type="text/javascript"><!--\\n    // These variables are used by the web2py_ajax_init function in web2py_ajax.js (which is loaded below).\\n    var w2p_ajax_confirm_message = "\', escape=False)\nresponse.write(T(\'Are you sure you want to delete this object?\'))\nresponse.write(\'";\\n    var w2p_ajax_date_format = "\', escape=False)\nresponse.write(T(\'%Y-%m-%d\'))\nresponse.write(\'";\\n    var w2p_ajax_datetime_format = "\', escape=False)\nresponse.write(T(\'%Y-%m-%d %H:%M:%S\'))\nresponse.write(\'";\\n    //--></script>\\n    <script src="\', escape=False)\nresponse.write(URL(\'static\',\'js/web2py_ajax.js\'))\nresponse.write(\'" type="text/javascript"></script>\\n\', escape=False)\nresponse.write(\'\\n\\n    \', escape=False)\n#using sidebars need to know what sidebar you want to use\n#prior of using it, because of static width size of content, you can use\n#left_sidebar, right_sidebar, both or none (False left and right)\nleft_sidebar_enabled = globals().get(\'left_sidebar_enabled\',False)\nright_sidebar_enabled = globals().get(\'right_sidebar_enabled\',False)\nif left_sidebar_enabled and right_sidebar_enabled: width_content=\'63%\'\nelif left_sidebar_enabled != right_sidebar_enabled: width_content=\'740px\'\nelse: width_content=\'100%\'\nif left_sidebar_enabled: left_sidebar_style = \'style="display: block;"\'\nelse: left_sidebar_style = \'style="display: none;"\'\nif right_sidebar_enabled: right_sidebar_style = \'style="display: block;"\'\nelse: right_sidebar_style = \'style="display: none;"\'\nstyle_content = \'style="width: %s"\' % width_content\nresponse.write(\'\\n  </head>\\n  \\n  <!-- paulirish.com/2008/conditional-stylesheets-vs-css-hacks-answer-neither/ -->  \\n  <!--[if lt IE 7 ]> <body class="ie6"> <![endif]-->\\n  <!--[if IE 7 ]>    <body class="ie7"> <![endif]-->\\n  <!--[if IE 8 ]>    <body class="ie8"> <![endif]-->\\n  <!--[if IE 9 ]>    <body class="ie9"> <![endif]-->\\n  <!--[if (gt IE 9)|!(IE)]><!--> <body> <!--<![endif]-->\\n    \\n    <div class="flash">\', escape=False)\nresponse.write(response.flash or \'\')\nresponse.write(\'</div> <!-- notification div -->\\n    \\n    <div id="container">                        \\n      \\n      <div id="wrapper">        \\n    \\n    <div id="header"> <!-- header and login nav -->\\n      \', escape=False)\nresponse.write(\' <!-- this is default header -->\\n      \', escape=False)\ntry:\n    response.write(auth.navbar(action=URL(\'default\',\'user\')))\nexcept:pass\nresponse.write(\'               \\n      <h1><img src="\', escape=False)\nresponse.write(URL(\'static\',\'images/globaleaks.png\'))\nresponse.write(\'" /></h1>\\n      <div style="clear: both;"></div><!-- Clear the divs -->\\n      \', escape=False)\nresponse.write(\'                                     \\n    </div><!-- header  -->\\n    \\n    <div id="statusbar"><!-- statusbar is menu zone -->\\n      \', escape=False)\nresponse.write(\' <!-- this is default statusbar -->\\n      \', escape=False)\n#------ superfish menu ------\nresponse.write(\'\\n      \', escape=False)\nresponse.write(MENU(response.menu,_class=\'sf-menu\'))\nresponse.write(\'\\n      <script type="text/javascript">\\n        jQuery(document).ready(function(){\\n        jQuery(\\\'ul.sf-menu\\\').superfish();});\\n      </script>\\n      <div style="clear: both;"></div><!-- Clear the divs -->   \\n      \', escape=False)\nresponse.write(\'               \\n    </div><!-- statusbar -->\\n    \\n    <div id="page"> <!-- Here my central body -->     \\n\\n      \', escape=False)\nif left_sidebar_enabled:\n    response.write(\'\\n          <div id="left_sidebar" \', escape=False)\n    response.write(XML(left_sidebar_style))\n    response.write(\' >\\n            <div style="padding: 4px;">\\n          \', escape=False)\n    response.write(\'Content Left Sidebar\', escape=False)\n    response.write(\'       \\n            </div>\\n          </div><!-- left_sidebar -->\\n      \', escape=False)\n    pass\nresponse.write(\'\\n\\n      <!-- content -->\\n      <div id="content" \', escape=False)\nresponse.write(XML(style_content))\nresponse.write(\' >\\n        \', escape=False)\nresponse.write(\'\\n\', escape=False)\nresponse.write(request.args)\nresponse.write(\'\\n<h1>This is the default/tulip.html template</h1>\\n\', escape=False)\nresponse.write(BEAUTIFY(response._vars))\nresponse.write(\'\\n\', escape=False)\nresponse.write(\' \\n      </div>\\n      <!-- content -->\\n\\n      \', escape=False)\nif right_sidebar_enabled:\n    response.write(\'\\n          <div id="right_sidebar" \', escape=False)\n    response.write(XML(right_sidebar_style))\n    response.write(\' >\\n            <div style="padding: 4px;">\\n              \', escape=False)\n    response.write(\'Content Right Sidebar\', escape=False)\n    response.write(\'\\n            </div>\\n      </div><!-- right_sidebar -->\\n          \', escape=False)\n    pass\nresponse.write(\'\\n\\n\\n      <div style="clear: both;"></div><!-- Clear the divs -->\\n      \\n    </div><!-- page -->                         \\n    \\n    <div id="footer">\\n      \', escape=False)\nresponse.write(\' <!-- this is default footer -->\\n      <a href="http://www.globaleaks.org/" style="float: left; padding-right: 6px;">\\n        GlobaLeaks\\n      </a>\\n      \', escape=False)\nresponse.write(T(\'Copyright\'))\nresponse.write(\' &#169; 2011              \\n      <div style="clear: both;"></div><!-- Clear the divs -->\\n      \', escape=False)\nresponse.write(\'\\n\\n    </div><!-- footer -->           \\n      </div><!-- wrapper -->\\n    </div><!-- container -->        \\n    \\n    <!--[if lt IE 7 ]>\\n    <script src="\', escape=False)\nresponse.write(URL(\'static\',\'js/dd_belatedpng.js\'))\nresponse.write(\'"></script>\\n    <script> DD_belatedPNG.fix(\\\'img, .png_bg\\\'); //fix any <img> or .png_bg background-images </script>\\n    <![endif]-->\\n    \\n    <!-- asynchronous google analytics: mathiasbynens.be/notes/async-analytics-snippet \\n     change the UA-XXXXX-X to be your site\\\'s ID -->\\n    <!--   \\n       <script>\\n         var _gaq = [[\\\'_setAccount\\\', \\\'UA-XXXXX-X\\\'], [\\\'_trackPageview\\\']];\\n         (function(d, t) {\\n         var g = d.createElement(t),\\n         s = d.getElementsByTagName(t)[0];\\n         g.async = true;\\n         g.src = \\\'//www.google-analytics.com/ga.js\\\';\\n         s.parentNode.insertBefore(g, s);\\n         })(document, \\\'script\\\');\\n       </script>\\n       -->    \\n  </body>\\n</html>\\n\', escape=False)'
p6
sS'snapshot'
p7
(dp8
S'exception'
p9
(dp10
S'__hash__'
p11
S"<method-wrapper '__hash__' of exceptions.AttributeError object>"
p12
sS'__setattr__'
p13
S"<method-wrapper '__setattr__' of exceptions.AttributeError object>"
p14
sS'__reduce_ex__'
p15
S'<built-in method __reduce_ex__ of exceptions.AttributeError object>'
p16
sS'__getslice__'
p17
S"<method-wrapper '__getslice__' of exceptions.AttributeError object>"
p18
sS'__getitem__'
p19
S"<method-wrapper '__getitem__' of exceptions.AttributeError object>"
p20
sS'__setstate__'
p21
S'<built-in method __setstate__ of exceptions.AttributeError object>'
p22
sS'args'
p23
S'("\'List\' object has no attribute \'startswith\'",)'
p24
sS'__reduce__'
p25
S'<built-in method __reduce__ of exceptions.AttributeError object>'
p26
sS'__str__'
p27
S"<method-wrapper '__str__' of exceptions.AttributeError object>"
p28
sS'__format__'
p29
S'<built-in method __format__ of exceptions.AttributeError object>'
p30
sS'__getattribute__'
p31
S"<method-wrapper '__getattribute__' of exceptions.AttributeError object>"
p32
sS'__class__'
p33
S"<type 'exceptions.AttributeError'>"
p34
sS'__unicode__'
p35
S'<built-in method __unicode__ of exceptions.AttributeError object>'
p36
sS'__delattr__'
p37
S"<method-wrapper '__delattr__' of exceptions.AttributeError object>"
p38
sS'__subclasshook__'
p39
S'<built-in method __subclasshook__ of type object>'
p40
sS'__repr__'
p41
S"<method-wrapper '__repr__' of exceptions.AttributeError object>"
p42
sS'__dict__'
p43
S'{}'
p44
sS'__sizeof__'
p45
S'<built-in method __sizeof__ of exceptions.AttributeError object>'
p46
sS'__doc__'
p47
S"'Attribute not found.'"
p48
sS'__init__'
p49
S"<method-wrapper '__init__' of exceptions.AttributeError object>"
p50
sS'__new__'
p51
S'<built-in method __new__ of type object>'
p52
ssS'evalue'
p53
S"'List' object has no attribute 'startswith'"
p54
sS'request'
p55
ccopy_reg
_reconstructor
p56
(cgluon.html
BEAUTIFY
p57
c__builtin__
object
p58
NtRp59
(dp60
S'attributes'
p61
(dp62
sS'components'
p63
(lp64
g56
(cgluon.html
TABLE
p65
g58
NtRp66
(dp67
g61
(dp68
S'level'
p69
I5
ssS'parent'
p70
Nsg63
(lp71
g56
(cgluon.html
TR
p72
g58
NtRp73
(dp74
g61
(dp75
sg70
g66
sg63
(lp76
g56
(cgluon.html
TD
p77
g58
NtRp78
(dp79
g61
(dp80
S'_style'
p81
S'font-weight:bold;'
p82
ssg70
g73
sg63
(lp83
S'ajax'
p84
asbag56
(g77
g58
NtRp85
(dp86
g61
(dp87
S'_valign'
p88
S'top'
p89
ssg70
g73
sg63
(lp90
S':'
asbag56
(g77
g58
NtRp91
(dp92
g61
(dp93
sg70
g73
sg63
(lp94
g56
(g57
g58
NtRp95
(dp96
g61
(dp97
g69
I5
ssg70
g91
sg63
(lp98
S'False'
p99
asbasbasbag56
(g72
g58
NtRp100
(dp101
g61
(dp102
sg70
g66
sg63
(lp103
g56
(g77
g58
NtRp104
(dp105
g61
(dp106
g81
g82
ssg70
g100
sg63
(lp107
S'application'
p108
asbag56
(g77
g58
NtRp109
(dp110
g61
(dp111
g88
g89
ssg70
g100
sg63
(lp112
S':'
asbag56
(g77
g58
NtRp113
(dp114
g61
(dp115
sg70
g100
sg63
(lp116
g56
(g57
g58
NtRp117
(dp118
g61
(dp119
g69
I5
ssg70
g113
sg63
(lp120
S'init'
p121
asbasbasbag56
(g72
g58
NtRp122
(dp123
g61
(dp124
sg70
g66
sg63
(lp125
g56
(g77
g58
NtRp126
(dp127
g61
(dp128
g81
g82
ssg70
g122
sg63
(lp129
g23
asbag56
(g77
g58
NtRp130
(dp131
g61
(dp132
g88
g89
ssg70
g122
sg63
(lp133
S':'
asbag56
(g77
g58
NtRp134
(dp135
g61
(dp136
sg70
g122
sg63
(lp137
g56
(g57
g58
NtRp138
(dp139
g61
(dp140
g69
I5
ssg70
g134
sg63
(lp141
g56
(g65
g58
NtRp142
(dp143
g61
(dp144
g69
I4
ssg70
Nsg63
(lp145
g56
(g72
g58
NtRp146
(dp147
g61
(dp148
sg70
g142
sg63
(lp149
g56
(g77
g58
NtRp150
(dp151
g61
(dp152
sg70
g146
sg63
(lp153
g56
(g57
g58
NtRp154
(dp155
g61
(dp156
g69
I4
ssg70
g150
sg63
(lp157
S'0f05e204af4d1ffabf462df37c8c606a3240f45a2e2fcb3bef41ea5b823b55d0'
p158
asbasbasbasbasbasbasbag56
(g72
g58
NtRp159
(dp160
g61
(dp161
sg70
g66
sg63
(lp162
g56
(g77
g58
NtRp163
(dp164
g61
(dp165
g81
g82
ssg70
g159
sg63
(lp166
S'body'
p167
asbag56
(g77
g58
NtRp168
(dp169
g61
(dp170
g88
g89
ssg70
g159
sg63
(lp171
S':'
asbag56
(g77
g58
NtRp172
(dp173
g61
(dp174
sg70
g159
sg63
(lp175
g56
(g57
g58
NtRp176
(dp177
g61
(dp178
g69
I5
ssg70
g172
sg63
(lp179
S'<cStringIO.StringO object at 0x10192b180>'
p180
asbasbasbag56
(g72
g58
NtRp181
(dp182
g61
(dp183
sg70
g66
sg63
(lp184
g56
(g77
g58
NtRp185
(dp186
g61
(dp187
g81
g82
ssg70
g181
sg63
(lp188
S'client'
p189
asbag56
(g77
g58
NtRp190
(dp191
g61
(dp192
g88
g89
ssg70
g181
sg63
(lp193
S':'
asbag56
(g77
g58
NtRp194
(dp195
g61
(dp196
sg70
g181
sg63
(lp197
g56
(g57
g58
NtRp198
(dp199
g61
(dp200
g69
I5
ssg70
g194
sg63
(lp201
S'127.0.0.1'
p202
asbasbasbag56
(g72
g58
NtRp203
(dp204
g61
(dp205
sg70
g66
sg63
(lp206
g56
(g77
g58
NtRp207
(dp208
g61
(dp209
g81
g82
ssg70
g203
sg63
(lp210
S'controller'
p211
asbag56
(g77
g58
NtRp212
(dp213
g61
(dp214
g88
g89
ssg70
g203
sg63
(lp215
S':'
asbag56
(g77
g58
NtRp216
(dp217
g61
(dp218
sg70
g203
sg63
(lp219
g56
(g57
g58
NtRp220
(dp221
g61
(dp222
g69
I5
ssg70
g216
sg63
(lp223
S'default'
p224
asbasbasbag56
(g72
g58
NtRp225
(dp226
g61
(dp227
sg70
g66
sg63
(lp228
g56
(g77
g58
NtRp229
(dp230
g61
(dp231
g81
g82
ssg70
g225
sg63
(lp232
S'cookies'
p233
asbag56
(g77
g58
NtRp234
(dp235
g61
(dp236
g88
g89
ssg70
g225
sg63
(lp237
S':'
asbag56
(g77
g58
NtRp238
(dp239
g61
(dp240
sg70
g225
sg63
(lp241
g56
(g57
g58
NtRp242
(dp243
g61
(dp244
g69
I5
ssg70
g238
sg63
(lp245
g56
(g65
g58
NtRp246
(dp247
g61
(dp248
g69
I4
ssg70
Nsg63
(lp249
g56
(g72
g58
NtRp250
(dp251
g61
(dp252
sg70
g246
sg63
(lp253
g56
(g77
g58
NtRp254
(dp255
g61
(dp256
g81
g82
ssg70
g250
sg63
(lp257
S'session_id_admin'
p258
asbag56
(g77
g58
NtRp259
(dp260
g61
(dp261
g88
g89
ssg70
g250
sg63
(lp262
S':'
asbag56
(g77
g58
NtRp263
(dp264
g61
(dp265
sg70
g250
sg63
(lp266
g56
(g57
g58
NtRp267
(dp268
g61
(dp269
g69
I4
ssg70
g263
sg63
(lp270
g56
(g65
g58
NtRp271
(dp272
g61
(dp273
g69
I3
ssg70
Nsg63
(lp274
g56
(g72
g58
NtRp275
(dp276
g61
(dp277
sg70
g271
sg63
(lp278
g56
(g77
g58
NtRp279
(dp280
g61
(dp281
g81
g82
ssg70
g275
sg63
(lp282
S'comment'
p283
asbag56
(g77
g58
NtRp284
(dp285
g61
(dp286
g88
g89
ssg70
g275
sg63
(lp287
S':'
asbag56
(g77
g58
NtRp288
(dp289
g61
(dp290
sg70
g275
sg63
(lp291
g56
(g57
g58
NtRp292
(dp293
g61
(dp294
g69
I3
ssg70
g288
sg63
(lp295
S''
asbasbasbag56
(g72
g58
NtRp296
(dp297
g61
(dp298
sg70
g271
sg63
(lp299
g56
(g77
g58
NtRp300
(dp301
g61
(dp302
g81
g82
ssg70
g296
sg63
(lp303
S'domain'
p304
asbag56
(g77
g58
NtRp305
(dp306
g61
(dp307
g88
g89
ssg70
g296
sg63
(lp308
S':'
asbag56
(g77
g58
NtRp309
(dp310
g61
(dp311
sg70
g296
sg63
(lp312
g56
(g57
g58
NtRp313
(dp314
g61
(dp315
g69
I3
ssg70
g309
sg63
(lp316
S''
asbasbasbag56
(g72
g58
NtRp317
(dp318
g61
(dp319
sg70
g271
sg63
(lp320
g56
(g77
g58
NtRp321
(dp322
g61
(dp323
g81
g82
ssg70
g317
sg63
(lp324
S'expires'
p325
asbag56
(g77
g58
NtRp326
(dp327
g61
(dp328
g88
g89
ssg70
g317
sg63
(lp329
S':'
asbag56
(g77
g58
NtRp330
(dp331
g61
(dp332
sg70
g317
sg63
(lp333
g56
(g57
g58
NtRp334
(dp335
g61
(dp336
g69
I3
ssg70
g330
sg63
(lp337
S''
asbasbasbag56
(g72
g58
NtRp338
(dp339
g61
(dp340
sg70
g271
sg63
(lp341
g56
(g77
g58
NtRp342
(dp343
g61
(dp344
g81
g82
ssg70
g338
sg63
(lp345
S'httponly'
p346
asbag56
(g77
g58
NtRp347
(dp348
g61
(dp349
g88
g89
ssg70
g338
sg63
(lp350
S':'
asbag56
(g77
g58
NtRp351
(dp352
g61
(dp353
sg70
g338
sg63
(lp354
g56
(g57
g58
NtRp355
(dp356
g61
(dp357
g69
I3
ssg70
g351
sg63
(lp358
S''
asbasbasbag56
(g72
g58
NtRp359
(dp360
g61
(dp361
sg70
g271
sg63
(lp362
g56
(g77
g58
NtRp363
(dp364
g61
(dp365
g81
g82
ssg70
g359
sg63
(lp366
S'max-age'
p367
asbag56
(g77
g58
NtRp368
(dp369
g61
(dp370
g88
g89
ssg70
g359
sg63
(lp371
S':'
asbag56
(g77
g58
NtRp372
(dp373
g61
(dp374
sg70
g359
sg63
(lp375
g56
(g57
g58
NtRp376
(dp377
g61
(dp378
g69
I3
ssg70
g372
sg63
(lp379
S''
asbasbasbag56
(g72
g58
NtRp380
(dp381
g61
(dp382
sg70
g271
sg63
(lp383
g56
(g77
g58
NtRp384
(dp385
g61
(dp386
g81
g82
ssg70
g380
sg63
(lp387
S'path'
p388
asbag56
(g77
g58
NtRp389
(dp390
g61
(dp391
g88
g89
ssg70
g380
sg63
(lp392
S':'
asbag56
(g77
g58
NtRp393
(dp394
g61
(dp395
sg70
g380
sg63
(lp396
g56
(g57
g58
NtRp397
(dp398
g61
(dp399
g69
I3
ssg70
g393
sg63
(lp400
S''
asbasbasbag56
(g72
g58
NtRp401
(dp402
g61
(dp403
sg70
g271
sg63
(lp404
g56
(g77
g58
NtRp405
(dp406
g61
(dp407
g81
g82
ssg70
g401
sg63
(lp408
S'secure'
p409
asbag56
(g77
g58
NtRp410
(dp411
g61
(dp412
g88
g89
ssg70
g401
sg63
(lp413
S':'
asbag56
(g77
g58
NtRp414
(dp415
g61
(dp416
sg70
g401
sg63
(lp417
g56
(g57
g58
NtRp418
(dp419
g61
(dp420
g69
I3
ssg70
g414
sg63
(lp421
S''
asbasbasbag56
(g72
g58
NtRp422
(dp423
g61
(dp424
sg70
g271
sg63
(lp425
g56
(g77
g58
NtRp426
(dp427
g61
(dp428
g81
g82
ssg70
g422
sg63
(lp429
S'version'
p430
asbag56
(g77
g58
NtRp431
(dp432
g61
(dp433
g88
g89
ssg70
g422
sg63
(lp434
S':'
asbag56
(g77
g58
NtRp435
(dp436
g61
(dp437
sg70
g422
sg63
(lp438
g56
(g57
g58
NtRp439
(dp440
g61
(dp441
g69
I3
ssg70
g435
sg63
(lp442
S''
asbasbasbasbasbasbasbag56
(g72
g58
NtRp443
(dp444
g61
(dp445
sg70
g246
sg63
(lp446
g56
(g77
g58
NtRp447
(dp448
g61
(dp449
g81
g82
ssg70
g443
sg63
(lp450
S'session_id_blabla'
p451
asbag56
(g77
g58
NtRp452
(dp453
g61
(dp454
g88
g89
ssg70
g443
sg63
(lp455
S':'
asbag56
(g77
g58
NtRp456
(dp457
g61
(dp458
sg70
g443
sg63
(lp459
g56
(g57
g58
NtRp460
(dp461
g61
(dp462
g69
I4
ssg70
g456
sg63
(lp463
g56
(g65
g58
NtRp464
(dp465
g61
(dp466
g69
I3
ssg70
Nsg63
(lp467
g56
(g72
g58
NtRp468
(dp469
g61
(dp470
sg70
g464
sg63
(lp471
g56
(g77
g58
NtRp472
(dp473
g61
(dp474
g81
g82
ssg70
g468
sg63
(lp475
g283
asbag56
(g77
g58
NtRp476
(dp477
g61
(dp478
g88
g89
ssg70
g468
sg63
(lp479
S':'
asbag56
(g77
g58
NtRp480
(dp481
g61
(dp482
sg70
g468
sg63
(lp483
g56
(g57
g58
NtRp484
(dp485
g61
(dp486
g69
I3
ssg70
g480
sg63
(lp487
S''
asbasbasbag56
(g72
g58
NtRp488
(dp489
g61
(dp490
sg70
g464
sg63
(lp491
g56
(g77
g58
NtRp492
(dp493
g61
(dp494
g81
g82
ssg70
g488
sg63
(lp495
g304
asbag56
(g77
g58
NtRp496
(dp497
g61
(dp498
g88
g89
ssg70
g488
sg63
(lp499
S':'
asbag56
(g77
g58
NtRp500
(dp501
g61
(dp502
sg70
g488
sg63
(lp503
g56
(g57
g58
NtRp504
(dp505
g61
(dp506
g69
I3
ssg70
g500
sg63
(lp507
S''
asbasbasbag56
(g72
g58
NtRp508
(dp509
g61
(dp510
sg70
g464
sg63
(lp511
g56
(g77
g58
NtRp512
(dp513
g61
(dp514
g81
g82
ssg70
g508
sg63
(lp515
g325
asbag56
(g77
g58
NtRp516
(dp517
g61
(dp518
g88
g89
ssg70
g508
sg63
(lp519
S':'
asbag56
(g77
g58
NtRp520
(dp521
g61
(dp522
sg70
g508
sg63
(lp523
g56
(g57
g58
NtRp524
(dp525
g61
(dp526
g69
I3
ssg70
g520
sg63
(lp527
S''
asbasbasbag56
(g72
g58
NtRp528
(dp529
g61
(dp530
sg70
g464
sg63
(lp531
g56
(g77
g58
NtRp532
(dp533
g61
(dp534
g81
g82
ssg70
g528
sg63
(lp535
g346
asbag56
(g77
g58
NtRp536
(dp537
g61
(dp538
g88
g89
ssg70
g528
sg63
(lp539
S':'
asbag56
(g77
g58
NtRp540
(dp541
g61
(dp542
sg70
g528
sg63
(lp543
g56
(g57
g58
NtRp544
(dp545
g61
(dp546
g69
I3
ssg70
g540
sg63
(lp547
S''
asbasbasbag56
(g72
g58
NtRp548
(dp549
g61
(dp550
sg70
g464
sg63
(lp551
g56
(g77
g58
NtRp552
(dp553
g61
(dp554
g81
g82
ssg70
g548
sg63
(lp555
g367
asbag56
(g77
g58
NtRp556
(dp557
g61
(dp558
g88
g89
ssg70
g548
sg63
(lp559
S':'
asbag56
(g77
g58
NtRp560
(dp561
g61
(dp562
sg70
g548
sg63
(lp563
g56
(g57
g58
NtRp564
(dp565
g61
(dp566
g69
I3
ssg70
g560
sg63
(lp567
S''
asbasbasbag56
(g72
g58
NtRp568
(dp569
g61
(dp570
sg70
g464
sg63
(lp571
g56
(g77
g58
NtRp572
(dp573
g61
(dp574
g81
g82
ssg70
g568
sg63
(lp575
g388
asbag56
(g77
g58
NtRp576
(dp577
g61
(dp578
g88
g89
ssg70
g568
sg63
(lp579
S':'
asbag56
(g77
g58
NtRp580
(dp581
g61
(dp582
sg70
g568
sg63
(lp583
g56
(g57
g58
NtRp584
(dp585
g61
(dp586
g69
I3
ssg70
g580
sg63
(lp587
S''
asbasbasbag56
(g72
g58
NtRp588
(dp589
g61
(dp590
sg70
g464
sg63
(lp591
g56
(g77
g58
NtRp592
(dp593
g61
(dp594
g81
g82
ssg70
g588
sg63
(lp595
g409
asbag56
(g77
g58
NtRp596
(dp597
g61
(dp598
g88
g89
ssg70
g588
sg63
(lp599
S':'
asbag56
(g77
g58
NtRp600
(dp601
g61
(dp602
sg70
g588
sg63
(lp603
g56
(g57
g58
NtRp604
(dp605
g61
(dp606
g69
I3
ssg70
g600
sg63
(lp607
S''
asbasbasbag56
(g72
g58
NtRp608
(dp609
g61
(dp610
sg70
g464
sg63
(lp611
g56
(g77
g58
NtRp612
(dp613
g61
(dp614
g81
g82
ssg70
g608
sg63
(lp615
g430
asbag56
(g77
g58
NtRp616
(dp617
g61
(dp618
g88
g89
ssg70
g608
sg63
(lp619
S':'
asbag56
(g77
g58
NtRp620
(dp621
g61
(dp622
sg70
g608
sg63
(lp623
g56
(g57
g58
NtRp624
(dp625
g61
(dp626
g69
I3
ssg70
g620
sg63
(lp627
S''
asbasbasbasbasbasbasbag56
(g72
g58
NtRp628
(dp629
g61
(dp630
sg70
g246
sg63
(lp631
g56
(g77
g58
NtRp632
(dp633
g61
(dp634
g81
g82
ssg70
g628
sg63
(lp635
S'session_id_globaleaks'
p636
asbag56
(g77
g58
NtRp637
(dp638
g61
(dp639
g88
g89
ssg70
g628
sg63
(lp640
S':'
asbag56
(g77
g58
NtRp641
(dp642
g61
(dp643
sg70
g628
sg63
(lp644
g56
(g57
g58
NtRp645
(dp646
g61
(dp647
g69
I4
ssg70
g641
sg63
(lp648
g56
(g65
g58
NtRp649
(dp650
g61
(dp651
g69
I3
ssg70
Nsg63
(lp652
g56
(g72
g58
NtRp653
(dp654
g61
(dp655
sg70
g649
sg63
(lp656
g56
(g77
g58
NtRp657
(dp658
g61
(dp659
g81
g82
ssg70
g653
sg63
(lp660
g283
asbag56
(g77
g58
NtRp661
(dp662
g61
(dp663
g88
g89
ssg70
g653
sg63
(lp664
S':'
asbag56
(g77
g58
NtRp665
(dp666
g61
(dp667
sg70
g653
sg63
(lp668
g56
(g57
g58
NtRp669
(dp670
g61
(dp671
g69
I3
ssg70
g665
sg63
(lp672
S''
asbasbasbag56
(g72
g58
NtRp673
(dp674
g61
(dp675
sg70
g649
sg63
(lp676
g56
(g77
g58
NtRp677
(dp678
g61
(dp679
g81
g82
ssg70
g673
sg63
(lp680
g304
asbag56
(g77
g58
NtRp681
(dp682
g61
(dp683
g88
g89
ssg70
g673
sg63
(lp684
S':'
asbag56
(g77
g58
NtRp685
(dp686
g61
(dp687
sg70
g673
sg63
(lp688
g56
(g57
g58
NtRp689
(dp690
g61
(dp691
g69
I3
ssg70
g685
sg63
(lp692
S''
asbasbasbag56
(g72
g58
NtRp693
(dp694
g61
(dp695
sg70
g649
sg63
(lp696
g56
(g77
g58
NtRp697
(dp698
g61
(dp699
g81
g82
ssg70
g693
sg63
(lp700
g325
asbag56
(g77
g58
NtRp701
(dp702
g61
(dp703
g88
g89
ssg70
g693
sg63
(lp704
S':'
asbag56
(g77
g58
NtRp705
(dp706
g61
(dp707
sg70
g693
sg63
(lp708
g56
(g57
g58
NtRp709
(dp710
g61
(dp711
g69
I3
ssg70
g705
sg63
(lp712
S''
asbasbasbag56
(g72
g58
NtRp713
(dp714
g61
(dp715
sg70
g649
sg63
(lp716
g56
(g77
g58
NtRp717
(dp718
g61
(dp719
g81
g82
ssg70
g713
sg63
(lp720
g346
asbag56
(g77
g58
NtRp721
(dp722
g61
(dp723
g88
g89
ssg70
g713
sg63
(lp724
S':'
asbag56
(g77
g58
NtRp725
(dp726
g61
(dp727
sg70
g713
sg63
(lp728
g56
(g57
g58
NtRp729
(dp730
g61
(dp731
g69
I3
ssg70
g725
sg63
(lp732
S''
asbasbasbag56
(g72
g58
NtRp733
(dp734
g61
(dp735
sg70
g649
sg63
(lp736
g56
(g77
g58
NtRp737
(dp738
g61
(dp739
g81
g82
ssg70
g733
sg63
(lp740
g367
asbag56
(g77
g58
NtRp741
(dp742
g61
(dp743
g88
g89
ssg70
g733
sg63
(lp744
S':'
asbag56
(g77
g58
NtRp745
(dp746
g61
(dp747
sg70
g733
sg63
(lp748
g56
(g57
g58
NtRp749
(dp750
g61
(dp751
g69
I3
ssg70
g745
sg63
(lp752
S''
asbasbasbag56
(g72
g58
NtRp753
(dp754
g61
(dp755
sg70
g649
sg63
(lp756
g56
(g77
g58
NtRp757
(dp758
g61
(dp759
g81
g82
ssg70
g753
sg63
(lp760
g388
asbag56
(g77
g58
NtRp761
(dp762
g61
(dp763
g88
g89
ssg70
g753
sg63
(lp764
S':'
asbag56
(g77
g58
NtRp765
(dp766
g61
(dp767
sg70
g753
sg63
(lp768
g56
(g57
g58
NtRp769
(dp770
g61
(dp771
g69
I3
ssg70
g765
sg63
(lp772
S''
asbasbasbag56
(g72
g58
NtRp773
(dp774
g61
(dp775
sg70
g649
sg63
(lp776
g56
(g77
g58
NtRp777
(dp778
g61
(dp779
g81
g82
ssg70
g773
sg63
(lp780
g409
asbag56
(g77
g58
NtRp781
(dp782
g61
(dp783
g88
g89
ssg70
g773
sg63
(lp784
S':'
asbag56
(g77
g58
NtRp785
(dp786
g61
(dp787
sg70
g773
sg63
(lp788
g56
(g57
g58
NtRp789
(dp790
g61
(dp791
g69
I3
ssg70
g785
sg63
(lp792
S''
asbasbasbag56
(g72
g58
NtRp793
(dp794
g61
(dp795
sg70
g649
sg63
(lp796
g56
(g77
g58
NtRp797
(dp798
g61
(dp799
g81
g82
ssg70
g793
sg63
(lp800
g430
asbag56
(g77
g58
NtRp801
(dp802
g61
(dp803
g88
g89
ssg70
g793
sg63
(lp804
S':'
asbag56
(g77
g58
NtRp805
(dp806
g61
(dp807
sg70
g793
sg63
(lp808
g56
(g57
g58
NtRp809
(dp810
g61
(dp811
g69
I3
ssg70
g805
sg63
(lp812
S''
asbasbasbasbasbasbasbag56
(g72
g58
NtRp813
(dp814
g61
(dp815
sg70
g246
sg63
(lp816
g56
(g77
g58
NtRp817
(dp818
g61
(dp819
g81
g82
ssg70
g813
sg63
(lp820
S'session_id_init'
p821
asbag56
(g77
g58
NtRp822
(dp823
g61
(dp824
g88
g89
ssg70
g813
sg63
(lp825
S':'
asbag56
(g77
g58
NtRp826
(dp827
g61
(dp828
sg70
g813
sg63
(lp829
g56
(g57
g58
NtRp830
(dp831
g61
(dp832
g69
I4
ssg70
g826
sg63
(lp833
g56
(g65
g58
NtRp834
(dp835
g61
(dp836
g69
I3
ssg70
Nsg63
(lp837
g56
(g72
g58
NtRp838
(dp839
g61
(dp840
sg70
g834
sg63
(lp841
g56
(g77
g58
NtRp842
(dp843
g61
(dp844
g81
g82
ssg70
g838
sg63
(lp845
g283
asbag56
(g77
g58
NtRp846
(dp847
g61
(dp848
g88
g89
ssg70
g838
sg63
(lp849
S':'
asbag56
(g77
g58
NtRp850
(dp851
g61
(dp852
sg70
g838
sg63
(lp853
g56
(g57
g58
NtRp854
(dp855
g61
(dp856
g69
I3
ssg70
g850
sg63
(lp857
S''
asbasbasbag56
(g72
g58
NtRp858
(dp859
g61
(dp860
sg70
g834
sg63
(lp861
g56
(g77
g58
NtRp862
(dp863
g61
(dp864
g81
g82
ssg70
g858
sg63
(lp865
g304
asbag56
(g77
g58
NtRp866
(dp867
g61
(dp868
g88
g89
ssg70
g858
sg63
(lp869
S':'
asbag56
(g77
g58
NtRp870
(dp871
g61
(dp872
sg70
g858
sg63
(lp873
g56
(g57
g58
NtRp874
(dp875
g61
(dp876
g69
I3
ssg70
g870
sg63
(lp877
S''
asbasbasbag56
(g72
g58
NtRp878
(dp879
g61
(dp880
sg70
g834
sg63
(lp881
g56
(g77
g58
NtRp882
(dp883
g61
(dp884
g81
g82
ssg70
g878
sg63
(lp885
g325
asbag56
(g77
g58
NtRp886
(dp887
g61
(dp888
g88
g89
ssg70
g878
sg63
(lp889
S':'
asbag56
(g77
g58
NtRp890
(dp891
g61
(dp892
sg70
g878
sg63
(lp893
g56
(g57
g58
NtRp894
(dp895
g61
(dp896
g69
I3
ssg70
g890
sg63
(lp897
S''
asbasbasbag56
(g72
g58
NtRp898
(dp899
g61
(dp900
sg70
g834
sg63
(lp901
g56
(g77
g58
NtRp902
(dp903
g61
(dp904
g81
g82
ssg70
g898
sg63
(lp905
g346
asbag56
(g77
g58
NtRp906
(dp907
g61
(dp908
g88
g89
ssg70
g898
sg63
(lp909
S':'
asbag56
(g77
g58
NtRp910
(dp911
g61
(dp912
sg70
g898
sg63
(lp913
g56
(g57
g58
NtRp914
(dp915
g61
(dp916
g69
I3
ssg70
g910
sg63
(lp917
S''
asbasbasbag56
(g72
g58
NtRp918
(dp919
g61
(dp920
sg70
g834
sg63
(lp921
g56
(g77
g58
NtRp922
(dp923
g61
(dp924
g81
g82
ssg70
g918
sg63
(lp925
g367
asbag56
(g77
g58
NtRp926
(dp927
g61
(dp928
g88
g89
ssg70
g918
sg63
(lp929
S':'
asbag56
(g77
g58
NtRp930
(dp931
g61
(dp932
sg70
g918
sg63
(lp933
g56
(g57
g58
NtRp934
(dp935
g61
(dp936
g69
I3
ssg70
g930
sg63
(lp937
S''
asbasbasbag56
(g72
g58
NtRp938
(dp939
g61
(dp940
sg70
g834
sg63
(lp941
g56
(g77
g58
NtRp942
(dp943
g61
(dp944
g81
g82
ssg70
g938
sg63
(lp945
g388
asbag56
(g77
g58
NtRp946
(dp947
g61
(dp948
g88
g89
ssg70
g938
sg63
(lp949
S':'
asbag56
(g77
g58
NtRp950
(dp951
g61
(dp952
sg70
g938
sg63
(lp953
g56
(g57
g58
NtRp954
(dp955
g61
(dp956
g69
I3
ssg70
g950
sg63
(lp957
S''
asbasbasbag56
(g72
g58
NtRp958
(dp959
g61
(dp960
sg70
g834
sg63
(lp961
g56
(g77
g58
NtRp962
(dp963
g61
(dp964
g81
g82
ssg70
g958
sg63
(lp965
g409
asbag56
(g77
g58
NtRp966
(dp967
g61
(dp968
g88
g89
ssg70
g958
sg63
(lp969
S':'
asbag56
(g77
g58
NtRp970
(dp971
g61
(dp972
sg70
g958
sg63
(lp973
g56
(g57
g58
NtRp974
(dp975
g61
(dp976
g69
I3
ssg70
g970
sg63
(lp977
S''
asbasbasbag56
(g72
g58
NtRp978
(dp979
g61
(dp980
sg70
g834
sg63
(lp981
g56
(g77
g58
NtRp982
(dp983
g61
(dp984
g81
g82
ssg70
g978
sg63
(lp985
g430
asbag56
(g77
g58
NtRp986
(dp987
g61
(dp988
g88
g89
ssg70
g978
sg63
(lp989
S':'
asbag56
(g77
g58
NtRp990
(dp991
g61
(dp992
sg70
g978
sg63
(lp993
g56
(g57
g58
NtRp994
(dp995
g61
(dp996
g69
I3
ssg70
g990
sg63
(lp997
S''
asbasbasbasbasbasbasbasbasbasbasbag56
(g72
g58
NtRp998
(dp999
g61
(dp1000
sg70
g66
sg63
(lp1001
g56
(g77
g58
NtRp1002
(dp1003
g61
(dp1004
g81
g82
ssg70
g998
sg63
(lp1005
S'env'
p1006
asbag56
(g77
g58
NtRp1007
(dp1008
g61
(dp1009
g88
g89
ssg70
g998
sg63
(lp1010
S':'
asbag56
(g77
g58
NtRp1011
(dp1012
g61
(dp1013
sg70
g998
sg63
(lp1014
g56
(g57
g58
NtRp1015
(dp1016
g61
(dp1017
g69
I5
ssg70
g1011
sg63
(lp1018
g56
(g65
g58
NtRp1019
(dp1020
g61
(dp1021
g69
I4
ssg70
Nsg63
(lp1022
g56
(g72
g58
NtRp1023
(dp1024
g61
(dp1025
sg70
g1019
sg63
(lp1026
g56
(g77
g58
NtRp1027
(dp1028
g61
(dp1029
g81
g82
ssg70
g1023
sg63
(lp1030
S'app_folders'
p1031
asbag56
(g77
g58
NtRp1032
(dp1033
g61
(dp1034
g88
g89
ssg70
g1023
sg63
(lp1035
S':'
asbag56
(g77
g58
NtRp1036
(dp1037
g61
(dp1038
sg70
g1023
sg63
(lp1039
g56
(g57
g58
NtRp1040
(dp1041
g61
(dp1042
g69
I4
ssg70
g1036
sg63
(lp1043
S"set(['/Users/hellais/Documents/code/mygit/globaleaks/webapp/applications/init/', '/Users/hellais/Documents/code/mygit/globaleaks/webapp/applications/admin/'])"
p1044
asbasbasbag56
(g72
g58
NtRp1045
(dp1046
g61
(dp1047
sg70
g1019
sg63
(lp1048
g56
(g77
g58
NtRp1049
(dp1050
g61
(dp1051
g81
g82
ssg70
g1045
sg63
(lp1052
S'applications_parent'
p1053
asbag56
(g77
g58
NtRp1054
(dp1055
g61
(dp1056
g88
g89
ssg70
g1045
sg63
(lp1057
S':'
asbag56
(g77
g58
NtRp1058
(dp1059
g61
(dp1060
sg70
g1045
sg63
(lp1061
g56
(g57
g58
NtRp1062
(dp1063
g61
(dp1064
g69
I4
ssg70
g1058
sg63
(lp1065
S'/Users/hellais/Documents/code/mygit/globaleaks/webapp'
p1066
asbasbasbag56
(g72
g58
NtRp1067
(dp1068
g61
(dp1069
sg70
g1019
sg63
(lp1070
g56
(g77
g58
NtRp1071
(dp1072
g61
(dp1073
g81
g82
ssg70
g1067
sg63
(lp1074
S'cmd_args'
p1075
asbag56
(g77
g58
NtRp1076
(dp1077
g61
(dp1078
g88
g89
ssg70
g1067
sg63
(lp1079
S':'
asbag56
(g77
g58
NtRp1080
(dp1081
g61
(dp1082
sg70
g1067
sg63
(lp1083
g56
(g57
g58
NtRp1084
(dp1085
g61
(dp1086
g69
I4
ssg70
g1080
sg63
(lp1087
g56
(g65
g58
NtRp1088
(dp1089
g61
(dp1090
g69
I3
ssg70
Nsg63
(lp1091
sbasbasbasbag56
(g72
g58
NtRp1092
(dp1093
g61
(dp1094
sg70
g1019
sg63
(lp1095
g56
(g77
g58
NtRp1096
(dp1097
g61
(dp1098
g81
g82
ssg70
g1092
sg63
(lp1099
S'cmd_options'
p1100
asbag56
(g77
g58
NtRp1101
(dp1102
g61
(dp1103
g88
g89
ssg70
g1092
sg63
(lp1104
S':'
asbag56
(g77
g58
NtRp1105
(dp1106
g61
(dp1107
sg70
g1092
sg63
(lp1108
g56
(g57
g58
NtRp1109
(dp1110
g61
(dp1111
g69
I4
ssg70
g1105
sg63
(lp1112
S"<Values at 0x1015f1320: {'verbose': False, 'ip': '127.0.0.1', 'shutdown_timeout': 5, 'taskbar': False, 'port': 8000, 'maxthreads': None, 'softcron': False, 'server_name': 'Jeanne.local', 'bpython': False, 'nogui': False, 'nocron': False, 'extcron': False, 'debuglevel': 30, 'test': None, 'folder': '/Users/hellais/Documents/code/mygit/globaleaks/webapp', 'config': '', 'import_models': False, 'winservice': '', 'shell': None, 'run': '', 'log_filename': 'httpserver.log', 'args': [''], 'profiler_filename': None, 'ssl_private_key': '', 'password': 'antani', 'request_queue_size': 5, 'ssl_certificate': '', 'cronjob': False, 'plain': False, 'quiet': False, 'interfaces': None, 'minthreads': None, 'timeout': 10, 'numthreads': None, 'nobanner': False, 'pid_filename': 'httpserver.pid'}>"
p1113
asbasbasbag56
(g72
g58
NtRp1114
(dp1115
g61
(dp1116
sg70
g1019
sg63
(lp1117
g56
(g77
g58
NtRp1118
(dp1119
g61
(dp1120
g81
g82
ssg70
g1114
sg63
(lp1121
S'db_sessions'
p1122
asbag56
(g77
g58
NtRp1123
(dp1124
g61
(dp1125
g88
g89
ssg70
g1114
sg63
(lp1126
S':'
asbag56
(g77
g58
NtRp1127
(dp1128
g61
(dp1129
sg70
g1114
sg63
(lp1130
g56
(g57
g58
NtRp1131
(dp1132
g61
(dp1133
g69
I4
ssg70
g1127
sg63
(lp1134
S'set([])'
p1135
asbasbasbag56
(g72
g58
NtRp1136
(dp1137
g61
(dp1138
sg70
g1019
sg63
(lp1139
g56
(g77
g58
NtRp1140
(dp1141
g61
(dp1142
g81
g82
ssg70
g1136
sg63
(lp1143
S'debugging'
p1144
asbag56
(g77
g58
NtRp1145
(dp1146
g61
(dp1147
g88
g89
ssg70
g1136
sg63
(lp1148
S':'
asbag56
(g77
g58
NtRp1149
(dp1150
g61
(dp1151
sg70
g1136
sg63
(lp1152
g56
(g57
g58
NtRp1153
(dp1154
g61
(dp1155
g69
I4
ssg70
g1149
sg63
(lp1156
g99
asbasbasbag56
(g72
g58
NtRp1157
(dp1158
g61
(dp1159
sg70
g1019
sg63
(lp1160
g56
(g77
g58
NtRp1161
(dp1162
g61
(dp1163
g81
g82
ssg70
g1157
sg63
(lp1164
S'gluon_parent'
p1165
asbag56
(g77
g58
NtRp1166
(dp1167
g61
(dp1168
g88
g89
ssg70
g1157
sg63
(lp1169
S':'
asbag56
(g77
g58
NtRp1170
(dp1171
g61
(dp1172
sg70
g1157
sg63
(lp1173
g56
(g57
g58
NtRp1174
(dp1175
g61
(dp1176
g69
I4
ssg70
g1170
sg63
(lp1177
S'/Users/hellais/Documents/code/mygit/globaleaks/webapp'
p1178
asbasbasbag56
(g72
g58
NtRp1179
(dp1180
g61
(dp1181
sg70
g1019
sg63
(lp1182
g56
(g77
g58
NtRp1183
(dp1184
g61
(dp1185
g81
g82
ssg70
g1179
sg63
(lp1186
S'http_accept'
p1187
asbag56
(g77
g58
NtRp1188
(dp1189
g61
(dp1190
g88
g89
ssg70
g1179
sg63
(lp1191
S':'
asbag56
(g77
g58
NtRp1192
(dp1193
g61
(dp1194
sg70
g1179
sg63
(lp1195
g56
(g57
g58
NtRp1196
(dp1197
g61
(dp1198
g69
I4
ssg70
g1192
sg63
(lp1199
S'text/html,application/xhtml+xml,application/xml;q=0.9,*/*;q=0.8'
p1200
asbasbasbag56
(g72
g58
NtRp1201
(dp1202
g61
(dp1203
sg70
g1019
sg63
(lp1204
g56
(g77
g58
NtRp1205
(dp1206
g61
(dp1207
g81
g82
ssg70
g1201
sg63
(lp1208
S'http_accept_charset'
p1209
asbag56
(g77
g58
NtRp1210
(dp1211
g61
(dp1212
g88
g89
ssg70
g1201
sg63
(lp1213
S':'
asbag56
(g77
g58
NtRp1214
(dp1215
g61
(dp1216
sg70
g1201
sg63
(lp1217
g56
(g57
g58
NtRp1218
(dp1219
g61
(dp1220
g69
I4
ssg70
g1214
sg63
(lp1221
S'ISO-8859-1,utf-8;q=0.7,*;q=0.7'
p1222
asbasbasbag56
(g72
g58
NtRp1223
(dp1224
g61
(dp1225
sg70
g1019
sg63
(lp1226
g56
(g77
g58
NtRp1227
(dp1228
g61
(dp1229
g81
g82
ssg70
g1223
sg63
(lp1230
S'http_accept_encoding'
p1231
asbag56
(g77
g58
NtRp1232
(dp1233
g61
(dp1234
g88
g89
ssg70
g1223
sg63
(lp1235
S':'
asbag56
(g77
g58
NtRp1236
(dp1237
g61
(dp1238
sg70
g1223
sg63
(lp1239
g56
(g57
g58
NtRp1240
(dp1241
g61
(dp1242
g69
I4
ssg70
g1236
sg63
(lp1243
S'gzip, deflate'
p1244
asbasbasbag56
(g72
g58
NtRp1245
(dp1246
g61
(dp1247
sg70
g1019
sg63
(lp1248
g56
(g77
g58
NtRp1249
(dp1250
g61
(dp1251
g81
g82
ssg70
g1245
sg63
(lp1252
S'http_accept_language'
p1253
asbag56
(g77
g58
NtRp1254
(dp1255
g61
(dp1256
g88
g89
ssg70
g1245
sg63
(lp1257
S':'
asbag56
(g77
g58
NtRp1258
(dp1259
g61
(dp1260
sg70
g1245
sg63
(lp1261
g56
(g57
g58
NtRp1262
(dp1263
g61
(dp1264
g69
I4
ssg70
g1258
sg63
(lp1265
S'en-us,en;q=0.5'
p1266
asbasbasbag56
(g72
g58
NtRp1267
(dp1268
g61
(dp1269
sg70
g1019
sg63
(lp1270
g56
(g77
g58
NtRp1271
(dp1272
g61
(dp1273
g81
g82
ssg70
g1267
sg63
(lp1274
S'http_cache_control'
p1275
asbag56
(g77
g58
NtRp1276
(dp1277
g61
(dp1278
g88
g89
ssg70
g1267
sg63
(lp1279
S':'
asbag56
(g77
g58
NtRp1280
(dp1281
g61
(dp1282
sg70
g1267
sg63
(lp1283
g56
(g57
g58
NtRp1284
(dp1285
g61
(dp1286
g69
I4
ssg70
g1280
sg63
(lp1287
S'max-age=0'
p1288
asbasbasbag56
(g72
g58
NtRp1289
(dp1290
g61
(dp1291
sg70
g1019
sg63
(lp1292
g56
(g77
g58
NtRp1293
(dp1294
g61
(dp1295
g81
g82
ssg70
g1289
sg63
(lp1296
S'http_connection'
p1297
asbag56
(g77
g58
NtRp1298
(dp1299
g61
(dp1300
g88
g89
ssg70
g1289
sg63
(lp1301
S':'
asbag56
(g77
g58
NtRp1302
(dp1303
g61
(dp1304
sg70
g1289
sg63
(lp1305
g56
(g57
g58
NtRp1306
(dp1307
g61
(dp1308
g69
I4
ssg70
g1302
sg63
(lp1309
S'keep-alive'
p1310
asbasbasbag56
(g72
g58
NtRp1311
(dp1312
g61
(dp1313
sg70
g1019
sg63
(lp1314
g56
(g77
g58
NtRp1315
(dp1316
g61
(dp1317
g81
g82
ssg70
g1311
sg63
(lp1318
S'http_cookie'
p1319
asbag56
(g77
g58
NtRp1320
(dp1321
g61
(dp1322
g88
g89
ssg70
g1311
sg63
(lp1323
S':'
asbag56
(g77
g58
NtRp1324
(dp1325
g61
(dp1326
sg70
g1311
sg63
(lp1327
g56
(g57
g58
NtRp1328
(dp1329
g61
(dp1330
g69
I4
ssg70
g1324
sg63
(lp1331
S'session_id_admin=127.0.0.1-67122ce4-50b2-4acf-b28e-7a14feeff4d9; session_id_globaleaks=127.0.0.1-c6d5b9b3-1ec7-41c1-8d72-04c21b7a6b11; session_id_blabla=127.0.0.1-c445384e-a3ea-4484-8fe2-52f3295bbb7c; session_id_init=127.0.0.1-a8551263-bc3c-430c-abb2-8711fac671c1'
p1332
asbasbasbag56
(g72
g58
NtRp1333
(dp1334
g61
(dp1335
sg70
g1019
sg63
(lp1336
g56
(g77
g58
NtRp1337
(dp1338
g61
(dp1339
g81
g82
ssg70
g1333
sg63
(lp1340
S'http_host'
p1341
asbag56
(g77
g58
NtRp1342
(dp1343
g61
(dp1344
g88
g89
ssg70
g1333
sg63
(lp1345
S':'
asbag56
(g77
g58
NtRp1346
(dp1347
g61
(dp1348
sg70
g1333
sg63
(lp1349
g56
(g57
g58
NtRp1350
(dp1351
g61
(dp1352
g69
I4
ssg70
g1346
sg63
(lp1353
S'127.0.0.1:8000'
p1354
asbasbasbag56
(g72
g58
NtRp1355
(dp1356
g61
(dp1357
sg70
g1019
sg63
(lp1358
g56
(g77
g58
NtRp1359
(dp1360
g61
(dp1361
g81
g82
ssg70
g1355
sg63
(lp1362
S'http_referer'
p1363
asbag56
(g77
g58
NtRp1364
(dp1365
g61
(dp1366
g88
g89
ssg70
g1355
sg63
(lp1367
S':'
asbag56
(g77
g58
NtRp1368
(dp1369
g61
(dp1370
sg70
g1355
sg63
(lp1371
g56
(g57
g58
NtRp1372
(dp1373
g61
(dp1374
g69
I4
ssg70
g1368
sg63
(lp1375
S'http://127.0.0.1:8000/init/default/submission'
p1376
asbasbasbag56
(g72
g58
NtRp1377
(dp1378
g61
(dp1379
sg70
g1019
sg63
(lp1380
g56
(g77
g58
NtRp1381
(dp1382
g61
(dp1383
g81
g82
ssg70
g1377
sg63
(lp1384
S'http_user_agent'
p1385
asbag56
(g77
g58
NtRp1386
(dp1387
g61
(dp1388
g88
g89
ssg70
g1377
sg63
(lp1389
S':'
asbag56
(g77
g58
NtRp1390
(dp1391
g61
(dp1392
sg70
g1377
sg63
(lp1393
g56
(g57
g58
NtRp1394
(dp1395
g61
(dp1396
g69
I4
ssg70
g1390
sg63
(lp1397
S'Mozilla/5.0 (Macintosh; Intel Mac OS X 10.6; rv:5.0.1) Gecko/20100101 Firefox/5.0.1'
p1398
asbasbasbag56
(g72
g58
NtRp1399
(dp1400
g61
(dp1401
sg70
g1019
sg63
(lp1402
g56
(g77
g58
NtRp1403
(dp1404
g61
(dp1405
g81
g82
ssg70
g1399
sg63
(lp1406
S'is_jython'
p1407
asbag56
(g77
g58
NtRp1408
(dp1409
g61
(dp1410
g88
g89
ssg70
g1399
sg63
(lp1411
S':'
asbag56
(g77
g58
NtRp1412
(dp1413
g61
(dp1414
sg70
g1399
sg63
(lp1415
g56
(g57
g58
NtRp1416
(dp1417
g61
(dp1418
g69
I4
ssg70
g1412
sg63
(lp1419
g99
asbasbasbag56
(g72
g58
NtRp1420
(dp1421
g61
(dp1422
sg70
g1019
sg63
(lp1423
g56
(g77
g58
NtRp1424
(dp1425
g61
(dp1426
g81
g82
ssg70
g1420
sg63
(lp1427
S'path_info'
p1428
asbag56
(g77
g58
NtRp1429
(dp1430
g61
(dp1431
g88
g89
ssg70
g1420
sg63
(lp1432
S':'
asbag56
(g77
g58
NtRp1433
(dp1434
g61
(dp1435
sg70
g1420
sg63
(lp1436
g56
(g57
g58
NtRp1437
(dp1438
g61
(dp1439
g69
I4
ssg70
g1433
sg63
(lp1440
S'/init/default/tulip/0f05e204af4d1ffabf462df37c8c606a3240f45a2e2fcb3bef41ea5b823b55d0'
p1441
asbasbasbag56
(g72
g58
NtRp1442
(dp1443
g61
(dp1444
sg70
g1019
sg63
(lp1445
g56
(g77
g58
NtRp1446
(dp1447
g61
(dp1448
g81
g82
ssg70
g1442
sg63
(lp1449
S'query_string'
p1450
asbag56
(g77
g58
NtRp1451
(dp1452
g61
(dp1453
g88
g89
ssg70
g1442
sg63
(lp1454
S':'
asbag56
(g77
g58
NtRp1455
(dp1456
g61
(dp1457
sg70
g1442
sg63
(lp1458
g56
(g57
g58
NtRp1459
(dp1460
g61
(dp1461
g69
I4
ssg70
g1455
sg63
(lp1462
S''
asbasbasbag56
(g72
g58
NtRp1463
(dp1464
g61
(dp1465
sg70
g1019
sg63
(lp1466
g56
(g77
g58
NtRp1467
(dp1468
g61
(dp1469
g81
g82
ssg70
g1463
sg63
(lp1470
S'remote_addr'
p1471
asbag56
(g77
g58
NtRp1472
(dp1473
g61
(dp1474
g88
g89
ssg70
g1463
sg63
(lp1475
S':'
asbag56
(g77
g58
NtRp1476
(dp1477
g61
(dp1478
sg70
g1463
sg63
(lp1479
g56
(g57
g58
NtRp1480
(dp1481
g61
(dp1482
g69
I4
ssg70
g1476
sg63
(lp1483
g202
asbasbasbag56
(g72
g58
NtRp1484
(dp1485
g61
(dp1486
sg70
g1019
sg63
(lp1487
g56
(g77
g58
NtRp1488
(dp1489
g61
(dp1490
g81
g82
ssg70
g1484
sg63
(lp1491
S'remote_port'
p1492
asbag56
(g77
g58
NtRp1493
(dp1494
g61
(dp1495
g88
g89
ssg70
g1484
sg63
(lp1496
S':'
asbag56
(g77
g58
NtRp1497
(dp1498
g61
(dp1499
sg70
g1484
sg63
(lp1500
g56
(g57
g58
NtRp1501
(dp1502
g61
(dp1503
g69
I4
ssg70
g1497
sg63
(lp1504
S'55560'
p1505
asbasbasbag56
(g72
g58
NtRp1506
(dp1507
g61
(dp1508
sg70
g1019
sg63
(lp1509
g56
(g77
g58
NtRp1510
(dp1511
g61
(dp1512
g81
g82
ssg70
g1506
sg63
(lp1513
S'request_method'
p1514
asbag56
(g77
g58
NtRp1515
(dp1516
g61
(dp1517
g88
g89
ssg70
g1506
sg63
(lp1518
S':'
asbag56
(g77
g58
NtRp1519
(dp1520
g61
(dp1521
sg70
g1506
sg63
(lp1522
g56
(g57
g58
NtRp1523
(dp1524
g61
(dp1525
g69
I4
ssg70
g1519
sg63
(lp1526
S'GET'
p1527
asbasbasbag56
(g72
g58
NtRp1528
(dp1529
g61
(dp1530
sg70
g1019
sg63
(lp1531
g56
(g77
g58
NtRp1532
(dp1533
g61
(dp1534
g81
g82
ssg70
g1528
sg63
(lp1535
S'script_name'
p1536
asbag56
(g77
g58
NtRp1537
(dp1538
g61
(dp1539
g88
g89
ssg70
g1528
sg63
(lp1540
S':'
asbag56
(g77
g58
NtRp1541
(dp1542
g61
(dp1543
sg70
g1528
sg63
(lp1544
g56
(g57
g58
NtRp1545
(dp1546
g61
(dp1547
g69
I4
ssg70
g1541
sg63
(lp1548
S''
asbasbasbag56
(g72
g58
NtRp1549
(dp1550
g61
(dp1551
sg70
g1019
sg63
(lp1552
g56
(g77
g58
NtRp1553
(dp1554
g61
(dp1555
g81
g82
ssg70
g1549
sg63
(lp1556
S'server_name'
p1557
asbag56
(g77
g58
NtRp1558
(dp1559
g61
(dp1560
g88
g89
ssg70
g1549
sg63
(lp1561
S':'
asbag56
(g77
g58
NtRp1562
(dp1563
g61
(dp1564
sg70
g1549
sg63
(lp1565
g56
(g57
g58
NtRp1566
(dp1567
g61
(dp1568
g69
I4
ssg70
g1562
sg63
(lp1569
S'Jeanne.local'
p1570
asbasbasbag56
(g72
g58
NtRp1571
(dp1572
g61
(dp1573
sg70
g1019
sg63
(lp1574
g56
(g77
g58
NtRp1575
(dp1576
g61
(dp1577
g81
g82
ssg70
g1571
sg63
(lp1578
S'server_port'
p1579
asbag56
(g77
g58
NtRp1580
(dp1581
g61
(dp1582
g88
g89
ssg70
g1571
sg63
(lp1583
S':'
asbag56
(g77
g58
NtRp1584
(dp1585
g61
(dp1586
sg70
g1571
sg63
(lp1587
g56
(g57
g58
NtRp1588
(dp1589
g61
(dp1590
g69
I4
ssg70
g1584
sg63
(lp1591
S'8000'
p1592
asbasbasbag56
(g72
g58
NtRp1593
(dp1594
g61
(dp1595
sg70
g1019
sg63
(lp1596
g56
(g77
g58
NtRp1597
(dp1598
g61
(dp1599
g81
g82
ssg70
g1593
sg63
(lp1600
S'server_protocol'
p1601
asbag56
(g77
g58
NtRp1602
(dp1603
g61
(dp1604
g88
g89
ssg70
g1593
sg63
(lp1605
S':'
asbag56
(g77
g58
NtRp1606
(dp1607
g61
(dp1608
sg70
g1593
sg63
(lp1609
g56
(g57
g58
NtRp1610
(dp1611
g61
(dp1612
g69
I4
ssg70
g1606
sg63
(lp1613
S'HTTP/1.1'
p1614
asbasbasbag56
(g72
g58
NtRp1615
(dp1616
g61
(dp1617
sg70
g1019
sg63
(lp1618
g56
(g77
g58
NtRp1619
(dp1620
g61
(dp1621
g81
g82
ssg70
g1615
sg63
(lp1622
S'server_software'
p1623
asbag56
(g77
g58
NtRp1624
(dp1625
g61
(dp1626
g88
g89
ssg70
g1615
sg63
(lp1627
S':'
asbag56
(g77
g58
NtRp1628
(dp1629
g61
(dp1630
sg70
g1615
sg63
(lp1631
g56
(g57
g58
NtRp1632
(dp1633
g61
(dp1634
g69
I4
ssg70
g1628
sg63
(lp1635
S'Rocket 1.2.2'
p1636
asbasbasbag56
(g72
g58
NtRp1637
(dp1638
g61
(dp1639
sg70
g1019
sg63
(lp1640
g56
(g77
g58
NtRp1641
(dp1642
g61
(dp1643
g81
g82
ssg70
g1637
sg63
(lp1644
S'web2py_crontype'
p1645
asbag56
(g77
g58
NtRp1646
(dp1647
g61
(dp1648
g88
g89
ssg70
g1637
sg63
(lp1649
S':'
asbag56
(g77
g58
NtRp1650
(dp1651
g61
(dp1652
sg70
g1637
sg63
(lp1653
g56
(g57
g58
NtRp1654
(dp1655
g61
(dp1656
g69
I4
ssg70
g1650
sg63
(lp1657
S'hard'
p1658
asbasbasbag56
(g72
g58
NtRp1659
(dp1660
g61
(dp1661
sg70
g1019
sg63
(lp1662
g56
(g77
g58
NtRp1663
(dp1664
g61
(dp1665
g81
g82
ssg70
g1659
sg63
(lp1666
S'web2py_path'
p1667
asbag56
(g77
g58
NtRp1668
(dp1669
g61
(dp1670
g88
g89
ssg70
g1659
sg63
(lp1671
S':'
asbag56
(g77
g58
NtRp1672
(dp1673
g61
(dp1674
sg70
g1659
sg63
(lp1675
g56
(g57
g58
NtRp1676
(dp1677
g61
(dp1678
g69
I4
ssg70
g1672
sg63
(lp1679
g1066
asbasbasbag56
(g72
g58
NtRp1680
(dp1681
g61
(dp1682
sg70
g1019
sg63
(lp1683
g56
(g77
g58
NtRp1684
(dp1685
g61
(dp1686
g81
g82
ssg70
g1680
sg63
(lp1687
S'web2py_version'
p1688
asbag56
(g77
g58
NtRp1689
(dp1690
g61
(dp1691
g88
g89
ssg70
g1680
sg63
(lp1692
S':'
asbag56
(g77
g58
NtRp1693
(dp1694
g61
(dp1695
sg70
g1680
sg63
(lp1696
g56
(g57
g58
NtRp1697
(dp1698
g61
(dp1699
g69
I4
ssg70
g1693
sg63
(lp1700
S'Version 1.98.2 (2011-08-04 00:47:09)\n'
p1701
asbasbasbag56
(g72
g58
NtRp1702
(dp1703
g61
(dp1704
sg70
g1019
sg63
(lp1705
g56
(g77
g58
NtRp1706
(dp1707
g61
(dp1708
g81
g82
ssg70
g1702
sg63
(lp1709
S'wsgi_errors'
p1710
asbag56
(g77
g58
NtRp1711
(dp1712
g61
(dp1713
g88
g89
ssg70
g1702
sg63
(lp1714
S':'
asbag56
(g77
g58
NtRp1715
(dp1716
g61
(dp1717
sg70
g1702
sg63
(lp1718
g56
(g57
g58
NtRp1719
(dp1720
g61
(dp1721
g69
I4
ssg70
g1715
sg63
(lp1722
S"<open file '<stderr>', mode 'w' at 0x100287270>"
p1723
asbasbasbag56
(g72
g58
NtRp1724
(dp1725
g61
(dp1726
sg70
g1019
sg63
(lp1727
g56
(g77
g58
NtRp1728
(dp1729
g61
(dp1730
g81
g82
ssg70
g1724
sg63
(lp1731
S'wsgi_file_wrapper'
p1732
asbag56
(g77
g58
NtRp1733
(dp1734
g61
(dp1735
g88
g89
ssg70
g1724
sg63
(lp1736
S':'
asbag56
(g77
g58
NtRp1737
(dp1738
g61
(dp1739
sg70
g1724
sg63
(lp1740
g56
(g57
g58
NtRp1741
(dp1742
g61
(dp1743
g69
I4
ssg70
g1737
sg63
(lp1744
S'<class gluon.rocket.FileWrapper at 0x101668e20>'
p1745
asbasbasbag56
(g72
g58
NtRp1746
(dp1747
g61
(dp1748
sg70
g1019
sg63
(lp1749
g56
(g77
g58
NtRp1750
(dp1751
g61
(dp1752
g81
g82
ssg70
g1746
sg63
(lp1753
S'wsgi_input'
p1754
asbag56
(g77
g58
NtRp1755
(dp1756
g61
(dp1757
g88
g89
ssg70
g1746
sg63
(lp1758
S':'
asbag56
(g77
g58
NtRp1759
(dp1760
g61
(dp1761
sg70
g1746
sg63
(lp1762
g56
(g57
g58
NtRp1763
(dp1764
g61
(dp1765
g69
I4
ssg70
g1759
sg63
(lp1766
S'<socket._fileobject object at 0x102162750>'
p1767
asbasbasbag56
(g72
g58
NtRp1768
(dp1769
g61
(dp1770
sg70
g1019
sg63
(lp1771
g56
(g77
g58
NtRp1772
(dp1773
g61
(dp1774
g81
g82
ssg70
g1768
sg63
(lp1775
S'wsgi_multiprocess'
p1776
asbag56
(g77
g58
NtRp1777
(dp1778
g61
(dp1779
g88
g89
ssg70
g1768
sg63
(lp1780
S':'
asbag56
(g77
g58
NtRp1781
(dp1782
g61
(dp1783
sg70
g1768
sg63
(lp1784
g56
(g57
g58
NtRp1785
(dp1786
g61
(dp1787
g69
I4
ssg70
g1781
sg63
(lp1788
g99
asbasbasbag56
(g72
g58
NtRp1789
(dp1790
g61
(dp1791
sg70
g1019
sg63
(lp1792
g56
(g77
g58
NtRp1793
(dp1794
g61
(dp1795
g81
g82
ssg70
g1789
sg63
(lp1796
S'wsgi_multithread'
p1797
asbag56
(g77
g58
NtRp1798
(dp1799
g61
(dp1800
g88
g89
ssg70
g1789
sg63
(lp1801
S':'
asbag56
(g77
g58
NtRp1802
(dp1803
g61
(dp1804
sg70
g1789
sg63
(lp1805
g56
(g57
g58
NtRp1806
(dp1807
g61
(dp1808
g69
I4
ssg70
g1802
sg63
(lp1809
S'True'
p1810
asbasbasbag56
(g72
g58
NtRp1811
(dp1812
g61
(dp1813
sg70
g1019
sg63
(lp1814
g56
(g77
g58
NtRp1815
(dp1816
g61
(dp1817
g81
g82
ssg70
g1811
sg63
(lp1818
S'wsgi_run_once'
p1819
asbag56
(g77
g58
NtRp1820
(dp1821
g61
(dp1822
g88
g89
ssg70
g1811
sg63
(lp1823
S':'
asbag56
(g77
g58
NtRp1824
(dp1825
g61
(dp1826
sg70
g1811
sg63
(lp1827
g56
(g57
g58
NtRp1828
(dp1829
g61
(dp1830
g69
I4
ssg70
g1824
sg63
(lp1831
g99
asbasbasbag56
(g72
g58
NtRp1832
(dp1833
g61
(dp1834
sg70
g1019
sg63
(lp1835
g56
(g77
g58
NtRp1836
(dp1837
g61
(dp1838
g81
g82
ssg70
g1832
sg63
(lp1839
S'wsgi_url_scheme'
p1840
asbag56
(g77
g58
NtRp1841
(dp1842
g61
(dp1843
g88
g89
ssg70
g1832
sg63
(lp1844
S':'
asbag56
(g77
g58
NtRp1845
(dp1846
g61
(dp1847
sg70
g1832
sg63
(lp1848
g56
(g57
g58
NtRp1849
(dp1850
g61
(dp1851
g69
I4
ssg70
g1845
sg63
(lp1852
S'http'
p1853
asbasbasbag56
(g72
g58
NtRp1854
(dp1855
g61
(dp1856
sg70
g1019
sg63
(lp1857
g56
(g77
g58
NtRp1858
(dp1859
g61
(dp1860
g81
g82
ssg70
g1854
sg63
(lp1861
S'wsgi_version'
p1862
asbag56
(g77
g58
NtRp1863
(dp1864
g61
(dp1865
g88
g89
ssg70
g1854
sg63
(lp1866
S':'
asbag56
(g77
g58
NtRp1867
(dp1868
g61
(dp1869
sg70
g1854
sg63
(lp1870
g56
(g57
g58
NtRp1871
(dp1872
g61
(dp1873
g69
I4
ssg70
g1867
sg63
(lp1874
g56
(g65
g58
NtRp1875
(dp1876
g61
(dp1877
g69
I3
ssg70
Nsg63
(lp1878
g56
(g72
g58
NtRp1879
(dp1880
g61
(dp1881
sg70
g1875
sg63
(lp1882
g56
(g77
g58
NtRp1883
(dp1884
g61
(dp1885
sg70
g1879
sg63
(lp1886
g56
(g57
g58
NtRp1887
(dp1888
g61
(dp1889
g69
I3
ssg70
g1883
sg63
(lp1890
S'1'
asbasbasbag56
(g72
g58
NtRp1891
(dp1892
g61
(dp1893
sg70
g1875
sg63
(lp1894
g56
(g77
g58
NtRp1895
(dp1896
g61
(dp1897
sg70
g1891
sg63
(lp1898
g56
(g57
g58
NtRp1899
(dp1900
g61
(dp1901
g69
I3
ssg70
g1895
sg63
(lp1902
S'0'
asbasbasbasbasbasbasbasbasbasbasbag56
(g72
g58
NtRp1903
(dp1904
g61
(dp1905
sg70
g66
sg63
(lp1906
g56
(g77
g58
NtRp1907
(dp1908
g61
(dp1909
g81
g82
ssg70
g1903
sg63
(lp1910
S'extension'
p1911
asbag56
(g77
g58
NtRp1912
(dp1913
g61
(dp1914
g88
g89
ssg70
g1903
sg63
(lp1915
S':'
asbag56
(g77
g58
NtRp1916
(dp1917
g61
(dp1918
sg70
g1903
sg63
(lp1919
g56
(g57
g58
NtRp1920
(dp1921
g61
(dp1922
g69
I5
ssg70
g1916
sg63
(lp1923
S'html'
p1924
asbasbasbag56
(g72
g58
NtRp1925
(dp1926
g61
(dp1927
sg70
g66
sg63
(lp1928
g56
(g77
g58
NtRp1929
(dp1930
g61
(dp1931
g81
g82
ssg70
g1925
sg63
(lp1932
S'folder'
p1933
asbag56
(g77
g58
NtRp1934
(dp1935
g61
(dp1936
g88
g89
ssg70
g1925
sg63
(lp1937
S':'
asbag56
(g77
g58
NtRp1938
(dp1939
g61
(dp1940
sg70
g1925
sg63
(lp1941
g56
(g57
g58
NtRp1942
(dp1943
g61
(dp1944
g69
I5
ssg70
g1938
sg63
(lp1945
S'/Users/hellais/Documents/code/mygit/globaleaks/webapp/applications/init/'
p1946
asbasbasbag56
(g72
g58
NtRp1947
(dp1948
g61
(dp1949
sg70
g66
sg63
(lp1950
g56
(g77
g58
NtRp1951
(dp1952
g61
(dp1953
g81
g82
ssg70
g1947
sg63
(lp1954
S'function'
p1955
asbag56
(g77
g58
NtRp1956
(dp1957
g61
(dp1958
g88
g89
ssg70
g1947
sg63
(lp1959
S':'
asbag56
(g77
g58
NtRp1960
(dp1961
g61
(dp1962
sg70
g1947
sg63
(lp1963
g56
(g57
g58
NtRp1964
(dp1965
g61
(dp1966
g69
I5
ssg70
g1960
sg63
(lp1967
S'tulip'
p1968
asbasbasbag56
(g72
g58
NtRp1969
(dp1970
g61
(dp1971
sg70
g66
sg63
(lp1972
g56
(g77
g58
NtRp1973
(dp1974
g61
(dp1975
g81
g82
ssg70
g1969
sg63
(lp1976
S'get_vars'
p1977
asbag56
(g77
g58
NtRp1978
(dp1979
g61
(dp1980
g88
g89
ssg70
g1969
sg63
(lp1981
S':'
asbag56
(g77
g58
NtRp1982
(dp1983
g61
(dp1984
sg70
g1969
sg63
(lp1985
g56
(g57
g58
NtRp1986
(dp1987
g61
(dp1988
g69
I5
ssg70
g1982
sg63
(lp1989
g56
(g65
g58
NtRp1990
(dp1991
g61
(dp1992
g69
I4
ssg70
Nsg63
(lp1993
sbasbasbasbag56
(g72
g58
NtRp1994
(dp1995
g61
(dp1996
sg70
g66
sg63
(lp1997
g56
(g77
g58
NtRp1998
(dp1999
g61
(dp2000
g81
g82
ssg70
g1994
sg63
(lp2001
S'is_https'
p2002
asbag56
(g77
g58
NtRp2003
(dp2004
g61
(dp2005
g88
g89
ssg70
g1994
sg63
(lp2006
S':'
asbag56
(g77
g58
NtRp2007
(dp2008
g61
(dp2009
sg70
g1994
sg63
(lp2010
g56
(g57
g58
NtRp2011
(dp2012
g61
(dp2013
g69
I5
ssg70
g2007
sg63
(lp2014
g99
asbasbasbag56
(g72
g58
NtRp2015
(dp2016
g61
(dp2017
sg70
g66
sg63
(lp2018
g56
(g77
g58
NtRp2019
(dp2020
g61
(dp2021
g81
g82
ssg70
g2015
sg63
(lp2022
S'is_local'
p2023
asbag56
(g77
g58
NtRp2024
(dp2025
g61
(dp2026
g88
g89
ssg70
g2015
sg63
(lp2027
S':'
asbag56
(g77
g58
NtRp2028
(dp2029
g61
(dp2030
sg70
g2015
sg63
(lp2031
g56
(g57
g58
NtRp2032
(dp2033
g61
(dp2034
g69
I5
ssg70
g2028
sg63
(lp2035
g1810
asbasbasbag56
(g72
g58
NtRp2036
(dp2037
g61
(dp2038
sg70
g66
sg63
(lp2039
g56
(g77
g58
NtRp2040
(dp2041
g61
(dp2042
g81
g82
ssg70
g2036
sg63
(lp2043
S'is_restful'
p2044
asbag56
(g77
g58
NtRp2045
(dp2046
g61
(dp2047
g88
g89
ssg70
g2036
sg63
(lp2048
S':'
asbag56
(g77
g58
NtRp2049
(dp2050
g61
(dp2051
sg70
g2036
sg63
(lp2052
g56
(g57
g58
NtRp2053
(dp2054
g61
(dp2055
g69
I5
ssg70
g2049
sg63
(lp2056
g99
asbasbasbag56
(g72
g58
NtRp2057
(dp2058
g61
(dp2059
sg70
g66
sg63
(lp2060
g56
(g77
g58
NtRp2061
(dp2062
g61
(dp2063
g81
g82
ssg70
g2057
sg63
(lp2064
S'now'
p2065
asbag56
(g77
g58
NtRp2066
(dp2067
g61
(dp2068
g88
g89
ssg70
g2057
sg63
(lp2069
S':'
asbag56
(g77
g58
NtRp2070
(dp2071
g61
(dp2072
sg70
g2057
sg63
(lp2073
g56
(g57
g58
NtRp2074
(dp2075
g61
(dp2076
g69
I5
ssg70
g2070
sg63
(lp2077
S'datetime.datetime(2011, 8, 28, 1, 38, 48, 866127)'
p2078
asbasbasbag56
(g72
g58
NtRp2079
(dp2080
g61
(dp2081
sg70
g66
sg63
(lp2082
g56
(g77
g58
NtRp2083
(dp2084
g61
(dp2085
g81
g82
ssg70
g2079
sg63
(lp2086
S'post_vars'
p2087
asbag56
(g77
g58
NtRp2088
(dp2089
g61
(dp2090
g88
g89
ssg70
g2079
sg63
(lp2091
S':'
asbag56
(g77
g58
NtRp2092
(dp2093
g61
(dp2094
sg70
g2079
sg63
(lp2095
g56
(g57
g58
NtRp2096
(dp2097
g61
(dp2098
g69
I5
ssg70
g2092
sg63
(lp2099
g56
(g65
g58
NtRp2100
(dp2101
g61
(dp2102
g69
I4
ssg70
Nsg63
(lp2103
sbasbasbasbag56
(g72
g58
NtRp2104
(dp2105
g61
(dp2106
sg70
g66
sg63
(lp2107
g56
(g77
g58
NtRp2108
(dp2109
g61
(dp2110
g81
g82
ssg70
g2104
sg63
(lp2111
S'raw_args'
p2112
asbag56
(g77
g58
NtRp2113
(dp2114
g61
(dp2115
g88
g89
ssg70
g2104
sg63
(lp2116
S':'
asbag56
(g77
g58
NtRp2117
(dp2118
g61
(dp2119
sg70
g2104
sg63
(lp2120
g56
(g57
g58
NtRp2121
(dp2122
g61
(dp2123
g69
I5
ssg70
g2117
sg63
(lp2124
g158
asbasbasbag56
(g72
g58
NtRp2125
(dp2126
g61
(dp2127
sg70
g66
sg63
(lp2128
g56
(g77
g58
NtRp2129
(dp2130
g61
(dp2131
g81
g82
ssg70
g2125
sg63
(lp2132
S'url'
p2133
asbag56
(g77
g58
NtRp2134
(dp2135
g61
(dp2136
g88
g89
ssg70
g2125
sg63
(lp2137
S':'
asbag56
(g77
g58
NtRp2138
(dp2139
g61
(dp2140
sg70
g2125
sg63
(lp2141
g56
(g57
g58
NtRp2142
(dp2143
g61
(dp2144
g69
I5
ssg70
g2138
sg63
(lp2145
S'/init/default/tulip/0f05e204af4d1ffabf462df37c8c606a3240f45a2e2fcb3bef41ea5b823b55d0'
p2146
asbasbasbag56
(g72
g58
NtRp2147
(dp2148
g61
(dp2149
sg70
g66
sg63
(lp2150
g56
(g77
g58
NtRp2151
(dp2152
g61
(dp2153
g81
g82
ssg70
g2147
sg63
(lp2154
S'uuid'
p2155
asbag56
(g77
g58
NtRp2156
(dp2157
g61
(dp2158
g88
g89
ssg70
g2147
sg63
(lp2159
S':'
asbag56
(g77
g58
NtRp2160
(dp2161
g61
(dp2162
sg70
g2147
sg63
(lp2163
g56
(g57
g58
NtRp2164
(dp2165
g61
(dp2166
g69
I5
ssg70
g2160
sg63
(lp2167
S'init/127.0.0.1.2011-08-28.01-38-48.4066ea28-cfbe-4716-85b8-14dbb37e2c60'
p2168
asbasbasbag56
(g72
g58
NtRp2169
(dp2170
g61
(dp2171
sg70
g66
sg63
(lp2172
g56
(g77
g58
NtRp2173
(dp2174
g61
(dp2175
g81
g82
ssg70
g2169
sg63
(lp2176
S'vars'
p2177
asbag56
(g77
g58
NtRp2178
(dp2179
g61
(dp2180
g88
g89
ssg70
g2169
sg63
(lp2181
S':'
asbag56
(g77
g58
NtRp2182
(dp2183
g61
(dp2184
sg70
g2169
sg63
(lp2185
g56
(g57
g58
NtRp2186
(dp2187
g61
(dp2188
g69
I5
ssg70
g2182
sg63
(lp2189
g56
(g65
g58
NtRp2190
(dp2191
g61
(dp2192
g69
I4
ssg70
Nsg63
(lp2193
sbasbasbasbag56
(g72
g58
NtRp2194
(dp2195
g61
(dp2196
sg70
g66
sg63
(lp2197
g56
(g77
g58
NtRp2198
(dp2199
g61
(dp2200
g81
g82
ssg70
g2194
sg63
(lp2201
S'wsgi'
p2202
asbag56
(g77
g58
NtRp2203
(dp2204
g61
(dp2205
g88
g89
ssg70
g2194
sg63
(lp2206
S':'
asbag56
(g77
g58
NtRp2207
(dp2208
g61
(dp2209
sg70
g2194
sg63
(lp2210
g56
(g57
g58
NtRp2211
(dp2212
g61
(dp2213
g69
I5
ssg70
g2207
sg63
(lp2214
g56
(g65
g58
NtRp2215
(dp2216
g61
(dp2217
g69
I4
ssg70
Nsg63
(lp2218
g56
(g72
g58
NtRp2219
(dp2220
g61
(dp2221
sg70
g2215
sg63
(lp2222
g56
(g77
g58
NtRp2223
(dp2224
g61
(dp2225
g81
g82
ssg70
g2219
sg63
(lp2226
S'environ'
p2227
asbag56
(g77
g58
NtRp2228
(dp2229
g61
(dp2230
g88
g89
ssg70
g2219
sg63
(lp2231
S':'
asbag56
(g77
g58
NtRp2232
(dp2233
g61
(dp2234
sg70
g2219
sg63
(lp2235
g56
(g57
g58
NtRp2236
(dp2237
g61
(dp2238
g69
I4
ssg70
g2232
sg63
(lp2239
g56
(g65
g58
NtRp2240
(dp2241
g61
(dp2242
g69
I3
ssg70
Nsg63
(lp2243
g56
(g72
g58
NtRp2244
(dp2245
g61
(dp2246
sg70
g2240
sg63
(lp2247
g56
(g77
g58
NtRp2248
(dp2249
g61
(dp2250
g81
g82
ssg70
g2244
sg63
(lp2251
S'HTTP_ACCEPT'
p2252
asbag56
(g77
g58
NtRp2253
(dp2254
g61
(dp2255
g88
g89
ssg70
g2244
sg63
(lp2256
S':'
asbag56
(g77
g58
NtRp2257
(dp2258
g61
(dp2259
sg70
g2244
sg63
(lp2260
g56
(g57
g58
NtRp2261
(dp2262
g61
(dp2263
g69
I3
ssg70
g2257
sg63
(lp2264
g1200
asbasbasbag56
(g72
g58
NtRp2265
(dp2266
g61
(dp2267
sg70
g2240
sg63
(lp2268
g56
(g77
g58
NtRp2269
(dp2270
g61
(dp2271
g81
g82
ssg70
g2265
sg63
(lp2272
S'HTTP_ACCEPT_CHARSET'
p2273
asbag56
(g77
g58
NtRp2274
(dp2275
g61
(dp2276
g88
g89
ssg70
g2265
sg63
(lp2277
S':'
asbag56
(g77
g58
NtRp2278
(dp2279
g61
(dp2280
sg70
g2265
sg63
(lp2281
g56
(g57
g58
NtRp2282
(dp2283
g61
(dp2284
g69
I3
ssg70
g2278
sg63
(lp2285
g1222
asbasbasbag56
(g72
g58
NtRp2286
(dp2287
g61
(dp2288
sg70
g2240
sg63
(lp2289
g56
(g77
g58
NtRp2290
(dp2291
g61
(dp2292
g81
g82
ssg70
g2286
sg63
(lp2293
S'HTTP_ACCEPT_ENCODING'
p2294
asbag56
(g77
g58
NtRp2295
(dp2296
g61
(dp2297
g88
g89
ssg70
g2286
sg63
(lp2298
S':'
asbag56
(g77
g58
NtRp2299
(dp2300
g61
(dp2301
sg70
g2286
sg63
(lp2302
g56
(g57
g58
NtRp2303
(dp2304
g61
(dp2305
g69
I3
ssg70
g2299
sg63
(lp2306
g1244
asbasbasbag56
(g72
g58
NtRp2307
(dp2308
g61
(dp2309
sg70
g2240
sg63
(lp2310
g56
(g77
g58
NtRp2311
(dp2312
g61
(dp2313
g81
g82
ssg70
g2307
sg63
(lp2314
S'HTTP_ACCEPT_LANGUAGE'
p2315
asbag56
(g77
g58
NtRp2316
(dp2317
g61
(dp2318
g88
g89
ssg70
g2307
sg63
(lp2319
S':'
asbag56
(g77
g58
NtRp2320
(dp2321
g61
(dp2322
sg70
g2307
sg63
(lp2323
g56
(g57
g58
NtRp2324
(dp2325
g61
(dp2326
g69
I3
ssg70
g2320
sg63
(lp2327
g1266
asbasbasbag56
(g72
g58
NtRp2328
(dp2329
g61
(dp2330
sg70
g2240
sg63
(lp2331
g56
(g77
g58
NtRp2332
(dp2333
g61
(dp2334
g81
g82
ssg70
g2328
sg63
(lp2335
S'HTTP_CACHE_CONTROL'
p2336
asbag56
(g77
g58
NtRp2337
(dp2338
g61
(dp2339
g88
g89
ssg70
g2328
sg63
(lp2340
S':'
asbag56
(g77
g58
NtRp2341
(dp2342
g61
(dp2343
sg70
g2328
sg63
(lp2344
g56
(g57
g58
NtRp2345
(dp2346
g61
(dp2347
g69
I3
ssg70
g2341
sg63
(lp2348
g1288
asbasbasbag56
(g72
g58
NtRp2349
(dp2350
g61
(dp2351
sg70
g2240
sg63
(lp2352
g56
(g77
g58
NtRp2353
(dp2354
g61
(dp2355
g81
g82
ssg70
g2349
sg63
(lp2356
S'HTTP_CONNECTION'
p2357
asbag56
(g77
g58
NtRp2358
(dp2359
g61
(dp2360
g88
g89
ssg70
g2349
sg63
(lp2361
S':'
asbag56
(g77
g58
NtRp2362
(dp2363
g61
(dp2364
sg70
g2349
sg63
(lp2365
g56
(g57
g58
NtRp2366
(dp2367
g61
(dp2368
g69
I3
ssg70
g2362
sg63
(lp2369
g1310
asbasbasbag56
(g72
g58
NtRp2370
(dp2371
g61
(dp2372
sg70
g2240
sg63
(lp2373
g56
(g77
g58
NtRp2374
(dp2375
g61
(dp2376
g81
g82
ssg70
g2370
sg63
(lp2377
S'HTTP_COOKIE'
p2378
asbag56
(g77
g58
NtRp2379
(dp2380
g61
(dp2381
g88
g89
ssg70
g2370
sg63
(lp2382
S':'
asbag56
(g77
g58
NtRp2383
(dp2384
g61
(dp2385
sg70
g2370
sg63
(lp2386
g56
(g57
g58
NtRp2387
(dp2388
g61
(dp2389
g69
I3
ssg70
g2383
sg63
(lp2390
g1332
asbasbasbag56
(g72
g58
NtRp2391
(dp2392
g61
(dp2393
sg70
g2240
sg63
(lp2394
g56
(g77
g58
NtRp2395
(dp2396
g61
(dp2397
g81
g82
ssg70
g2391
sg63
(lp2398
S'HTTP_HOST'
p2399
asbag56
(g77
g58
NtRp2400
(dp2401
g61
(dp2402
g88
g89
ssg70
g2391
sg63
(lp2403
S':'
asbag56
(g77
g58
NtRp2404
(dp2405
g61
(dp2406
sg70
g2391
sg63
(lp2407
g56
(g57
g58
NtRp2408
(dp2409
g61
(dp2410
g69
I3
ssg70
g2404
sg63
(lp2411
g1354
asbasbasbag56
(g72
g58
NtRp2412
(dp2413
g61
(dp2414
sg70
g2240
sg63
(lp2415
g56
(g77
g58
NtRp2416
(dp2417
g61
(dp2418
g81
g82
ssg70
g2412
sg63
(lp2419
S'HTTP_REFERER'
p2420
asbag56
(g77
g58
NtRp2421
(dp2422
g61
(dp2423
g88
g89
ssg70
g2412
sg63
(lp2424
S':'
asbag56
(g77
g58
NtRp2425
(dp2426
g61
(dp2427
sg70
g2412
sg63
(lp2428
g56
(g57
g58
NtRp2429
(dp2430
g61
(dp2431
g69
I3
ssg70
g2425
sg63
(lp2432
g1376
asbasbasbag56
(g72
g58
NtRp2433
(dp2434
g61
(dp2435
sg70
g2240
sg63
(lp2436
g56
(g77
g58
NtRp2437
(dp2438
g61
(dp2439
g81
g82
ssg70
g2433
sg63
(lp2440
S'HTTP_USER_AGENT'
p2441
asbag56
(g77
g58
NtRp2442
(dp2443
g61
(dp2444
g88
g89
ssg70
g2433
sg63
(lp2445
S':'
asbag56
(g77
g58
NtRp2446
(dp2447
g61
(dp2448
sg70
g2433
sg63
(lp2449
g56
(g57
g58
NtRp2450
(dp2451
g61
(dp2452
g69
I3
ssg70
g2446
sg63
(lp2453
g1398
asbasbasbag56
(g72
g58
NtRp2454
(dp2455
g61
(dp2456
sg70
g2240
sg63
(lp2457
g56
(g77
g58
NtRp2458
(dp2459
g61
(dp2460
g81
g82
ssg70
g2454
sg63
(lp2461
S'PATH_INFO'
p2462
asbag56
(g77
g58
NtRp2463
(dp2464
g61
(dp2465
g88
g89
ssg70
g2454
sg63
(lp2466
S':'
asbag56
(g77
g58
NtRp2467
(dp2468
g61
(dp2469
sg70
g2454
sg63
(lp2470
g56
(g57
g58
NtRp2471
(dp2472
g61
(dp2473
g69
I3
ssg70
g2467
sg63
(lp2474
g1441
asbasbasbag56
(g72
g58
NtRp2475
(dp2476
g61
(dp2477
sg70
g2240
sg63
(lp2478
g56
(g77
g58
NtRp2479
(dp2480
g61
(dp2481
g81
g82
ssg70
g2475
sg63
(lp2482
S'QUERY_STRING'
p2483
asbag56
(g77
g58
NtRp2484
(dp2485
g61
(dp2486
g88
g89
ssg70
g2475
sg63
(lp2487
S':'
asbag56
(g77
g58
NtRp2488
(dp2489
g61
(dp2490
sg70
g2475
sg63
(lp2491
g56
(g57
g58
NtRp2492
(dp2493
g61
(dp2494
g69
I3
ssg70
g2488
sg63
(lp2495
S''
asbasbasbag56
(g72
g58
NtRp2496
(dp2497
g61
(dp2498
sg70
g2240
sg63
(lp2499
g56
(g77
g58
NtRp2500
(dp2501
g61
(dp2502
g81
g82
ssg70
g2496
sg63
(lp2503
S'REMOTE_ADDR'
p2504
asbag56
(g77
g58
NtRp2505
(dp2506
g61
(dp2507
g88
g89
ssg70
g2496
sg63
(lp2508
S':'
asbag56
(g77
g58
NtRp2509
(dp2510
g61
(dp2511
sg70
g2496
sg63
(lp2512
g56
(g57
g58
NtRp2513
(dp2514
g61
(dp2515
g69
I3
ssg70
g2509
sg63
(lp2516
g202
asbasbasbag56
(g72
g58
NtRp2517
(dp2518
g61
(dp2519
sg70
g2240
sg63
(lp2520
g56
(g77
g58
NtRp2521
(dp2522
g61
(dp2523
g81
g82
ssg70
g2517
sg63
(lp2524
S'REMOTE_PORT'
p2525
asbag56
(g77
g58
NtRp2526
(dp2527
g61
(dp2528
g88
g89
ssg70
g2517
sg63
(lp2529
S':'
asbag56
(g77
g58
NtRp2530
(dp2531
g61
(dp2532
sg70
g2517
sg63
(lp2533
g56
(g57
g58
NtRp2534
(dp2535
g61
(dp2536
g69
I3
ssg70
g2530
sg63
(lp2537
g1505
asbasbasbag56
(g72
g58
NtRp2538
(dp2539
g61
(dp2540
sg70
g2240
sg63
(lp2541
g56
(g77
g58
NtRp2542
(dp2543
g61
(dp2544
g81
g82
ssg70
g2538
sg63
(lp2545
S'REQUEST_METHOD'
p2546
asbag56
(g77
g58
NtRp2547
(dp2548
g61
(dp2549
g88
g89
ssg70
g2538
sg63
(lp2550
S':'
asbag56
(g77
g58
NtRp2551
(dp2552
g61
(dp2553
sg70
g2538
sg63
(lp2554
g56
(g57
g58
NtRp2555
(dp2556
g61
(dp2557
g69
I3
ssg70
g2551
sg63
(lp2558
g1527
asbasbasbag56
(g72
g58
NtRp2559
(dp2560
g61
(dp2561
sg70
g2240
sg63
(lp2562
g56
(g77
g58
NtRp2563
(dp2564
g61
(dp2565
g81
g82
ssg70
g2559
sg63
(lp2566
S'SCRIPT_NAME'
p2567
asbag56
(g77
g58
NtRp2568
(dp2569
g61
(dp2570
g88
g89
ssg70
g2559
sg63
(lp2571
S':'
asbag56
(g77
g58
NtRp2572
(dp2573
g61
(dp2574
sg70
g2559
sg63
(lp2575
g56
(g57
g58
NtRp2576
(dp2577
g61
(dp2578
g69
I3
ssg70
g2572
sg63
(lp2579
S''
asbasbasbag56
(g72
g58
NtRp2580
(dp2581
g61
(dp2582
sg70
g2240
sg63
(lp2583
g56
(g77
g58
NtRp2584
(dp2585
g61
(dp2586
g81
g82
ssg70
g2580
sg63
(lp2587
S'SERVER_NAME'
p2588
asbag56
(g77
g58
NtRp2589
(dp2590
g61
(dp2591
g88
g89
ssg70
g2580
sg63
(lp2592
S':'
asbag56
(g77
g58
NtRp2593
(dp2594
g61
(dp2595
sg70
g2580
sg63
(lp2596
g56
(g57
g58
NtRp2597
(dp2598
g61
(dp2599
g69
I3
ssg70
g2593
sg63
(lp2600
g1570
asbasbasbag56
(g72
g58
NtRp2601
(dp2602
g61
(dp2603
sg70
g2240
sg63
(lp2604
g56
(g77
g58
NtRp2605
(dp2606
g61
(dp2607
g81
g82
ssg70
g2601
sg63
(lp2608
S'SERVER_PORT'
p2609
asbag56
(g77
g58
NtRp2610
(dp2611
g61
(dp2612
g88
g89
ssg70
g2601
sg63
(lp2613
S':'
asbag56
(g77
g58
NtRp2614
(dp2615
g61
(dp2616
sg70
g2601
sg63
(lp2617
g56
(g57
g58
NtRp2618
(dp2619
g61
(dp2620
g69
I3
ssg70
g2614
sg63
(lp2621
g1592
asbasbasbag56
(g72
g58
NtRp2622
(dp2623
g61
(dp2624
sg70
g2240
sg63
(lp2625
g56
(g77
g58
NtRp2626
(dp2627
g61
(dp2628
g81
g82
ssg70
g2622
sg63
(lp2629
S'SERVER_PROTOCOL'
p2630
asbag56
(g77
g58
NtRp2631
(dp2632
g61
(dp2633
g88
g89
ssg70
g2622
sg63
(lp2634
S':'
asbag56
(g77
g58
NtRp2635
(dp2636
g61
(dp2637
sg70
g2622
sg63
(lp2638
g56
(g57
g58
NtRp2639
(dp2640
g61
(dp2641
g69
I3
ssg70
g2635
sg63
(lp2642
g1614
asbasbasbag56
(g72
g58
NtRp2643
(dp2644
g61
(dp2645
sg70
g2240
sg63
(lp2646
g56
(g77
g58
NtRp2647
(dp2648
g61
(dp2649
g81
g82
ssg70
g2643
sg63
(lp2650
S'SERVER_SOFTWARE'
p2651
asbag56
(g77
g58
NtRp2652
(dp2653
g61
(dp2654
g88
g89
ssg70
g2643
sg63
(lp2655
S':'
asbag56
(g77
g58
NtRp2656
(dp2657
g61
(dp2658
sg70
g2643
sg63
(lp2659
g56
(g57
g58
NtRp2660
(dp2661
g61
(dp2662
g69
I3
ssg70
g2656
sg63
(lp2663
g1636
asbasbasbag56
(g72
g58
NtRp2664
(dp2665
g61
(dp2666
sg70
g2240
sg63
(lp2667
g56
(g77
g58
NtRp2668
(dp2669
g61
(dp2670
g81
g82
ssg70
g2664
sg63
(lp2671
S'wsgi.errors'
p2672
asbag56
(g77
g58
NtRp2673
(dp2674
g61
(dp2675
g88
g89
ssg70
g2664
sg63
(lp2676
S':'
asbag56
(g77
g58
NtRp2677
(dp2678
g61
(dp2679
sg70
g2664
sg63
(lp2680
g56
(g57
g58
NtRp2681
(dp2682
g61
(dp2683
g69
I3
ssg70
g2677
sg63
(lp2684
S"<open file '<stderr>', mode 'w' at 0x100287270>"
p2685
asbasbasbag56
(g72
g58
NtRp2686
(dp2687
g61
(dp2688
sg70
g2240
sg63
(lp2689
g56
(g77
g58
NtRp2690
(dp2691
g61
(dp2692
g81
g82
ssg70
g2686
sg63
(lp2693
S'wsgi.file_wrapper'
p2694
asbag56
(g77
g58
NtRp2695
(dp2696
g61
(dp2697
g88
g89
ssg70
g2686
sg63
(lp2698
S':'
asbag56
(g77
g58
NtRp2699
(dp2700
g61
(dp2701
sg70
g2686
sg63
(lp2702
g56
(g57
g58
NtRp2703
(dp2704
g61
(dp2705
g69
I3
ssg70
g2699
sg63
(lp2706
S'<class gluon.rocket.FileWrapper at 0x101668e20>'
p2707
asbasbasbag56
(g72
g58
NtRp2708
(dp2709
g61
(dp2710
sg70
g2240
sg63
(lp2711
g56
(g77
g58
NtRp2712
(dp2713
g61
(dp2714
g81
g82
ssg70
g2708
sg63
(lp2715
S'wsgi.input'
p2716
asbag56
(g77
g58
NtRp2717
(dp2718
g61
(dp2719
g88
g89
ssg70
g2708
sg63
(lp2720
S':'
asbag56
(g77
g58
NtRp2721
(dp2722
g61
(dp2723
sg70
g2708
sg63
(lp2724
g56
(g57
g58
NtRp2725
(dp2726
g61
(dp2727
g69
I3
ssg70
g2721
sg63
(lp2728
S'<cStringIO.StringO object at 0x10192b180>'
p2729
asbasbasbag56
(g72
g58
NtRp2730
(dp2731
g61
(dp2732
sg70
g2240
sg63
(lp2733
g56
(g77
g58
NtRp2734
(dp2735
g61
(dp2736
g81
g82
ssg70
g2730
sg63
(lp2737
S'wsgi.multiprocess'
p2738
asbag56
(g77
g58
NtRp2739
(dp2740
g61
(dp2741
g88
g89
ssg70
g2730
sg63
(lp2742
S':'
asbag56
(g77
g58
NtRp2743
(dp2744
g61
(dp2745
sg70
g2730
sg63
(lp2746
g56
(g57
g58
NtRp2747
(dp2748
g61
(dp2749
g69
I3
ssg70
g2743
sg63
(lp2750
g99
asbasbasbag56
(g72
g58
NtRp2751
(dp2752
g61
(dp2753
sg70
g2240
sg63
(lp2754
g56
(g77
g58
NtRp2755
(dp2756
g61
(dp2757
g81
g82
ssg70
g2751
sg63
(lp2758
S'wsgi.multithread'
p2759
asbag56
(g77
g58
NtRp2760
(dp2761
g61
(dp2762
g88
g89
ssg70
g2751
sg63
(lp2763
S':'
asbag56
(g77
g58
NtRp2764
(dp2765
g61
(dp2766
sg70
g2751
sg63
(lp2767
g56
(g57
g58
NtRp2768
(dp2769
g61
(dp2770
g69
I3
ssg70
g2764
sg63
(lp2771
g1810
asbasbasbag56
(g72
g58
NtRp2772
(dp2773
g61
(dp2774
sg70
g2240
sg63
(lp2775
g56
(g77
g58
NtRp2776
(dp2777
g61
(dp2778
g81
g82
ssg70
g2772
sg63
(lp2779
S'wsgi.run_once'
p2780
asbag56
(g77
g58
NtRp2781
(dp2782
g61
(dp2783
g88
g89
ssg70
g2772
sg63
(lp2784
S':'
asbag56
(g77
g58
NtRp2785
(dp2786
g61
(dp2787
sg70
g2772
sg63
(lp2788
g56
(g57
g58
NtRp2789
(dp2790
g61
(dp2791
g69
I3
ssg70
g2785
sg63
(lp2792
g99
asbasbasbag56
(g72
g58
NtRp2793
(dp2794
g61
(dp2795
sg70
g2240
sg63
(lp2796
g56
(g77
g58
NtRp2797
(dp2798
g61
(dp2799
g81
g82
ssg70
g2793
sg63
(lp2800
S'wsgi.url_scheme'
p2801
asbag56
(g77
g58
NtRp2802
(dp2803
g61
(dp2804
g88
g89
ssg70
g2793
sg63
(lp2805
S':'
asbag56
(g77
g58
NtRp2806
(dp2807
g61
(dp2808
sg70
g2793
sg63
(lp2809
g56
(g57
g58
NtRp2810
(dp2811
g61
(dp2812
g69
I3
ssg70
g2806
sg63
(lp2813
g1853
asbasbasbag56
(g72
g58
NtRp2814
(dp2815
g61
(dp2816
sg70
g2240
sg63
(lp2817
g56
(g77
g58
NtRp2818
(dp2819
g61
(dp2820
g81
g82
ssg70
g2814
sg63
(lp2821
S'wsgi.version'
p2822
asbag56
(g77
g58
NtRp2823
(dp2824
g61
(dp2825
g88
g89
ssg70
g2814
sg63
(lp2826
S':'
asbag56
(g77
g58
NtRp2827
(dp2828
g61
(dp2829
sg70
g2814
sg63
(lp2830
g56
(g57
g58
NtRp2831
(dp2832
g61
(dp2833
g69
I3
ssg70
g2827
sg63
(lp2834
S'1'
asbasbasbasbasbasbasbasbasbasbasbasbasbsS'frames'
p2835
(lp2836
(dp2837
S'file'
p2838
S'/opt/local/Library/Frameworks/Python.framework/Versions/2.7/lib/python2.7/gluon/restricted.py'
p2839
sS'dump'
p2840
(dp2841
S'environment'
p2842
S"{'A': <class 'gluon.html.A'>, 'Auth': <class 'gluon.tools.Auth'>, 'B': <class 'gluon.html.B'>, 'BEAUTIFY': <class 'gluon.html.BEAUTIFY'>, 'BODY': <class 'gluon.html.BODY'>, 'BR': <class 'gluon.html.BR'>, 'BUTTON': <class 'gluon.html.BUTTON'>, 'CAT': <class 'gluon.html.CAT'>, 'CENTER': <class 'gluon.html.CENTER'>, 'CLEANUP': <class 'gluon.validators.CLEANUP'>, ...}"
p2843
sS'ccode'
p2844
S'<code object <module> at 0x10198a2b0, file "/Use...lications/init/views/default/tulip.html", line 1>'
p2845
ssS'lnum'
p2846
I192
sS'lines'
p2847
(dp2848
I192
S'        exec ccode in environment'
p2849
sI193
S'    except HTTP:'
p2850
sI194
S'        raise'
p2851
sI195
S'    except Exception, error:'
p2852
sI196
S'        # XXX Show exception in Wing IDE if running in debugger'
p2853
sI187
S'    try:'
p2854
sI188
S'        if type(code) == types.CodeType:'
p2855
sI189
S'            ccode = code'
p2856
sI190
S'        else:'
p2857
sI191
S'            ccode = compile2(code,layer)'
p2858
ssS'call'
p2859
S'(code=\'response.write(\\\'<!DOCTYPE html>\\\\n<html lang="\\\', ...    -->    \\\\n  </body>\\\\n</html>\\\\n\\\', escape=False)\', environment={\'A\': <class \'gluon.html.A\'>, \'Auth\': <class \'gluon.tools.Auth\'>, \'B\': <class \'gluon.html.B\'>, \'BEAUTIFY\': <class \'gluon.html.BEAUTIFY\'>, \'BODY\': <class \'gluon.html.BODY\'>, \'BR\': <class \'gluon.html.BR\'>, \'BUTTON\': <class \'gluon.html.BUTTON\'>, \'CAT\': <class \'gluon.html.CAT\'>, \'CENTER\': <class \'gluon.html.CENTER\'>, \'CLEANUP\': <class \'gluon.validators.CLEANUP\'>, ...}, layer=\'/Users/hellais/Documents/code/mygit/globaleaks/webapp/applications/init/views/default/tulip.html\')'
p2860
sS'func'
p2861
S'restricted'
p2862
sa(dp2863
g2838
S'/Users/hellais/Documents/code/mygit/globaleaks/webapp/applications/init/views/default/tulip.html'
p2864
sg2840
(dp2865
sg2846
I103
sg2847
(dp2866
I96
S'    pass'
p2867
sI97
S'response.write(\'\\n\\n      <!-- content -->\\n      <div id="content" \', escape=False)'
p2868
sI98
S'response.write(XML(style_content))'
p2869
sI99
S"response.write(' >\\n        ', escape=False)"
p2870
sI100
S"response.write('\\n', escape=False)"
p2871
sI101
S'response.write(request.args)'
p2872
sI102
S"response.write('\\n<h1>This is the default/tulip.html template</h1>\\n', escape=False)"
p2873
sI103
S'response.write(BEAUTIFY(response._vars))'
p2874
sI104
S"response.write('\\n', escape=False)"
p2875
sI105
S"response.write(' \\n      </div>\\n      <!-- content -->\\n\\n      ', escape=False)"
p2876
sI106
S'if right_sidebar_enabled:'
p2877
sI107
S'    response.write(\'\\n          <div id="right_sidebar" \', escape=False)'
p2878
sI108
S'    response.write(XML(right_sidebar_style))'
p2879
sI109
S'    response.write(\' >\\n            <div style="padding: 4px;">\\n              \', escape=False)'
p2880
sI110
S"    response.write('Content Right Sidebar', escape=False)"
p2881
sI111
S"    response.write('\\n            </div>\\n      </div><!-- right_sidebar -->\\n          ', escape=False)"
p2882
sI112
S'    pass'
p2883
sI113
S'response.write(\'\\n\\n\\n      <div style="clear: both;"></div><!-- Clear the divs -->\\n      \\n    </div><!-- page -->                         \\n    \\n    <div id="footer">\\n      \', escape=False)'
p2884
sI94
S"    response.write('Content Left Sidebar', escape=False)"
p2885
sI95
S"    response.write('       \\n            </div>\\n          </div><!-- left_sidebar -->\\n      ', escape=False)"
p2886
ssg2859
S'()'
p2887
sg2861
S'<module>'
p2888
sa(dp2889
g2838
S'/opt/local/Library/Frameworks/Python.framework/Versions/2.7/lib/python2.7/gluon/globals.py'
p2890
sg2840
(dp2891
S'self.body.write'
p2892
S'<built-in method write of cStringIO.StringO object>'
p2893
sS'self.body'
p2894
S'<cStringIO.StringO object>'
p2895
sS'self'
p2896
S"<Storage {'body': <cStringIO.StringO object at 0...> at 0x10374a668>, 'view': 'default/tulip.html'}>"
p2897
sS'global xmlescape'
p2898
S'<function xmlescape>'
p2899
sS'data'
p2900
S'<gluon.html.BEAUTIFY object>'
p2901
ssg2846
I154
sg2847
(dp2902
I149
S''
sI150
S'    def write(self, data, escape=True):'
p2903
sI151
S'        if not escape:'
p2904
sI152
S'            self.body.write(str(data))'
p2905
sI153
S'        else:'
p2906
sI154
S'            self.body.write(xmlescape(data))'
p2907
sI155
S''
sI156
S'    def render(self, *a, **b):'
p2908
sI157
S'        from compileapp import run_view_in'
p2909
sI158
S'        if len(a) > 2:'
p2910
ssg2859
S"(self=<Storage {'body': <cStringIO.StringO object at 0...> at 0x10374a668>, 'view': 'default/tulip.html'}>, data=<gluon.html.BEAUTIFY object>, escape=True)"
p2911
sg2861
S'write'
p2912
sa(dp2913
g2838
S'/opt/local/Library/Frameworks/Python.framework/Versions/2.7/lib/python2.7/gluon/html.py'
p2914
sg2840
(dp2915
S'data'
p2916
S'<gluon.html.BEAUTIFY object>'
p2917
sS'data.xml'
p2918
S'<bound method BEAUTIFY.xml of <gluon.html.BEAUTIFY object>>'
p2919
ssg2846
I115
sg2847
(dp2920
I110
S'    :param quote: optional (default False)'
p2921
sI111
S'    """'
p2922
sI112
S''
sI113
S'    # first try the xml function'
p2923
sI114
S"    if hasattr(data,'xml') and callable(data.xml):"
p2924
sI115
S'        return data.xml()'
p2925
sI116
S''
sI117
S'    # otherwise, make it a string'
p2926
sI118
S'    if not isinstance(data, (str, unicode)):'
p2927
sI119
S'        data = str(data)'
p2928
ssg2859
S'(data=<gluon.html.BEAUTIFY object>, quote=True)'
p2929
sg2861
S'xmlescape'
p2930
sa(dp2931
g2838
S'/opt/local/Library/Frameworks/Python.framework/Versions/2.7/lib/python2.7/gluon/html.py'
p2932
sg2840
(dp2933
S'fa'
p2934
S'undefined'
p2935
sS'self'
p2936
S'<gluon.html.BEAUTIFY object>'
p2937
sS'co'
p2938
g2935
sS'self._xml'
p2939
S'<bound method BEAUTIFY._xml of <gluon.html.BEAUTIFY object>>'
p2940
ssg2846
I793
sg2847
(dp2941
I788
S'    def xml(self):'
p2942
sI789
S'        """'
p2943
sI790
S'        generates the xml for this component.'
p2944
sI791
S'        """'
p2945
sI792
S''
sI793
S'        (fa, co) = self._xml()'
p2946
sI794
S''
sI795
S'        if not self.tag:'
p2947
sI796
S'            return co'
p2948
sI797
S''
ssg2859
S'(self=<gluon.html.BEAUTIFY object>)'
p2949
sg2861
S'xml'
p2950
sa(dp2951
g2838
S'/opt/local/Library/Frameworks/Python.framework/Versions/2.7/lib/python2.7/gluon/html.py'
p2952
sg2840
(dp2953
S'self'
p2954
S'<gluon.html.BEAUTIFY object>'
p2955
sS'self.components'
p2956
S'[<gluon.html.TABLE object>]'
p2957
ssg2846
I784
sg2847
(dp2958
I779
S'                continue'
p2959
sI780
S'            fa += \' %s="%s"\' % (name, xmlescape(value, True))'
p2960
sI781
S''
sI782
S'        # get the xml for the inner components'
p2961
sI783
S'        co = join([xmlescape(component) for component in'
p2962
sI784
S'                     self.components])'
p2963
sI785
S''
sI786
S'        return (fa, co)'
p2964
sI787
S''
sI788
S'    def xml(self):'
p2965
ssg2859
S'(self=<gluon.html.BEAUTIFY object>)'
p2966
sg2861
S'_xml'
p2967
sa(dp2968
g2838
S'/opt/local/Library/Frameworks/Python.framework/Versions/2.7/lib/python2.7/gluon/html.py'
p2969
sg2840
(dp2970
S'data'
p2971
S'<gluon.html.TABLE object>'
p2972
sS'data.xml'
p2973
S'<bound method TABLE.xml of <gluon.html.TABLE object>>'
p2974
ssg2846
I115
sg2847
(dp2975
I110
S'    :param quote: optional (default False)'
p2976
sI111
S'    """'
p2977
sI112
S''
sI113
S'    # first try the xml function'
p2978
sI114
S"    if hasattr(data,'xml') and callable(data.xml):"
p2979
sI115
S'        return data.xml()'
p2980
sI116
S''
sI117
S'    # otherwise, make it a string'
p2981
sI118
S'    if not isinstance(data, (str, unicode)):'
p2982
sI119
S'        data = str(data)'
p2983
ssg2859
S'(data=<gluon.html.TABLE object>, quote=True)'
p2984
sg2861
g2930
sa(dp2985
g2838
S'/opt/local/Library/Frameworks/Python.framework/Versions/2.7/lib/python2.7/gluon/html.py'
p2986
sg2840
(dp2987
S'fa'
p2988
g2935
sS'self'
p2989
S'<gluon.html.TABLE object>'
p2990
sS'co'
p2991
g2935
sS'self._xml'
p2992
S'<bound method TABLE._xml of <gluon.html.TABLE object>>'
p2993
ssg2846
I793
sg2847
(dp2994
I788
S'    def xml(self):'
p2995
sI789
S'        """'
p2996
sI790
S'        generates the xml for this component.'
p2997
sI791
S'        """'
p2998
sI792
S''
sI793
S'        (fa, co) = self._xml()'
p2999
sI794
S''
sI795
S'        if not self.tag:'
p3000
sI796
S'            return co'
p3001
sI797
S''
ssg2859
S'(self=<gluon.html.TABLE object>)'
p3002
sg2861
g2950
sa(dp3003
g2838
S'/opt/local/Library/Frameworks/Python.framework/Versions/2.7/lib/python2.7/gluon/html.py'
p3004
sg2840
(dp3005
S'self'
p3006
S'<gluon.html.TABLE object>'
p3007
sS'self.components'
p3008
S'[<gluon.html.TR object>]'
p3009
ssg2846
I784
sg2847
(dp3010
I779
S'                continue'
p3011
sI780
S'            fa += \' %s="%s"\' % (name, xmlescape(value, True))'
p3012
sI781
S''
sI782
S'        # get the xml for the inner components'
p3013
sI783
S'        co = join([xmlescape(component) for component in'
p3014
sI784
S'                     self.components])'
p3015
sI785
S''
sI786
S'        return (fa, co)'
p3016
sI787
S''
sI788
S'    def xml(self):'
p3017
ssg2859
S'(self=<gluon.html.TABLE object>)'
p3018
sg2861
g2967
sa(dp3019
g2838
S'/opt/local/Library/Frameworks/Python.framework/Versions/2.7/lib/python2.7/gluon/html.py'
p3020
sg2840
(dp3021
S'data'
p3022
S'<gluon.html.TR object>'
p3023
sS'data.xml'
p3024
S'<bound method TR.xml of <gluon.html.TR object>>'
p3025
ssg2846
I115
sg2847
(dp3026
I110
S'    :param quote: optional (default False)'
p3027
sI111
S'    """'
p3028
sI112
S''
sI113
S'    # first try the xml function'
p3029
sI114
S"    if hasattr(data,'xml') and callable(data.xml):"
p3030
sI115
S'        return data.xml()'
p3031
sI116
S''
sI117
S'    # otherwise, make it a string'
p3032
sI118
S'    if not isinstance(data, (str, unicode)):'
p3033
sI119
S'        data = str(data)'
p3034
ssg2859
S'(data=<gluon.html.TR object>, quote=True)'
p3035
sg2861
g2930
sa(dp3036
g2838
S'/opt/local/Library/Frameworks/Python.framework/Versions/2.7/lib/python2.7/gluon/html.py'
p3037
sg2840
(dp3038
S'fa'
p3039
g2935
sS'self'
p3040
S'<gluon.html.TR object>'
p3041
sS'co'
p3042
g2935
sS'self._xml'
p3043
S'<bound method TR._xml of <gluon.html.TR object>>'
p3044
ssg2846
I793
sg2847
(dp3045
I788
S'    def xml(self):'
p3046
sI789
S'        """'
p3047
sI790
S'        generates the xml for this component.'
p3048
sI791
S'        """'
p3049
sI792
S''
sI793
S'        (fa, co) = self._xml()'
p3050
sI794
S''
sI795
S'        if not self.tag:'
p3051
sI796
S'            return co'
p3052
sI797
S''
ssg2859
S'(self=<gluon.html.TR object>)'
p3053
sg2861
g2950
sa(dp3054
g2838
S'/opt/local/Library/Frameworks/Python.framework/Versions/2.7/lib/python2.7/gluon/html.py'
p3055
sg2840
(dp3056
S'self'
p3057
S'<gluon.html.TR object>'
p3058
sS'self.components'
p3059
S'[<gluon.html.TD object>, <gluon.html.TD object>, <gluon.html.TD object>]'
p3060
ssg2846
I784
sg2847
(dp3061
I779
S'                continue'
p3062
sI780
S'            fa += \' %s="%s"\' % (name, xmlescape(value, True))'
p3063
sI781
S''
sI782
S'        # get the xml for the inner components'
p3064
sI783
S'        co = join([xmlescape(component) for component in'
p3065
sI784
S'                     self.components])'
p3066
sI785
S''
sI786
S'        return (fa, co)'
p3067
sI787
S''
sI788
S'    def xml(self):'
p3068
ssg2859
S'(self=<gluon.html.TR object>)'
p3069
sg2861
g2967
sa(dp3070
g2838
S'/opt/local/Library/Frameworks/Python.framework/Versions/2.7/lib/python2.7/gluon/html.py'
p3071
sg2840
(dp3072
S'data'
p3073
S'<gluon.html.TD object>'
p3074
sS'data.xml'
p3075
S'<bound method TD.xml of <gluon.html.TD object>>'
p3076
ssg2846
I115
sg2847
(dp3077
I110
S'    :param quote: optional (default False)'
p3078
sI111
S'    """'
p3079
sI112
S''
sI113
S'    # first try the xml function'
p3080
sI114
S"    if hasattr(data,'xml') and callable(data.xml):"
p3081
sI115
S'        return data.xml()'
p3082
sI116
S''
sI117
S'    # otherwise, make it a string'
p3083
sI118
S'    if not isinstance(data, (str, unicode)):'
p3084
sI119
S'        data = str(data)'
p3085
ssg2859
S'(data=<gluon.html.TD object>, quote=True)'
p3086
sg2861
g2930
sa(dp3087
g2838
S'/opt/local/Library/Frameworks/Python.framework/Versions/2.7/lib/python2.7/gluon/html.py'
p3088
sg2840
(dp3089
S'fa'
p3090
g2935
sS'self'
p3091
S'<gluon.html.TD object>'
p3092
sS'co'
p3093
g2935
sS'self._xml'
p3094
S'<bound method TD._xml of <gluon.html.TD object>>'
p3095
ssg2846
I793
sg2847
(dp3096
I788
S'    def xml(self):'
p3097
sI789
S'        """'
p3098
sI790
S'        generates the xml for this component.'
p3099
sI791
S'        """'
p3100
sI792
S''
sI793
S'        (fa, co) = self._xml()'
p3101
sI794
S''
sI795
S'        if not self.tag:'
p3102
sI796
S'            return co'
p3103
sI797
S''
ssg2859
S'(self=<gluon.html.TD object>)'
p3104
sg2861
g2950
sa(dp3105
g2838
S'/opt/local/Library/Frameworks/Python.framework/Versions/2.7/lib/python2.7/gluon/html.py'
p3106
sg2840
(dp3107
S'self'
p3108
S'<gluon.html.TD object>'
p3109
sS'self.components'
p3110
S'[<gluon.html.BEAUTIFY object>]'
p3111
ssg2846
I784
sg2847
(dp3112
I779
S'                continue'
p3113
sI780
S'            fa += \' %s="%s"\' % (name, xmlescape(value, True))'
p3114
sI781
S''
sI782
S'        # get the xml for the inner components'
p3115
sI783
S'        co = join([xmlescape(component) for component in'
p3116
sI784
S'                     self.components])'
p3117
sI785
S''
sI786
S'        return (fa, co)'
p3118
sI787
S''
sI788
S'    def xml(self):'
p3119
ssg2859
S'(self=<gluon.html.TD object>)'
p3120
sg2861
g2967
sa(dp3121
g2838
S'/opt/local/Library/Frameworks/Python.framework/Versions/2.7/lib/python2.7/gluon/html.py'
p3122
sg2840
(dp3123
S'data'
p3124
S'<gluon.html.BEAUTIFY object>'
p3125
sS'data.xml'
p3126
S'<bound method BEAUTIFY.xml of <gluon.html.BEAUTIFY object>>'
p3127
ssg2846
I115
sg2847
(dp3128
I110
S'    :param quote: optional (default False)'
p3129
sI111
S'    """'
p3130
sI112
S''
sI113
S'    # first try the xml function'
p3131
sI114
S"    if hasattr(data,'xml') and callable(data.xml):"
p3132
sI115
S'        return data.xml()'
p3133
sI116
S''
sI117
S'    # otherwise, make it a string'
p3134
sI118
S'    if not isinstance(data, (str, unicode)):'
p3135
sI119
S'        data = str(data)'
p3136
ssg2859
S'(data=<gluon.html.BEAUTIFY object>, quote=True)'
p3137
sg2861
g2930
sa(dp3138
g2838
S'/opt/local/Library/Frameworks/Python.framework/Versions/2.7/lib/python2.7/gluon/html.py'
p3139
sg2840
(dp3140
S'fa'
p3141
g2935
sS'self'
p3142
S'<gluon.html.BEAUTIFY object>'
p3143
sS'co'
p3144
g2935
sS'self._xml'
p3145
S'<bound method BEAUTIFY._xml of <gluon.html.BEAUTIFY object>>'
p3146
ssg2846
I793
sg2847
(dp3147
I788
S'    def xml(self):'
p3148
sI789
S'        """'
p3149
sI790
S'        generates the xml for this component.'
p3150
sI791
S'        """'
p3151
sI792
S''
sI793
S'        (fa, co) = self._xml()'
p3152
sI794
S''
sI795
S'        if not self.tag:'
p3153
sI796
S'            return co'
p3154
sI797
S''
ssg2859
S'(self=<gluon.html.BEAUTIFY object>)'
p3155
sg2861
g2950
sa(dp3156
g2838
S'/opt/local/Library/Frameworks/Python.framework/Versions/2.7/lib/python2.7/gluon/html.py'
p3157
sg2840
(dp3158
S'self'
p3159
S'<gluon.html.BEAUTIFY object>'
p3160
sS'self.components'
p3161
S'[<lazyT "[\'0f05e204af4d1ffabf462df37c8c606a3240f45a2e2fcb3bef41ea5b823b55d0\']">]'
p3162
ssg2846
I784
sg2847
(dp3163
I779
S'                continue'
p3164
sI780
S'            fa += \' %s="%s"\' % (name, xmlescape(value, True))'
p3165
sI781
S''
sI782
S'        # get the xml for the inner components'
p3166
sI783
S'        co = join([xmlescape(component) for component in'
p3167
sI784
S'                     self.components])'
p3168
sI785
S''
sI786
S'        return (fa, co)'
p3169
sI787
S''
sI788
S'    def xml(self):'
p3170
ssg2859
S'(self=<gluon.html.BEAUTIFY object>)'
p3171
sg2861
g2967
sa(dp3172
g2838
S'/opt/local/Library/Frameworks/Python.framework/Versions/2.7/lib/python2.7/gluon/html.py'
p3173
sg2840
(dp3174
S'data'
p3175
S'<lazyT "[\'0f05e204af4d1ffabf462df37c8c606a3240f45a2e2fcb3bef41ea5b823b55d0\']">'
p3176
sS'data.xml'
p3177
S'<bound method lazyT.xml of <lazyT "[\'0f05e204af4...2df37c8c606a3240f45a2e2fcb3bef41ea5b823b55d0\']">>'
p3178
ssg2846
I115
sg2847
(dp3179
I110
S'    :param quote: optional (default False)'
p3180
sI111
S'    """'
p3181
sI112
S''
sI113
S'    # first try the xml function'
p3182
sI114
S"    if hasattr(data,'xml') and callable(data.xml):"
p3183
sI115
S'        return data.xml()'
p3184
sI116
S''
sI117
S'    # otherwise, make it a string'
p3185
sI118
S'    if not isinstance(data, (str, unicode)):'
p3186
sI119
S'        data = str(data)'
p3187
ssg2859
S'(data=<lazyT "[\'0f05e204af4d1ffabf462df37c8c606a3240f45a2e2fcb3bef41ea5b823b55d0\']">, quote=True)'
p3188
sg2861
g2930
sa(dp3189
g2838
S'/opt/local/Library/Frameworks/Python.framework/Versions/2.7/lib/python2.7/gluon/languages.py'
p3190
sg2840
(dp3191
S'cgi.escape'
p3192
S'<function escape>'
p3193
sS'builtinstr'
p3194
S"<type 'str'>"
p3195
sS'self'
p3196
S'<lazyT "[\'0f05e204af4d1ffabf462df37c8c606a3240f45a2e2fcb3bef41ea5b823b55d0\']">'
p3197
sS'global cgi'
p3198
S"<module 'cgi' from '/opt/local/Library/Framework...on.framework/Versions/2.7/lib/python2.7/cgi.pyc'>"
p3199
ssg2846
I167
sg2847
(dp3200
I162
S''
sI163
S'    def __len__(self):'
p3201
sI164
S'        return len(str(self))'
p3202
sI165
S''
sI166
S'    def xml(self):'
p3203
sI167
S'        return cgi.escape(str(self))'
p3204
sI168
S''
sI169
S'    def encode(self, *a, **b):'
p3205
sI170
S'        return str(self).encode(*a, **b)'
p3206
sI171
S''
ssg2859
S'(self=<lazyT "[\'0f05e204af4d1ffabf462df37c8c606a3240f45a2e2fcb3bef41ea5b823b55d0\']">)'
p3207
sg2861
g2950
sa(dp3208
g2838
S'/opt/local/Library/Frameworks/Python.framework/Versions/2.7/lib/python2.7/gluon/languages.py'
p3209
sg2840
(dp3210
S'self.T.translate'
p3211
S'<bound method translator.translate of <gluon.languages.translator object>>'
p3212
sS'self.s'
p3213
g44
sS'self'
p3214
S'<lazyT "[\'0f05e204af4d1ffabf462df37c8c606a3240f45a2e2fcb3bef41ea5b823b55d0\']">'
p3215
sS'self.T'
p3216
S'<gluon.languages.translator object>'
p3217
sS'self.m'
p3218
S"['0f05e204af4d1ffabf462df37c8c606a3240f45a2e2fcb3bef41ea5b823b55d0']"
p3219
ssg2846
I131
sg2847
(dp3220
I128
S'        return "<lazyT %s>" % (repr(str(self.m)), )'
p3221
sI129
S''
sI130
S'    def __str__(self):'
p3222
sI131
S'        return self.T.translate(self.m, self.s)'
p3223
sI132
S''
sI133
S'    def __eq__(self, other):'
p3224
sI134
S'        return self.T.translate(self.m, self.s) == other'
p3225
sI135
S''
sI126
S''
sI127
S'    def __repr__(self):'
p3226
ssg2859
S'(self=<lazyT "[\'0f05e204af4d1ffabf462df37c8c606a3240f45a2e2fcb3bef41ea5b823b55d0\']">)'
p3227
sg2861
g27
sa(dp3228
g2838
S'/opt/local/Library/Frameworks/Python.framework/Versions/2.7/lib/python2.7/gluon/languages.py'
p3229
sg2840
(dp3230
S'message'
p3231
S"['0f05e204af4d1ffabf462df37c8c606a3240f45a2e2fcb3bef41ea5b823b55d0']"
p3232
sS'message.startswith'
p3233
g2935
ssg2846
I280
sg2847
(dp3234
I275
S"        T('hello ## world ## token') -> 'hello ## world'"
p3235
sI276
S''
sI277
S'        the ## notation is ignored in multiline strings and strings that'
p3236
sI278
S'        start with ##. this is to allow markmin syntax to be translated'
p3237
sI279
S'        """'
p3238
sI280
S"        if not message.startswith('#') and not '\\n' in message:"
p3239
sI281
S"            tokens = message.rsplit('##', 1)"
p3240
sI282
S'        else:'
p3241
sI283
S'            # this allows markmin syntax in translations'
p3242
sI284
S'            tokens = [message]'
p3243
ssg2859
S"(self=<gluon.languages.translator object>, message=['0f05e204af4d1ffabf462df37c8c606a3240f45a2e2fcb3bef41ea5b823b55d0'], symbols={})"
p3244
sg2861
S'translate'
p3245
sasS'pyver'
p3246
S'Python 2.7.1: /opt/local/Library/Frameworks/Python.framework/Versions/2.7/Resources/Python.app/Contents/MacOS/Python'
p3247
sS'session'
p3248
g56
(g57
g58
NtRp3249
(dp3250
g61
(dp3251
sg63
(lp3252
g56
(g65
g58
NtRp3253
(dp3254
g61
(dp3255
g69
I5
ssg70
Nsg63
(lp3256
sbasbsS'etype'
p3257
S"<type 'exceptions.AttributeError'>"
p3258
sS'date'
p3259
S'Sun Aug 28 01:38:48 2011'
p3260
sS'response'
p3261
g56
(g57
g58
NtRp3262
(dp3263
g61
(dp3264
sg63
(lp3265
g56
(g65
g58
NtRp3266
(dp3267
g61
(dp3268
g69
I5
ssg70
Nsg63
(lp3269
g56
(g72
g58
NtRp3270
(dp3271
g61
(dp3272
sg70
g3266
sg63
(lp3273
g56
(g77
g58
NtRp3274
(dp3275
g61
(dp3276
g81
g82
ssg70
g3270
sg63
(lp3277
g167
asbag56
(g77
g58
NtRp3278
(dp3279
g61
(dp3280
g88
g89
ssg70
g3270
sg63
(lp3281
S':'
asbag56
(g77
g58
NtRp3282
(dp3283
g61
(dp3284
sg70
g3270
sg63
(lp3285
g56
(g57
g58
NtRp3286
(dp3287
g61
(dp3288
g69
I5
ssg70
g3282
sg63
(lp3289
S'<cStringIO.StringO object at 0x1021b2dc0>'
p3290
asbasbasbag56
(g72
g58
NtRp3291
(dp3292
g61
(dp3293
sg70
g3266
sg63
(lp3294
g56
(g77
g58
NtRp3295
(dp3296
g61
(dp3297
g81
g82
ssg70
g3291
sg63
(lp3298
g233
asbag56
(g77
g58
NtRp3299
(dp3300
g61
(dp3301
g88
g89
ssg70
g3291
sg63
(lp3302
S':'
asbag56
(g77
g58
NtRp3303
(dp3304
g61
(dp3305
sg70
g3291
sg63
(lp3306
g56
(g57
g58
NtRp3307
(dp3308
g61
(dp3309
g69
I5
ssg70
g3303
sg63
(lp3310
g56
(g65
g58
NtRp3311
(dp3312
g61
(dp3313
g69
I4
ssg70
Nsg63
(lp3314
g56
(g72
g58
NtRp3315
(dp3316
g61
(dp3317
sg70
g3311
sg63
(lp3318
g56
(g77
g58
NtRp3319
(dp3320
g61
(dp3321
g81
g82
ssg70
g3315
sg63
(lp3322
S'session_id_init'
p3323
asbag56
(g77
g58
NtRp3324
(dp3325
g61
(dp3326
g88
g89
ssg70
g3315
sg63
(lp3327
S':'
asbag56
(g77
g58
NtRp3328
(dp3329
g61
(dp3330
sg70
g3315
sg63
(lp3331
g56
(g57
g58
NtRp3332
(dp3333
g61
(dp3334
g69
I4
ssg70
g3328
sg63
(lp3335
g56
(g65
g58
NtRp3336
(dp3337
g61
(dp3338
g69
I3
ssg70
Nsg63
(lp3339
g56
(g72
g58
NtRp3340
(dp3341
g61
(dp3342
sg70
g3336
sg63
(lp3343
g56
(g77
g58
NtRp3344
(dp3345
g61
(dp3346
g81
g82
ssg70
g3340
sg63
(lp3347
g283
asbag56
(g77
g58
NtRp3348
(dp3349
g61
(dp3350
g88
g89
ssg70
g3340
sg63
(lp3351
S':'
asbag56
(g77
g58
NtRp3352
(dp3353
g61
(dp3354
sg70
g3340
sg63
(lp3355
g56
(g57
g58
NtRp3356
(dp3357
g61
(dp3358
g69
I3
ssg70
g3352
sg63
(lp3359
S''
asbasbasbag56
(g72
g58
NtRp3360
(dp3361
g61
(dp3362
sg70
g3336
sg63
(lp3363
g56
(g77
g58
NtRp3364
(dp3365
g61
(dp3366
g81
g82
ssg70
g3360
sg63
(lp3367
g304
asbag56
(g77
g58
NtRp3368
(dp3369
g61
(dp3370
g88
g89
ssg70
g3360
sg63
(lp3371
S':'
asbag56
(g77
g58
NtRp3372
(dp3373
g61
(dp3374
sg70
g3360
sg63
(lp3375
g56
(g57
g58
NtRp3376
(dp3377
g61
(dp3378
g69
I3
ssg70
g3372
sg63
(lp3379
S''
asbasbasbag56
(g72
g58
NtRp3380
(dp3381
g61
(dp3382
sg70
g3336
sg63
(lp3383
g56
(g77
g58
NtRp3384
(dp3385
g61
(dp3386
g81
g82
ssg70
g3380
sg63
(lp3387
g325
asbag56
(g77
g58
NtRp3388
(dp3389
g61
(dp3390
g88
g89
ssg70
g3380
sg63
(lp3391
S':'
asbag56
(g77
g58
NtRp3392
(dp3393
g61
(dp3394
sg70
g3380
sg63
(lp3395
g56
(g57
g58
NtRp3396
(dp3397
g61
(dp3398
g69
I3
ssg70
g3392
sg63
(lp3399
S''
asbasbasbag56
(g72
g58
NtRp3400
(dp3401
g61
(dp3402
sg70
g3336
sg63
(lp3403
g56
(g77
g58
NtRp3404
(dp3405
g61
(dp3406
g81
g82
ssg70
g3400
sg63
(lp3407
g346
asbag56
(g77
g58
NtRp3408
(dp3409
g61
(dp3410
g88
g89
ssg70
g3400
sg63
(lp3411
S':'
asbag56
(g77
g58
NtRp3412
(dp3413
g61
(dp3414
sg70
g3400
sg63
(lp3415
g56
(g57
g58
NtRp3416
(dp3417
g61
(dp3418
g69
I3
ssg70
g3412
sg63
(lp3419
S''
asbasbasbag56
(g72
g58
NtRp3420
(dp3421
g61
(dp3422
sg70
g3336
sg63
(lp3423
g56
(g77
g58
NtRp3424
(dp3425
g61
(dp3426
g81
g82
ssg70
g3420
sg63
(lp3427
g367
asbag56
(g77
g58
NtRp3428
(dp3429
g61
(dp3430
g88
g89
ssg70
g3420
sg63
(lp3431
S':'
asbag56
(g77
g58
NtRp3432
(dp3433
g61
(dp3434
sg70
g3420
sg63
(lp3435
g56
(g57
g58
NtRp3436
(dp3437
g61
(dp3438
g69
I3
ssg70
g3432
sg63
(lp3439
S''
asbasbasbag56
(g72
g58
NtRp3440
(dp3441
g61
(dp3442
sg70
g3336
sg63
(lp3443
g56
(g77
g58
NtRp3444
(dp3445
g61
(dp3446
g81
g82
ssg70
g3440
sg63
(lp3447
g388
asbag56
(g77
g58
NtRp3448
(dp3449
g61
(dp3450
g88
g89
ssg70
g3440
sg63
(lp3451
S':'
asbag56
(g77
g58
NtRp3452
(dp3453
g61
(dp3454
sg70
g3440
sg63
(lp3455
g56
(g57
g58
NtRp3456
(dp3457
g61
(dp3458
g69
I3
ssg70
g3452
sg63
(lp3459
S'/'
asbasbasbag56
(g72
g58
NtRp3460
(dp3461
g61
(dp3462
sg70
g3336
sg63
(lp3463
g56
(g77
g58
NtRp3464
(dp3465
g61
(dp3466
g81
g82
ssg70
g3460
sg63
(lp3467
g409
asbag56
(g77
g58
NtRp3468
(dp3469
g61
(dp3470
g88
g89
ssg70
g3460
sg63
(lp3471
S':'
asbag56
(g77
g58
NtRp3472
(dp3473
g61
(dp3474
sg70
g3460
sg63
(lp3475
g56
(g57
g58
NtRp3476
(dp3477
g61
(dp3478
g69
I3
ssg70
g3472
sg63
(lp3479
S''
asbasbasbag56
(g72
g58
NtRp3480
(dp3481
g61
(dp3482
sg70
g3336
sg63
(lp3483
g56
(g77
g58
NtRp3484
(dp3485
g61
(dp3486
g81
g82
ssg70
g3480
sg63
(lp3487
g430
asbag56
(g77
g58
NtRp3488
(dp3489
g61
(dp3490
g88
g89
ssg70
g3480
sg63
(lp3491
S':'
asbag56
(g77
g58
NtRp3492
(dp3493
g61
(dp3494
sg70
g3480
sg63
(lp3495
g56
(g57
g58
NtRp3496
(dp3497
g61
(dp3498
g69
I3
ssg70
g3492
sg63
(lp3499
S''
asbasbasbasbasbasbasbasbasbasbasbag56
(g72
g58
NtRp3500
(dp3501
g61
(dp3502
sg70
g3266
sg63
(lp3503
g56
(g77
g58
NtRp3504
(dp3505
g61
(dp3506
g81
g82
ssg70
g3500
sg63
(lp3507
S'files'
p3508
asbag56
(g77
g58
NtRp3509
(dp3510
g61
(dp3511
g88
g89
ssg70
g3500
sg63
(lp3512
S':'
asbag56
(g77
g58
NtRp3513
(dp3514
g61
(dp3515
sg70
g3500
sg63
(lp3516
g56
(g57
g58
NtRp3517
(dp3518
g61
(dp3519
g69
I5
ssg70
g3513
sg63
(lp3520
g56
(g65
g58
NtRp3521
(dp3522
g61
(dp3523
g69
I4
ssg70
Nsg63
(lp3524
g56
(g72
g58
NtRp3525
(dp3526
g61
(dp3527
sg70
g3521
sg63
(lp3528
g56
(g77
g58
NtRp3529
(dp3530
g61
(dp3531
sg70
g3525
sg63
(lp3532
g56
(g57
g58
NtRp3533
(dp3534
g61
(dp3535
g69
I4
ssg70
g3529
sg63
(lp3536
S'/init/static/js/jquery.js'
p3537
asbasbasbag56
(g72
g58
NtRp3538
(dp3539
g61
(dp3540
sg70
g3521
sg63
(lp3541
g56
(g77
g58
NtRp3542
(dp3543
g61
(dp3544
sg70
g3538
sg63
(lp3545
g56
(g57
g58
NtRp3546
(dp3547
g61
(dp3548
g69
I4
ssg70
g3542
sg63
(lp3549
S'/init/static/css/calendar.css'
p3550
asbasbasbag56
(g72
g58
NtRp3551
(dp3552
g61
(dp3553
sg70
g3521
sg63
(lp3554
g56
(g77
g58
NtRp3555
(dp3556
g61
(dp3557
sg70
g3551
sg63
(lp3558
g56
(g57
g58
NtRp3559
(dp3560
g61
(dp3561
g69
I4
ssg70
g3555
sg63
(lp3562
S'/init/static/js/calendar.js'
p3563
asbasbasbag56
(g72
g58
NtRp3564
(dp3565
g61
(dp3566
sg70
g3521
sg63
(lp3567
g56
(g77
g58
NtRp3568
(dp3569
g61
(dp3570
sg70
g3564
sg63
(lp3571
g56
(g57
g58
NtRp3572
(dp3573
g61
(dp3574
g69
I4
ssg70
g3568
sg63
(lp3575
S'/init/static/css/base.css'
p3576
asbasbasbag56
(g72
g58
NtRp3577
(dp3578
g61
(dp3579
sg70
g3521
sg63
(lp3580
g56
(g77
g58
NtRp3581
(dp3582
g61
(dp3583
sg70
g3577
sg63
(lp3584
g56
(g57
g58
NtRp3585
(dp3586
g61
(dp3587
g69
I4
ssg70
g3581
sg63
(lp3588
S'/init/static/css/superfish.css'
p3589
asbasbasbag56
(g72
g58
NtRp3590
(dp3591
g61
(dp3592
sg70
g3521
sg63
(lp3593
g56
(g77
g58
NtRp3594
(dp3595
g61
(dp3596
sg70
g3590
sg63
(lp3597
g56
(g57
g58
NtRp3598
(dp3599
g61
(dp3600
g69
I4
ssg70
g3594
sg63
(lp3601
S'/init/static/js/superfish.js'
p3602
asbasbasbasbasbasbasbag56
(g72
g58
NtRp3603
(dp3604
g61
(dp3605
sg70
g3266
sg63
(lp3606
g56
(g77
g58
NtRp3607
(dp3608
g61
(dp3609
g81
g82
ssg70
g3603
sg63
(lp3610
S'flash'
p3611
asbag56
(g77
g58
NtRp3612
(dp3613
g61
(dp3614
g88
g89
ssg70
g3603
sg63
(lp3615
S':'
asbag56
(g77
g58
NtRp3616
(dp3617
g61
(dp3618
sg70
g3603
sg63
(lp3619
g56
(g57
g58
NtRp3620
(dp3621
g61
(dp3622
g69
I5
ssg70
g3616
sg63
(lp3623
S''
asbasbasbag56
(g72
g58
NtRp3624
(dp3625
g61
(dp3626
sg70
g3266
sg63
(lp3627
g56
(g77
g58
NtRp3628
(dp3629
g61
(dp3630
g81
g82
ssg70
g3624
sg63
(lp3631
S'generic_patterns'
p3632
asbag56
(g77
g58
NtRp3633
(dp3634
g61
(dp3635
g88
g89
ssg70
g3624
sg63
(lp3636
S':'
asbag56
(g77
g58
NtRp3637
(dp3638
g61
(dp3639
sg70
g3624
sg63
(lp3640
g56
(g57
g58
NtRp3641
(dp3642
g61
(dp3643
g69
I5
ssg70
g3637
sg63
(lp3644
g56
(g65
g58
NtRp3645
(dp3646
g61
(dp3647
g69
I4
ssg70
Nsg63
(lp3648
sbasbasbasbag56
(g72
g58
NtRp3649
(dp3650
g61
(dp3651
sg70
g3266
sg63
(lp3652
g56
(g77
g58
NtRp3653
(dp3654
g61
(dp3655
g81
g82
ssg70
g3649
sg63
(lp3656
S'headers'
p3657
asbag56
(g77
g58
NtRp3658
(dp3659
g61
(dp3660
g88
g89
ssg70
g3649
sg63
(lp3661
S':'
asbag56
(g77
g58
NtRp3662
(dp3663
g61
(dp3664
sg70
g3649
sg63
(lp3665
g56
(g57
g58
NtRp3666
(dp3667
g61
(dp3668
g69
I5
ssg70
g3662
sg63
(lp3669
g56
(g65
g58
NtRp3670
(dp3671
g61
(dp3672
g69
I4
ssg70
Nsg63
(lp3673
g56
(g72
g58
NtRp3674
(dp3675
g61
(dp3676
sg70
g3670
sg63
(lp3677
g56
(g77
g58
NtRp3678
(dp3679
g61
(dp3680
g81
g82
ssg70
g3674
sg63
(lp3681
S'Cache-Control'
p3682
asbag56
(g77
g58
NtRp3683
(dp3684
g61
(dp3685
g88
g89
ssg70
g3674
sg63
(lp3686
S':'
asbag56
(g77
g58
NtRp3687
(dp3688
g61
(dp3689
sg70
g3674
sg63
(lp3690
g56
(g57
g58
NtRp3691
(dp3692
g61
(dp3693
g69
I4
ssg70
g3687
sg63
(lp3694
S'no-store, no-cache, must-revalidate, post-check=0, pre-check=0'
p3695
asbasbasbag56
(g72
g58
NtRp3696
(dp3697
g61
(dp3698
sg70
g3670
sg63
(lp3699
g56
(g77
g58
NtRp3700
(dp3701
g61
(dp3702
g81
g82
ssg70
g3696
sg63
(lp3703
S'Content-Type'
p3704
asbag56
(g77
g58
NtRp3705
(dp3706
g61
(dp3707
g88
g89
ssg70
g3696
sg63
(lp3708
S':'
asbag56
(g77
g58
NtRp3709
(dp3710
g61
(dp3711
sg70
g3696
sg63
(lp3712
g56
(g57
g58
NtRp3713
(dp3714
g61
(dp3715
g69
I4
ssg70
g3709
sg63
(lp3716
S'text/html; charset=utf-8'
p3717
asbasbasbag56
(g72
g58
NtRp3718
(dp3719
g61
(dp3720
sg70
g3670
sg63
(lp3721
g56
(g77
g58
NtRp3722
(dp3723
g61
(dp3724
g81
g82
ssg70
g3718
sg63
(lp3725
S'Expires'
p3726
asbag56
(g77
g58
NtRp3727
(dp3728
g61
(dp3729
g88
g89
ssg70
g3718
sg63
(lp3730
S':'
asbag56
(g77
g58
NtRp3731
(dp3732
g61
(dp3733
sg70
g3718
sg63
(lp3734
g56
(g57
g58
NtRp3735
(dp3736
g61
(dp3737
g69
I4
ssg70
g3731
sg63
(lp3738
S'Sat, 27 Aug 2011 23:38:48 GMT'
p3739
asbasbasbag56
(g72
g58
NtRp3740
(dp3741
g61
(dp3742
sg70
g3670
sg63
(lp3743
g56
(g77
g58
NtRp3744
(dp3745
g61
(dp3746
g81
g82
ssg70
g3740
sg63
(lp3747
S'Pragma'
p3748
asbag56
(g77
g58
NtRp3749
(dp3750
g61
(dp3751
g88
g89
ssg70
g3740
sg63
(lp3752
S':'
asbag56
(g77
g58
NtRp3753
(dp3754
g61
(dp3755
sg70
g3740
sg63
(lp3756
g56
(g57
g58
NtRp3757
(dp3758
g61
(dp3759
g69
I4
ssg70
g3753
sg63
(lp3760
S'no-cache'
p3761
asbasbasbag56
(g72
g58
NtRp3762
(dp3763
g61
(dp3764
sg70
g3670
sg63
(lp3765
g56
(g77
g58
NtRp3766
(dp3767
g61
(dp3768
g81
g82
ssg70
g3762
sg63
(lp3769
S'X-Powered-By'
p3770
asbag56
(g77
g58
NtRp3771
(dp3772
g61
(dp3773
g88
g89
ssg70
g3762
sg63
(lp3774
S':'
asbag56
(g77
g58
NtRp3775
(dp3776
g61
(dp3777
sg70
g3762
sg63
(lp3778
g56
(g57
g58
NtRp3779
(dp3780
g61
(dp3781
g69
I4
ssg70
g3775
sg63
(lp3782
S'web2py'
p3783
asbasbasbasbasbasbasbag56
(g72
g58
NtRp3784
(dp3785
g61
(dp3786
sg70
g3266
sg63
(lp3787
g56
(g77
g58
NtRp3788
(dp3789
g61
(dp3790
g81
g82
ssg70
g3784
sg63
(lp3791
S'menu'
p3792
asbag56
(g77
g58
NtRp3793
(dp3794
g61
(dp3795
g88
g89
ssg70
g3784
sg63
(lp3796
S':'
asbag56
(g77
g58
NtRp3797
(dp3798
g61
(dp3799
sg70
g3784
sg63
(lp3800
g56
(g57
g58
NtRp3801
(dp3802
g61
(dp3803
g69
I5
ssg70
g3797
sg63
(lp3804
g56
(g65
g58
NtRp3805
(dp3806
g61
(dp3807
g69
I4
ssg70
Nsg63
(lp3808
g56
(g72
g58
NtRp3809
(dp3810
g61
(dp3811
sg70
g3805
sg63
(lp3812
g56
(g77
g58
NtRp3813
(dp3814
g61
(dp3815
sg70
g3809
sg63
(lp3816
g56
(g57
g58
NtRp3817
(dp3818
g61
(dp3819
g69
I4
ssg70
g3813
sg63
(lp3820
g56
(g65
g58
NtRp3821
(dp3822
g61
(dp3823
g69
I3
ssg70
Nsg63
(lp3824
g56
(g72
g58
NtRp3825
(dp3826
g61
(dp3827
sg70
g3821
sg63
(lp3828
g56
(g77
g58
NtRp3829
(dp3830
g61
(dp3831
sg70
g3825
sg63
(lp3832
g56
(g57
g58
NtRp3833
(dp3834
g61
(dp3835
g69
I3
ssg70
g3829
sg63
(lp3836
cgluon.languages
lazyT_unpickle
p3837
(S't\x05\x00\x00\x00Index'
tRp3838
asbasbasbag56
(g72
g58
NtRp3839
(dp3840
g61
(dp3841
sg70
g3821
sg63
(lp3842
g56
(g77
g58
NtRp3843
(dp3844
g61
(dp3845
sg70
g3839
sg63
(lp3846
g56
(g57
g58
NtRp3847
(dp3848
g61
(dp3849
g69
I3
ssg70
g3843
sg63
(lp3850
g99
asbasbasbag56
(g72
g58
NtRp3851
(dp3852
g61
(dp3853
sg70
g3821
sg63
(lp3854
g56
(g77
g58
NtRp3855
(dp3856
g61
(dp3857
sg70
g3851
sg63
(lp3858
g56
(g57
g58
NtRp3859
(dp3860
g61
(dp3861
g69
I3
ssg70
g3855
sg63
(lp3862
S'/init/default/index'
p3863
asbasbasbag56
(g72
g58
NtRp3864
(dp3865
g61
(dp3866
sg70
g3821
sg63
(lp3867
g56
(g77
g58
NtRp3868
(dp3869
g61
(dp3870
sg70
g3864
sg63
(lp3871
g56
(g57
g58
NtRp3872
(dp3873
g61
(dp3874
g69
I3
ssg70
g3868
sg63
(lp3875
g56
(g65
g58
NtRp3876
(dp3877
g61
(dp3878
g69
I2
ssg70
Nsg63
(lp3879
sbasbasbasbasbasbasbasbasbasbasbasbag56
(g72
g58
NtRp3880
(dp3881
g61
(dp3882
sg70
g3266
sg63
(lp3883
g56
(g77
g58
NtRp3884
(dp3885
g61
(dp3886
g81
g82
ssg70
g3880
sg63
(lp3887
S'meta'
p3888
asbag56
(g77
g58
NtRp3889
(dp3890
g61
(dp3891
g88
g89
ssg70
g3880
sg63
(lp3892
S':'
asbag56
(g77
g58
NtRp3893
(dp3894
g61
(dp3895
sg70
g3880
sg63
(lp3896
g56
(g57
g58
NtRp3897
(dp3898
g61
(dp3899
g69
I5
ssg70
g3893
sg63
(lp3900
g56
(g65
g58
NtRp3901
(dp3902
g61
(dp3903
g69
I4
ssg70
Nsg63
(lp3904
g56
(g72
g58
NtRp3905
(dp3906
g61
(dp3907
sg70
g3901
sg63
(lp3908
g56
(g77
g58
NtRp3909
(dp3910
g61
(dp3911
g81
g82
ssg70
g3905
sg63
(lp3912
S'author'
p3913
asbag56
(g77
g58
NtRp3914
(dp3915
g61
(dp3916
g88
g89
ssg70
g3905
sg63
(lp3917
S':'
asbag56
(g77
g58
NtRp3918
(dp3919
g61
(dp3920
sg70
g3905
sg63
(lp3921
g56
(g57
g58
NtRp3922
(dp3923
g61
(dp3924
g69
I4
ssg70
g3918
sg63
(lp3925
S'RGC <info@globaleaks.org>'
p3926
asbasbasbag56
(g72
g58
NtRp3927
(dp3928
g61
(dp3929
sg70
g3901
sg63
(lp3930
g56
(g77
g58
NtRp3931
(dp3932
g61
(dp3933
g81
g82
ssg70
g3927
sg63
(lp3934
S'description'
p3935
asbag56
(g77
g58
NtRp3936
(dp3937
g61
(dp3938
g88
g89
ssg70
g3927
sg63
(lp3939
S':'
asbag56
(g77
g58
NtRp3940
(dp3941
g61
(dp3942
sg70
g3927
sg63
(lp3943
g56
(g57
g58
NtRp3944
(dp3945
g61
(dp3946
g69
I4
ssg70
g3940
sg63
(lp3947
S''
asbasbasbag56
(g72
g58
NtRp3948
(dp3949
g61
(dp3950
sg70
g3901
sg63
(lp3951
g56
(g77
g58
NtRp3952
(dp3953
g61
(dp3954
g81
g82
ssg70
g3948
sg63
(lp3955
S'keywords'
p3956
asbag56
(g77
g58
NtRp3957
(dp3958
g61
(dp3959
g88
g89
ssg70
g3948
sg63
(lp3960
S':'
asbag56
(g77
g58
NtRp3961
(dp3962
g61
(dp3963
sg70
g3948
sg63
(lp3964
g56
(g57
g58
NtRp3965
(dp3966
g61
(dp3967
g69
I4
ssg70
g3961
sg63
(lp3968
S''
asbasbasbasbasbasbasbag56
(g72
g58
NtRp3969
(dp3970
g61
(dp3971
sg70
g3266
sg63
(lp3972
g56
(g77
g58
NtRp3973
(dp3974
g61
(dp3975
g81
g82
ssg70
g3969
sg63
(lp3976
S'postprocessing'
p3977
asbag56
(g77
g58
NtRp3978
(dp3979
g61
(dp3980
g88
g89
ssg70
g3969
sg63
(lp3981
S':'
asbag56
(g77
g58
NtRp3982
(dp3983
g61
(dp3984
sg70
g3969
sg63
(lp3985
g56
(g57
g58
NtRp3986
(dp3987
g61
(dp3988
g69
I5
ssg70
g3982
sg63
(lp3989
g56
(g65
g58
NtRp3990
(dp3991
g61
(dp3992
g69
I4
ssg70
Nsg63
(lp3993
sbasbasbasbag56
(g72
g58
NtRp3994
(dp3995
g61
(dp3996
sg70
g3266
sg63
(lp3997
g56
(g77
g58
NtRp3998
(dp3999
g61
(dp4000
g81
g82
ssg70
g3994
sg63
(lp4001
S'session_file'
p4002
asbag56
(g77
g58
NtRp4003
(dp4004
g61
(dp4005
g88
g89
ssg70
g3994
sg63
(lp4006
S':'
asbag56
(g77
g58
NtRp4007
(dp4008
g61
(dp4009
sg70
g3994
sg63
(lp4010
g56
(g57
g58
NtRp4011
(dp4012
g61
(dp4013
g69
I5
ssg70
g4007
sg63
(lp4014
S"<open file '/Users/hellais/Documents/code/mygit/globaleaks/webapp/applications/init/sessions/127.0.0.1-a8551263-bc3c-430c-abb2-8711fac671c1', mode 'rb+' at 0x10196d6f0>"
p4015
asbasbasbag56
(g72
g58
NtRp4016
(dp4017
g61
(dp4018
sg70
g3266
sg63
(lp4019
g56
(g77
g58
NtRp4020
(dp4021
g61
(dp4022
g81
g82
ssg70
g4016
sg63
(lp4023
S'session_filename'
p4024
asbag56
(g77
g58
NtRp4025
(dp4026
g61
(dp4027
g88
g89
ssg70
g4016
sg63
(lp4028
S':'
asbag56
(g77
g58
NtRp4029
(dp4030
g61
(dp4031
sg70
g4016
sg63
(lp4032
g56
(g57
g58
NtRp4033
(dp4034
g61
(dp4035
g69
I5
ssg70
g4029
sg63
(lp4036
S'/Users/hellais/Documents/code/mygit/globaleaks/webapp/applications/init/sessions/127.0.0.1-a8551263-bc3c-430c-abb2-8711fac671c1'
p4037
asbasbasbag56
(g72
g58
NtRp4038
(dp4039
g61
(dp4040
sg70
g3266
sg63
(lp4041
g56
(g77
g58
NtRp4042
(dp4043
g61
(dp4044
g81
g82
ssg70
g4038
sg63
(lp4045
S'session_id'
p4046
asbag56
(g77
g58
NtRp4047
(dp4048
g61
(dp4049
g88
g89
ssg70
g4038
sg63
(lp4050
S':'
asbag56
(g77
g58
NtRp4051
(dp4052
g61
(dp4053
sg70
g4038
sg63
(lp4054
g56
(g57
g58
NtRp4055
(dp4056
g61
(dp4057
g69
I5
ssg70
g4051
sg63
(lp4058
S'127.0.0.1-a8551263-bc3c-430c-abb2-8711fac671c1'
p4059
asbasbasbag56
(g72
g58
NtRp4060
(dp4061
g61
(dp4062
sg70
g3266
sg63
(lp4063
g56
(g77
g58
NtRp4064
(dp4065
g61
(dp4066
g81
g82
ssg70
g4060
sg63
(lp4067
S'session_id_name'
p4068
asbag56
(g77
g58
NtRp4069
(dp4070
g61
(dp4071
g88
g89
ssg70
g4060
sg63
(lp4072
S':'
asbag56
(g77
g58
NtRp4073
(dp4074
g61
(dp4075
sg70
g4060
sg63
(lp4076
g56
(g57
g58
NtRp4077
(dp4078
g61
(dp4079
g69
I5
ssg70
g4073
sg63
(lp4080
g3323
asbasbasbag56
(g72
g58
NtRp4081
(dp4082
g61
(dp4083
sg70
g3266
sg63
(lp4084
g56
(g77
g58
NtRp4085
(dp4086
g61
(dp4087
g81
g82
ssg70
g4081
sg63
(lp4088
S'session_locked'
p4089
asbag56
(g77
g58
NtRp4090
(dp4091
g61
(dp4092
g88
g89
ssg70
g4081
sg63
(lp4093
S':'
asbag56
(g77
g58
NtRp4094
(dp4095
g61
(dp4096
sg70
g4081
sg63
(lp4097
g56
(g57
g58
NtRp4098
(dp4099
g61
(dp4100
g69
I5
ssg70
g4094
sg63
(lp4101
g1810
asbasbasbag56
(g72
g58
NtRp4102
(dp4103
g61
(dp4104
sg70
g3266
sg63
(lp4105
g56
(g77
g58
NtRp4106
(dp4107
g61
(dp4108
g81
g82
ssg70
g4102
sg63
(lp4109
S'session_new'
p4110
asbag56
(g77
g58
NtRp4111
(dp4112
g61
(dp4113
g88
g89
ssg70
g4102
sg63
(lp4114
S':'
asbag56
(g77
g58
NtRp4115
(dp4116
g61
(dp4117
sg70
g4102
sg63
(lp4118
g56
(g57
g58
NtRp4119
(dp4120
g61
(dp4121
g69
I5
ssg70
g4115
sg63
(lp4122
g99
asbasbasbag56
(g72
g58
NtRp4123
(dp4124
g61
(dp4125
sg70
g3266
sg63
(lp4126
g56
(g77
g58
NtRp4127
(dp4128
g61
(dp4129
g81
g82
ssg70
g4123
sg63
(lp4130
S'status'
p4131
asbag56
(g77
g58
NtRp4132
(dp4133
g61
(dp4134
g88
g89
ssg70
g4123
sg63
(lp4135
S':'
asbag56
(g77
g58
NtRp4136
(dp4137
g61
(dp4138
sg70
g4123
sg63
(lp4139
g56
(g57
g58
NtRp4140
(dp4141
g61
(dp4142
g69
I5
ssg70
g4136
sg63
(lp4143
S'200'
p4144
asbasbasbag56
(g72
g58
NtRp4145
(dp4146
g61
(dp4147
sg70
g3266
sg63
(lp4148
g56
(g77
g58
NtRp4149
(dp4150
g61
(dp4151
g81
g82
ssg70
g4145
sg63
(lp4152
S'subtitle'
p4153
asbag56
(g77
g58
NtRp4154
(dp4155
g61
(dp4156
g88
g89
ssg70
g4145
sg63
(lp4157
S':'
asbag56
(g77
g58
NtRp4158
(dp4159
g61
(dp4160
sg70
g4145
sg63
(lp4161
g56
(g57
g58
NtRp4162
(dp4163
g61
(dp4164
g69
I5
ssg70
g4158
sg63
(lp4165
S'Open Source Whistleblowing Platform'
p4166
asbasbasbag56
(g72
g58
NtRp4167
(dp4168
g61
(dp4169
sg70
g3266
sg63
(lp4170
g56
(g77
g58
NtRp4171
(dp4172
g61
(dp4173
g81
g82
ssg70
g4167
sg63
(lp4174
S'title'
p4175
asbag56
(g77
g58
NtRp4176
(dp4177
g61
(dp4178
g88
g89
ssg70
g4167
sg63
(lp4179
S':'
asbag56
(g77
g58
NtRp4180
(dp4181
g61
(dp4182
sg70
g4167
sg63
(lp4183
g56
(g57
g58
NtRp4184
(dp4185
g61
(dp4186
g69
I5
ssg70
g4180
sg63
(lp4187
S'GlobaLeaks'
p4188
asbasbasbag56
(g72
g58
NtRp4189
(dp4190
g61
(dp4191
sg70
g3266
sg63
(lp4192
g56
(g77
g58
NtRp4193
(dp4194
g61
(dp4195
g81
g82
ssg70
g4189
sg63
(lp4196
g2155
asbag56
(g77
g58
NtRp4197
(dp4198
g61
(dp4199
g88
g89
ssg70
g4189
sg63
(lp4200
S':'
asbag56
(g77
g58
NtRp4201
(dp4202
g61
(dp4203
sg70
g4189
sg63
(lp4204
g56
(g57
g58
NtRp4205
(dp4206
g61
(dp4207
g69
I5
ssg70
g4201
sg63
(lp4208
g2168
asbasbasbag56
(g72
g58
NtRp4209
(dp4210
g61
(dp4211
sg70
g3266
sg63
(lp4212
g56
(g77
g58
NtRp4213
(dp4214
g61
(dp4215
g81
g82
ssg70
g4209
sg63
(lp4216
S'view'
p4217
asbag56
(g77
g58
NtRp4218
(dp4219
g61
(dp4220
g88
g89
ssg70
g4209
sg63
(lp4221
S':'
asbag56
(g77
g58
NtRp4222
(dp4223
g61
(dp4224
sg70
g4209
sg63
(lp4225
g56
(g57
g58
NtRp4226
(dp4227
g61
(dp4228
g69
I5
ssg70
g4222
sg63
(lp4229
S'default/tulip.html'
p4230
asbasbasbasbasbsS'locals'
p4231
(dp4232
S'symbols'
p4233
g44
sS'message'
p4234
S"['0f05e204af4d1ffabf462df37c8c606a3240f45a2e2fcb3bef41ea5b823b55d0']"
p4235
sS'self'
p4236
S'<gluon.languages.translator object>'
p4237
sssS'traceback'
p4238
S'Traceback (most recent call last):\n  File "/opt/local/Library/Frameworks/Python.framework/Versions/2.7/lib/python2.7/gluon/restricted.py", line 192, in restricted\n    exec ccode in environment\n  File "/Users/hellais/Documents/code/mygit/globaleaks/webapp/applications/init/views/default/tulip.html", line 103, in <module>\n  File "/opt/local/Library/Frameworks/Python.framework/Versions/2.7/lib/python2.7/gluon/globals.py", line 154, in write\n    self.body.write(xmlescape(data))\n  File "/opt/local/Library/Frameworks/Python.framework/Versions/2.7/lib/python2.7/gluon/html.py", line 115, in xmlescape\n    return data.xml()\n  File "/opt/local/Library/Frameworks/Python.framework/Versions/2.7/lib/python2.7/gluon/html.py", line 793, in xml\n    (fa, co) = self._xml()\n  File "/opt/local/Library/Frameworks/Python.framework/Versions/2.7/lib/python2.7/gluon/html.py", line 784, in _xml\n    self.components])\n  File "/opt/local/Library/Frameworks/Python.framework/Versions/2.7/lib/python2.7/gluon/html.py", line 115, in xmlescape\n    return data.xml()\n  File "/opt/local/Library/Frameworks/Python.framework/Versions/2.7/lib/python2.7/gluon/html.py", line 793, in xml\n    (fa, co) = self._xml()\n  File "/opt/local/Library/Frameworks/Python.framework/Versions/2.7/lib/python2.7/gluon/html.py", line 784, in _xml\n    self.components])\n  File "/opt/local/Library/Frameworks/Python.framework/Versions/2.7/lib/python2.7/gluon/html.py", line 115, in xmlescape\n    return data.xml()\n  File "/opt/local/Library/Frameworks/Python.framework/Versions/2.7/lib/python2.7/gluon/html.py", line 793, in xml\n    (fa, co) = self._xml()\n  File "/opt/local/Library/Frameworks/Python.framework/Versions/2.7/lib/python2.7/gluon/html.py", line 784, in _xml\n    self.components])\n  File "/opt/local/Library/Frameworks/Python.framework/Versions/2.7/lib/python2.7/gluon/html.py", line 115, in xmlescape\n    return data.xml()\n  File "/opt/local/Library/Frameworks/Python.framework/Versions/2.7/lib/python2.7/gluon/html.py", line 793, in xml\n    (fa, co) = self._xml()\n  File "/opt/local/Library/Frameworks/Python.framework/Versions/2.7/lib/python2.7/gluon/html.py", line 784, in _xml\n    self.components])\n  File "/opt/local/Library/Frameworks/Python.framework/Versions/2.7/lib/python2.7/gluon/html.py", line 115, in xmlescape\n    return data.xml()\n  File "/opt/local/Library/Frameworks/Python.framework/Versions/2.7/lib/python2.7/gluon/html.py", line 793, in xml\n    (fa, co) = self._xml()\n  File "/opt/local/Library/Frameworks/Python.framework/Versions/2.7/lib/python2.7/gluon/html.py", line 784, in _xml\n    self.components])\n  File "/opt/local/Library/Frameworks/Python.framework/Versions/2.7/lib/python2.7/gluon/html.py", line 115, in xmlescape\n    return data.xml()\n  File "/opt/local/Library/Frameworks/Python.framework/Versions/2.7/lib/python2.7/gluon/languages.py", line 167, in xml\n    return cgi.escape(str(self))\n  File "/opt/local/Library/Frameworks/Python.framework/Versions/2.7/lib/python2.7/gluon/languages.py", line 131, in __str__\n    return self.T.translate(self.m, self.s)\n  File "/opt/local/Library/Frameworks/Python.framework/Versions/2.7/lib/python2.7/gluon/languages.py", line 280, in translate\n    if not message.startswith(\'#\') and not \'\\n\' in message:\nAttributeError: \'List\' object has no attribute \'startswith\'\n'
p4239
s.