(dp1
S'output'
p2
S''
sS'layer'
p3
S'/Users/hellais/Documents/code/mygit/globaleaks/webapp/applications/init/controllers/default.py'
p4
sS'code'
p5
S'# -*- coding: utf-8 -*-\n### required - do no delete\ndef user(): return dict(form=auth())\ndef download(): return response.download(request,db)\ndef call():\n    session.forget()\n    return service()\n### end requires\ndef index():\n    return dict(message=T("Diocane"))\n\ndef submission():\n    form_content = (Field(\'Title\', requires=IS_NOT_EMPTY()),\n                    Field(\'Description\', \'text\', requires=IS_NOT_EMPTY()),\n                    Field(\'Tags\'),Field(\'material\', \'upload\', uploadfolder="uploads/"),\n                    Field(\'dislaimer\', \'boolean\', requires=IS_EQUAL_TO("on", error_message="Please read the disclaimer")))\n   \n    form = SQLFORM.factory(*form_content)\n    \n    if form.accepts(request.vars, session):\n        l = request.vars\n        leak_id = gl.create_leak(l.Title, l.Description, None, None,\n                {"Al Jazeera":10 , "CNN":20, "Leaker":0}, l.Tags)\n        \n        #response.flash = \'form accepted\'\n        leak = Leak(leak_id)\n        return dict(leak_id=leak_id, form=None)\n    elif form.errors:\n        response.flash = \'form has errors\'\n    else:\n        response.flash = \'please fill the form\'        \n    \n    leak = Leak(12)\n\n    #FIXME do this better...\n    for tulip in leak.tulips:\n        print tulip.target_id\n        if tulip.target is "Leaker":\n            print tulip.uri\n    \n    return dict(form=form, leak_id=None)\n\ndef error():\n    return dict()\n\nresponse._vars=response._caller(submission)\n'
p6
sS'snapshot'
p7
(dp8
S'exception'
p9
(dp10
S'__hash__'
p11
S"<method-wrapper '__hash__' of exceptions.AttributeError object>"
p12
sS'__setattr__'
p13
S"<method-wrapper '__setattr__' of exceptions.AttributeError object>"
p14
sS'__reduce_ex__'
p15
S'<built-in method __reduce_ex__ of exceptions.AttributeError object>'
p16
sS'__getslice__'
p17
S"<method-wrapper '__getslice__' of exceptions.AttributeError object>"
p18
sS'__getitem__'
p19
S"<method-wrapper '__getitem__' of exceptions.AttributeError object>"
p20
sS'__setstate__'
p21
S'<built-in method __setstate__ of exceptions.AttributeError object>'
p22
sS'args'
p23
S'("\'Tulip\' object has no attribute \'target_id\'",)'
p24
sS'__reduce__'
p25
S'<built-in method __reduce__ of exceptions.AttributeError object>'
p26
sS'__str__'
p27
S"<method-wrapper '__str__' of exceptions.AttributeError object>"
p28
sS'__format__'
p29
S'<built-in method __format__ of exceptions.AttributeError object>'
p30
sS'__getattribute__'
p31
S"<method-wrapper '__getattribute__' of exceptions.AttributeError object>"
p32
sS'__class__'
p33
S"<type 'exceptions.AttributeError'>"
p34
sS'__unicode__'
p35
S'<built-in method __unicode__ of exceptions.AttributeError object>'
p36
sS'__delattr__'
p37
S"<method-wrapper '__delattr__' of exceptions.AttributeError object>"
p38
sS'__subclasshook__'
p39
S'<built-in method __subclasshook__ of type object>'
p40
sS'__repr__'
p41
S"<method-wrapper '__repr__' of exceptions.AttributeError object>"
p42
sS'__dict__'
p43
S'{}'
p44
sS'__sizeof__'
p45
S'<built-in method __sizeof__ of exceptions.AttributeError object>'
p46
sS'__doc__'
p47
S"'Attribute not found.'"
p48
sS'__init__'
p49
S"<method-wrapper '__init__' of exceptions.AttributeError object>"
p50
sS'__new__'
p51
S'<built-in method __new__ of type object>'
p52
ssS'evalue'
p53
S"'Tulip' object has no attribute 'target_id'"
p54
sS'request'
p55
ccopy_reg
_reconstructor
p56
(cgluon.html
BEAUTIFY
p57
c__builtin__
object
p58
NtRp59
(dp60
S'attributes'
p61
(dp62
sS'components'
p63
(lp64
g56
(cgluon.html
TABLE
p65
g58
NtRp66
(dp67
g61
(dp68
S'level'
p69
I5
ssS'parent'
p70
Nsg63
(lp71
g56
(cgluon.html
TR
p72
g58
NtRp73
(dp74
g61
(dp75
sg70
g66
sg63
(lp76
g56
(cgluon.html
TD
p77
g58
NtRp78
(dp79
g61
(dp80
S'_style'
p81
S'font-weight:bold;'
p82
ssg70
g73
sg63
(lp83
S'ajax'
p84
asbag56
(g77
g58
NtRp85
(dp86
g61
(dp87
S'_valign'
p88
S'top'
p89
ssg70
g73
sg63
(lp90
S':'
asbag56
(g77
g58
NtRp91
(dp92
g61
(dp93
sg70
g73
sg63
(lp94
g56
(g57
g58
NtRp95
(dp96
g61
(dp97
g69
I5
ssg70
g91
sg63
(lp98
S'False'
p99
asbasbasbag56
(g72
g58
NtRp100
(dp101
g61
(dp102
sg70
g66
sg63
(lp103
g56
(g77
g58
NtRp104
(dp105
g61
(dp106
g81
g82
ssg70
g100
sg63
(lp107
S'application'
p108
asbag56
(g77
g58
NtRp109
(dp110
g61
(dp111
g88
g89
ssg70
g100
sg63
(lp112
S':'
asbag56
(g77
g58
NtRp113
(dp114
g61
(dp115
sg70
g100
sg63
(lp116
g56
(g57
g58
NtRp117
(dp118
g61
(dp119
g69
I5
ssg70
g113
sg63
(lp120
S'init'
p121
asbasbasbag56
(g72
g58
NtRp122
(dp123
g61
(dp124
sg70
g66
sg63
(lp125
g56
(g77
g58
NtRp126
(dp127
g61
(dp128
g81
g82
ssg70
g122
sg63
(lp129
g23
asbag56
(g77
g58
NtRp130
(dp131
g61
(dp132
g88
g89
ssg70
g122
sg63
(lp133
S':'
asbag56
(g77
g58
NtRp134
(dp135
g61
(dp136
sg70
g122
sg63
(lp137
g56
(g57
g58
NtRp138
(dp139
g61
(dp140
g69
I5
ssg70
g134
sg63
(lp141
g56
(g65
g58
NtRp142
(dp143
g61
(dp144
g69
I4
ssg70
Nsg63
(lp145
sbasbasbasbag56
(g72
g58
NtRp146
(dp147
g61
(dp148
sg70
g66
sg63
(lp149
g56
(g77
g58
NtRp150
(dp151
g61
(dp152
g81
g82
ssg70
g146
sg63
(lp153
S'body'
p154
asbag56
(g77
g58
NtRp155
(dp156
g61
(dp157
g88
g89
ssg70
g146
sg63
(lp158
S':'
asbag56
(g77
g58
NtRp159
(dp160
g61
(dp161
sg70
g146
sg63
(lp162
g56
(g57
g58
NtRp163
(dp164
g61
(dp165
g69
I5
ssg70
g159
sg63
(lp166
S'<cStringIO.StringO object at 0x10375e730>'
p167
asbasbasbag56
(g72
g58
NtRp168
(dp169
g61
(dp170
sg70
g66
sg63
(lp171
g56
(g77
g58
NtRp172
(dp173
g61
(dp174
g81
g82
ssg70
g168
sg63
(lp175
S'client'
p176
asbag56
(g77
g58
NtRp177
(dp178
g61
(dp179
g88
g89
ssg70
g168
sg63
(lp180
S':'
asbag56
(g77
g58
NtRp181
(dp182
g61
(dp183
sg70
g168
sg63
(lp184
g56
(g57
g58
NtRp185
(dp186
g61
(dp187
g69
I5
ssg70
g181
sg63
(lp188
S'127.0.0.1'
p189
asbasbasbag56
(g72
g58
NtRp190
(dp191
g61
(dp192
sg70
g66
sg63
(lp193
g56
(g77
g58
NtRp194
(dp195
g61
(dp196
g81
g82
ssg70
g190
sg63
(lp197
S'controller'
p198
asbag56
(g77
g58
NtRp199
(dp200
g61
(dp201
g88
g89
ssg70
g190
sg63
(lp202
S':'
asbag56
(g77
g58
NtRp203
(dp204
g61
(dp205
sg70
g190
sg63
(lp206
g56
(g57
g58
NtRp207
(dp208
g61
(dp209
g69
I5
ssg70
g203
sg63
(lp210
S'default'
p211
asbasbasbag56
(g72
g58
NtRp212
(dp213
g61
(dp214
sg70
g66
sg63
(lp215
g56
(g77
g58
NtRp216
(dp217
g61
(dp218
g81
g82
ssg70
g212
sg63
(lp219
S'cookies'
p220
asbag56
(g77
g58
NtRp221
(dp222
g61
(dp223
g88
g89
ssg70
g212
sg63
(lp224
S':'
asbag56
(g77
g58
NtRp225
(dp226
g61
(dp227
sg70
g212
sg63
(lp228
g56
(g57
g58
NtRp229
(dp230
g61
(dp231
g69
I5
ssg70
g225
sg63
(lp232
g56
(g65
g58
NtRp233
(dp234
g61
(dp235
g69
I4
ssg70
Nsg63
(lp236
g56
(g72
g58
NtRp237
(dp238
g61
(dp239
sg70
g233
sg63
(lp240
g56
(g77
g58
NtRp241
(dp242
g61
(dp243
g81
g82
ssg70
g237
sg63
(lp244
S'session_id_admin'
p245
asbag56
(g77
g58
NtRp246
(dp247
g61
(dp248
g88
g89
ssg70
g237
sg63
(lp249
S':'
asbag56
(g77
g58
NtRp250
(dp251
g61
(dp252
sg70
g237
sg63
(lp253
g56
(g57
g58
NtRp254
(dp255
g61
(dp256
g69
I4
ssg70
g250
sg63
(lp257
g56
(g65
g58
NtRp258
(dp259
g61
(dp260
g69
I3
ssg70
Nsg63
(lp261
g56
(g72
g58
NtRp262
(dp263
g61
(dp264
sg70
g258
sg63
(lp265
g56
(g77
g58
NtRp266
(dp267
g61
(dp268
g81
g82
ssg70
g262
sg63
(lp269
S'comment'
p270
asbag56
(g77
g58
NtRp271
(dp272
g61
(dp273
g88
g89
ssg70
g262
sg63
(lp274
S':'
asbag56
(g77
g58
NtRp275
(dp276
g61
(dp277
sg70
g262
sg63
(lp278
g56
(g57
g58
NtRp279
(dp280
g61
(dp281
g69
I3
ssg70
g275
sg63
(lp282
S''
asbasbasbag56
(g72
g58
NtRp283
(dp284
g61
(dp285
sg70
g258
sg63
(lp286
g56
(g77
g58
NtRp287
(dp288
g61
(dp289
g81
g82
ssg70
g283
sg63
(lp290
S'domain'
p291
asbag56
(g77
g58
NtRp292
(dp293
g61
(dp294
g88
g89
ssg70
g283
sg63
(lp295
S':'
asbag56
(g77
g58
NtRp296
(dp297
g61
(dp298
sg70
g283
sg63
(lp299
g56
(g57
g58
NtRp300
(dp301
g61
(dp302
g69
I3
ssg70
g296
sg63
(lp303
S''
asbasbasbag56
(g72
g58
NtRp304
(dp305
g61
(dp306
sg70
g258
sg63
(lp307
g56
(g77
g58
NtRp308
(dp309
g61
(dp310
g81
g82
ssg70
g304
sg63
(lp311
S'expires'
p312
asbag56
(g77
g58
NtRp313
(dp314
g61
(dp315
g88
g89
ssg70
g304
sg63
(lp316
S':'
asbag56
(g77
g58
NtRp317
(dp318
g61
(dp319
sg70
g304
sg63
(lp320
g56
(g57
g58
NtRp321
(dp322
g61
(dp323
g69
I3
ssg70
g317
sg63
(lp324
S''
asbasbasbag56
(g72
g58
NtRp325
(dp326
g61
(dp327
sg70
g258
sg63
(lp328
g56
(g77
g58
NtRp329
(dp330
g61
(dp331
g81
g82
ssg70
g325
sg63
(lp332
S'httponly'
p333
asbag56
(g77
g58
NtRp334
(dp335
g61
(dp336
g88
g89
ssg70
g325
sg63
(lp337
S':'
asbag56
(g77
g58
NtRp338
(dp339
g61
(dp340
sg70
g325
sg63
(lp341
g56
(g57
g58
NtRp342
(dp343
g61
(dp344
g69
I3
ssg70
g338
sg63
(lp345
S''
asbasbasbag56
(g72
g58
NtRp346
(dp347
g61
(dp348
sg70
g258
sg63
(lp349
g56
(g77
g58
NtRp350
(dp351
g61
(dp352
g81
g82
ssg70
g346
sg63
(lp353
S'max-age'
p354
asbag56
(g77
g58
NtRp355
(dp356
g61
(dp357
g88
g89
ssg70
g346
sg63
(lp358
S':'
asbag56
(g77
g58
NtRp359
(dp360
g61
(dp361
sg70
g346
sg63
(lp362
g56
(g57
g58
NtRp363
(dp364
g61
(dp365
g69
I3
ssg70
g359
sg63
(lp366
S''
asbasbasbag56
(g72
g58
NtRp367
(dp368
g61
(dp369
sg70
g258
sg63
(lp370
g56
(g77
g58
NtRp371
(dp372
g61
(dp373
g81
g82
ssg70
g367
sg63
(lp374
S'path'
p375
asbag56
(g77
g58
NtRp376
(dp377
g61
(dp378
g88
g89
ssg70
g367
sg63
(lp379
S':'
asbag56
(g77
g58
NtRp380
(dp381
g61
(dp382
sg70
g367
sg63
(lp383
g56
(g57
g58
NtRp384
(dp385
g61
(dp386
g69
I3
ssg70
g380
sg63
(lp387
S''
asbasbasbag56
(g72
g58
NtRp388
(dp389
g61
(dp390
sg70
g258
sg63
(lp391
g56
(g77
g58
NtRp392
(dp393
g61
(dp394
g81
g82
ssg70
g388
sg63
(lp395
S'secure'
p396
asbag56
(g77
g58
NtRp397
(dp398
g61
(dp399
g88
g89
ssg70
g388
sg63
(lp400
S':'
asbag56
(g77
g58
NtRp401
(dp402
g61
(dp403
sg70
g388
sg63
(lp404
g56
(g57
g58
NtRp405
(dp406
g61
(dp407
g69
I3
ssg70
g401
sg63
(lp408
S''
asbasbasbag56
(g72
g58
NtRp409
(dp410
g61
(dp411
sg70
g258
sg63
(lp412
g56
(g77
g58
NtRp413
(dp414
g61
(dp415
g81
g82
ssg70
g409
sg63
(lp416
S'version'
p417
asbag56
(g77
g58
NtRp418
(dp419
g61
(dp420
g88
g89
ssg70
g409
sg63
(lp421
S':'
asbag56
(g77
g58
NtRp422
(dp423
g61
(dp424
sg70
g409
sg63
(lp425
g56
(g57
g58
NtRp426
(dp427
g61
(dp428
g69
I3
ssg70
g422
sg63
(lp429
S''
asbasbasbasbasbasbasbag56
(g72
g58
NtRp430
(dp431
g61
(dp432
sg70
g233
sg63
(lp433
g56
(g77
g58
NtRp434
(dp435
g61
(dp436
g81
g82
ssg70
g430
sg63
(lp437
S'session_id_blabla'
p438
asbag56
(g77
g58
NtRp439
(dp440
g61
(dp441
g88
g89
ssg70
g430
sg63
(lp442
S':'
asbag56
(g77
g58
NtRp443
(dp444
g61
(dp445
sg70
g430
sg63
(lp446
g56
(g57
g58
NtRp447
(dp448
g61
(dp449
g69
I4
ssg70
g443
sg63
(lp450
g56
(g65
g58
NtRp451
(dp452
g61
(dp453
g69
I3
ssg70
Nsg63
(lp454
g56
(g72
g58
NtRp455
(dp456
g61
(dp457
sg70
g451
sg63
(lp458
g56
(g77
g58
NtRp459
(dp460
g61
(dp461
g81
g82
ssg70
g455
sg63
(lp462
g270
asbag56
(g77
g58
NtRp463
(dp464
g61
(dp465
g88
g89
ssg70
g455
sg63
(lp466
S':'
asbag56
(g77
g58
NtRp467
(dp468
g61
(dp469
sg70
g455
sg63
(lp470
g56
(g57
g58
NtRp471
(dp472
g61
(dp473
g69
I3
ssg70
g467
sg63
(lp474
S''
asbasbasbag56
(g72
g58
NtRp475
(dp476
g61
(dp477
sg70
g451
sg63
(lp478
g56
(g77
g58
NtRp479
(dp480
g61
(dp481
g81
g82
ssg70
g475
sg63
(lp482
g291
asbag56
(g77
g58
NtRp483
(dp484
g61
(dp485
g88
g89
ssg70
g475
sg63
(lp486
S':'
asbag56
(g77
g58
NtRp487
(dp488
g61
(dp489
sg70
g475
sg63
(lp490
g56
(g57
g58
NtRp491
(dp492
g61
(dp493
g69
I3
ssg70
g487
sg63
(lp494
S''
asbasbasbag56
(g72
g58
NtRp495
(dp496
g61
(dp497
sg70
g451
sg63
(lp498
g56
(g77
g58
NtRp499
(dp500
g61
(dp501
g81
g82
ssg70
g495
sg63
(lp502
g312
asbag56
(g77
g58
NtRp503
(dp504
g61
(dp505
g88
g89
ssg70
g495
sg63
(lp506
S':'
asbag56
(g77
g58
NtRp507
(dp508
g61
(dp509
sg70
g495
sg63
(lp510
g56
(g57
g58
NtRp511
(dp512
g61
(dp513
g69
I3
ssg70
g507
sg63
(lp514
S''
asbasbasbag56
(g72
g58
NtRp515
(dp516
g61
(dp517
sg70
g451
sg63
(lp518
g56
(g77
g58
NtRp519
(dp520
g61
(dp521
g81
g82
ssg70
g515
sg63
(lp522
g333
asbag56
(g77
g58
NtRp523
(dp524
g61
(dp525
g88
g89
ssg70
g515
sg63
(lp526
S':'
asbag56
(g77
g58
NtRp527
(dp528
g61
(dp529
sg70
g515
sg63
(lp530
g56
(g57
g58
NtRp531
(dp532
g61
(dp533
g69
I3
ssg70
g527
sg63
(lp534
S''
asbasbasbag56
(g72
g58
NtRp535
(dp536
g61
(dp537
sg70
g451
sg63
(lp538
g56
(g77
g58
NtRp539
(dp540
g61
(dp541
g81
g82
ssg70
g535
sg63
(lp542
g354
asbag56
(g77
g58
NtRp543
(dp544
g61
(dp545
g88
g89
ssg70
g535
sg63
(lp546
S':'
asbag56
(g77
g58
NtRp547
(dp548
g61
(dp549
sg70
g535
sg63
(lp550
g56
(g57
g58
NtRp551
(dp552
g61
(dp553
g69
I3
ssg70
g547
sg63
(lp554
S''
asbasbasbag56
(g72
g58
NtRp555
(dp556
g61
(dp557
sg70
g451
sg63
(lp558
g56
(g77
g58
NtRp559
(dp560
g61
(dp561
g81
g82
ssg70
g555
sg63
(lp562
g375
asbag56
(g77
g58
NtRp563
(dp564
g61
(dp565
g88
g89
ssg70
g555
sg63
(lp566
S':'
asbag56
(g77
g58
NtRp567
(dp568
g61
(dp569
sg70
g555
sg63
(lp570
g56
(g57
g58
NtRp571
(dp572
g61
(dp573
g69
I3
ssg70
g567
sg63
(lp574
S''
asbasbasbag56
(g72
g58
NtRp575
(dp576
g61
(dp577
sg70
g451
sg63
(lp578
g56
(g77
g58
NtRp579
(dp580
g61
(dp581
g81
g82
ssg70
g575
sg63
(lp582
g396
asbag56
(g77
g58
NtRp583
(dp584
g61
(dp585
g88
g89
ssg70
g575
sg63
(lp586
S':'
asbag56
(g77
g58
NtRp587
(dp588
g61
(dp589
sg70
g575
sg63
(lp590
g56
(g57
g58
NtRp591
(dp592
g61
(dp593
g69
I3
ssg70
g587
sg63
(lp594
S''
asbasbasbag56
(g72
g58
NtRp595
(dp596
g61
(dp597
sg70
g451
sg63
(lp598
g56
(g77
g58
NtRp599
(dp600
g61
(dp601
g81
g82
ssg70
g595
sg63
(lp602
g417
asbag56
(g77
g58
NtRp603
(dp604
g61
(dp605
g88
g89
ssg70
g595
sg63
(lp606
S':'
asbag56
(g77
g58
NtRp607
(dp608
g61
(dp609
sg70
g595
sg63
(lp610
g56
(g57
g58
NtRp611
(dp612
g61
(dp613
g69
I3
ssg70
g607
sg63
(lp614
S''
asbasbasbasbasbasbasbag56
(g72
g58
NtRp615
(dp616
g61
(dp617
sg70
g233
sg63
(lp618
g56
(g77
g58
NtRp619
(dp620
g61
(dp621
g81
g82
ssg70
g615
sg63
(lp622
S'session_id_globaleaks'
p623
asbag56
(g77
g58
NtRp624
(dp625
g61
(dp626
g88
g89
ssg70
g615
sg63
(lp627
S':'
asbag56
(g77
g58
NtRp628
(dp629
g61
(dp630
sg70
g615
sg63
(lp631
g56
(g57
g58
NtRp632
(dp633
g61
(dp634
g69
I4
ssg70
g628
sg63
(lp635
g56
(g65
g58
NtRp636
(dp637
g61
(dp638
g69
I3
ssg70
Nsg63
(lp639
g56
(g72
g58
NtRp640
(dp641
g61
(dp642
sg70
g636
sg63
(lp643
g56
(g77
g58
NtRp644
(dp645
g61
(dp646
g81
g82
ssg70
g640
sg63
(lp647
g270
asbag56
(g77
g58
NtRp648
(dp649
g61
(dp650
g88
g89
ssg70
g640
sg63
(lp651
S':'
asbag56
(g77
g58
NtRp652
(dp653
g61
(dp654
sg70
g640
sg63
(lp655
g56
(g57
g58
NtRp656
(dp657
g61
(dp658
g69
I3
ssg70
g652
sg63
(lp659
S''
asbasbasbag56
(g72
g58
NtRp660
(dp661
g61
(dp662
sg70
g636
sg63
(lp663
g56
(g77
g58
NtRp664
(dp665
g61
(dp666
g81
g82
ssg70
g660
sg63
(lp667
g291
asbag56
(g77
g58
NtRp668
(dp669
g61
(dp670
g88
g89
ssg70
g660
sg63
(lp671
S':'
asbag56
(g77
g58
NtRp672
(dp673
g61
(dp674
sg70
g660
sg63
(lp675
g56
(g57
g58
NtRp676
(dp677
g61
(dp678
g69
I3
ssg70
g672
sg63
(lp679
S''
asbasbasbag56
(g72
g58
NtRp680
(dp681
g61
(dp682
sg70
g636
sg63
(lp683
g56
(g77
g58
NtRp684
(dp685
g61
(dp686
g81
g82
ssg70
g680
sg63
(lp687
g312
asbag56
(g77
g58
NtRp688
(dp689
g61
(dp690
g88
g89
ssg70
g680
sg63
(lp691
S':'
asbag56
(g77
g58
NtRp692
(dp693
g61
(dp694
sg70
g680
sg63
(lp695
g56
(g57
g58
NtRp696
(dp697
g61
(dp698
g69
I3
ssg70
g692
sg63
(lp699
S''
asbasbasbag56
(g72
g58
NtRp700
(dp701
g61
(dp702
sg70
g636
sg63
(lp703
g56
(g77
g58
NtRp704
(dp705
g61
(dp706
g81
g82
ssg70
g700
sg63
(lp707
g333
asbag56
(g77
g58
NtRp708
(dp709
g61
(dp710
g88
g89
ssg70
g700
sg63
(lp711
S':'
asbag56
(g77
g58
NtRp712
(dp713
g61
(dp714
sg70
g700
sg63
(lp715
g56
(g57
g58
NtRp716
(dp717
g61
(dp718
g69
I3
ssg70
g712
sg63
(lp719
S''
asbasbasbag56
(g72
g58
NtRp720
(dp721
g61
(dp722
sg70
g636
sg63
(lp723
g56
(g77
g58
NtRp724
(dp725
g61
(dp726
g81
g82
ssg70
g720
sg63
(lp727
g354
asbag56
(g77
g58
NtRp728
(dp729
g61
(dp730
g88
g89
ssg70
g720
sg63
(lp731
S':'
asbag56
(g77
g58
NtRp732
(dp733
g61
(dp734
sg70
g720
sg63
(lp735
g56
(g57
g58
NtRp736
(dp737
g61
(dp738
g69
I3
ssg70
g732
sg63
(lp739
S''
asbasbasbag56
(g72
g58
NtRp740
(dp741
g61
(dp742
sg70
g636
sg63
(lp743
g56
(g77
g58
NtRp744
(dp745
g61
(dp746
g81
g82
ssg70
g740
sg63
(lp747
g375
asbag56
(g77
g58
NtRp748
(dp749
g61
(dp750
g88
g89
ssg70
g740
sg63
(lp751
S':'
asbag56
(g77
g58
NtRp752
(dp753
g61
(dp754
sg70
g740
sg63
(lp755
g56
(g57
g58
NtRp756
(dp757
g61
(dp758
g69
I3
ssg70
g752
sg63
(lp759
S''
asbasbasbag56
(g72
g58
NtRp760
(dp761
g61
(dp762
sg70
g636
sg63
(lp763
g56
(g77
g58
NtRp764
(dp765
g61
(dp766
g81
g82
ssg70
g760
sg63
(lp767
g396
asbag56
(g77
g58
NtRp768
(dp769
g61
(dp770
g88
g89
ssg70
g760
sg63
(lp771
S':'
asbag56
(g77
g58
NtRp772
(dp773
g61
(dp774
sg70
g760
sg63
(lp775
g56
(g57
g58
NtRp776
(dp777
g61
(dp778
g69
I3
ssg70
g772
sg63
(lp779
S''
asbasbasbag56
(g72
g58
NtRp780
(dp781
g61
(dp782
sg70
g636
sg63
(lp783
g56
(g77
g58
NtRp784
(dp785
g61
(dp786
g81
g82
ssg70
g780
sg63
(lp787
g417
asbag56
(g77
g58
NtRp788
(dp789
g61
(dp790
g88
g89
ssg70
g780
sg63
(lp791
S':'
asbag56
(g77
g58
NtRp792
(dp793
g61
(dp794
sg70
g780
sg63
(lp795
g56
(g57
g58
NtRp796
(dp797
g61
(dp798
g69
I3
ssg70
g792
sg63
(lp799
S''
asbasbasbasbasbasbasbag56
(g72
g58
NtRp800
(dp801
g61
(dp802
sg70
g233
sg63
(lp803
g56
(g77
g58
NtRp804
(dp805
g61
(dp806
g81
g82
ssg70
g800
sg63
(lp807
S'session_id_init'
p808
asbag56
(g77
g58
NtRp809
(dp810
g61
(dp811
g88
g89
ssg70
g800
sg63
(lp812
S':'
asbag56
(g77
g58
NtRp813
(dp814
g61
(dp815
sg70
g800
sg63
(lp816
g56
(g57
g58
NtRp817
(dp818
g61
(dp819
g69
I4
ssg70
g813
sg63
(lp820
g56
(g65
g58
NtRp821
(dp822
g61
(dp823
g69
I3
ssg70
Nsg63
(lp824
g56
(g72
g58
NtRp825
(dp826
g61
(dp827
sg70
g821
sg63
(lp828
g56
(g77
g58
NtRp829
(dp830
g61
(dp831
g81
g82
ssg70
g825
sg63
(lp832
g270
asbag56
(g77
g58
NtRp833
(dp834
g61
(dp835
g88
g89
ssg70
g825
sg63
(lp836
S':'
asbag56
(g77
g58
NtRp837
(dp838
g61
(dp839
sg70
g825
sg63
(lp840
g56
(g57
g58
NtRp841
(dp842
g61
(dp843
g69
I3
ssg70
g837
sg63
(lp844
S''
asbasbasbag56
(g72
g58
NtRp845
(dp846
g61
(dp847
sg70
g821
sg63
(lp848
g56
(g77
g58
NtRp849
(dp850
g61
(dp851
g81
g82
ssg70
g845
sg63
(lp852
g291
asbag56
(g77
g58
NtRp853
(dp854
g61
(dp855
g88
g89
ssg70
g845
sg63
(lp856
S':'
asbag56
(g77
g58
NtRp857
(dp858
g61
(dp859
sg70
g845
sg63
(lp860
g56
(g57
g58
NtRp861
(dp862
g61
(dp863
g69
I3
ssg70
g857
sg63
(lp864
S''
asbasbasbag56
(g72
g58
NtRp865
(dp866
g61
(dp867
sg70
g821
sg63
(lp868
g56
(g77
g58
NtRp869
(dp870
g61
(dp871
g81
g82
ssg70
g865
sg63
(lp872
g312
asbag56
(g77
g58
NtRp873
(dp874
g61
(dp875
g88
g89
ssg70
g865
sg63
(lp876
S':'
asbag56
(g77
g58
NtRp877
(dp878
g61
(dp879
sg70
g865
sg63
(lp880
g56
(g57
g58
NtRp881
(dp882
g61
(dp883
g69
I3
ssg70
g877
sg63
(lp884
S''
asbasbasbag56
(g72
g58
NtRp885
(dp886
g61
(dp887
sg70
g821
sg63
(lp888
g56
(g77
g58
NtRp889
(dp890
g61
(dp891
g81
g82
ssg70
g885
sg63
(lp892
g333
asbag56
(g77
g58
NtRp893
(dp894
g61
(dp895
g88
g89
ssg70
g885
sg63
(lp896
S':'
asbag56
(g77
g58
NtRp897
(dp898
g61
(dp899
sg70
g885
sg63
(lp900
g56
(g57
g58
NtRp901
(dp902
g61
(dp903
g69
I3
ssg70
g897
sg63
(lp904
S''
asbasbasbag56
(g72
g58
NtRp905
(dp906
g61
(dp907
sg70
g821
sg63
(lp908
g56
(g77
g58
NtRp909
(dp910
g61
(dp911
g81
g82
ssg70
g905
sg63
(lp912
g354
asbag56
(g77
g58
NtRp913
(dp914
g61
(dp915
g88
g89
ssg70
g905
sg63
(lp916
S':'
asbag56
(g77
g58
NtRp917
(dp918
g61
(dp919
sg70
g905
sg63
(lp920
g56
(g57
g58
NtRp921
(dp922
g61
(dp923
g69
I3
ssg70
g917
sg63
(lp924
S''
asbasbasbag56
(g72
g58
NtRp925
(dp926
g61
(dp927
sg70
g821
sg63
(lp928
g56
(g77
g58
NtRp929
(dp930
g61
(dp931
g81
g82
ssg70
g925
sg63
(lp932
g375
asbag56
(g77
g58
NtRp933
(dp934
g61
(dp935
g88
g89
ssg70
g925
sg63
(lp936
S':'
asbag56
(g77
g58
NtRp937
(dp938
g61
(dp939
sg70
g925
sg63
(lp940
g56
(g57
g58
NtRp941
(dp942
g61
(dp943
g69
I3
ssg70
g937
sg63
(lp944
S''
asbasbasbag56
(g72
g58
NtRp945
(dp946
g61
(dp947
sg70
g821
sg63
(lp948
g56
(g77
g58
NtRp949
(dp950
g61
(dp951
g81
g82
ssg70
g945
sg63
(lp952
g396
asbag56
(g77
g58
NtRp953
(dp954
g61
(dp955
g88
g89
ssg70
g945
sg63
(lp956
S':'
asbag56
(g77
g58
NtRp957
(dp958
g61
(dp959
sg70
g945
sg63
(lp960
g56
(g57
g58
NtRp961
(dp962
g61
(dp963
g69
I3
ssg70
g957
sg63
(lp964
S''
asbasbasbag56
(g72
g58
NtRp965
(dp966
g61
(dp967
sg70
g821
sg63
(lp968
g56
(g77
g58
NtRp969
(dp970
g61
(dp971
g81
g82
ssg70
g965
sg63
(lp972
g417
asbag56
(g77
g58
NtRp973
(dp974
g61
(dp975
g88
g89
ssg70
g965
sg63
(lp976
S':'
asbag56
(g77
g58
NtRp977
(dp978
g61
(dp979
sg70
g965
sg63
(lp980
g56
(g57
g58
NtRp981
(dp982
g61
(dp983
g69
I3
ssg70
g977
sg63
(lp984
S''
asbasbasbasbasbasbasbasbasbasbasbag56
(g72
g58
NtRp985
(dp986
g61
(dp987
sg70
g66
sg63
(lp988
g56
(g77
g58
NtRp989
(dp990
g61
(dp991
g81
g82
ssg70
g985
sg63
(lp992
S'env'
p993
asbag56
(g77
g58
NtRp994
(dp995
g61
(dp996
g88
g89
ssg70
g985
sg63
(lp997
S':'
asbag56
(g77
g58
NtRp998
(dp999
g61
(dp1000
sg70
g985
sg63
(lp1001
g56
(g57
g58
NtRp1002
(dp1003
g61
(dp1004
g69
I5
ssg70
g998
sg63
(lp1005
g56
(g65
g58
NtRp1006
(dp1007
g61
(dp1008
g69
I4
ssg70
Nsg63
(lp1009
g56
(g72
g58
NtRp1010
(dp1011
g61
(dp1012
sg70
g1006
sg63
(lp1013
g56
(g77
g58
NtRp1014
(dp1015
g61
(dp1016
g81
g82
ssg70
g1010
sg63
(lp1017
S'app_folders'
p1018
asbag56
(g77
g58
NtRp1019
(dp1020
g61
(dp1021
g88
g89
ssg70
g1010
sg63
(lp1022
S':'
asbag56
(g77
g58
NtRp1023
(dp1024
g61
(dp1025
sg70
g1010
sg63
(lp1026
g56
(g57
g58
NtRp1027
(dp1028
g61
(dp1029
g69
I4
ssg70
g1023
sg63
(lp1030
S"set(['/Users/hellais/Documents/code/mygit/globaleaks/webapp/applications/init/', '/Users/hellais/Documents/code/mygit/globaleaks/webapp/applications/admin/'])"
p1031
asbasbasbag56
(g72
g58
NtRp1032
(dp1033
g61
(dp1034
sg70
g1006
sg63
(lp1035
g56
(g77
g58
NtRp1036
(dp1037
g61
(dp1038
g81
g82
ssg70
g1032
sg63
(lp1039
S'applications_parent'
p1040
asbag56
(g77
g58
NtRp1041
(dp1042
g61
(dp1043
g88
g89
ssg70
g1032
sg63
(lp1044
S':'
asbag56
(g77
g58
NtRp1045
(dp1046
g61
(dp1047
sg70
g1032
sg63
(lp1048
g56
(g57
g58
NtRp1049
(dp1050
g61
(dp1051
g69
I4
ssg70
g1045
sg63
(lp1052
S'/Users/hellais/Documents/code/mygit/globaleaks/webapp'
p1053
asbasbasbag56
(g72
g58
NtRp1054
(dp1055
g61
(dp1056
sg70
g1006
sg63
(lp1057
g56
(g77
g58
NtRp1058
(dp1059
g61
(dp1060
g81
g82
ssg70
g1054
sg63
(lp1061
S'cmd_args'
p1062
asbag56
(g77
g58
NtRp1063
(dp1064
g61
(dp1065
g88
g89
ssg70
g1054
sg63
(lp1066
S':'
asbag56
(g77
g58
NtRp1067
(dp1068
g61
(dp1069
sg70
g1054
sg63
(lp1070
g56
(g57
g58
NtRp1071
(dp1072
g61
(dp1073
g69
I4
ssg70
g1067
sg63
(lp1074
g56
(g65
g58
NtRp1075
(dp1076
g61
(dp1077
g69
I3
ssg70
Nsg63
(lp1078
sbasbasbasbag56
(g72
g58
NtRp1079
(dp1080
g61
(dp1081
sg70
g1006
sg63
(lp1082
g56
(g77
g58
NtRp1083
(dp1084
g61
(dp1085
g81
g82
ssg70
g1079
sg63
(lp1086
S'cmd_options'
p1087
asbag56
(g77
g58
NtRp1088
(dp1089
g61
(dp1090
g88
g89
ssg70
g1079
sg63
(lp1091
S':'
asbag56
(g77
g58
NtRp1092
(dp1093
g61
(dp1094
sg70
g1079
sg63
(lp1095
g56
(g57
g58
NtRp1096
(dp1097
g61
(dp1098
g69
I4
ssg70
g1092
sg63
(lp1099
S"<Values at 0x1015f1320: {'verbose': False, 'ip': '127.0.0.1', 'shutdown_timeout': 5, 'taskbar': False, 'port': 8000, 'maxthreads': None, 'softcron': False, 'server_name': 'Jeanne.local', 'bpython': False, 'nogui': False, 'nocron': False, 'extcron': False, 'debuglevel': 30, 'test': None, 'folder': '/Users/hellais/Documents/code/mygit/globaleaks/webapp', 'config': '', 'import_models': False, 'winservice': '', 'shell': None, 'run': '', 'log_filename': 'httpserver.log', 'args': [''], 'profiler_filename': None, 'ssl_private_key': '', 'password': 'antani', 'request_queue_size': 5, 'ssl_certificate': '', 'cronjob': False, 'plain': False, 'quiet': False, 'interfaces': None, 'minthreads': None, 'timeout': 10, 'numthreads': None, 'nobanner': False, 'pid_filename': 'httpserver.pid'}>"
p1100
asbasbasbag56
(g72
g58
NtRp1101
(dp1102
g61
(dp1103
sg70
g1006
sg63
(lp1104
g56
(g77
g58
NtRp1105
(dp1106
g61
(dp1107
g81
g82
ssg70
g1101
sg63
(lp1108
S'db_sessions'
p1109
asbag56
(g77
g58
NtRp1110
(dp1111
g61
(dp1112
g88
g89
ssg70
g1101
sg63
(lp1113
S':'
asbag56
(g77
g58
NtRp1114
(dp1115
g61
(dp1116
sg70
g1101
sg63
(lp1117
g56
(g57
g58
NtRp1118
(dp1119
g61
(dp1120
g69
I4
ssg70
g1114
sg63
(lp1121
S'set([])'
p1122
asbasbasbag56
(g72
g58
NtRp1123
(dp1124
g61
(dp1125
sg70
g1006
sg63
(lp1126
g56
(g77
g58
NtRp1127
(dp1128
g61
(dp1129
g81
g82
ssg70
g1123
sg63
(lp1130
S'debugging'
p1131
asbag56
(g77
g58
NtRp1132
(dp1133
g61
(dp1134
g88
g89
ssg70
g1123
sg63
(lp1135
S':'
asbag56
(g77
g58
NtRp1136
(dp1137
g61
(dp1138
sg70
g1123
sg63
(lp1139
g56
(g57
g58
NtRp1140
(dp1141
g61
(dp1142
g69
I4
ssg70
g1136
sg63
(lp1143
g99
asbasbasbag56
(g72
g58
NtRp1144
(dp1145
g61
(dp1146
sg70
g1006
sg63
(lp1147
g56
(g77
g58
NtRp1148
(dp1149
g61
(dp1150
g81
g82
ssg70
g1144
sg63
(lp1151
S'gluon_parent'
p1152
asbag56
(g77
g58
NtRp1153
(dp1154
g61
(dp1155
g88
g89
ssg70
g1144
sg63
(lp1156
S':'
asbag56
(g77
g58
NtRp1157
(dp1158
g61
(dp1159
sg70
g1144
sg63
(lp1160
g56
(g57
g58
NtRp1161
(dp1162
g61
(dp1163
g69
I4
ssg70
g1157
sg63
(lp1164
S'/Users/hellais/Documents/code/mygit/globaleaks/webapp'
p1165
asbasbasbag56
(g72
g58
NtRp1166
(dp1167
g61
(dp1168
sg70
g1006
sg63
(lp1169
g56
(g77
g58
NtRp1170
(dp1171
g61
(dp1172
g81
g82
ssg70
g1166
sg63
(lp1173
S'http_accept'
p1174
asbag56
(g77
g58
NtRp1175
(dp1176
g61
(dp1177
g88
g89
ssg70
g1166
sg63
(lp1178
S':'
asbag56
(g77
g58
NtRp1179
(dp1180
g61
(dp1181
sg70
g1166
sg63
(lp1182
g56
(g57
g58
NtRp1183
(dp1184
g61
(dp1185
g69
I4
ssg70
g1179
sg63
(lp1186
S'text/html,application/xhtml+xml,application/xml;q=0.9,*/*;q=0.8'
p1187
asbasbasbag56
(g72
g58
NtRp1188
(dp1189
g61
(dp1190
sg70
g1006
sg63
(lp1191
g56
(g77
g58
NtRp1192
(dp1193
g61
(dp1194
g81
g82
ssg70
g1188
sg63
(lp1195
S'http_accept_charset'
p1196
asbag56
(g77
g58
NtRp1197
(dp1198
g61
(dp1199
g88
g89
ssg70
g1188
sg63
(lp1200
S':'
asbag56
(g77
g58
NtRp1201
(dp1202
g61
(dp1203
sg70
g1188
sg63
(lp1204
g56
(g57
g58
NtRp1205
(dp1206
g61
(dp1207
g69
I4
ssg70
g1201
sg63
(lp1208
S'ISO-8859-1,utf-8;q=0.7,*;q=0.7'
p1209
asbasbasbag56
(g72
g58
NtRp1210
(dp1211
g61
(dp1212
sg70
g1006
sg63
(lp1213
g56
(g77
g58
NtRp1214
(dp1215
g61
(dp1216
g81
g82
ssg70
g1210
sg63
(lp1217
S'http_accept_encoding'
p1218
asbag56
(g77
g58
NtRp1219
(dp1220
g61
(dp1221
g88
g89
ssg70
g1210
sg63
(lp1222
S':'
asbag56
(g77
g58
NtRp1223
(dp1224
g61
(dp1225
sg70
g1210
sg63
(lp1226
g56
(g57
g58
NtRp1227
(dp1228
g61
(dp1229
g69
I4
ssg70
g1223
sg63
(lp1230
S'gzip, deflate'
p1231
asbasbasbag56
(g72
g58
NtRp1232
(dp1233
g61
(dp1234
sg70
g1006
sg63
(lp1235
g56
(g77
g58
NtRp1236
(dp1237
g61
(dp1238
g81
g82
ssg70
g1232
sg63
(lp1239
S'http_accept_language'
p1240
asbag56
(g77
g58
NtRp1241
(dp1242
g61
(dp1243
g88
g89
ssg70
g1232
sg63
(lp1244
S':'
asbag56
(g77
g58
NtRp1245
(dp1246
g61
(dp1247
sg70
g1232
sg63
(lp1248
g56
(g57
g58
NtRp1249
(dp1250
g61
(dp1251
g69
I4
ssg70
g1245
sg63
(lp1252
S'en-us,en;q=0.5'
p1253
asbasbasbag56
(g72
g58
NtRp1254
(dp1255
g61
(dp1256
sg70
g1006
sg63
(lp1257
g56
(g77
g58
NtRp1258
(dp1259
g61
(dp1260
g81
g82
ssg70
g1254
sg63
(lp1261
S'http_cache_control'
p1262
asbag56
(g77
g58
NtRp1263
(dp1264
g61
(dp1265
g88
g89
ssg70
g1254
sg63
(lp1266
S':'
asbag56
(g77
g58
NtRp1267
(dp1268
g61
(dp1269
sg70
g1254
sg63
(lp1270
g56
(g57
g58
NtRp1271
(dp1272
g61
(dp1273
g69
I4
ssg70
g1267
sg63
(lp1274
S'max-age=0'
p1275
asbasbasbag56
(g72
g58
NtRp1276
(dp1277
g61
(dp1278
sg70
g1006
sg63
(lp1279
g56
(g77
g58
NtRp1280
(dp1281
g61
(dp1282
g81
g82
ssg70
g1276
sg63
(lp1283
S'http_connection'
p1284
asbag56
(g77
g58
NtRp1285
(dp1286
g61
(dp1287
g88
g89
ssg70
g1276
sg63
(lp1288
S':'
asbag56
(g77
g58
NtRp1289
(dp1290
g61
(dp1291
sg70
g1276
sg63
(lp1292
g56
(g57
g58
NtRp1293
(dp1294
g61
(dp1295
g69
I4
ssg70
g1289
sg63
(lp1296
S'keep-alive'
p1297
asbasbasbag56
(g72
g58
NtRp1298
(dp1299
g61
(dp1300
sg70
g1006
sg63
(lp1301
g56
(g77
g58
NtRp1302
(dp1303
g61
(dp1304
g81
g82
ssg70
g1298
sg63
(lp1305
S'http_cookie'
p1306
asbag56
(g77
g58
NtRp1307
(dp1308
g61
(dp1309
g88
g89
ssg70
g1298
sg63
(lp1310
S':'
asbag56
(g77
g58
NtRp1311
(dp1312
g61
(dp1313
sg70
g1298
sg63
(lp1314
g56
(g57
g58
NtRp1315
(dp1316
g61
(dp1317
g69
I4
ssg70
g1311
sg63
(lp1318
S'session_id_admin=127.0.0.1-67122ce4-50b2-4acf-b28e-7a14feeff4d9; session_id_globaleaks=127.0.0.1-c6d5b9b3-1ec7-41c1-8d72-04c21b7a6b11; session_id_blabla=127.0.0.1-c445384e-a3ea-4484-8fe2-52f3295bbb7c; session_id_init=127.0.0.1-a8551263-bc3c-430c-abb2-8711fac671c1'
p1319
asbasbasbag56
(g72
g58
NtRp1320
(dp1321
g61
(dp1322
sg70
g1006
sg63
(lp1323
g56
(g77
g58
NtRp1324
(dp1325
g61
(dp1326
g81
g82
ssg70
g1320
sg63
(lp1327
S'http_host'
p1328
asbag56
(g77
g58
NtRp1329
(dp1330
g61
(dp1331
g88
g89
ssg70
g1320
sg63
(lp1332
S':'
asbag56
(g77
g58
NtRp1333
(dp1334
g61
(dp1335
sg70
g1320
sg63
(lp1336
g56
(g57
g58
NtRp1337
(dp1338
g61
(dp1339
g69
I4
ssg70
g1333
sg63
(lp1340
S'127.0.0.1:8000'
p1341
asbasbasbag56
(g72
g58
NtRp1342
(dp1343
g61
(dp1344
sg70
g1006
sg63
(lp1345
g56
(g77
g58
NtRp1346
(dp1347
g61
(dp1348
g81
g82
ssg70
g1342
sg63
(lp1349
S'http_user_agent'
p1350
asbag56
(g77
g58
NtRp1351
(dp1352
g61
(dp1353
g88
g89
ssg70
g1342
sg63
(lp1354
S':'
asbag56
(g77
g58
NtRp1355
(dp1356
g61
(dp1357
sg70
g1342
sg63
(lp1358
g56
(g57
g58
NtRp1359
(dp1360
g61
(dp1361
g69
I4
ssg70
g1355
sg63
(lp1362
S'Mozilla/5.0 (Macintosh; Intel Mac OS X 10.6; rv:5.0.1) Gecko/20100101 Firefox/5.0.1'
p1363
asbasbasbag56
(g72
g58
NtRp1364
(dp1365
g61
(dp1366
sg70
g1006
sg63
(lp1367
g56
(g77
g58
NtRp1368
(dp1369
g61
(dp1370
g81
g82
ssg70
g1364
sg63
(lp1371
S'is_jython'
p1372
asbag56
(g77
g58
NtRp1373
(dp1374
g61
(dp1375
g88
g89
ssg70
g1364
sg63
(lp1376
S':'
asbag56
(g77
g58
NtRp1377
(dp1378
g61
(dp1379
sg70
g1364
sg63
(lp1380
g56
(g57
g58
NtRp1381
(dp1382
g61
(dp1383
g69
I4
ssg70
g1377
sg63
(lp1384
g99
asbasbasbag56
(g72
g58
NtRp1385
(dp1386
g61
(dp1387
sg70
g1006
sg63
(lp1388
g56
(g77
g58
NtRp1389
(dp1390
g61
(dp1391
g81
g82
ssg70
g1385
sg63
(lp1392
S'path_info'
p1393
asbag56
(g77
g58
NtRp1394
(dp1395
g61
(dp1396
g88
g89
ssg70
g1385
sg63
(lp1397
S':'
asbag56
(g77
g58
NtRp1398
(dp1399
g61
(dp1400
sg70
g1385
sg63
(lp1401
g56
(g57
g58
NtRp1402
(dp1403
g61
(dp1404
g69
I4
ssg70
g1398
sg63
(lp1405
S'/init/default/submission'
p1406
asbasbasbag56
(g72
g58
NtRp1407
(dp1408
g61
(dp1409
sg70
g1006
sg63
(lp1410
g56
(g77
g58
NtRp1411
(dp1412
g61
(dp1413
g81
g82
ssg70
g1407
sg63
(lp1414
S'query_string'
p1415
asbag56
(g77
g58
NtRp1416
(dp1417
g61
(dp1418
g88
g89
ssg70
g1407
sg63
(lp1419
S':'
asbag56
(g77
g58
NtRp1420
(dp1421
g61
(dp1422
sg70
g1407
sg63
(lp1423
g56
(g57
g58
NtRp1424
(dp1425
g61
(dp1426
g69
I4
ssg70
g1420
sg63
(lp1427
S''
asbasbasbag56
(g72
g58
NtRp1428
(dp1429
g61
(dp1430
sg70
g1006
sg63
(lp1431
g56
(g77
g58
NtRp1432
(dp1433
g61
(dp1434
g81
g82
ssg70
g1428
sg63
(lp1435
S'remote_addr'
p1436
asbag56
(g77
g58
NtRp1437
(dp1438
g61
(dp1439
g88
g89
ssg70
g1428
sg63
(lp1440
S':'
asbag56
(g77
g58
NtRp1441
(dp1442
g61
(dp1443
sg70
g1428
sg63
(lp1444
g56
(g57
g58
NtRp1445
(dp1446
g61
(dp1447
g69
I4
ssg70
g1441
sg63
(lp1448
g189
asbasbasbag56
(g72
g58
NtRp1449
(dp1450
g61
(dp1451
sg70
g1006
sg63
(lp1452
g56
(g77
g58
NtRp1453
(dp1454
g61
(dp1455
g81
g82
ssg70
g1449
sg63
(lp1456
S'remote_port'
p1457
asbag56
(g77
g58
NtRp1458
(dp1459
g61
(dp1460
g88
g89
ssg70
g1449
sg63
(lp1461
S':'
asbag56
(g77
g58
NtRp1462
(dp1463
g61
(dp1464
sg70
g1449
sg63
(lp1465
g56
(g57
g58
NtRp1466
(dp1467
g61
(dp1468
g69
I4
ssg70
g1462
sg63
(lp1469
S'55446'
p1470
asbasbasbag56
(g72
g58
NtRp1471
(dp1472
g61
(dp1473
sg70
g1006
sg63
(lp1474
g56
(g77
g58
NtRp1475
(dp1476
g61
(dp1477
g81
g82
ssg70
g1471
sg63
(lp1478
S'request_method'
p1479
asbag56
(g77
g58
NtRp1480
(dp1481
g61
(dp1482
g88
g89
ssg70
g1471
sg63
(lp1483
S':'
asbag56
(g77
g58
NtRp1484
(dp1485
g61
(dp1486
sg70
g1471
sg63
(lp1487
g56
(g57
g58
NtRp1488
(dp1489
g61
(dp1490
g69
I4
ssg70
g1484
sg63
(lp1491
S'GET'
p1492
asbasbasbag56
(g72
g58
NtRp1493
(dp1494
g61
(dp1495
sg70
g1006
sg63
(lp1496
g56
(g77
g58
NtRp1497
(dp1498
g61
(dp1499
g81
g82
ssg70
g1493
sg63
(lp1500
S'script_name'
p1501
asbag56
(g77
g58
NtRp1502
(dp1503
g61
(dp1504
g88
g89
ssg70
g1493
sg63
(lp1505
S':'
asbag56
(g77
g58
NtRp1506
(dp1507
g61
(dp1508
sg70
g1493
sg63
(lp1509
g56
(g57
g58
NtRp1510
(dp1511
g61
(dp1512
g69
I4
ssg70
g1506
sg63
(lp1513
S''
asbasbasbag56
(g72
g58
NtRp1514
(dp1515
g61
(dp1516
sg70
g1006
sg63
(lp1517
g56
(g77
g58
NtRp1518
(dp1519
g61
(dp1520
g81
g82
ssg70
g1514
sg63
(lp1521
S'server_name'
p1522
asbag56
(g77
g58
NtRp1523
(dp1524
g61
(dp1525
g88
g89
ssg70
g1514
sg63
(lp1526
S':'
asbag56
(g77
g58
NtRp1527
(dp1528
g61
(dp1529
sg70
g1514
sg63
(lp1530
g56
(g57
g58
NtRp1531
(dp1532
g61
(dp1533
g69
I4
ssg70
g1527
sg63
(lp1534
S'Jeanne.local'
p1535
asbasbasbag56
(g72
g58
NtRp1536
(dp1537
g61
(dp1538
sg70
g1006
sg63
(lp1539
g56
(g77
g58
NtRp1540
(dp1541
g61
(dp1542
g81
g82
ssg70
g1536
sg63
(lp1543
S'server_port'
p1544
asbag56
(g77
g58
NtRp1545
(dp1546
g61
(dp1547
g88
g89
ssg70
g1536
sg63
(lp1548
S':'
asbag56
(g77
g58
NtRp1549
(dp1550
g61
(dp1551
sg70
g1536
sg63
(lp1552
g56
(g57
g58
NtRp1553
(dp1554
g61
(dp1555
g69
I4
ssg70
g1549
sg63
(lp1556
S'8000'
p1557
asbasbasbag56
(g72
g58
NtRp1558
(dp1559
g61
(dp1560
sg70
g1006
sg63
(lp1561
g56
(g77
g58
NtRp1562
(dp1563
g61
(dp1564
g81
g82
ssg70
g1558
sg63
(lp1565
S'server_protocol'
p1566
asbag56
(g77
g58
NtRp1567
(dp1568
g61
(dp1569
g88
g89
ssg70
g1558
sg63
(lp1570
S':'
asbag56
(g77
g58
NtRp1571
(dp1572
g61
(dp1573
sg70
g1558
sg63
(lp1574
g56
(g57
g58
NtRp1575
(dp1576
g61
(dp1577
g69
I4
ssg70
g1571
sg63
(lp1578
S'HTTP/1.1'
p1579
asbasbasbag56
(g72
g58
NtRp1580
(dp1581
g61
(dp1582
sg70
g1006
sg63
(lp1583
g56
(g77
g58
NtRp1584
(dp1585
g61
(dp1586
g81
g82
ssg70
g1580
sg63
(lp1587
S'server_software'
p1588
asbag56
(g77
g58
NtRp1589
(dp1590
g61
(dp1591
g88
g89
ssg70
g1580
sg63
(lp1592
S':'
asbag56
(g77
g58
NtRp1593
(dp1594
g61
(dp1595
sg70
g1580
sg63
(lp1596
g56
(g57
g58
NtRp1597
(dp1598
g61
(dp1599
g69
I4
ssg70
g1593
sg63
(lp1600
S'Rocket 1.2.2'
p1601
asbasbasbag56
(g72
g58
NtRp1602
(dp1603
g61
(dp1604
sg70
g1006
sg63
(lp1605
g56
(g77
g58
NtRp1606
(dp1607
g61
(dp1608
g81
g82
ssg70
g1602
sg63
(lp1609
S'web2py_crontype'
p1610
asbag56
(g77
g58
NtRp1611
(dp1612
g61
(dp1613
g88
g89
ssg70
g1602
sg63
(lp1614
S':'
asbag56
(g77
g58
NtRp1615
(dp1616
g61
(dp1617
sg70
g1602
sg63
(lp1618
g56
(g57
g58
NtRp1619
(dp1620
g61
(dp1621
g69
I4
ssg70
g1615
sg63
(lp1622
S'hard'
p1623
asbasbasbag56
(g72
g58
NtRp1624
(dp1625
g61
(dp1626
sg70
g1006
sg63
(lp1627
g56
(g77
g58
NtRp1628
(dp1629
g61
(dp1630
g81
g82
ssg70
g1624
sg63
(lp1631
S'web2py_path'
p1632
asbag56
(g77
g58
NtRp1633
(dp1634
g61
(dp1635
g88
g89
ssg70
g1624
sg63
(lp1636
S':'
asbag56
(g77
g58
NtRp1637
(dp1638
g61
(dp1639
sg70
g1624
sg63
(lp1640
g56
(g57
g58
NtRp1641
(dp1642
g61
(dp1643
g69
I4
ssg70
g1637
sg63
(lp1644
g1053
asbasbasbag56
(g72
g58
NtRp1645
(dp1646
g61
(dp1647
sg70
g1006
sg63
(lp1648
g56
(g77
g58
NtRp1649
(dp1650
g61
(dp1651
g81
g82
ssg70
g1645
sg63
(lp1652
S'web2py_version'
p1653
asbag56
(g77
g58
NtRp1654
(dp1655
g61
(dp1656
g88
g89
ssg70
g1645
sg63
(lp1657
S':'
asbag56
(g77
g58
NtRp1658
(dp1659
g61
(dp1660
sg70
g1645
sg63
(lp1661
g56
(g57
g58
NtRp1662
(dp1663
g61
(dp1664
g69
I4
ssg70
g1658
sg63
(lp1665
S'Version 1.98.2 (2011-08-04 00:47:09)\n'
p1666
asbasbasbag56
(g72
g58
NtRp1667
(dp1668
g61
(dp1669
sg70
g1006
sg63
(lp1670
g56
(g77
g58
NtRp1671
(dp1672
g61
(dp1673
g81
g82
ssg70
g1667
sg63
(lp1674
S'wsgi_errors'
p1675
asbag56
(g77
g58
NtRp1676
(dp1677
g61
(dp1678
g88
g89
ssg70
g1667
sg63
(lp1679
S':'
asbag56
(g77
g58
NtRp1680
(dp1681
g61
(dp1682
sg70
g1667
sg63
(lp1683
g56
(g57
g58
NtRp1684
(dp1685
g61
(dp1686
g69
I4
ssg70
g1680
sg63
(lp1687
S"<open file '<stderr>', mode 'w' at 0x100287270>"
p1688
asbasbasbag56
(g72
g58
NtRp1689
(dp1690
g61
(dp1691
sg70
g1006
sg63
(lp1692
g56
(g77
g58
NtRp1693
(dp1694
g61
(dp1695
g81
g82
ssg70
g1689
sg63
(lp1696
S'wsgi_file_wrapper'
p1697
asbag56
(g77
g58
NtRp1698
(dp1699
g61
(dp1700
g88
g89
ssg70
g1689
sg63
(lp1701
S':'
asbag56
(g77
g58
NtRp1702
(dp1703
g61
(dp1704
sg70
g1689
sg63
(lp1705
g56
(g57
g58
NtRp1706
(dp1707
g61
(dp1708
g69
I4
ssg70
g1702
sg63
(lp1709
S'<class gluon.rocket.FileWrapper at 0x101668e20>'
p1710
asbasbasbag56
(g72
g58
NtRp1711
(dp1712
g61
(dp1713
sg70
g1006
sg63
(lp1714
g56
(g77
g58
NtRp1715
(dp1716
g61
(dp1717
g81
g82
ssg70
g1711
sg63
(lp1718
S'wsgi_input'
p1719
asbag56
(g77
g58
NtRp1720
(dp1721
g61
(dp1722
g88
g89
ssg70
g1711
sg63
(lp1723
S':'
asbag56
(g77
g58
NtRp1724
(dp1725
g61
(dp1726
sg70
g1711
sg63
(lp1727
g56
(g57
g58
NtRp1728
(dp1729
g61
(dp1730
g69
I4
ssg70
g1724
sg63
(lp1731
S'<socket._fileobject object at 0x1037582d0>'
p1732
asbasbasbag56
(g72
g58
NtRp1733
(dp1734
g61
(dp1735
sg70
g1006
sg63
(lp1736
g56
(g77
g58
NtRp1737
(dp1738
g61
(dp1739
g81
g82
ssg70
g1733
sg63
(lp1740
S'wsgi_multiprocess'
p1741
asbag56
(g77
g58
NtRp1742
(dp1743
g61
(dp1744
g88
g89
ssg70
g1733
sg63
(lp1745
S':'
asbag56
(g77
g58
NtRp1746
(dp1747
g61
(dp1748
sg70
g1733
sg63
(lp1749
g56
(g57
g58
NtRp1750
(dp1751
g61
(dp1752
g69
I4
ssg70
g1746
sg63
(lp1753
g99
asbasbasbag56
(g72
g58
NtRp1754
(dp1755
g61
(dp1756
sg70
g1006
sg63
(lp1757
g56
(g77
g58
NtRp1758
(dp1759
g61
(dp1760
g81
g82
ssg70
g1754
sg63
(lp1761
S'wsgi_multithread'
p1762
asbag56
(g77
g58
NtRp1763
(dp1764
g61
(dp1765
g88
g89
ssg70
g1754
sg63
(lp1766
S':'
asbag56
(g77
g58
NtRp1767
(dp1768
g61
(dp1769
sg70
g1754
sg63
(lp1770
g56
(g57
g58
NtRp1771
(dp1772
g61
(dp1773
g69
I4
ssg70
g1767
sg63
(lp1774
S'True'
p1775
asbasbasbag56
(g72
g58
NtRp1776
(dp1777
g61
(dp1778
sg70
g1006
sg63
(lp1779
g56
(g77
g58
NtRp1780
(dp1781
g61
(dp1782
g81
g82
ssg70
g1776
sg63
(lp1783
S'wsgi_run_once'
p1784
asbag56
(g77
g58
NtRp1785
(dp1786
g61
(dp1787
g88
g89
ssg70
g1776
sg63
(lp1788
S':'
asbag56
(g77
g58
NtRp1789
(dp1790
g61
(dp1791
sg70
g1776
sg63
(lp1792
g56
(g57
g58
NtRp1793
(dp1794
g61
(dp1795
g69
I4
ssg70
g1789
sg63
(lp1796
g99
asbasbasbag56
(g72
g58
NtRp1797
(dp1798
g61
(dp1799
sg70
g1006
sg63
(lp1800
g56
(g77
g58
NtRp1801
(dp1802
g61
(dp1803
g81
g82
ssg70
g1797
sg63
(lp1804
S'wsgi_url_scheme'
p1805
asbag56
(g77
g58
NtRp1806
(dp1807
g61
(dp1808
g88
g89
ssg70
g1797
sg63
(lp1809
S':'
asbag56
(g77
g58
NtRp1810
(dp1811
g61
(dp1812
sg70
g1797
sg63
(lp1813
g56
(g57
g58
NtRp1814
(dp1815
g61
(dp1816
g69
I4
ssg70
g1810
sg63
(lp1817
S'http'
p1818
asbasbasbag56
(g72
g58
NtRp1819
(dp1820
g61
(dp1821
sg70
g1006
sg63
(lp1822
g56
(g77
g58
NtRp1823
(dp1824
g61
(dp1825
g81
g82
ssg70
g1819
sg63
(lp1826
S'wsgi_version'
p1827
asbag56
(g77
g58
NtRp1828
(dp1829
g61
(dp1830
g88
g89
ssg70
g1819
sg63
(lp1831
S':'
asbag56
(g77
g58
NtRp1832
(dp1833
g61
(dp1834
sg70
g1819
sg63
(lp1835
g56
(g57
g58
NtRp1836
(dp1837
g61
(dp1838
g69
I4
ssg70
g1832
sg63
(lp1839
g56
(g65
g58
NtRp1840
(dp1841
g61
(dp1842
g69
I3
ssg70
Nsg63
(lp1843
g56
(g72
g58
NtRp1844
(dp1845
g61
(dp1846
sg70
g1840
sg63
(lp1847
g56
(g77
g58
NtRp1848
(dp1849
g61
(dp1850
sg70
g1844
sg63
(lp1851
g56
(g57
g58
NtRp1852
(dp1853
g61
(dp1854
g69
I3
ssg70
g1848
sg63
(lp1855
S'1'
asbasbasbag56
(g72
g58
NtRp1856
(dp1857
g61
(dp1858
sg70
g1840
sg63
(lp1859
g56
(g77
g58
NtRp1860
(dp1861
g61
(dp1862
sg70
g1856
sg63
(lp1863
g56
(g57
g58
NtRp1864
(dp1865
g61
(dp1866
g69
I3
ssg70
g1860
sg63
(lp1867
S'0'
asbasbasbasbasbasbasbasbasbasbasbag56
(g72
g58
NtRp1868
(dp1869
g61
(dp1870
sg70
g66
sg63
(lp1871
g56
(g77
g58
NtRp1872
(dp1873
g61
(dp1874
g81
g82
ssg70
g1868
sg63
(lp1875
S'extension'
p1876
asbag56
(g77
g58
NtRp1877
(dp1878
g61
(dp1879
g88
g89
ssg70
g1868
sg63
(lp1880
S':'
asbag56
(g77
g58
NtRp1881
(dp1882
g61
(dp1883
sg70
g1868
sg63
(lp1884
g56
(g57
g58
NtRp1885
(dp1886
g61
(dp1887
g69
I5
ssg70
g1881
sg63
(lp1888
S'html'
p1889
asbasbasbag56
(g72
g58
NtRp1890
(dp1891
g61
(dp1892
sg70
g66
sg63
(lp1893
g56
(g77
g58
NtRp1894
(dp1895
g61
(dp1896
g81
g82
ssg70
g1890
sg63
(lp1897
S'folder'
p1898
asbag56
(g77
g58
NtRp1899
(dp1900
g61
(dp1901
g88
g89
ssg70
g1890
sg63
(lp1902
S':'
asbag56
(g77
g58
NtRp1903
(dp1904
g61
(dp1905
sg70
g1890
sg63
(lp1906
g56
(g57
g58
NtRp1907
(dp1908
g61
(dp1909
g69
I5
ssg70
g1903
sg63
(lp1910
S'/Users/hellais/Documents/code/mygit/globaleaks/webapp/applications/init/'
p1911
asbasbasbag56
(g72
g58
NtRp1912
(dp1913
g61
(dp1914
sg70
g66
sg63
(lp1915
g56
(g77
g58
NtRp1916
(dp1917
g61
(dp1918
g81
g82
ssg70
g1912
sg63
(lp1919
S'function'
p1920
asbag56
(g77
g58
NtRp1921
(dp1922
g61
(dp1923
g88
g89
ssg70
g1912
sg63
(lp1924
S':'
asbag56
(g77
g58
NtRp1925
(dp1926
g61
(dp1927
sg70
g1912
sg63
(lp1928
g56
(g57
g58
NtRp1929
(dp1930
g61
(dp1931
g69
I5
ssg70
g1925
sg63
(lp1932
S'submission'
p1933
asbasbasbag56
(g72
g58
NtRp1934
(dp1935
g61
(dp1936
sg70
g66
sg63
(lp1937
g56
(g77
g58
NtRp1938
(dp1939
g61
(dp1940
g81
g82
ssg70
g1934
sg63
(lp1941
S'get_vars'
p1942
asbag56
(g77
g58
NtRp1943
(dp1944
g61
(dp1945
g88
g89
ssg70
g1934
sg63
(lp1946
S':'
asbag56
(g77
g58
NtRp1947
(dp1948
g61
(dp1949
sg70
g1934
sg63
(lp1950
g56
(g57
g58
NtRp1951
(dp1952
g61
(dp1953
g69
I5
ssg70
g1947
sg63
(lp1954
g56
(g65
g58
NtRp1955
(dp1956
g61
(dp1957
g69
I4
ssg70
Nsg63
(lp1958
sbasbasbasbag56
(g72
g58
NtRp1959
(dp1960
g61
(dp1961
sg70
g66
sg63
(lp1962
g56
(g77
g58
NtRp1963
(dp1964
g61
(dp1965
g81
g82
ssg70
g1959
sg63
(lp1966
S'is_https'
p1967
asbag56
(g77
g58
NtRp1968
(dp1969
g61
(dp1970
g88
g89
ssg70
g1959
sg63
(lp1971
S':'
asbag56
(g77
g58
NtRp1972
(dp1973
g61
(dp1974
sg70
g1959
sg63
(lp1975
g56
(g57
g58
NtRp1976
(dp1977
g61
(dp1978
g69
I5
ssg70
g1972
sg63
(lp1979
g99
asbasbasbag56
(g72
g58
NtRp1980
(dp1981
g61
(dp1982
sg70
g66
sg63
(lp1983
g56
(g77
g58
NtRp1984
(dp1985
g61
(dp1986
g81
g82
ssg70
g1980
sg63
(lp1987
S'is_local'
p1988
asbag56
(g77
g58
NtRp1989
(dp1990
g61
(dp1991
g88
g89
ssg70
g1980
sg63
(lp1992
S':'
asbag56
(g77
g58
NtRp1993
(dp1994
g61
(dp1995
sg70
g1980
sg63
(lp1996
g56
(g57
g58
NtRp1997
(dp1998
g61
(dp1999
g69
I5
ssg70
g1993
sg63
(lp2000
g1775
asbasbasbag56
(g72
g58
NtRp2001
(dp2002
g61
(dp2003
sg70
g66
sg63
(lp2004
g56
(g77
g58
NtRp2005
(dp2006
g61
(dp2007
g81
g82
ssg70
g2001
sg63
(lp2008
S'is_restful'
p2009
asbag56
(g77
g58
NtRp2010
(dp2011
g61
(dp2012
g88
g89
ssg70
g2001
sg63
(lp2013
S':'
asbag56
(g77
g58
NtRp2014
(dp2015
g61
(dp2016
sg70
g2001
sg63
(lp2017
g56
(g57
g58
NtRp2018
(dp2019
g61
(dp2020
g69
I5
ssg70
g2014
sg63
(lp2021
g99
asbasbasbag56
(g72
g58
NtRp2022
(dp2023
g61
(dp2024
sg70
g66
sg63
(lp2025
g56
(g77
g58
NtRp2026
(dp2027
g61
(dp2028
g81
g82
ssg70
g2022
sg63
(lp2029
S'now'
p2030
asbag56
(g77
g58
NtRp2031
(dp2032
g61
(dp2033
g88
g89
ssg70
g2022
sg63
(lp2034
S':'
asbag56
(g77
g58
NtRp2035
(dp2036
g61
(dp2037
sg70
g2022
sg63
(lp2038
g56
(g57
g58
NtRp2039
(dp2040
g61
(dp2041
g69
I5
ssg70
g2035
sg63
(lp2042
S'datetime.datetime(2011, 8, 28, 1, 26, 50, 849094)'
p2043
asbasbasbag56
(g72
g58
NtRp2044
(dp2045
g61
(dp2046
sg70
g66
sg63
(lp2047
g56
(g77
g58
NtRp2048
(dp2049
g61
(dp2050
g81
g82
ssg70
g2044
sg63
(lp2051
S'post_vars'
p2052
asbag56
(g77
g58
NtRp2053
(dp2054
g61
(dp2055
g88
g89
ssg70
g2044
sg63
(lp2056
S':'
asbag56
(g77
g58
NtRp2057
(dp2058
g61
(dp2059
sg70
g2044
sg63
(lp2060
g56
(g57
g58
NtRp2061
(dp2062
g61
(dp2063
g69
I5
ssg70
g2057
sg63
(lp2064
g56
(g65
g58
NtRp2065
(dp2066
g61
(dp2067
g69
I4
ssg70
Nsg63
(lp2068
sbasbasbasbag56
(g72
g58
NtRp2069
(dp2070
g61
(dp2071
sg70
g66
sg63
(lp2072
g56
(g77
g58
NtRp2073
(dp2074
g61
(dp2075
g81
g82
ssg70
g2069
sg63
(lp2076
S'url'
p2077
asbag56
(g77
g58
NtRp2078
(dp2079
g61
(dp2080
g88
g89
ssg70
g2069
sg63
(lp2081
S':'
asbag56
(g77
g58
NtRp2082
(dp2083
g61
(dp2084
sg70
g2069
sg63
(lp2085
g56
(g57
g58
NtRp2086
(dp2087
g61
(dp2088
g69
I5
ssg70
g2082
sg63
(lp2089
S'/init/default/submission'
p2090
asbasbasbag56
(g72
g58
NtRp2091
(dp2092
g61
(dp2093
sg70
g66
sg63
(lp2094
g56
(g77
g58
NtRp2095
(dp2096
g61
(dp2097
g81
g82
ssg70
g2091
sg63
(lp2098
S'uuid'
p2099
asbag56
(g77
g58
NtRp2100
(dp2101
g61
(dp2102
g88
g89
ssg70
g2091
sg63
(lp2103
S':'
asbag56
(g77
g58
NtRp2104
(dp2105
g61
(dp2106
sg70
g2091
sg63
(lp2107
g56
(g57
g58
NtRp2108
(dp2109
g61
(dp2110
g69
I5
ssg70
g2104
sg63
(lp2111
S'init/127.0.0.1.2011-08-28.01-26-50.75231fdc-9862-4b9b-84b2-20cdd23c0acd'
p2112
asbasbasbag56
(g72
g58
NtRp2113
(dp2114
g61
(dp2115
sg70
g66
sg63
(lp2116
g56
(g77
g58
NtRp2117
(dp2118
g61
(dp2119
g81
g82
ssg70
g2113
sg63
(lp2120
S'vars'
p2121
asbag56
(g77
g58
NtRp2122
(dp2123
g61
(dp2124
g88
g89
ssg70
g2113
sg63
(lp2125
S':'
asbag56
(g77
g58
NtRp2126
(dp2127
g61
(dp2128
sg70
g2113
sg63
(lp2129
g56
(g57
g58
NtRp2130
(dp2131
g61
(dp2132
g69
I5
ssg70
g2126
sg63
(lp2133
g56
(g65
g58
NtRp2134
(dp2135
g61
(dp2136
g69
I4
ssg70
Nsg63
(lp2137
sbasbasbasbag56
(g72
g58
NtRp2138
(dp2139
g61
(dp2140
sg70
g66
sg63
(lp2141
g56
(g77
g58
NtRp2142
(dp2143
g61
(dp2144
g81
g82
ssg70
g2138
sg63
(lp2145
S'wsgi'
p2146
asbag56
(g77
g58
NtRp2147
(dp2148
g61
(dp2149
g88
g89
ssg70
g2138
sg63
(lp2150
S':'
asbag56
(g77
g58
NtRp2151
(dp2152
g61
(dp2153
sg70
g2138
sg63
(lp2154
g56
(g57
g58
NtRp2155
(dp2156
g61
(dp2157
g69
I5
ssg70
g2151
sg63
(lp2158
g56
(g65
g58
NtRp2159
(dp2160
g61
(dp2161
g69
I4
ssg70
Nsg63
(lp2162
g56
(g72
g58
NtRp2163
(dp2164
g61
(dp2165
sg70
g2159
sg63
(lp2166
g56
(g77
g58
NtRp2167
(dp2168
g61
(dp2169
g81
g82
ssg70
g2163
sg63
(lp2170
S'environ'
p2171
asbag56
(g77
g58
NtRp2172
(dp2173
g61
(dp2174
g88
g89
ssg70
g2163
sg63
(lp2175
S':'
asbag56
(g77
g58
NtRp2176
(dp2177
g61
(dp2178
sg70
g2163
sg63
(lp2179
g56
(g57
g58
NtRp2180
(dp2181
g61
(dp2182
g69
I4
ssg70
g2176
sg63
(lp2183
g56
(g65
g58
NtRp2184
(dp2185
g61
(dp2186
g69
I3
ssg70
Nsg63
(lp2187
g56
(g72
g58
NtRp2188
(dp2189
g61
(dp2190
sg70
g2184
sg63
(lp2191
g56
(g77
g58
NtRp2192
(dp2193
g61
(dp2194
g81
g82
ssg70
g2188
sg63
(lp2195
S'HTTP_ACCEPT'
p2196
asbag56
(g77
g58
NtRp2197
(dp2198
g61
(dp2199
g88
g89
ssg70
g2188
sg63
(lp2200
S':'
asbag56
(g77
g58
NtRp2201
(dp2202
g61
(dp2203
sg70
g2188
sg63
(lp2204
g56
(g57
g58
NtRp2205
(dp2206
g61
(dp2207
g69
I3
ssg70
g2201
sg63
(lp2208
g1187
asbasbasbag56
(g72
g58
NtRp2209
(dp2210
g61
(dp2211
sg70
g2184
sg63
(lp2212
g56
(g77
g58
NtRp2213
(dp2214
g61
(dp2215
g81
g82
ssg70
g2209
sg63
(lp2216
S'HTTP_ACCEPT_CHARSET'
p2217
asbag56
(g77
g58
NtRp2218
(dp2219
g61
(dp2220
g88
g89
ssg70
g2209
sg63
(lp2221
S':'
asbag56
(g77
g58
NtRp2222
(dp2223
g61
(dp2224
sg70
g2209
sg63
(lp2225
g56
(g57
g58
NtRp2226
(dp2227
g61
(dp2228
g69
I3
ssg70
g2222
sg63
(lp2229
g1209
asbasbasbag56
(g72
g58
NtRp2230
(dp2231
g61
(dp2232
sg70
g2184
sg63
(lp2233
g56
(g77
g58
NtRp2234
(dp2235
g61
(dp2236
g81
g82
ssg70
g2230
sg63
(lp2237
S'HTTP_ACCEPT_ENCODING'
p2238
asbag56
(g77
g58
NtRp2239
(dp2240
g61
(dp2241
g88
g89
ssg70
g2230
sg63
(lp2242
S':'
asbag56
(g77
g58
NtRp2243
(dp2244
g61
(dp2245
sg70
g2230
sg63
(lp2246
g56
(g57
g58
NtRp2247
(dp2248
g61
(dp2249
g69
I3
ssg70
g2243
sg63
(lp2250
g1231
asbasbasbag56
(g72
g58
NtRp2251
(dp2252
g61
(dp2253
sg70
g2184
sg63
(lp2254
g56
(g77
g58
NtRp2255
(dp2256
g61
(dp2257
g81
g82
ssg70
g2251
sg63
(lp2258
S'HTTP_ACCEPT_LANGUAGE'
p2259
asbag56
(g77
g58
NtRp2260
(dp2261
g61
(dp2262
g88
g89
ssg70
g2251
sg63
(lp2263
S':'
asbag56
(g77
g58
NtRp2264
(dp2265
g61
(dp2266
sg70
g2251
sg63
(lp2267
g56
(g57
g58
NtRp2268
(dp2269
g61
(dp2270
g69
I3
ssg70
g2264
sg63
(lp2271
g1253
asbasbasbag56
(g72
g58
NtRp2272
(dp2273
g61
(dp2274
sg70
g2184
sg63
(lp2275
g56
(g77
g58
NtRp2276
(dp2277
g61
(dp2278
g81
g82
ssg70
g2272
sg63
(lp2279
S'HTTP_CACHE_CONTROL'
p2280
asbag56
(g77
g58
NtRp2281
(dp2282
g61
(dp2283
g88
g89
ssg70
g2272
sg63
(lp2284
S':'
asbag56
(g77
g58
NtRp2285
(dp2286
g61
(dp2287
sg70
g2272
sg63
(lp2288
g56
(g57
g58
NtRp2289
(dp2290
g61
(dp2291
g69
I3
ssg70
g2285
sg63
(lp2292
g1275
asbasbasbag56
(g72
g58
NtRp2293
(dp2294
g61
(dp2295
sg70
g2184
sg63
(lp2296
g56
(g77
g58
NtRp2297
(dp2298
g61
(dp2299
g81
g82
ssg70
g2293
sg63
(lp2300
S'HTTP_CONNECTION'
p2301
asbag56
(g77
g58
NtRp2302
(dp2303
g61
(dp2304
g88
g89
ssg70
g2293
sg63
(lp2305
S':'
asbag56
(g77
g58
NtRp2306
(dp2307
g61
(dp2308
sg70
g2293
sg63
(lp2309
g56
(g57
g58
NtRp2310
(dp2311
g61
(dp2312
g69
I3
ssg70
g2306
sg63
(lp2313
g1297
asbasbasbag56
(g72
g58
NtRp2314
(dp2315
g61
(dp2316
sg70
g2184
sg63
(lp2317
g56
(g77
g58
NtRp2318
(dp2319
g61
(dp2320
g81
g82
ssg70
g2314
sg63
(lp2321
S'HTTP_COOKIE'
p2322
asbag56
(g77
g58
NtRp2323
(dp2324
g61
(dp2325
g88
g89
ssg70
g2314
sg63
(lp2326
S':'
asbag56
(g77
g58
NtRp2327
(dp2328
g61
(dp2329
sg70
g2314
sg63
(lp2330
g56
(g57
g58
NtRp2331
(dp2332
g61
(dp2333
g69
I3
ssg70
g2327
sg63
(lp2334
g1319
asbasbasbag56
(g72
g58
NtRp2335
(dp2336
g61
(dp2337
sg70
g2184
sg63
(lp2338
g56
(g77
g58
NtRp2339
(dp2340
g61
(dp2341
g81
g82
ssg70
g2335
sg63
(lp2342
S'HTTP_HOST'
p2343
asbag56
(g77
g58
NtRp2344
(dp2345
g61
(dp2346
g88
g89
ssg70
g2335
sg63
(lp2347
S':'
asbag56
(g77
g58
NtRp2348
(dp2349
g61
(dp2350
sg70
g2335
sg63
(lp2351
g56
(g57
g58
NtRp2352
(dp2353
g61
(dp2354
g69
I3
ssg70
g2348
sg63
(lp2355
g1341
asbasbasbag56
(g72
g58
NtRp2356
(dp2357
g61
(dp2358
sg70
g2184
sg63
(lp2359
g56
(g77
g58
NtRp2360
(dp2361
g61
(dp2362
g81
g82
ssg70
g2356
sg63
(lp2363
S'HTTP_USER_AGENT'
p2364
asbag56
(g77
g58
NtRp2365
(dp2366
g61
(dp2367
g88
g89
ssg70
g2356
sg63
(lp2368
S':'
asbag56
(g77
g58
NtRp2369
(dp2370
g61
(dp2371
sg70
g2356
sg63
(lp2372
g56
(g57
g58
NtRp2373
(dp2374
g61
(dp2375
g69
I3
ssg70
g2369
sg63
(lp2376
g1363
asbasbasbag56
(g72
g58
NtRp2377
(dp2378
g61
(dp2379
sg70
g2184
sg63
(lp2380
g56
(g77
g58
NtRp2381
(dp2382
g61
(dp2383
g81
g82
ssg70
g2377
sg63
(lp2384
S'PATH_INFO'
p2385
asbag56
(g77
g58
NtRp2386
(dp2387
g61
(dp2388
g88
g89
ssg70
g2377
sg63
(lp2389
S':'
asbag56
(g77
g58
NtRp2390
(dp2391
g61
(dp2392
sg70
g2377
sg63
(lp2393
g56
(g57
g58
NtRp2394
(dp2395
g61
(dp2396
g69
I3
ssg70
g2390
sg63
(lp2397
g1406
asbasbasbag56
(g72
g58
NtRp2398
(dp2399
g61
(dp2400
sg70
g2184
sg63
(lp2401
g56
(g77
g58
NtRp2402
(dp2403
g61
(dp2404
g81
g82
ssg70
g2398
sg63
(lp2405
S'QUERY_STRING'
p2406
asbag56
(g77
g58
NtRp2407
(dp2408
g61
(dp2409
g88
g89
ssg70
g2398
sg63
(lp2410
S':'
asbag56
(g77
g58
NtRp2411
(dp2412
g61
(dp2413
sg70
g2398
sg63
(lp2414
g56
(g57
g58
NtRp2415
(dp2416
g61
(dp2417
g69
I3
ssg70
g2411
sg63
(lp2418
S''
asbasbasbag56
(g72
g58
NtRp2419
(dp2420
g61
(dp2421
sg70
g2184
sg63
(lp2422
g56
(g77
g58
NtRp2423
(dp2424
g61
(dp2425
g81
g82
ssg70
g2419
sg63
(lp2426
S'REMOTE_ADDR'
p2427
asbag56
(g77
g58
NtRp2428
(dp2429
g61
(dp2430
g88
g89
ssg70
g2419
sg63
(lp2431
S':'
asbag56
(g77
g58
NtRp2432
(dp2433
g61
(dp2434
sg70
g2419
sg63
(lp2435
g56
(g57
g58
NtRp2436
(dp2437
g61
(dp2438
g69
I3
ssg70
g2432
sg63
(lp2439
g189
asbasbasbag56
(g72
g58
NtRp2440
(dp2441
g61
(dp2442
sg70
g2184
sg63
(lp2443
g56
(g77
g58
NtRp2444
(dp2445
g61
(dp2446
g81
g82
ssg70
g2440
sg63
(lp2447
S'REMOTE_PORT'
p2448
asbag56
(g77
g58
NtRp2449
(dp2450
g61
(dp2451
g88
g89
ssg70
g2440
sg63
(lp2452
S':'
asbag56
(g77
g58
NtRp2453
(dp2454
g61
(dp2455
sg70
g2440
sg63
(lp2456
g56
(g57
g58
NtRp2457
(dp2458
g61
(dp2459
g69
I3
ssg70
g2453
sg63
(lp2460
g1470
asbasbasbag56
(g72
g58
NtRp2461
(dp2462
g61
(dp2463
sg70
g2184
sg63
(lp2464
g56
(g77
g58
NtRp2465
(dp2466
g61
(dp2467
g81
g82
ssg70
g2461
sg63
(lp2468
S'REQUEST_METHOD'
p2469
asbag56
(g77
g58
NtRp2470
(dp2471
g61
(dp2472
g88
g89
ssg70
g2461
sg63
(lp2473
S':'
asbag56
(g77
g58
NtRp2474
(dp2475
g61
(dp2476
sg70
g2461
sg63
(lp2477
g56
(g57
g58
NtRp2478
(dp2479
g61
(dp2480
g69
I3
ssg70
g2474
sg63
(lp2481
g1492
asbasbasbag56
(g72
g58
NtRp2482
(dp2483
g61
(dp2484
sg70
g2184
sg63
(lp2485
g56
(g77
g58
NtRp2486
(dp2487
g61
(dp2488
g81
g82
ssg70
g2482
sg63
(lp2489
S'SCRIPT_NAME'
p2490
asbag56
(g77
g58
NtRp2491
(dp2492
g61
(dp2493
g88
g89
ssg70
g2482
sg63
(lp2494
S':'
asbag56
(g77
g58
NtRp2495
(dp2496
g61
(dp2497
sg70
g2482
sg63
(lp2498
g56
(g57
g58
NtRp2499
(dp2500
g61
(dp2501
g69
I3
ssg70
g2495
sg63
(lp2502
S''
asbasbasbag56
(g72
g58
NtRp2503
(dp2504
g61
(dp2505
sg70
g2184
sg63
(lp2506
g56
(g77
g58
NtRp2507
(dp2508
g61
(dp2509
g81
g82
ssg70
g2503
sg63
(lp2510
S'SERVER_NAME'
p2511
asbag56
(g77
g58
NtRp2512
(dp2513
g61
(dp2514
g88
g89
ssg70
g2503
sg63
(lp2515
S':'
asbag56
(g77
g58
NtRp2516
(dp2517
g61
(dp2518
sg70
g2503
sg63
(lp2519
g56
(g57
g58
NtRp2520
(dp2521
g61
(dp2522
g69
I3
ssg70
g2516
sg63
(lp2523
g1535
asbasbasbag56
(g72
g58
NtRp2524
(dp2525
g61
(dp2526
sg70
g2184
sg63
(lp2527
g56
(g77
g58
NtRp2528
(dp2529
g61
(dp2530
g81
g82
ssg70
g2524
sg63
(lp2531
S'SERVER_PORT'
p2532
asbag56
(g77
g58
NtRp2533
(dp2534
g61
(dp2535
g88
g89
ssg70
g2524
sg63
(lp2536
S':'
asbag56
(g77
g58
NtRp2537
(dp2538
g61
(dp2539
sg70
g2524
sg63
(lp2540
g56
(g57
g58
NtRp2541
(dp2542
g61
(dp2543
g69
I3
ssg70
g2537
sg63
(lp2544
g1557
asbasbasbag56
(g72
g58
NtRp2545
(dp2546
g61
(dp2547
sg70
g2184
sg63
(lp2548
g56
(g77
g58
NtRp2549
(dp2550
g61
(dp2551
g81
g82
ssg70
g2545
sg63
(lp2552
S'SERVER_PROTOCOL'
p2553
asbag56
(g77
g58
NtRp2554
(dp2555
g61
(dp2556
g88
g89
ssg70
g2545
sg63
(lp2557
S':'
asbag56
(g77
g58
NtRp2558
(dp2559
g61
(dp2560
sg70
g2545
sg63
(lp2561
g56
(g57
g58
NtRp2562
(dp2563
g61
(dp2564
g69
I3
ssg70
g2558
sg63
(lp2565
g1579
asbasbasbag56
(g72
g58
NtRp2566
(dp2567
g61
(dp2568
sg70
g2184
sg63
(lp2569
g56
(g77
g58
NtRp2570
(dp2571
g61
(dp2572
g81
g82
ssg70
g2566
sg63
(lp2573
S'SERVER_SOFTWARE'
p2574
asbag56
(g77
g58
NtRp2575
(dp2576
g61
(dp2577
g88
g89
ssg70
g2566
sg63
(lp2578
S':'
asbag56
(g77
g58
NtRp2579
(dp2580
g61
(dp2581
sg70
g2566
sg63
(lp2582
g56
(g57
g58
NtRp2583
(dp2584
g61
(dp2585
g69
I3
ssg70
g2579
sg63
(lp2586
g1601
asbasbasbag56
(g72
g58
NtRp2587
(dp2588
g61
(dp2589
sg70
g2184
sg63
(lp2590
g56
(g77
g58
NtRp2591
(dp2592
g61
(dp2593
g81
g82
ssg70
g2587
sg63
(lp2594
S'wsgi.errors'
p2595
asbag56
(g77
g58
NtRp2596
(dp2597
g61
(dp2598
g88
g89
ssg70
g2587
sg63
(lp2599
S':'
asbag56
(g77
g58
NtRp2600
(dp2601
g61
(dp2602
sg70
g2587
sg63
(lp2603
g56
(g57
g58
NtRp2604
(dp2605
g61
(dp2606
g69
I3
ssg70
g2600
sg63
(lp2607
S"<open file '<stderr>', mode 'w' at 0x100287270>"
p2608
asbasbasbag56
(g72
g58
NtRp2609
(dp2610
g61
(dp2611
sg70
g2184
sg63
(lp2612
g56
(g77
g58
NtRp2613
(dp2614
g61
(dp2615
g81
g82
ssg70
g2609
sg63
(lp2616
S'wsgi.file_wrapper'
p2617
asbag56
(g77
g58
NtRp2618
(dp2619
g61
(dp2620
g88
g89
ssg70
g2609
sg63
(lp2621
S':'
asbag56
(g77
g58
NtRp2622
(dp2623
g61
(dp2624
sg70
g2609
sg63
(lp2625
g56
(g57
g58
NtRp2626
(dp2627
g61
(dp2628
g69
I3
ssg70
g2622
sg63
(lp2629
S'<class gluon.rocket.FileWrapper at 0x101668e20>'
p2630
asbasbasbag56
(g72
g58
NtRp2631
(dp2632
g61
(dp2633
sg70
g2184
sg63
(lp2634
g56
(g77
g58
NtRp2635
(dp2636
g61
(dp2637
g81
g82
ssg70
g2631
sg63
(lp2638
S'wsgi.input'
p2639
asbag56
(g77
g58
NtRp2640
(dp2641
g61
(dp2642
g88
g89
ssg70
g2631
sg63
(lp2643
S':'
asbag56
(g77
g58
NtRp2644
(dp2645
g61
(dp2646
sg70
g2631
sg63
(lp2647
g56
(g57
g58
NtRp2648
(dp2649
g61
(dp2650
g69
I3
ssg70
g2644
sg63
(lp2651
S'<cStringIO.StringO object at 0x10375e730>'
p2652
asbasbasbag56
(g72
g58
NtRp2653
(dp2654
g61
(dp2655
sg70
g2184
sg63
(lp2656
g56
(g77
g58
NtRp2657
(dp2658
g61
(dp2659
g81
g82
ssg70
g2653
sg63
(lp2660
S'wsgi.multiprocess'
p2661
asbag56
(g77
g58
NtRp2662
(dp2663
g61
(dp2664
g88
g89
ssg70
g2653
sg63
(lp2665
S':'
asbag56
(g77
g58
NtRp2666
(dp2667
g61
(dp2668
sg70
g2653
sg63
(lp2669
g56
(g57
g58
NtRp2670
(dp2671
g61
(dp2672
g69
I3
ssg70
g2666
sg63
(lp2673
g99
asbasbasbag56
(g72
g58
NtRp2674
(dp2675
g61
(dp2676
sg70
g2184
sg63
(lp2677
g56
(g77
g58
NtRp2678
(dp2679
g61
(dp2680
g81
g82
ssg70
g2674
sg63
(lp2681
S'wsgi.multithread'
p2682
asbag56
(g77
g58
NtRp2683
(dp2684
g61
(dp2685
g88
g89
ssg70
g2674
sg63
(lp2686
S':'
asbag56
(g77
g58
NtRp2687
(dp2688
g61
(dp2689
sg70
g2674
sg63
(lp2690
g56
(g57
g58
NtRp2691
(dp2692
g61
(dp2693
g69
I3
ssg70
g2687
sg63
(lp2694
g1775
asbasbasbag56
(g72
g58
NtRp2695
(dp2696
g61
(dp2697
sg70
g2184
sg63
(lp2698
g56
(g77
g58
NtRp2699
(dp2700
g61
(dp2701
g81
g82
ssg70
g2695
sg63
(lp2702
S'wsgi.run_once'
p2703
asbag56
(g77
g58
NtRp2704
(dp2705
g61
(dp2706
g88
g89
ssg70
g2695
sg63
(lp2707
S':'
asbag56
(g77
g58
NtRp2708
(dp2709
g61
(dp2710
sg70
g2695
sg63
(lp2711
g56
(g57
g58
NtRp2712
(dp2713
g61
(dp2714
g69
I3
ssg70
g2708
sg63
(lp2715
g99
asbasbasbag56
(g72
g58
NtRp2716
(dp2717
g61
(dp2718
sg70
g2184
sg63
(lp2719
g56
(g77
g58
NtRp2720
(dp2721
g61
(dp2722
g81
g82
ssg70
g2716
sg63
(lp2723
S'wsgi.url_scheme'
p2724
asbag56
(g77
g58
NtRp2725
(dp2726
g61
(dp2727
g88
g89
ssg70
g2716
sg63
(lp2728
S':'
asbag56
(g77
g58
NtRp2729
(dp2730
g61
(dp2731
sg70
g2716
sg63
(lp2732
g56
(g57
g58
NtRp2733
(dp2734
g61
(dp2735
g69
I3
ssg70
g2729
sg63
(lp2736
g1818
asbasbasbag56
(g72
g58
NtRp2737
(dp2738
g61
(dp2739
sg70
g2184
sg63
(lp2740
g56
(g77
g58
NtRp2741
(dp2742
g61
(dp2743
g81
g82
ssg70
g2737
sg63
(lp2744
S'wsgi.version'
p2745
asbag56
(g77
g58
NtRp2746
(dp2747
g61
(dp2748
g88
g89
ssg70
g2737
sg63
(lp2749
S':'
asbag56
(g77
g58
NtRp2750
(dp2751
g61
(dp2752
sg70
g2737
sg63
(lp2753
g56
(g57
g58
NtRp2754
(dp2755
g61
(dp2756
g69
I3
ssg70
g2750
sg63
(lp2757
S'1'
asbasbasbasbasbasbasbasbasbasbasbasbasbsS'frames'
p2758
(lp2759
(dp2760
S'file'
p2761
S'/opt/local/Library/Frameworks/Python.framework/Versions/2.7/lib/python2.7/gluon/restricted.py'
p2762
sS'dump'
p2763
(dp2764
S'environment'
p2765
S"{'A': <class 'gluon.html.A'>, 'Auth': <class 'gluon.tools.Auth'>, 'B': <class 'gluon.html.B'>, 'BEAUTIFY': <class 'gluon.html.BEAUTIFY'>, 'BODY': <class 'gluon.html.BODY'>, 'BR': <class 'gluon.html.BR'>, 'BUTTON': <class 'gluon.html.BUTTON'>, 'CAT': <class 'gluon.html.CAT'>, 'CENTER': <class 'gluon.html.CENTER'>, 'CLEANUP': <class 'gluon.validators.CLEANUP'>, ...}"
p2766
sS'ccode'
p2767
S'<code object <module> at 0x10269f0b0, file "/Use...pplications/init/controllers/default.py", line 3>'
p2768
ssS'lnum'
p2769
I192
sS'lines'
p2770
(dp2771
I192
S'        exec ccode in environment'
p2772
sI193
S'    except HTTP:'
p2773
sI194
S'        raise'
p2774
sI195
S'    except Exception, error:'
p2775
sI196
S'        # XXX Show exception in Wing IDE if running in debugger'
p2776
sI187
S'    try:'
p2777
sI188
S'        if type(code) == types.CodeType:'
p2778
sI189
S'            ccode = code'
p2779
sI190
S'        else:'
p2780
sI191
S'            ccode = compile2(code,layer)'
p2781
ssS'call'
p2782
S"(code='# -*- coding: utf-8 -*-\\n### required - do no del...t()\\n\\nresponse._vars=response._caller(submission)\\n', environment={'A': <class 'gluon.html.A'>, 'Auth': <class 'gluon.tools.Auth'>, 'B': <class 'gluon.html.B'>, 'BEAUTIFY': <class 'gluon.html.BEAUTIFY'>, 'BODY': <class 'gluon.html.BODY'>, 'BR': <class 'gluon.html.BR'>, 'BUTTON': <class 'gluon.html.BUTTON'>, 'CAT': <class 'gluon.html.CAT'>, 'CENTER': <class 'gluon.html.CENTER'>, 'CLEANUP': <class 'gluon.validators.CLEANUP'>, ...}, layer='/Users/hellais/Documents/code/mygit/globaleaks/webapp/applications/init/controllers/default.py')"
p2783
sS'func'
p2784
S'restricted'
p2785
sa(dp2786
g2761
S'/Users/hellais/Documents/code/mygit/globaleaks/webapp/applications/init/controllers/default.py'
p2787
sg2763
(dp2788
sg2769
I46
sg2770
(dp2789
I35
S'    #FIXME do this better...'
p2790
sI36
S'    for tulip in leak.tulips:'
p2791
sI37
S'        print tulip.target_id'
p2792
sI38
S'        if tulip.target is "Leaker":'
p2793
sI39
S'            print tulip.uri'
p2794
sI40
S''
sI41
S'    return dict(form=form, leak_id=None)'
p2795
sI42
S''
sI43
S'def error():'
p2796
sI44
S'    return dict()'
p2797
ssg2782
S'()'
p2798
sg2784
S'<module>'
p2799
sa(dp2800
g2761
S'/opt/local/Library/Frameworks/Python.framework/Versions/2.7/lib/python2.7/gluon/globals.py'
p2801
sg2763
(dp2802
S'self'
p2803
S'undefined'
p2804
sS'f'
S'<function submission>'
p2805
ssg2769
I145
sg2770
(dp2806
I140
S'        self.meta = Storage()      # used by web2py_ajax.html'
p2807
sI141
S'        self.menu = []             # used by the default view layout'
p2808
sI142
S'        self.files = []            # used by web2py_ajax.html'
p2809
sI143
S'        self.generic_patterns = [] # patterns to allow generic views'
p2810
sI144
S'        self._vars = None'
p2811
sI145
S'        self._caller = lambda f: f()'
p2812
sI146
S'        self._view_environment = None'
p2813
sI147
S'        self._custom_commit = None'
p2814
sI148
S'        self._custom_rollback = None'
p2815
sI149
S''
ssg2782
S'(f=<function submission>)'
p2816
sg2784
S'<lambda>'
p2817
sa(dp2818
g2761
S'/Users/hellais/Documents/code/mygit/globaleaks/webapp/applications/init/controllers/default.py'
p2819
sg2763
(dp2820
S'tulip.target_id'
p2821
g2804
sS'tulip'
p2822
S'<Tulip object>'
p2823
ssg2769
I37
sg2770
(dp2824
I32
S''
sI33
S'    leak = Leak(12)'
p2825
sI34
S''
sI35
S'    #FIXME do this better...'
p2826
sI36
S'    for tulip in leak.tulips:'
p2827
sI37
S'        print tulip.target_id'
p2828
sI38
S'        if tulip.target is "Leaker":'
p2829
sI39
S'            print tulip.uri'
p2830
sI40
S''
sI41
S'    return dict(form=form, leak_id=None)'
p2831
ssg2782
S'()'
p2832
sg2784
S'submission'
p2833
sasS'pyver'
p2834
S'Python 2.7.1: /opt/local/Library/Frameworks/Python.framework/Versions/2.7/Resources/Python.app/Contents/MacOS/Python'
p2835
sS'session'
p2836
g56
(g57
g58
NtRp2837
(dp2838
g61
(dp2839
sg63
(lp2840
g56
(g65
g58
NtRp2841
(dp2842
g61
(dp2843
g69
I5
ssg70
Nsg63
(lp2844
sbasbsS'etype'
p2845
S"<type 'exceptions.AttributeError'>"
p2846
sS'date'
p2847
S'Sun Aug 28 01:26:50 2011'
p2848
sS'response'
p2849
g56
(g57
g58
NtRp2850
(dp2851
g61
(dp2852
sg63
(lp2853
g56
(g65
g58
NtRp2854
(dp2855
g61
(dp2856
g69
I5
ssg70
Nsg63
(lp2857
g56
(g72
g58
NtRp2858
(dp2859
g61
(dp2860
sg70
g2854
sg63
(lp2861
g56
(g77
g58
NtRp2862
(dp2863
g61
(dp2864
g81
g82
ssg70
g2858
sg63
(lp2865
g154
asbag56
(g77
g58
NtRp2866
(dp2867
g61
(dp2868
g88
g89
ssg70
g2858
sg63
(lp2869
S':'
asbag56
(g77
g58
NtRp2870
(dp2871
g61
(dp2872
sg70
g2858
sg63
(lp2873
g56
(g57
g58
NtRp2874
(dp2875
g61
(dp2876
g69
I5
ssg70
g2870
sg63
(lp2877
S'<cStringIO.StringO object at 0x10375edf8>'
p2878
asbasbasbag56
(g72
g58
NtRp2879
(dp2880
g61
(dp2881
sg70
g2854
sg63
(lp2882
g56
(g77
g58
NtRp2883
(dp2884
g61
(dp2885
g81
g82
ssg70
g2879
sg63
(lp2886
g220
asbag56
(g77
g58
NtRp2887
(dp2888
g61
(dp2889
g88
g89
ssg70
g2879
sg63
(lp2890
S':'
asbag56
(g77
g58
NtRp2891
(dp2892
g61
(dp2893
sg70
g2879
sg63
(lp2894
g56
(g57
g58
NtRp2895
(dp2896
g61
(dp2897
g69
I5
ssg70
g2891
sg63
(lp2898
g56
(g65
g58
NtRp2899
(dp2900
g61
(dp2901
g69
I4
ssg70
Nsg63
(lp2902
g56
(g72
g58
NtRp2903
(dp2904
g61
(dp2905
sg70
g2899
sg63
(lp2906
g56
(g77
g58
NtRp2907
(dp2908
g61
(dp2909
g81
g82
ssg70
g2903
sg63
(lp2910
S'session_id_init'
p2911
asbag56
(g77
g58
NtRp2912
(dp2913
g61
(dp2914
g88
g89
ssg70
g2903
sg63
(lp2915
S':'
asbag56
(g77
g58
NtRp2916
(dp2917
g61
(dp2918
sg70
g2903
sg63
(lp2919
g56
(g57
g58
NtRp2920
(dp2921
g61
(dp2922
g69
I4
ssg70
g2916
sg63
(lp2923
g56
(g65
g58
NtRp2924
(dp2925
g61
(dp2926
g69
I3
ssg70
Nsg63
(lp2927
g56
(g72
g58
NtRp2928
(dp2929
g61
(dp2930
sg70
g2924
sg63
(lp2931
g56
(g77
g58
NtRp2932
(dp2933
g61
(dp2934
g81
g82
ssg70
g2928
sg63
(lp2935
g270
asbag56
(g77
g58
NtRp2936
(dp2937
g61
(dp2938
g88
g89
ssg70
g2928
sg63
(lp2939
S':'
asbag56
(g77
g58
NtRp2940
(dp2941
g61
(dp2942
sg70
g2928
sg63
(lp2943
g56
(g57
g58
NtRp2944
(dp2945
g61
(dp2946
g69
I3
ssg70
g2940
sg63
(lp2947
S''
asbasbasbag56
(g72
g58
NtRp2948
(dp2949
g61
(dp2950
sg70
g2924
sg63
(lp2951
g56
(g77
g58
NtRp2952
(dp2953
g61
(dp2954
g81
g82
ssg70
g2948
sg63
(lp2955
g291
asbag56
(g77
g58
NtRp2956
(dp2957
g61
(dp2958
g88
g89
ssg70
g2948
sg63
(lp2959
S':'
asbag56
(g77
g58
NtRp2960
(dp2961
g61
(dp2962
sg70
g2948
sg63
(lp2963
g56
(g57
g58
NtRp2964
(dp2965
g61
(dp2966
g69
I3
ssg70
g2960
sg63
(lp2967
S''
asbasbasbag56
(g72
g58
NtRp2968
(dp2969
g61
(dp2970
sg70
g2924
sg63
(lp2971
g56
(g77
g58
NtRp2972
(dp2973
g61
(dp2974
g81
g82
ssg70
g2968
sg63
(lp2975
g312
asbag56
(g77
g58
NtRp2976
(dp2977
g61
(dp2978
g88
g89
ssg70
g2968
sg63
(lp2979
S':'
asbag56
(g77
g58
NtRp2980
(dp2981
g61
(dp2982
sg70
g2968
sg63
(lp2983
g56
(g57
g58
NtRp2984
(dp2985
g61
(dp2986
g69
I3
ssg70
g2980
sg63
(lp2987
S''
asbasbasbag56
(g72
g58
NtRp2988
(dp2989
g61
(dp2990
sg70
g2924
sg63
(lp2991
g56
(g77
g58
NtRp2992
(dp2993
g61
(dp2994
g81
g82
ssg70
g2988
sg63
(lp2995
g333
asbag56
(g77
g58
NtRp2996
(dp2997
g61
(dp2998
g88
g89
ssg70
g2988
sg63
(lp2999
S':'
asbag56
(g77
g58
NtRp3000
(dp3001
g61
(dp3002
sg70
g2988
sg63
(lp3003
g56
(g57
g58
NtRp3004
(dp3005
g61
(dp3006
g69
I3
ssg70
g3000
sg63
(lp3007
S''
asbasbasbag56
(g72
g58
NtRp3008
(dp3009
g61
(dp3010
sg70
g2924
sg63
(lp3011
g56
(g77
g58
NtRp3012
(dp3013
g61
(dp3014
g81
g82
ssg70
g3008
sg63
(lp3015
g354
asbag56
(g77
g58
NtRp3016
(dp3017
g61
(dp3018
g88
g89
ssg70
g3008
sg63
(lp3019
S':'
asbag56
(g77
g58
NtRp3020
(dp3021
g61
(dp3022
sg70
g3008
sg63
(lp3023
g56
(g57
g58
NtRp3024
(dp3025
g61
(dp3026
g69
I3
ssg70
g3020
sg63
(lp3027
S''
asbasbasbag56
(g72
g58
NtRp3028
(dp3029
g61
(dp3030
sg70
g2924
sg63
(lp3031
g56
(g77
g58
NtRp3032
(dp3033
g61
(dp3034
g81
g82
ssg70
g3028
sg63
(lp3035
g375
asbag56
(g77
g58
NtRp3036
(dp3037
g61
(dp3038
g88
g89
ssg70
g3028
sg63
(lp3039
S':'
asbag56
(g77
g58
NtRp3040
(dp3041
g61
(dp3042
sg70
g3028
sg63
(lp3043
g56
(g57
g58
NtRp3044
(dp3045
g61
(dp3046
g69
I3
ssg70
g3040
sg63
(lp3047
S'/'
asbasbasbag56
(g72
g58
NtRp3048
(dp3049
g61
(dp3050
sg70
g2924
sg63
(lp3051
g56
(g77
g58
NtRp3052
(dp3053
g61
(dp3054
g81
g82
ssg70
g3048
sg63
(lp3055
g396
asbag56
(g77
g58
NtRp3056
(dp3057
g61
(dp3058
g88
g89
ssg70
g3048
sg63
(lp3059
S':'
asbag56
(g77
g58
NtRp3060
(dp3061
g61
(dp3062
sg70
g3048
sg63
(lp3063
g56
(g57
g58
NtRp3064
(dp3065
g61
(dp3066
g69
I3
ssg70
g3060
sg63
(lp3067
S''
asbasbasbag56
(g72
g58
NtRp3068
(dp3069
g61
(dp3070
sg70
g2924
sg63
(lp3071
g56
(g77
g58
NtRp3072
(dp3073
g61
(dp3074
g81
g82
ssg70
g3068
sg63
(lp3075
g417
asbag56
(g77
g58
NtRp3076
(dp3077
g61
(dp3078
g88
g89
ssg70
g3068
sg63
(lp3079
S':'
asbag56
(g77
g58
NtRp3080
(dp3081
g61
(dp3082
sg70
g3068
sg63
(lp3083
g56
(g57
g58
NtRp3084
(dp3085
g61
(dp3086
g69
I3
ssg70
g3080
sg63
(lp3087
S''
asbasbasbasbasbasbasbasbasbasbasbag56
(g72
g58
NtRp3088
(dp3089
g61
(dp3090
sg70
g2854
sg63
(lp3091
g56
(g77
g58
NtRp3092
(dp3093
g61
(dp3094
g81
g82
ssg70
g3088
sg63
(lp3095
S'files'
p3096
asbag56
(g77
g58
NtRp3097
(dp3098
g61
(dp3099
g88
g89
ssg70
g3088
sg63
(lp3100
S':'
asbag56
(g77
g58
NtRp3101
(dp3102
g61
(dp3103
sg70
g3088
sg63
(lp3104
g56
(g57
g58
NtRp3105
(dp3106
g61
(dp3107
g69
I5
ssg70
g3101
sg63
(lp3108
g56
(g65
g58
NtRp3109
(dp3110
g61
(dp3111
g69
I4
ssg70
Nsg63
(lp3112
sbasbasbasbag56
(g72
g58
NtRp3113
(dp3114
g61
(dp3115
sg70
g2854
sg63
(lp3116
g56
(g77
g58
NtRp3117
(dp3118
g61
(dp3119
g81
g82
ssg70
g3113
sg63
(lp3120
S'flash'
p3121
asbag56
(g77
g58
NtRp3122
(dp3123
g61
(dp3124
g88
g89
ssg70
g3113
sg63
(lp3125
S':'
asbag56
(g77
g58
NtRp3126
(dp3127
g61
(dp3128
sg70
g3113
sg63
(lp3129
g56
(g57
g58
NtRp3130
(dp3131
g61
(dp3132
g69
I5
ssg70
g3126
sg63
(lp3133
S'please fill the form'
p3134
asbasbasbag56
(g72
g58
NtRp3135
(dp3136
g61
(dp3137
sg70
g2854
sg63
(lp3138
g56
(g77
g58
NtRp3139
(dp3140
g61
(dp3141
g81
g82
ssg70
g3135
sg63
(lp3142
S'generic_patterns'
p3143
asbag56
(g77
g58
NtRp3144
(dp3145
g61
(dp3146
g88
g89
ssg70
g3135
sg63
(lp3147
S':'
asbag56
(g77
g58
NtRp3148
(dp3149
g61
(dp3150
sg70
g3135
sg63
(lp3151
g56
(g57
g58
NtRp3152
(dp3153
g61
(dp3154
g69
I5
ssg70
g3148
sg63
(lp3155
g56
(g65
g58
NtRp3156
(dp3157
g61
(dp3158
g69
I4
ssg70
Nsg63
(lp3159
sbasbasbasbag56
(g72
g58
NtRp3160
(dp3161
g61
(dp3162
sg70
g2854
sg63
(lp3163
g56
(g77
g58
NtRp3164
(dp3165
g61
(dp3166
g81
g82
ssg70
g3160
sg63
(lp3167
S'headers'
p3168
asbag56
(g77
g58
NtRp3169
(dp3170
g61
(dp3171
g88
g89
ssg70
g3160
sg63
(lp3172
S':'
asbag56
(g77
g58
NtRp3173
(dp3174
g61
(dp3175
sg70
g3160
sg63
(lp3176
g56
(g57
g58
NtRp3177
(dp3178
g61
(dp3179
g69
I5
ssg70
g3173
sg63
(lp3180
g56
(g65
g58
NtRp3181
(dp3182
g61
(dp3183
g69
I4
ssg70
Nsg63
(lp3184
g56
(g72
g58
NtRp3185
(dp3186
g61
(dp3187
sg70
g3181
sg63
(lp3188
g56
(g77
g58
NtRp3189
(dp3190
g61
(dp3191
g81
g82
ssg70
g3185
sg63
(lp3192
S'Cache-Control'
p3193
asbag56
(g77
g58
NtRp3194
(dp3195
g61
(dp3196
g88
g89
ssg70
g3185
sg63
(lp3197
S':'
asbag56
(g77
g58
NtRp3198
(dp3199
g61
(dp3200
sg70
g3185
sg63
(lp3201
g56
(g57
g58
NtRp3202
(dp3203
g61
(dp3204
g69
I4
ssg70
g3198
sg63
(lp3205
S'no-store, no-cache, must-revalidate, post-check=0, pre-check=0'
p3206
asbasbasbag56
(g72
g58
NtRp3207
(dp3208
g61
(dp3209
sg70
g3181
sg63
(lp3210
g56
(g77
g58
NtRp3211
(dp3212
g61
(dp3213
g81
g82
ssg70
g3207
sg63
(lp3214
S'Content-Type'
p3215
asbag56
(g77
g58
NtRp3216
(dp3217
g61
(dp3218
g88
g89
ssg70
g3207
sg63
(lp3219
S':'
asbag56
(g77
g58
NtRp3220
(dp3221
g61
(dp3222
sg70
g3207
sg63
(lp3223
g56
(g57
g58
NtRp3224
(dp3225
g61
(dp3226
g69
I4
ssg70
g3220
sg63
(lp3227
S'text/html; charset=utf-8'
p3228
asbasbasbag56
(g72
g58
NtRp3229
(dp3230
g61
(dp3231
sg70
g3181
sg63
(lp3232
g56
(g77
g58
NtRp3233
(dp3234
g61
(dp3235
g81
g82
ssg70
g3229
sg63
(lp3236
S'Expires'
p3237
asbag56
(g77
g58
NtRp3238
(dp3239
g61
(dp3240
g88
g89
ssg70
g3229
sg63
(lp3241
S':'
asbag56
(g77
g58
NtRp3242
(dp3243
g61
(dp3244
sg70
g3229
sg63
(lp3245
g56
(g57
g58
NtRp3246
(dp3247
g61
(dp3248
g69
I4
ssg70
g3242
sg63
(lp3249
S'Sat, 27 Aug 2011 23:26:50 GMT'
p3250
asbasbasbag56
(g72
g58
NtRp3251
(dp3252
g61
(dp3253
sg70
g3181
sg63
(lp3254
g56
(g77
g58
NtRp3255
(dp3256
g61
(dp3257
g81
g82
ssg70
g3251
sg63
(lp3258
S'Pragma'
p3259
asbag56
(g77
g58
NtRp3260
(dp3261
g61
(dp3262
g88
g89
ssg70
g3251
sg63
(lp3263
S':'
asbag56
(g77
g58
NtRp3264
(dp3265
g61
(dp3266
sg70
g3251
sg63
(lp3267
g56
(g57
g58
NtRp3268
(dp3269
g61
(dp3270
g69
I4
ssg70
g3264
sg63
(lp3271
S'no-cache'
p3272
asbasbasbag56
(g72
g58
NtRp3273
(dp3274
g61
(dp3275
sg70
g3181
sg63
(lp3276
g56
(g77
g58
NtRp3277
(dp3278
g61
(dp3279
g81
g82
ssg70
g3273
sg63
(lp3280
S'X-Powered-By'
p3281
asbag56
(g77
g58
NtRp3282
(dp3283
g61
(dp3284
g88
g89
ssg70
g3273
sg63
(lp3285
S':'
asbag56
(g77
g58
NtRp3286
(dp3287
g61
(dp3288
sg70
g3273
sg63
(lp3289
g56
(g57
g58
NtRp3290
(dp3291
g61
(dp3292
g69
I4
ssg70
g3286
sg63
(lp3293
S'web2py'
p3294
asbasbasbasbasbasbasbag56
(g72
g58
NtRp3295
(dp3296
g61
(dp3297
sg70
g2854
sg63
(lp3298
g56
(g77
g58
NtRp3299
(dp3300
g61
(dp3301
g81
g82
ssg70
g3295
sg63
(lp3302
S'menu'
p3303
asbag56
(g77
g58
NtRp3304
(dp3305
g61
(dp3306
g88
g89
ssg70
g3295
sg63
(lp3307
S':'
asbag56
(g77
g58
NtRp3308
(dp3309
g61
(dp3310
sg70
g3295
sg63
(lp3311
g56
(g57
g58
NtRp3312
(dp3313
g61
(dp3314
g69
I5
ssg70
g3308
sg63
(lp3315
g56
(g65
g58
NtRp3316
(dp3317
g61
(dp3318
g69
I4
ssg70
Nsg63
(lp3319
g56
(g72
g58
NtRp3320
(dp3321
g61
(dp3322
sg70
g3316
sg63
(lp3323
g56
(g77
g58
NtRp3324
(dp3325
g61
(dp3326
sg70
g3320
sg63
(lp3327
g56
(g57
g58
NtRp3328
(dp3329
g61
(dp3330
g69
I4
ssg70
g3324
sg63
(lp3331
g56
(g65
g58
NtRp3332
(dp3333
g61
(dp3334
g69
I3
ssg70
Nsg63
(lp3335
g56
(g72
g58
NtRp3336
(dp3337
g61
(dp3338
sg70
g3332
sg63
(lp3339
g56
(g77
g58
NtRp3340
(dp3341
g61
(dp3342
sg70
g3336
sg63
(lp3343
g56
(g57
g58
NtRp3344
(dp3345
g61
(dp3346
g69
I3
ssg70
g3340
sg63
(lp3347
cgluon.languages
lazyT_unpickle
p3348
(S't\x05\x00\x00\x00Index'
tRp3349
asbasbasbag56
(g72
g58
NtRp3350
(dp3351
g61
(dp3352
sg70
g3332
sg63
(lp3353
g56
(g77
g58
NtRp3354
(dp3355
g61
(dp3356
sg70
g3350
sg63
(lp3357
g56
(g57
g58
NtRp3358
(dp3359
g61
(dp3360
g69
I3
ssg70
g3354
sg63
(lp3361
g99
asbasbasbag56
(g72
g58
NtRp3362
(dp3363
g61
(dp3364
sg70
g3332
sg63
(lp3365
g56
(g77
g58
NtRp3366
(dp3367
g61
(dp3368
sg70
g3362
sg63
(lp3369
g56
(g57
g58
NtRp3370
(dp3371
g61
(dp3372
g69
I3
ssg70
g3366
sg63
(lp3373
S'/init/default/index'
p3374
asbasbasbag56
(g72
g58
NtRp3375
(dp3376
g61
(dp3377
sg70
g3332
sg63
(lp3378
g56
(g77
g58
NtRp3379
(dp3380
g61
(dp3381
sg70
g3375
sg63
(lp3382
g56
(g57
g58
NtRp3383
(dp3384
g61
(dp3385
g69
I3
ssg70
g3379
sg63
(lp3386
g56
(g65
g58
NtRp3387
(dp3388
g61
(dp3389
g69
I2
ssg70
Nsg63
(lp3390
sbasbasbasbasbasbasbasbasbasbasbasbag56
(g72
g58
NtRp3391
(dp3392
g61
(dp3393
sg70
g2854
sg63
(lp3394
g56
(g77
g58
NtRp3395
(dp3396
g61
(dp3397
g81
g82
ssg70
g3391
sg63
(lp3398
S'meta'
p3399
asbag56
(g77
g58
NtRp3400
(dp3401
g61
(dp3402
g88
g89
ssg70
g3391
sg63
(lp3403
S':'
asbag56
(g77
g58
NtRp3404
(dp3405
g61
(dp3406
sg70
g3391
sg63
(lp3407
g56
(g57
g58
NtRp3408
(dp3409
g61
(dp3410
g69
I5
ssg70
g3404
sg63
(lp3411
g56
(g65
g58
NtRp3412
(dp3413
g61
(dp3414
g69
I4
ssg70
Nsg63
(lp3415
g56
(g72
g58
NtRp3416
(dp3417
g61
(dp3418
sg70
g3412
sg63
(lp3419
g56
(g77
g58
NtRp3420
(dp3421
g61
(dp3422
g81
g82
ssg70
g3416
sg63
(lp3423
S'author'
p3424
asbag56
(g77
g58
NtRp3425
(dp3426
g61
(dp3427
g88
g89
ssg70
g3416
sg63
(lp3428
S':'
asbag56
(g77
g58
NtRp3429
(dp3430
g61
(dp3431
sg70
g3416
sg63
(lp3432
g56
(g57
g58
NtRp3433
(dp3434
g61
(dp3435
g69
I4
ssg70
g3429
sg63
(lp3436
S'RGC <info@globaleaks.org>'
p3437
asbasbasbag56
(g72
g58
NtRp3438
(dp3439
g61
(dp3440
sg70
g3412
sg63
(lp3441
g56
(g77
g58
NtRp3442
(dp3443
g61
(dp3444
g81
g82
ssg70
g3438
sg63
(lp3445
S'description'
p3446
asbag56
(g77
g58
NtRp3447
(dp3448
g61
(dp3449
g88
g89
ssg70
g3438
sg63
(lp3450
S':'
asbag56
(g77
g58
NtRp3451
(dp3452
g61
(dp3453
sg70
g3438
sg63
(lp3454
g56
(g57
g58
NtRp3455
(dp3456
g61
(dp3457
g69
I4
ssg70
g3451
sg63
(lp3458
S''
asbasbasbag56
(g72
g58
NtRp3459
(dp3460
g61
(dp3461
sg70
g3412
sg63
(lp3462
g56
(g77
g58
NtRp3463
(dp3464
g61
(dp3465
g81
g82
ssg70
g3459
sg63
(lp3466
S'keywords'
p3467
asbag56
(g77
g58
NtRp3468
(dp3469
g61
(dp3470
g88
g89
ssg70
g3459
sg63
(lp3471
S':'
asbag56
(g77
g58
NtRp3472
(dp3473
g61
(dp3474
sg70
g3459
sg63
(lp3475
g56
(g57
g58
NtRp3476
(dp3477
g61
(dp3478
g69
I4
ssg70
g3472
sg63
(lp3479
S''
asbasbasbasbasbasbasbag56
(g72
g58
NtRp3480
(dp3481
g61
(dp3482
sg70
g2854
sg63
(lp3483
g56
(g77
g58
NtRp3484
(dp3485
g61
(dp3486
g81
g82
ssg70
g3480
sg63
(lp3487
S'postprocessing'
p3488
asbag56
(g77
g58
NtRp3489
(dp3490
g61
(dp3491
g88
g89
ssg70
g3480
sg63
(lp3492
S':'
asbag56
(g77
g58
NtRp3493
(dp3494
g61
(dp3495
sg70
g3480
sg63
(lp3496
g56
(g57
g58
NtRp3497
(dp3498
g61
(dp3499
g69
I5
ssg70
g3493
sg63
(lp3500
g56
(g65
g58
NtRp3501
(dp3502
g61
(dp3503
g69
I4
ssg70
Nsg63
(lp3504
sbasbasbasbag56
(g72
g58
NtRp3505
(dp3506
g61
(dp3507
sg70
g2854
sg63
(lp3508
g56
(g77
g58
NtRp3509
(dp3510
g61
(dp3511
g81
g82
ssg70
g3505
sg63
(lp3512
S'session_file'
p3513
asbag56
(g77
g58
NtRp3514
(dp3515
g61
(dp3516
g88
g89
ssg70
g3505
sg63
(lp3517
S':'
asbag56
(g77
g58
NtRp3518
(dp3519
g61
(dp3520
sg70
g3505
sg63
(lp3521
g56
(g57
g58
NtRp3522
(dp3523
g61
(dp3524
g69
I5
ssg70
g3518
sg63
(lp3525
S"<open file '/Users/hellais/Documents/code/mygit/globaleaks/webapp/applications/init/sessions/127.0.0.1-a8551263-bc3c-430c-abb2-8711fac671c1', mode 'rb+' at 0x10217b420>"
p3526
asbasbasbag56
(g72
g58
NtRp3527
(dp3528
g61
(dp3529
sg70
g2854
sg63
(lp3530
g56
(g77
g58
NtRp3531
(dp3532
g61
(dp3533
g81
g82
ssg70
g3527
sg63
(lp3534
S'session_filename'
p3535
asbag56
(g77
g58
NtRp3536
(dp3537
g61
(dp3538
g88
g89
ssg70
g3527
sg63
(lp3539
S':'
asbag56
(g77
g58
NtRp3540
(dp3541
g61
(dp3542
sg70
g3527
sg63
(lp3543
g56
(g57
g58
NtRp3544
(dp3545
g61
(dp3546
g69
I5
ssg70
g3540
sg63
(lp3547
S'/Users/hellais/Documents/code/mygit/globaleaks/webapp/applications/init/sessions/127.0.0.1-a8551263-bc3c-430c-abb2-8711fac671c1'
p3548
asbasbasbag56
(g72
g58
NtRp3549
(dp3550
g61
(dp3551
sg70
g2854
sg63
(lp3552
g56
(g77
g58
NtRp3553
(dp3554
g61
(dp3555
g81
g82
ssg70
g3549
sg63
(lp3556
S'session_id'
p3557
asbag56
(g77
g58
NtRp3558
(dp3559
g61
(dp3560
g88
g89
ssg70
g3549
sg63
(lp3561
S':'
asbag56
(g77
g58
NtRp3562
(dp3563
g61
(dp3564
sg70
g3549
sg63
(lp3565
g56
(g57
g58
NtRp3566
(dp3567
g61
(dp3568
g69
I5
ssg70
g3562
sg63
(lp3569
S'127.0.0.1-a8551263-bc3c-430c-abb2-8711fac671c1'
p3570
asbasbasbag56
(g72
g58
NtRp3571
(dp3572
g61
(dp3573
sg70
g2854
sg63
(lp3574
g56
(g77
g58
NtRp3575
(dp3576
g61
(dp3577
g81
g82
ssg70
g3571
sg63
(lp3578
S'session_id_name'
p3579
asbag56
(g77
g58
NtRp3580
(dp3581
g61
(dp3582
g88
g89
ssg70
g3571
sg63
(lp3583
S':'
asbag56
(g77
g58
NtRp3584
(dp3585
g61
(dp3586
sg70
g3571
sg63
(lp3587
g56
(g57
g58
NtRp3588
(dp3589
g61
(dp3590
g69
I5
ssg70
g3584
sg63
(lp3591
g2911
asbasbasbag56
(g72
g58
NtRp3592
(dp3593
g61
(dp3594
sg70
g2854
sg63
(lp3595
g56
(g77
g58
NtRp3596
(dp3597
g61
(dp3598
g81
g82
ssg70
g3592
sg63
(lp3599
S'session_locked'
p3600
asbag56
(g77
g58
NtRp3601
(dp3602
g61
(dp3603
g88
g89
ssg70
g3592
sg63
(lp3604
S':'
asbag56
(g77
g58
NtRp3605
(dp3606
g61
(dp3607
sg70
g3592
sg63
(lp3608
g56
(g57
g58
NtRp3609
(dp3610
g61
(dp3611
g69
I5
ssg70
g3605
sg63
(lp3612
g1775
asbasbasbag56
(g72
g58
NtRp3613
(dp3614
g61
(dp3615
sg70
g2854
sg63
(lp3616
g56
(g77
g58
NtRp3617
(dp3618
g61
(dp3619
g81
g82
ssg70
g3613
sg63
(lp3620
S'session_new'
p3621
asbag56
(g77
g58
NtRp3622
(dp3623
g61
(dp3624
g88
g89
ssg70
g3613
sg63
(lp3625
S':'
asbag56
(g77
g58
NtRp3626
(dp3627
g61
(dp3628
sg70
g3613
sg63
(lp3629
g56
(g57
g58
NtRp3630
(dp3631
g61
(dp3632
g69
I5
ssg70
g3626
sg63
(lp3633
g99
asbasbasbag56
(g72
g58
NtRp3634
(dp3635
g61
(dp3636
sg70
g2854
sg63
(lp3637
g56
(g77
g58
NtRp3638
(dp3639
g61
(dp3640
g81
g82
ssg70
g3634
sg63
(lp3641
S'status'
p3642
asbag56
(g77
g58
NtRp3643
(dp3644
g61
(dp3645
g88
g89
ssg70
g3634
sg63
(lp3646
S':'
asbag56
(g77
g58
NtRp3647
(dp3648
g61
(dp3649
sg70
g3634
sg63
(lp3650
g56
(g57
g58
NtRp3651
(dp3652
g61
(dp3653
g69
I5
ssg70
g3647
sg63
(lp3654
S'200'
p3655
asbasbasbag56
(g72
g58
NtRp3656
(dp3657
g61
(dp3658
sg70
g2854
sg63
(lp3659
g56
(g77
g58
NtRp3660
(dp3661
g61
(dp3662
g81
g82
ssg70
g3656
sg63
(lp3663
S'subtitle'
p3664
asbag56
(g77
g58
NtRp3665
(dp3666
g61
(dp3667
g88
g89
ssg70
g3656
sg63
(lp3668
S':'
asbag56
(g77
g58
NtRp3669
(dp3670
g61
(dp3671
sg70
g3656
sg63
(lp3672
g56
(g57
g58
NtRp3673
(dp3674
g61
(dp3675
g69
I5
ssg70
g3669
sg63
(lp3676
S'Open Source Whistleblowing Platform'
p3677
asbasbasbag56
(g72
g58
NtRp3678
(dp3679
g61
(dp3680
sg70
g2854
sg63
(lp3681
g56
(g77
g58
NtRp3682
(dp3683
g61
(dp3684
g81
g82
ssg70
g3678
sg63
(lp3685
S'title'
p3686
asbag56
(g77
g58
NtRp3687
(dp3688
g61
(dp3689
g88
g89
ssg70
g3678
sg63
(lp3690
S':'
asbag56
(g77
g58
NtRp3691
(dp3692
g61
(dp3693
sg70
g3678
sg63
(lp3694
g56
(g57
g58
NtRp3695
(dp3696
g61
(dp3697
g69
I5
ssg70
g3691
sg63
(lp3698
S'GlobaLeaks'
p3699
asbasbasbag56
(g72
g58
NtRp3700
(dp3701
g61
(dp3702
sg70
g2854
sg63
(lp3703
g56
(g77
g58
NtRp3704
(dp3705
g61
(dp3706
g81
g82
ssg70
g3700
sg63
(lp3707
g2099
asbag56
(g77
g58
NtRp3708
(dp3709
g61
(dp3710
g88
g89
ssg70
g3700
sg63
(lp3711
S':'
asbag56
(g77
g58
NtRp3712
(dp3713
g61
(dp3714
sg70
g3700
sg63
(lp3715
g56
(g57
g58
NtRp3716
(dp3717
g61
(dp3718
g69
I5
ssg70
g3712
sg63
(lp3719
g2112
asbasbasbag56
(g72
g58
NtRp3720
(dp3721
g61
(dp3722
sg70
g2854
sg63
(lp3723
g56
(g77
g58
NtRp3724
(dp3725
g61
(dp3726
g81
g82
ssg70
g3720
sg63
(lp3727
S'view'
p3728
asbag56
(g77
g58
NtRp3729
(dp3730
g61
(dp3731
g88
g89
ssg70
g3720
sg63
(lp3732
S':'
asbag56
(g77
g58
NtRp3733
(dp3734
g61
(dp3735
sg70
g3720
sg63
(lp3736
g56
(g57
g58
NtRp3737
(dp3738
g61
(dp3739
g69
I5
ssg70
g3733
sg63
(lp3740
S'default/submission.html'
p3741
asbasbasbasbasbsS'locals'
p3742
(dp3743
S'form_content'
p3744
S'(<gluon.dal.Field object>, <gluon.dal.Field object>, <gluon.dal.Field object>, <gluon.dal.Field object>, <gluon.dal.Field object>)'
p3745
sS'tulip'
p3746
S'<Tulip object>'
p3747
sS'form'
p3748
S'<gluon.sqlhtml.SQLFORM object>'
p3749
sS'leak'
p3750
S'<Leak object>'
p3751
sssS'traceback'
p3752
S'Traceback (most recent call last):\n  File "/opt/local/Library/Frameworks/Python.framework/Versions/2.7/lib/python2.7/gluon/restricted.py", line 192, in restricted\n    exec ccode in environment\n  File "/Users/hellais/Documents/code/mygit/globaleaks/webapp/applications/init/controllers/default.py", line 46, in <module>\n  File "/opt/local/Library/Frameworks/Python.framework/Versions/2.7/lib/python2.7/gluon/globals.py", line 145, in <lambda>\n    self._caller = lambda f: f()\n  File "/Users/hellais/Documents/code/mygit/globaleaks/webapp/applications/init/controllers/default.py", line 37, in submission\n    print tulip.target_id\nAttributeError: \'Tulip\' object has no attribute \'target_id\'\n'
p3753
s.