(dp1
S'output'
p2
S''
sS'layer'
p3
S'/Users/hellais/Documents/code/mygit/globaleaks/webapp/applications/init/models/datamodel.py'
p4
sS'code'
p5
S'import time\nfrom sql import db\nfrom randomizer import randomizer\n\nclass Leak(object):\n    def __init__(self, id):\n        self._id = id\n    \n    def get_id(self):\n        return self._id\n    def set_id(self):\n        #FIXME: raise error that id can not be changed\n        pass\n    id = property(get_id, set_id)\n    \n    def get_title(self):\n        return db.leak[self.id].title\n    def set_title(self, title):\n        db.leak[self.id] = dict(title = title)\n        db.commit()\n    title = property(get_title, set_title)\n    \n    #TODO: implment get/set tags\n    def set_tags(self):\n        pass\n    def get_tags(self):\n        pass\n    tags = property(get_tags, set_tags)\n\n    def get_desc(self):\n        return db.leak[self.id].desc\n    def set_desc(self, desc):\n        db.leak[self.id].desc = desc\n        db.commit()\n    desc = property(get_desc, set_desc)\n    \n    #TODO: implment get/set material\n    def get_material(self):\n        pass\n    def set_material(self, material):\n        pass\n    material = property(get_material, set_material)\n    \n    #TODO: implment get/set targets\n    def get_targets(self):\n        pass\n    def set_targets(self, targets):\n        pass\n    targets = property(get_targets, set_targets)\n    \n    def get_submission_timestamp(self):\n        return db.leak[self.id].submission_timestamp\n    def set_submission_timstamp(self, timestamp):\n        #FIXME: raise error that submission timestamp can not be changed\n        pass\n    submission_timestamp = property(get_submission_timestamp, set_submission_timstamp)\n    \n    def get_leaker(self):\n        pass\n    def set_leaker(self, leaker):\n        #FIXME: raise error that leaker can not be changed\n        pass\n    leaker = property(get_leaker, set_leaker)\n    \n    def get_tulips(self):\n        for tulip_id in db(db.tulip.leak_id==self._id).select(db.tulip.id):\n            yield Tulip(tulip_id["id"])\n        \n    def set_tulips(self, tulips):\n        #FIXME: raise error that tulip can not be changed\n        pass\n    tulips = property(get_tulips, set_tulips)\n\n\nclass Tulip(object):\n    def __init__(self, id):\n        self._id = id\n        \n    def get_id(self):\n        return self._id\n    def set_id(self, id):\n        #FIXME: raise error that id of a tulip can not be changed\n        pass\n    id = property(get_id, set_id)\n    \n    def get_url(self):\n        return db.tulip[self.id].uri\n    def set_url(self, url):\n        #FIXME: raise error that id of a tulip can not be changed\n        pass\n    url = property(get_url, set_url)\n    \n    def get_target(self):\n        pass\n    def set_target(self, target):\n        #FIXME: raise error that id of a tulip can not be changed\n        pass\n    target = property(get_target, set_target)\n   \n    def get_allowed_downloads(self):\n        return db.tulip[self.id].url\n    def set_allowed_downloads(self, allowed_downloads):\n        #FIXME: raise error that id of a tulip can not be changed\n        pass\n    allowed_downloads = property(get_allowed_downloads, set_allowed_downloads)\n    \n    def get_leak(self):\n        return Leak(db.tulip[self.id].leak_id)\n    def set_leak(self):\n        #FIXME: raise error that leak of a tulip can not be changed\n        pass\n    leak = property(get_leak, set_leak)\n'
p6
sS'snapshot'
p7
(dp8
S'exception'
p9
(dp10
S'__hash__'
p11
S"<method-wrapper '__hash__' of exceptions.ImportError object>"
p12
sS'__setattr__'
p13
S"<method-wrapper '__setattr__' of exceptions.ImportError object>"
p14
sS'__reduce_ex__'
p15
S'<built-in method __reduce_ex__ of exceptions.ImportError object>'
p16
sS'__getslice__'
p17
S"<method-wrapper '__getslice__' of exceptions.ImportError object>"
p18
sS'__getitem__'
p19
S"<method-wrapper '__getitem__' of exceptions.ImportError object>"
p20
sS'__setstate__'
p21
S'<built-in method __setstate__ of exceptions.ImportError object>'
p22
sS'args'
p23
S"('No module named randomizer',)"
p24
sS'__reduce__'
p25
S'<built-in method __reduce__ of exceptions.ImportError object>'
p26
sS'__str__'
p27
S"<method-wrapper '__str__' of exceptions.ImportError object>"
p28
sS'__format__'
p29
S'<built-in method __format__ of exceptions.ImportError object>'
p30
sS'__getattribute__'
p31
S"<method-wrapper '__getattribute__' of exceptions.ImportError object>"
p32
sS'__class__'
p33
S"<type 'exceptions.ImportError'>"
p34
sS'__unicode__'
p35
S'<built-in method __unicode__ of exceptions.ImportError object>'
p36
sS'__delattr__'
p37
S"<method-wrapper '__delattr__' of exceptions.ImportError object>"
p38
sS'__subclasshook__'
p39
S'<built-in method __subclasshook__ of type object>'
p40
sS'__repr__'
p41
S"<method-wrapper '__repr__' of exceptions.ImportError object>"
p42
sS'__dict__'
p43
S'{}'
p44
sS'__sizeof__'
p45
S'<built-in method __sizeof__ of exceptions.ImportError object>'
p46
sS'__doc__'
p47
S'"Import can\'t find module, or can\'t find name in module."'
p48
sS'__init__'
p49
S"<method-wrapper '__init__' of exceptions.ImportError object>"
p50
sS'__new__'
p51
S'<built-in method __new__ of type object>'
p52
ssS'evalue'
p53
S'No module named randomizer'
p54
sS'request'
p55
ccopy_reg
_reconstructor
p56
(cgluon.html
BEAUTIFY
p57
c__builtin__
object
p58
NtRp59
(dp60
S'attributes'
p61
(dp62
sS'components'
p63
(lp64
g56
(cgluon.html
TABLE
p65
g58
NtRp66
(dp67
g61
(dp68
S'level'
p69
I5
ssS'parent'
p70
Nsg63
(lp71
g56
(cgluon.html
TR
p72
g58
NtRp73
(dp74
g61
(dp75
sg70
g66
sg63
(lp76
g56
(cgluon.html
TD
p77
g58
NtRp78
(dp79
g61
(dp80
S'_style'
p81
S'font-weight:bold;'
p82
ssg70
g73
sg63
(lp83
S'ajax'
p84
asbag56
(g77
g58
NtRp85
(dp86
g61
(dp87
S'_valign'
p88
S'top'
p89
ssg70
g73
sg63
(lp90
S':'
asbag56
(g77
g58
NtRp91
(dp92
g61
(dp93
sg70
g73
sg63
(lp94
g56
(g57
g58
NtRp95
(dp96
g61
(dp97
g69
I5
ssg70
g91
sg63
(lp98
S'False'
p99
asbasbasbag56
(g72
g58
NtRp100
(dp101
g61
(dp102
sg70
g66
sg63
(lp103
g56
(g77
g58
NtRp104
(dp105
g61
(dp106
g81
g82
ssg70
g100
sg63
(lp107
S'application'
p108
asbag56
(g77
g58
NtRp109
(dp110
g61
(dp111
g88
g89
ssg70
g100
sg63
(lp112
S':'
asbag56
(g77
g58
NtRp113
(dp114
g61
(dp115
sg70
g100
sg63
(lp116
g56
(g57
g58
NtRp117
(dp118
g61
(dp119
g69
I5
ssg70
g113
sg63
(lp120
S'init'
p121
asbasbasbag56
(g72
g58
NtRp122
(dp123
g61
(dp124
sg70
g66
sg63
(lp125
g56
(g77
g58
NtRp126
(dp127
g61
(dp128
g81
g82
ssg70
g122
sg63
(lp129
g23
asbag56
(g77
g58
NtRp130
(dp131
g61
(dp132
g88
g89
ssg70
g122
sg63
(lp133
S':'
asbag56
(g77
g58
NtRp134
(dp135
g61
(dp136
sg70
g122
sg63
(lp137
g56
(g57
g58
NtRp138
(dp139
g61
(dp140
g69
I5
ssg70
g134
sg63
(lp141
g56
(g65
g58
NtRp142
(dp143
g61
(dp144
g69
I4
ssg70
Nsg63
(lp145
sbasbasbasbag56
(g72
g58
NtRp146
(dp147
g61
(dp148
sg70
g66
sg63
(lp149
g56
(g77
g58
NtRp150
(dp151
g61
(dp152
g81
g82
ssg70
g146
sg63
(lp153
S'body'
p154
asbag56
(g77
g58
NtRp155
(dp156
g61
(dp157
g88
g89
ssg70
g146
sg63
(lp158
S':'
asbag56
(g77
g58
NtRp159
(dp160
g61
(dp161
sg70
g146
sg63
(lp162
g56
(g57
g58
NtRp163
(dp164
g61
(dp165
g69
I5
ssg70
g159
sg63
(lp166
S'<cStringIO.StringO object at 0x101cf3928>'
p167
asbasbasbag56
(g72
g58
NtRp168
(dp169
g61
(dp170
sg70
g66
sg63
(lp171
g56
(g77
g58
NtRp172
(dp173
g61
(dp174
g81
g82
ssg70
g168
sg63
(lp175
S'client'
p176
asbag56
(g77
g58
NtRp177
(dp178
g61
(dp179
g88
g89
ssg70
g168
sg63
(lp180
S':'
asbag56
(g77
g58
NtRp181
(dp182
g61
(dp183
sg70
g168
sg63
(lp184
g56
(g57
g58
NtRp185
(dp186
g61
(dp187
g69
I5
ssg70
g181
sg63
(lp188
S'127.0.0.1'
p189
asbasbasbag56
(g72
g58
NtRp190
(dp191
g61
(dp192
sg70
g66
sg63
(lp193
g56
(g77
g58
NtRp194
(dp195
g61
(dp196
g81
g82
ssg70
g190
sg63
(lp197
S'controller'
p198
asbag56
(g77
g58
NtRp199
(dp200
g61
(dp201
g88
g89
ssg70
g190
sg63
(lp202
S':'
asbag56
(g77
g58
NtRp203
(dp204
g61
(dp205
sg70
g190
sg63
(lp206
g56
(g57
g58
NtRp207
(dp208
g61
(dp209
g69
I5
ssg70
g203
sg63
(lp210
S'default'
p211
asbasbasbag56
(g72
g58
NtRp212
(dp213
g61
(dp214
sg70
g66
sg63
(lp215
g56
(g77
g58
NtRp216
(dp217
g61
(dp218
g81
g82
ssg70
g212
sg63
(lp219
S'cookies'
p220
asbag56
(g77
g58
NtRp221
(dp222
g61
(dp223
g88
g89
ssg70
g212
sg63
(lp224
S':'
asbag56
(g77
g58
NtRp225
(dp226
g61
(dp227
sg70
g212
sg63
(lp228
g56
(g57
g58
NtRp229
(dp230
g61
(dp231
g69
I5
ssg70
g225
sg63
(lp232
g56
(g65
g58
NtRp233
(dp234
g61
(dp235
g69
I4
ssg70
Nsg63
(lp236
g56
(g72
g58
NtRp237
(dp238
g61
(dp239
sg70
g233
sg63
(lp240
g56
(g77
g58
NtRp241
(dp242
g61
(dp243
g81
g82
ssg70
g237
sg63
(lp244
S'session_id_admin'
p245
asbag56
(g77
g58
NtRp246
(dp247
g61
(dp248
g88
g89
ssg70
g237
sg63
(lp249
S':'
asbag56
(g77
g58
NtRp250
(dp251
g61
(dp252
sg70
g237
sg63
(lp253
g56
(g57
g58
NtRp254
(dp255
g61
(dp256
g69
I4
ssg70
g250
sg63
(lp257
g56
(g65
g58
NtRp258
(dp259
g61
(dp260
g69
I3
ssg70
Nsg63
(lp261
g56
(g72
g58
NtRp262
(dp263
g61
(dp264
sg70
g258
sg63
(lp265
g56
(g77
g58
NtRp266
(dp267
g61
(dp268
g81
g82
ssg70
g262
sg63
(lp269
S'comment'
p270
asbag56
(g77
g58
NtRp271
(dp272
g61
(dp273
g88
g89
ssg70
g262
sg63
(lp274
S':'
asbag56
(g77
g58
NtRp275
(dp276
g61
(dp277
sg70
g262
sg63
(lp278
g56
(g57
g58
NtRp279
(dp280
g61
(dp281
g69
I3
ssg70
g275
sg63
(lp282
S''
asbasbasbag56
(g72
g58
NtRp283
(dp284
g61
(dp285
sg70
g258
sg63
(lp286
g56
(g77
g58
NtRp287
(dp288
g61
(dp289
g81
g82
ssg70
g283
sg63
(lp290
S'domain'
p291
asbag56
(g77
g58
NtRp292
(dp293
g61
(dp294
g88
g89
ssg70
g283
sg63
(lp295
S':'
asbag56
(g77
g58
NtRp296
(dp297
g61
(dp298
sg70
g283
sg63
(lp299
g56
(g57
g58
NtRp300
(dp301
g61
(dp302
g69
I3
ssg70
g296
sg63
(lp303
S''
asbasbasbag56
(g72
g58
NtRp304
(dp305
g61
(dp306
sg70
g258
sg63
(lp307
g56
(g77
g58
NtRp308
(dp309
g61
(dp310
g81
g82
ssg70
g304
sg63
(lp311
S'expires'
p312
asbag56
(g77
g58
NtRp313
(dp314
g61
(dp315
g88
g89
ssg70
g304
sg63
(lp316
S':'
asbag56
(g77
g58
NtRp317
(dp318
g61
(dp319
sg70
g304
sg63
(lp320
g56
(g57
g58
NtRp321
(dp322
g61
(dp323
g69
I3
ssg70
g317
sg63
(lp324
S''
asbasbasbag56
(g72
g58
NtRp325
(dp326
g61
(dp327
sg70
g258
sg63
(lp328
g56
(g77
g58
NtRp329
(dp330
g61
(dp331
g81
g82
ssg70
g325
sg63
(lp332
S'httponly'
p333
asbag56
(g77
g58
NtRp334
(dp335
g61
(dp336
g88
g89
ssg70
g325
sg63
(lp337
S':'
asbag56
(g77
g58
NtRp338
(dp339
g61
(dp340
sg70
g325
sg63
(lp341
g56
(g57
g58
NtRp342
(dp343
g61
(dp344
g69
I3
ssg70
g338
sg63
(lp345
S''
asbasbasbag56
(g72
g58
NtRp346
(dp347
g61
(dp348
sg70
g258
sg63
(lp349
g56
(g77
g58
NtRp350
(dp351
g61
(dp352
g81
g82
ssg70
g346
sg63
(lp353
S'max-age'
p354
asbag56
(g77
g58
NtRp355
(dp356
g61
(dp357
g88
g89
ssg70
g346
sg63
(lp358
S':'
asbag56
(g77
g58
NtRp359
(dp360
g61
(dp361
sg70
g346
sg63
(lp362
g56
(g57
g58
NtRp363
(dp364
g61
(dp365
g69
I3
ssg70
g359
sg63
(lp366
S''
asbasbasbag56
(g72
g58
NtRp367
(dp368
g61
(dp369
sg70
g258
sg63
(lp370
g56
(g77
g58
NtRp371
(dp372
g61
(dp373
g81
g82
ssg70
g367
sg63
(lp374
S'path'
p375
asbag56
(g77
g58
NtRp376
(dp377
g61
(dp378
g88
g89
ssg70
g367
sg63
(lp379
S':'
asbag56
(g77
g58
NtRp380
(dp381
g61
(dp382
sg70
g367
sg63
(lp383
g56
(g57
g58
NtRp384
(dp385
g61
(dp386
g69
I3
ssg70
g380
sg63
(lp387
S''
asbasbasbag56
(g72
g58
NtRp388
(dp389
g61
(dp390
sg70
g258
sg63
(lp391
g56
(g77
g58
NtRp392
(dp393
g61
(dp394
g81
g82
ssg70
g388
sg63
(lp395
S'secure'
p396
asbag56
(g77
g58
NtRp397
(dp398
g61
(dp399
g88
g89
ssg70
g388
sg63
(lp400
S':'
asbag56
(g77
g58
NtRp401
(dp402
g61
(dp403
sg70
g388
sg63
(lp404
g56
(g57
g58
NtRp405
(dp406
g61
(dp407
g69
I3
ssg70
g401
sg63
(lp408
S''
asbasbasbag56
(g72
g58
NtRp409
(dp410
g61
(dp411
sg70
g258
sg63
(lp412
g56
(g77
g58
NtRp413
(dp414
g61
(dp415
g81
g82
ssg70
g409
sg63
(lp416
S'version'
p417
asbag56
(g77
g58
NtRp418
(dp419
g61
(dp420
g88
g89
ssg70
g409
sg63
(lp421
S':'
asbag56
(g77
g58
NtRp422
(dp423
g61
(dp424
sg70
g409
sg63
(lp425
g56
(g57
g58
NtRp426
(dp427
g61
(dp428
g69
I3
ssg70
g422
sg63
(lp429
S''
asbasbasbasbasbasbasbag56
(g72
g58
NtRp430
(dp431
g61
(dp432
sg70
g233
sg63
(lp433
g56
(g77
g58
NtRp434
(dp435
g61
(dp436
g81
g82
ssg70
g430
sg63
(lp437
S'session_id_blabla'
p438
asbag56
(g77
g58
NtRp439
(dp440
g61
(dp441
g88
g89
ssg70
g430
sg63
(lp442
S':'
asbag56
(g77
g58
NtRp443
(dp444
g61
(dp445
sg70
g430
sg63
(lp446
g56
(g57
g58
NtRp447
(dp448
g61
(dp449
g69
I4
ssg70
g443
sg63
(lp450
g56
(g65
g58
NtRp451
(dp452
g61
(dp453
g69
I3
ssg70
Nsg63
(lp454
g56
(g72
g58
NtRp455
(dp456
g61
(dp457
sg70
g451
sg63
(lp458
g56
(g77
g58
NtRp459
(dp460
g61
(dp461
g81
g82
ssg70
g455
sg63
(lp462
g270
asbag56
(g77
g58
NtRp463
(dp464
g61
(dp465
g88
g89
ssg70
g455
sg63
(lp466
S':'
asbag56
(g77
g58
NtRp467
(dp468
g61
(dp469
sg70
g455
sg63
(lp470
g56
(g57
g58
NtRp471
(dp472
g61
(dp473
g69
I3
ssg70
g467
sg63
(lp474
S''
asbasbasbag56
(g72
g58
NtRp475
(dp476
g61
(dp477
sg70
g451
sg63
(lp478
g56
(g77
g58
NtRp479
(dp480
g61
(dp481
g81
g82
ssg70
g475
sg63
(lp482
g291
asbag56
(g77
g58
NtRp483
(dp484
g61
(dp485
g88
g89
ssg70
g475
sg63
(lp486
S':'
asbag56
(g77
g58
NtRp487
(dp488
g61
(dp489
sg70
g475
sg63
(lp490
g56
(g57
g58
NtRp491
(dp492
g61
(dp493
g69
I3
ssg70
g487
sg63
(lp494
S''
asbasbasbag56
(g72
g58
NtRp495
(dp496
g61
(dp497
sg70
g451
sg63
(lp498
g56
(g77
g58
NtRp499
(dp500
g61
(dp501
g81
g82
ssg70
g495
sg63
(lp502
g312
asbag56
(g77
g58
NtRp503
(dp504
g61
(dp505
g88
g89
ssg70
g495
sg63
(lp506
S':'
asbag56
(g77
g58
NtRp507
(dp508
g61
(dp509
sg70
g495
sg63
(lp510
g56
(g57
g58
NtRp511
(dp512
g61
(dp513
g69
I3
ssg70
g507
sg63
(lp514
S''
asbasbasbag56
(g72
g58
NtRp515
(dp516
g61
(dp517
sg70
g451
sg63
(lp518
g56
(g77
g58
NtRp519
(dp520
g61
(dp521
g81
g82
ssg70
g515
sg63
(lp522
g333
asbag56
(g77
g58
NtRp523
(dp524
g61
(dp525
g88
g89
ssg70
g515
sg63
(lp526
S':'
asbag56
(g77
g58
NtRp527
(dp528
g61
(dp529
sg70
g515
sg63
(lp530
g56
(g57
g58
NtRp531
(dp532
g61
(dp533
g69
I3
ssg70
g527
sg63
(lp534
S''
asbasbasbag56
(g72
g58
NtRp535
(dp536
g61
(dp537
sg70
g451
sg63
(lp538
g56
(g77
g58
NtRp539
(dp540
g61
(dp541
g81
g82
ssg70
g535
sg63
(lp542
g354
asbag56
(g77
g58
NtRp543
(dp544
g61
(dp545
g88
g89
ssg70
g535
sg63
(lp546
S':'
asbag56
(g77
g58
NtRp547
(dp548
g61
(dp549
sg70
g535
sg63
(lp550
g56
(g57
g58
NtRp551
(dp552
g61
(dp553
g69
I3
ssg70
g547
sg63
(lp554
S''
asbasbasbag56
(g72
g58
NtRp555
(dp556
g61
(dp557
sg70
g451
sg63
(lp558
g56
(g77
g58
NtRp559
(dp560
g61
(dp561
g81
g82
ssg70
g555
sg63
(lp562
g375
asbag56
(g77
g58
NtRp563
(dp564
g61
(dp565
g88
g89
ssg70
g555
sg63
(lp566
S':'
asbag56
(g77
g58
NtRp567
(dp568
g61
(dp569
sg70
g555
sg63
(lp570
g56
(g57
g58
NtRp571
(dp572
g61
(dp573
g69
I3
ssg70
g567
sg63
(lp574
S''
asbasbasbag56
(g72
g58
NtRp575
(dp576
g61
(dp577
sg70
g451
sg63
(lp578
g56
(g77
g58
NtRp579
(dp580
g61
(dp581
g81
g82
ssg70
g575
sg63
(lp582
g396
asbag56
(g77
g58
NtRp583
(dp584
g61
(dp585
g88
g89
ssg70
g575
sg63
(lp586
S':'
asbag56
(g77
g58
NtRp587
(dp588
g61
(dp589
sg70
g575
sg63
(lp590
g56
(g57
g58
NtRp591
(dp592
g61
(dp593
g69
I3
ssg70
g587
sg63
(lp594
S''
asbasbasbag56
(g72
g58
NtRp595
(dp596
g61
(dp597
sg70
g451
sg63
(lp598
g56
(g77
g58
NtRp599
(dp600
g61
(dp601
g81
g82
ssg70
g595
sg63
(lp602
g417
asbag56
(g77
g58
NtRp603
(dp604
g61
(dp605
g88
g89
ssg70
g595
sg63
(lp606
S':'
asbag56
(g77
g58
NtRp607
(dp608
g61
(dp609
sg70
g595
sg63
(lp610
g56
(g57
g58
NtRp611
(dp612
g61
(dp613
g69
I3
ssg70
g607
sg63
(lp614
S''
asbasbasbasbasbasbasbag56
(g72
g58
NtRp615
(dp616
g61
(dp617
sg70
g233
sg63
(lp618
g56
(g77
g58
NtRp619
(dp620
g61
(dp621
g81
g82
ssg70
g615
sg63
(lp622
S'session_id_globaleaks'
p623
asbag56
(g77
g58
NtRp624
(dp625
g61
(dp626
g88
g89
ssg70
g615
sg63
(lp627
S':'
asbag56
(g77
g58
NtRp628
(dp629
g61
(dp630
sg70
g615
sg63
(lp631
g56
(g57
g58
NtRp632
(dp633
g61
(dp634
g69
I4
ssg70
g628
sg63
(lp635
g56
(g65
g58
NtRp636
(dp637
g61
(dp638
g69
I3
ssg70
Nsg63
(lp639
g56
(g72
g58
NtRp640
(dp641
g61
(dp642
sg70
g636
sg63
(lp643
g56
(g77
g58
NtRp644
(dp645
g61
(dp646
g81
g82
ssg70
g640
sg63
(lp647
g270
asbag56
(g77
g58
NtRp648
(dp649
g61
(dp650
g88
g89
ssg70
g640
sg63
(lp651
S':'
asbag56
(g77
g58
NtRp652
(dp653
g61
(dp654
sg70
g640
sg63
(lp655
g56
(g57
g58
NtRp656
(dp657
g61
(dp658
g69
I3
ssg70
g652
sg63
(lp659
S''
asbasbasbag56
(g72
g58
NtRp660
(dp661
g61
(dp662
sg70
g636
sg63
(lp663
g56
(g77
g58
NtRp664
(dp665
g61
(dp666
g81
g82
ssg70
g660
sg63
(lp667
g291
asbag56
(g77
g58
NtRp668
(dp669
g61
(dp670
g88
g89
ssg70
g660
sg63
(lp671
S':'
asbag56
(g77
g58
NtRp672
(dp673
g61
(dp674
sg70
g660
sg63
(lp675
g56
(g57
g58
NtRp676
(dp677
g61
(dp678
g69
I3
ssg70
g672
sg63
(lp679
S''
asbasbasbag56
(g72
g58
NtRp680
(dp681
g61
(dp682
sg70
g636
sg63
(lp683
g56
(g77
g58
NtRp684
(dp685
g61
(dp686
g81
g82
ssg70
g680
sg63
(lp687
g312
asbag56
(g77
g58
NtRp688
(dp689
g61
(dp690
g88
g89
ssg70
g680
sg63
(lp691
S':'
asbag56
(g77
g58
NtRp692
(dp693
g61
(dp694
sg70
g680
sg63
(lp695
g56
(g57
g58
NtRp696
(dp697
g61
(dp698
g69
I3
ssg70
g692
sg63
(lp699
S''
asbasbasbag56
(g72
g58
NtRp700
(dp701
g61
(dp702
sg70
g636
sg63
(lp703
g56
(g77
g58
NtRp704
(dp705
g61
(dp706
g81
g82
ssg70
g700
sg63
(lp707
g333
asbag56
(g77
g58
NtRp708
(dp709
g61
(dp710
g88
g89
ssg70
g700
sg63
(lp711
S':'
asbag56
(g77
g58
NtRp712
(dp713
g61
(dp714
sg70
g700
sg63
(lp715
g56
(g57
g58
NtRp716
(dp717
g61
(dp718
g69
I3
ssg70
g712
sg63
(lp719
S''
asbasbasbag56
(g72
g58
NtRp720
(dp721
g61
(dp722
sg70
g636
sg63
(lp723
g56
(g77
g58
NtRp724
(dp725
g61
(dp726
g81
g82
ssg70
g720
sg63
(lp727
g354
asbag56
(g77
g58
NtRp728
(dp729
g61
(dp730
g88
g89
ssg70
g720
sg63
(lp731
S':'
asbag56
(g77
g58
NtRp732
(dp733
g61
(dp734
sg70
g720
sg63
(lp735
g56
(g57
g58
NtRp736
(dp737
g61
(dp738
g69
I3
ssg70
g732
sg63
(lp739
S''
asbasbasbag56
(g72
g58
NtRp740
(dp741
g61
(dp742
sg70
g636
sg63
(lp743
g56
(g77
g58
NtRp744
(dp745
g61
(dp746
g81
g82
ssg70
g740
sg63
(lp747
g375
asbag56
(g77
g58
NtRp748
(dp749
g61
(dp750
g88
g89
ssg70
g740
sg63
(lp751
S':'
asbag56
(g77
g58
NtRp752
(dp753
g61
(dp754
sg70
g740
sg63
(lp755
g56
(g57
g58
NtRp756
(dp757
g61
(dp758
g69
I3
ssg70
g752
sg63
(lp759
S''
asbasbasbag56
(g72
g58
NtRp760
(dp761
g61
(dp762
sg70
g636
sg63
(lp763
g56
(g77
g58
NtRp764
(dp765
g61
(dp766
g81
g82
ssg70
g760
sg63
(lp767
g396
asbag56
(g77
g58
NtRp768
(dp769
g61
(dp770
g88
g89
ssg70
g760
sg63
(lp771
S':'
asbag56
(g77
g58
NtRp772
(dp773
g61
(dp774
sg70
g760
sg63
(lp775
g56
(g57
g58
NtRp776
(dp777
g61
(dp778
g69
I3
ssg70
g772
sg63
(lp779
S''
asbasbasbag56
(g72
g58
NtRp780
(dp781
g61
(dp782
sg70
g636
sg63
(lp783
g56
(g77
g58
NtRp784
(dp785
g61
(dp786
g81
g82
ssg70
g780
sg63
(lp787
g417
asbag56
(g77
g58
NtRp788
(dp789
g61
(dp790
g88
g89
ssg70
g780
sg63
(lp791
S':'
asbag56
(g77
g58
NtRp792
(dp793
g61
(dp794
sg70
g780
sg63
(lp795
g56
(g57
g58
NtRp796
(dp797
g61
(dp798
g69
I3
ssg70
g792
sg63
(lp799
S''
asbasbasbasbasbasbasbag56
(g72
g58
NtRp800
(dp801
g61
(dp802
sg70
g233
sg63
(lp803
g56
(g77
g58
NtRp804
(dp805
g61
(dp806
g81
g82
ssg70
g800
sg63
(lp807
S'session_id_init'
p808
asbag56
(g77
g58
NtRp809
(dp810
g61
(dp811
g88
g89
ssg70
g800
sg63
(lp812
S':'
asbag56
(g77
g58
NtRp813
(dp814
g61
(dp815
sg70
g800
sg63
(lp816
g56
(g57
g58
NtRp817
(dp818
g61
(dp819
g69
I4
ssg70
g813
sg63
(lp820
g56
(g65
g58
NtRp821
(dp822
g61
(dp823
g69
I3
ssg70
Nsg63
(lp824
g56
(g72
g58
NtRp825
(dp826
g61
(dp827
sg70
g821
sg63
(lp828
g56
(g77
g58
NtRp829
(dp830
g61
(dp831
g81
g82
ssg70
g825
sg63
(lp832
g270
asbag56
(g77
g58
NtRp833
(dp834
g61
(dp835
g88
g89
ssg70
g825
sg63
(lp836
S':'
asbag56
(g77
g58
NtRp837
(dp838
g61
(dp839
sg70
g825
sg63
(lp840
g56
(g57
g58
NtRp841
(dp842
g61
(dp843
g69
I3
ssg70
g837
sg63
(lp844
S''
asbasbasbag56
(g72
g58
NtRp845
(dp846
g61
(dp847
sg70
g821
sg63
(lp848
g56
(g77
g58
NtRp849
(dp850
g61
(dp851
g81
g82
ssg70
g845
sg63
(lp852
g291
asbag56
(g77
g58
NtRp853
(dp854
g61
(dp855
g88
g89
ssg70
g845
sg63
(lp856
S':'
asbag56
(g77
g58
NtRp857
(dp858
g61
(dp859
sg70
g845
sg63
(lp860
g56
(g57
g58
NtRp861
(dp862
g61
(dp863
g69
I3
ssg70
g857
sg63
(lp864
S''
asbasbasbag56
(g72
g58
NtRp865
(dp866
g61
(dp867
sg70
g821
sg63
(lp868
g56
(g77
g58
NtRp869
(dp870
g61
(dp871
g81
g82
ssg70
g865
sg63
(lp872
g312
asbag56
(g77
g58
NtRp873
(dp874
g61
(dp875
g88
g89
ssg70
g865
sg63
(lp876
S':'
asbag56
(g77
g58
NtRp877
(dp878
g61
(dp879
sg70
g865
sg63
(lp880
g56
(g57
g58
NtRp881
(dp882
g61
(dp883
g69
I3
ssg70
g877
sg63
(lp884
S''
asbasbasbag56
(g72
g58
NtRp885
(dp886
g61
(dp887
sg70
g821
sg63
(lp888
g56
(g77
g58
NtRp889
(dp890
g61
(dp891
g81
g82
ssg70
g885
sg63
(lp892
g333
asbag56
(g77
g58
NtRp893
(dp894
g61
(dp895
g88
g89
ssg70
g885
sg63
(lp896
S':'
asbag56
(g77
g58
NtRp897
(dp898
g61
(dp899
sg70
g885
sg63
(lp900
g56
(g57
g58
NtRp901
(dp902
g61
(dp903
g69
I3
ssg70
g897
sg63
(lp904
S''
asbasbasbag56
(g72
g58
NtRp905
(dp906
g61
(dp907
sg70
g821
sg63
(lp908
g56
(g77
g58
NtRp909
(dp910
g61
(dp911
g81
g82
ssg70
g905
sg63
(lp912
g354
asbag56
(g77
g58
NtRp913
(dp914
g61
(dp915
g88
g89
ssg70
g905
sg63
(lp916
S':'
asbag56
(g77
g58
NtRp917
(dp918
g61
(dp919
sg70
g905
sg63
(lp920
g56
(g57
g58
NtRp921
(dp922
g61
(dp923
g69
I3
ssg70
g917
sg63
(lp924
S''
asbasbasbag56
(g72
g58
NtRp925
(dp926
g61
(dp927
sg70
g821
sg63
(lp928
g56
(g77
g58
NtRp929
(dp930
g61
(dp931
g81
g82
ssg70
g925
sg63
(lp932
g375
asbag56
(g77
g58
NtRp933
(dp934
g61
(dp935
g88
g89
ssg70
g925
sg63
(lp936
S':'
asbag56
(g77
g58
NtRp937
(dp938
g61
(dp939
sg70
g925
sg63
(lp940
g56
(g57
g58
NtRp941
(dp942
g61
(dp943
g69
I3
ssg70
g937
sg63
(lp944
S''
asbasbasbag56
(g72
g58
NtRp945
(dp946
g61
(dp947
sg70
g821
sg63
(lp948
g56
(g77
g58
NtRp949
(dp950
g61
(dp951
g81
g82
ssg70
g945
sg63
(lp952
g396
asbag56
(g77
g58
NtRp953
(dp954
g61
(dp955
g88
g89
ssg70
g945
sg63
(lp956
S':'
asbag56
(g77
g58
NtRp957
(dp958
g61
(dp959
sg70
g945
sg63
(lp960
g56
(g57
g58
NtRp961
(dp962
g61
(dp963
g69
I3
ssg70
g957
sg63
(lp964
S''
asbasbasbag56
(g72
g58
NtRp965
(dp966
g61
(dp967
sg70
g821
sg63
(lp968
g56
(g77
g58
NtRp969
(dp970
g61
(dp971
g81
g82
ssg70
g965
sg63
(lp972
g417
asbag56
(g77
g58
NtRp973
(dp974
g61
(dp975
g88
g89
ssg70
g965
sg63
(lp976
S':'
asbag56
(g77
g58
NtRp977
(dp978
g61
(dp979
sg70
g965
sg63
(lp980
g56
(g57
g58
NtRp981
(dp982
g61
(dp983
g69
I3
ssg70
g977
sg63
(lp984
S''
asbasbasbasbasbasbasbasbasbasbasbag56
(g72
g58
NtRp985
(dp986
g61
(dp987
sg70
g66
sg63
(lp988
g56
(g77
g58
NtRp989
(dp990
g61
(dp991
g81
g82
ssg70
g985
sg63
(lp992
S'env'
p993
asbag56
(g77
g58
NtRp994
(dp995
g61
(dp996
g88
g89
ssg70
g985
sg63
(lp997
S':'
asbag56
(g77
g58
NtRp998
(dp999
g61
(dp1000
sg70
g985
sg63
(lp1001
g56
(g57
g58
NtRp1002
(dp1003
g61
(dp1004
g69
I5
ssg70
g998
sg63
(lp1005
g56
(g65
g58
NtRp1006
(dp1007
g61
(dp1008
g69
I4
ssg70
Nsg63
(lp1009
g56
(g72
g58
NtRp1010
(dp1011
g61
(dp1012
sg70
g1006
sg63
(lp1013
g56
(g77
g58
NtRp1014
(dp1015
g61
(dp1016
g81
g82
ssg70
g1010
sg63
(lp1017
S'app_folders'
p1018
asbag56
(g77
g58
NtRp1019
(dp1020
g61
(dp1021
g88
g89
ssg70
g1010
sg63
(lp1022
S':'
asbag56
(g77
g58
NtRp1023
(dp1024
g61
(dp1025
sg70
g1010
sg63
(lp1026
g56
(g57
g58
NtRp1027
(dp1028
g61
(dp1029
g69
I4
ssg70
g1023
sg63
(lp1030
S"set(['/Users/hellais/Documents/code/mygit/globaleaks/webapp/applications/init/', '/Users/hellais/Documents/code/mygit/globaleaks/webapp/applications/admin/'])"
p1031
asbasbasbag56
(g72
g58
NtRp1032
(dp1033
g61
(dp1034
sg70
g1006
sg63
(lp1035
g56
(g77
g58
NtRp1036
(dp1037
g61
(dp1038
g81
g82
ssg70
g1032
sg63
(lp1039
S'applications_parent'
p1040
asbag56
(g77
g58
NtRp1041
(dp1042
g61
(dp1043
g88
g89
ssg70
g1032
sg63
(lp1044
S':'
asbag56
(g77
g58
NtRp1045
(dp1046
g61
(dp1047
sg70
g1032
sg63
(lp1048
g56
(g57
g58
NtRp1049
(dp1050
g61
(dp1051
g69
I4
ssg70
g1045
sg63
(lp1052
S'/Users/hellais/Documents/code/mygit/globaleaks/webapp'
p1053
asbasbasbag56
(g72
g58
NtRp1054
(dp1055
g61
(dp1056
sg70
g1006
sg63
(lp1057
g56
(g77
g58
NtRp1058
(dp1059
g61
(dp1060
g81
g82
ssg70
g1054
sg63
(lp1061
S'cmd_args'
p1062
asbag56
(g77
g58
NtRp1063
(dp1064
g61
(dp1065
g88
g89
ssg70
g1054
sg63
(lp1066
S':'
asbag56
(g77
g58
NtRp1067
(dp1068
g61
(dp1069
sg70
g1054
sg63
(lp1070
g56
(g57
g58
NtRp1071
(dp1072
g61
(dp1073
g69
I4
ssg70
g1067
sg63
(lp1074
g56
(g65
g58
NtRp1075
(dp1076
g61
(dp1077
g69
I3
ssg70
Nsg63
(lp1078
sbasbasbasbag56
(g72
g58
NtRp1079
(dp1080
g61
(dp1081
sg70
g1006
sg63
(lp1082
g56
(g77
g58
NtRp1083
(dp1084
g61
(dp1085
g81
g82
ssg70
g1079
sg63
(lp1086
S'cmd_options'
p1087
asbag56
(g77
g58
NtRp1088
(dp1089
g61
(dp1090
g88
g89
ssg70
g1079
sg63
(lp1091
S':'
asbag56
(g77
g58
NtRp1092
(dp1093
g61
(dp1094
sg70
g1079
sg63
(lp1095
g56
(g57
g58
NtRp1096
(dp1097
g61
(dp1098
g69
I4
ssg70
g1092
sg63
(lp1099
S"<Values at 0x1015f1320: {'verbose': False, 'ip': '127.0.0.1', 'shutdown_timeout': 5, 'taskbar': False, 'port': 8000, 'maxthreads': None, 'softcron': False, 'server_name': 'Jeanne.local', 'bpython': False, 'nogui': False, 'nocron': False, 'extcron': False, 'debuglevel': 30, 'test': None, 'folder': '/Users/hellais/Documents/code/mygit/globaleaks/webapp', 'config': '', 'import_models': False, 'winservice': '', 'shell': None, 'run': '', 'log_filename': 'httpserver.log', 'args': [''], 'profiler_filename': None, 'ssl_private_key': '', 'password': 'antani', 'request_queue_size': 5, 'ssl_certificate': '', 'cronjob': False, 'plain': False, 'quiet': False, 'interfaces': None, 'minthreads': None, 'timeout': 10, 'numthreads': None, 'nobanner': False, 'pid_filename': 'httpserver.pid'}>"
p1100
asbasbasbag56
(g72
g58
NtRp1101
(dp1102
g61
(dp1103
sg70
g1006
sg63
(lp1104
g56
(g77
g58
NtRp1105
(dp1106
g61
(dp1107
g81
g82
ssg70
g1101
sg63
(lp1108
S'db_sessions'
p1109
asbag56
(g77
g58
NtRp1110
(dp1111
g61
(dp1112
g88
g89
ssg70
g1101
sg63
(lp1113
S':'
asbag56
(g77
g58
NtRp1114
(dp1115
g61
(dp1116
sg70
g1101
sg63
(lp1117
g56
(g57
g58
NtRp1118
(dp1119
g61
(dp1120
g69
I4
ssg70
g1114
sg63
(lp1121
S'set([])'
p1122
asbasbasbag56
(g72
g58
NtRp1123
(dp1124
g61
(dp1125
sg70
g1006
sg63
(lp1126
g56
(g77
g58
NtRp1127
(dp1128
g61
(dp1129
g81
g82
ssg70
g1123
sg63
(lp1130
S'debugging'
p1131
asbag56
(g77
g58
NtRp1132
(dp1133
g61
(dp1134
g88
g89
ssg70
g1123
sg63
(lp1135
S':'
asbag56
(g77
g58
NtRp1136
(dp1137
g61
(dp1138
sg70
g1123
sg63
(lp1139
g56
(g57
g58
NtRp1140
(dp1141
g61
(dp1142
g69
I4
ssg70
g1136
sg63
(lp1143
g99
asbasbasbag56
(g72
g58
NtRp1144
(dp1145
g61
(dp1146
sg70
g1006
sg63
(lp1147
g56
(g77
g58
NtRp1148
(dp1149
g61
(dp1150
g81
g82
ssg70
g1144
sg63
(lp1151
S'gluon_parent'
p1152
asbag56
(g77
g58
NtRp1153
(dp1154
g61
(dp1155
g88
g89
ssg70
g1144
sg63
(lp1156
S':'
asbag56
(g77
g58
NtRp1157
(dp1158
g61
(dp1159
sg70
g1144
sg63
(lp1160
g56
(g57
g58
NtRp1161
(dp1162
g61
(dp1163
g69
I4
ssg70
g1157
sg63
(lp1164
S'/Users/hellais/Documents/code/mygit/globaleaks/webapp'
p1165
asbasbasbag56
(g72
g58
NtRp1166
(dp1167
g61
(dp1168
sg70
g1006
sg63
(lp1169
g56
(g77
g58
NtRp1170
(dp1171
g61
(dp1172
g81
g82
ssg70
g1166
sg63
(lp1173
S'http_accept'
p1174
asbag56
(g77
g58
NtRp1175
(dp1176
g61
(dp1177
g88
g89
ssg70
g1166
sg63
(lp1178
S':'
asbag56
(g77
g58
NtRp1179
(dp1180
g61
(dp1181
sg70
g1166
sg63
(lp1182
g56
(g57
g58
NtRp1183
(dp1184
g61
(dp1185
g69
I4
ssg70
g1179
sg63
(lp1186
S'text/html,application/xhtml+xml,application/xml;q=0.9,*/*;q=0.8'
p1187
asbasbasbag56
(g72
g58
NtRp1188
(dp1189
g61
(dp1190
sg70
g1006
sg63
(lp1191
g56
(g77
g58
NtRp1192
(dp1193
g61
(dp1194
g81
g82
ssg70
g1188
sg63
(lp1195
S'http_accept_charset'
p1196
asbag56
(g77
g58
NtRp1197
(dp1198
g61
(dp1199
g88
g89
ssg70
g1188
sg63
(lp1200
S':'
asbag56
(g77
g58
NtRp1201
(dp1202
g61
(dp1203
sg70
g1188
sg63
(lp1204
g56
(g57
g58
NtRp1205
(dp1206
g61
(dp1207
g69
I4
ssg70
g1201
sg63
(lp1208
S'ISO-8859-1,utf-8;q=0.7,*;q=0.7'
p1209
asbasbasbag56
(g72
g58
NtRp1210
(dp1211
g61
(dp1212
sg70
g1006
sg63
(lp1213
g56
(g77
g58
NtRp1214
(dp1215
g61
(dp1216
g81
g82
ssg70
g1210
sg63
(lp1217
S'http_accept_encoding'
p1218
asbag56
(g77
g58
NtRp1219
(dp1220
g61
(dp1221
g88
g89
ssg70
g1210
sg63
(lp1222
S':'
asbag56
(g77
g58
NtRp1223
(dp1224
g61
(dp1225
sg70
g1210
sg63
(lp1226
g56
(g57
g58
NtRp1227
(dp1228
g61
(dp1229
g69
I4
ssg70
g1223
sg63
(lp1230
S'gzip, deflate'
p1231
asbasbasbag56
(g72
g58
NtRp1232
(dp1233
g61
(dp1234
sg70
g1006
sg63
(lp1235
g56
(g77
g58
NtRp1236
(dp1237
g61
(dp1238
g81
g82
ssg70
g1232
sg63
(lp1239
S'http_accept_language'
p1240
asbag56
(g77
g58
NtRp1241
(dp1242
g61
(dp1243
g88
g89
ssg70
g1232
sg63
(lp1244
S':'
asbag56
(g77
g58
NtRp1245
(dp1246
g61
(dp1247
sg70
g1232
sg63
(lp1248
g56
(g57
g58
NtRp1249
(dp1250
g61
(dp1251
g69
I4
ssg70
g1245
sg63
(lp1252
S'en-us,en;q=0.5'
p1253
asbasbasbag56
(g72
g58
NtRp1254
(dp1255
g61
(dp1256
sg70
g1006
sg63
(lp1257
g56
(g77
g58
NtRp1258
(dp1259
g61
(dp1260
g81
g82
ssg70
g1254
sg63
(lp1261
S'http_cache_control'
p1262
asbag56
(g77
g58
NtRp1263
(dp1264
g61
(dp1265
g88
g89
ssg70
g1254
sg63
(lp1266
S':'
asbag56
(g77
g58
NtRp1267
(dp1268
g61
(dp1269
sg70
g1254
sg63
(lp1270
g56
(g57
g58
NtRp1271
(dp1272
g61
(dp1273
g69
I4
ssg70
g1267
sg63
(lp1274
S'max-age=0'
p1275
asbasbasbag56
(g72
g58
NtRp1276
(dp1277
g61
(dp1278
sg70
g1006
sg63
(lp1279
g56
(g77
g58
NtRp1280
(dp1281
g61
(dp1282
g81
g82
ssg70
g1276
sg63
(lp1283
S'http_connection'
p1284
asbag56
(g77
g58
NtRp1285
(dp1286
g61
(dp1287
g88
g89
ssg70
g1276
sg63
(lp1288
S':'
asbag56
(g77
g58
NtRp1289
(dp1290
g61
(dp1291
sg70
g1276
sg63
(lp1292
g56
(g57
g58
NtRp1293
(dp1294
g61
(dp1295
g69
I4
ssg70
g1289
sg63
(lp1296
S'keep-alive'
p1297
asbasbasbag56
(g72
g58
NtRp1298
(dp1299
g61
(dp1300
sg70
g1006
sg63
(lp1301
g56
(g77
g58
NtRp1302
(dp1303
g61
(dp1304
g81
g82
ssg70
g1298
sg63
(lp1305
S'http_cookie'
p1306
asbag56
(g77
g58
NtRp1307
(dp1308
g61
(dp1309
g88
g89
ssg70
g1298
sg63
(lp1310
S':'
asbag56
(g77
g58
NtRp1311
(dp1312
g61
(dp1313
sg70
g1298
sg63
(lp1314
g56
(g57
g58
NtRp1315
(dp1316
g61
(dp1317
g69
I4
ssg70
g1311
sg63
(lp1318
S'session_id_admin=127.0.0.1-67122ce4-50b2-4acf-b28e-7a14feeff4d9; session_id_globaleaks=127.0.0.1-c6d5b9b3-1ec7-41c1-8d72-04c21b7a6b11; session_id_blabla=127.0.0.1-c445384e-a3ea-4484-8fe2-52f3295bbb7c; session_id_init=127.0.0.1-a8551263-bc3c-430c-abb2-8711fac671c1'
p1319
asbasbasbag56
(g72
g58
NtRp1320
(dp1321
g61
(dp1322
sg70
g1006
sg63
(lp1323
g56
(g77
g58
NtRp1324
(dp1325
g61
(dp1326
g81
g82
ssg70
g1320
sg63
(lp1327
S'http_host'
p1328
asbag56
(g77
g58
NtRp1329
(dp1330
g61
(dp1331
g88
g89
ssg70
g1320
sg63
(lp1332
S':'
asbag56
(g77
g58
NtRp1333
(dp1334
g61
(dp1335
sg70
g1320
sg63
(lp1336
g56
(g57
g58
NtRp1337
(dp1338
g61
(dp1339
g69
I4
ssg70
g1333
sg63
(lp1340
S'127.0.0.1:8000'
p1341
asbasbasbag56
(g72
g58
NtRp1342
(dp1343
g61
(dp1344
sg70
g1006
sg63
(lp1345
g56
(g77
g58
NtRp1346
(dp1347
g61
(dp1348
g81
g82
ssg70
g1342
sg63
(lp1349
S'http_referer'
p1350
asbag56
(g77
g58
NtRp1351
(dp1352
g61
(dp1353
g88
g89
ssg70
g1342
sg63
(lp1354
S':'
asbag56
(g77
g58
NtRp1355
(dp1356
g61
(dp1357
sg70
g1342
sg63
(lp1358
g56
(g57
g58
NtRp1359
(dp1360
g61
(dp1361
g69
I4
ssg70
g1355
sg63
(lp1362
S'http://127.0.0.1:8000/'
p1363
asbasbasbag56
(g72
g58
NtRp1364
(dp1365
g61
(dp1366
sg70
g1006
sg63
(lp1367
g56
(g77
g58
NtRp1368
(dp1369
g61
(dp1370
g81
g82
ssg70
g1364
sg63
(lp1371
S'http_user_agent'
p1372
asbag56
(g77
g58
NtRp1373
(dp1374
g61
(dp1375
g88
g89
ssg70
g1364
sg63
(lp1376
S':'
asbag56
(g77
g58
NtRp1377
(dp1378
g61
(dp1379
sg70
g1364
sg63
(lp1380
g56
(g57
g58
NtRp1381
(dp1382
g61
(dp1383
g69
I4
ssg70
g1377
sg63
(lp1384
S'Mozilla/5.0 (Macintosh; Intel Mac OS X 10.6; rv:5.0.1) Gecko/20100101 Firefox/5.0.1'
p1385
asbasbasbag56
(g72
g58
NtRp1386
(dp1387
g61
(dp1388
sg70
g1006
sg63
(lp1389
g56
(g77
g58
NtRp1390
(dp1391
g61
(dp1392
g81
g82
ssg70
g1386
sg63
(lp1393
S'is_jython'
p1394
asbag56
(g77
g58
NtRp1395
(dp1396
g61
(dp1397
g88
g89
ssg70
g1386
sg63
(lp1398
S':'
asbag56
(g77
g58
NtRp1399
(dp1400
g61
(dp1401
sg70
g1386
sg63
(lp1402
g56
(g57
g58
NtRp1403
(dp1404
g61
(dp1405
g69
I4
ssg70
g1399
sg63
(lp1406
g99
asbasbasbag56
(g72
g58
NtRp1407
(dp1408
g61
(dp1409
sg70
g1006
sg63
(lp1410
g56
(g77
g58
NtRp1411
(dp1412
g61
(dp1413
g81
g82
ssg70
g1407
sg63
(lp1414
S'path_info'
p1415
asbag56
(g77
g58
NtRp1416
(dp1417
g61
(dp1418
g88
g89
ssg70
g1407
sg63
(lp1419
S':'
asbag56
(g77
g58
NtRp1420
(dp1421
g61
(dp1422
sg70
g1407
sg63
(lp1423
g56
(g57
g58
NtRp1424
(dp1425
g61
(dp1426
g69
I4
ssg70
g1420
sg63
(lp1427
S'/init/default/submission'
p1428
asbasbasbag56
(g72
g58
NtRp1429
(dp1430
g61
(dp1431
sg70
g1006
sg63
(lp1432
g56
(g77
g58
NtRp1433
(dp1434
g61
(dp1435
g81
g82
ssg70
g1429
sg63
(lp1436
S'query_string'
p1437
asbag56
(g77
g58
NtRp1438
(dp1439
g61
(dp1440
g88
g89
ssg70
g1429
sg63
(lp1441
S':'
asbag56
(g77
g58
NtRp1442
(dp1443
g61
(dp1444
sg70
g1429
sg63
(lp1445
g56
(g57
g58
NtRp1446
(dp1447
g61
(dp1448
g69
I4
ssg70
g1442
sg63
(lp1449
S''
asbasbasbag56
(g72
g58
NtRp1450
(dp1451
g61
(dp1452
sg70
g1006
sg63
(lp1453
g56
(g77
g58
NtRp1454
(dp1455
g61
(dp1456
g81
g82
ssg70
g1450
sg63
(lp1457
S'remote_addr'
p1458
asbag56
(g77
g58
NtRp1459
(dp1460
g61
(dp1461
g88
g89
ssg70
g1450
sg63
(lp1462
S':'
asbag56
(g77
g58
NtRp1463
(dp1464
g61
(dp1465
sg70
g1450
sg63
(lp1466
g56
(g57
g58
NtRp1467
(dp1468
g61
(dp1469
g69
I4
ssg70
g1463
sg63
(lp1470
g189
asbasbasbag56
(g72
g58
NtRp1471
(dp1472
g61
(dp1473
sg70
g1006
sg63
(lp1474
g56
(g77
g58
NtRp1475
(dp1476
g61
(dp1477
g81
g82
ssg70
g1471
sg63
(lp1478
S'remote_port'
p1479
asbag56
(g77
g58
NtRp1480
(dp1481
g61
(dp1482
g88
g89
ssg70
g1471
sg63
(lp1483
S':'
asbag56
(g77
g58
NtRp1484
(dp1485
g61
(dp1486
sg70
g1471
sg63
(lp1487
g56
(g57
g58
NtRp1488
(dp1489
g61
(dp1490
g69
I4
ssg70
g1484
sg63
(lp1491
S'54873'
p1492
asbasbasbag56
(g72
g58
NtRp1493
(dp1494
g61
(dp1495
sg70
g1006
sg63
(lp1496
g56
(g77
g58
NtRp1497
(dp1498
g61
(dp1499
g81
g82
ssg70
g1493
sg63
(lp1500
S'request_method'
p1501
asbag56
(g77
g58
NtRp1502
(dp1503
g61
(dp1504
g88
g89
ssg70
g1493
sg63
(lp1505
S':'
asbag56
(g77
g58
NtRp1506
(dp1507
g61
(dp1508
sg70
g1493
sg63
(lp1509
g56
(g57
g58
NtRp1510
(dp1511
g61
(dp1512
g69
I4
ssg70
g1506
sg63
(lp1513
S'GET'
p1514
asbasbasbag56
(g72
g58
NtRp1515
(dp1516
g61
(dp1517
sg70
g1006
sg63
(lp1518
g56
(g77
g58
NtRp1519
(dp1520
g61
(dp1521
g81
g82
ssg70
g1515
sg63
(lp1522
S'script_name'
p1523
asbag56
(g77
g58
NtRp1524
(dp1525
g61
(dp1526
g88
g89
ssg70
g1515
sg63
(lp1527
S':'
asbag56
(g77
g58
NtRp1528
(dp1529
g61
(dp1530
sg70
g1515
sg63
(lp1531
g56
(g57
g58
NtRp1532
(dp1533
g61
(dp1534
g69
I4
ssg70
g1528
sg63
(lp1535
S''
asbasbasbag56
(g72
g58
NtRp1536
(dp1537
g61
(dp1538
sg70
g1006
sg63
(lp1539
g56
(g77
g58
NtRp1540
(dp1541
g61
(dp1542
g81
g82
ssg70
g1536
sg63
(lp1543
S'server_name'
p1544
asbag56
(g77
g58
NtRp1545
(dp1546
g61
(dp1547
g88
g89
ssg70
g1536
sg63
(lp1548
S':'
asbag56
(g77
g58
NtRp1549
(dp1550
g61
(dp1551
sg70
g1536
sg63
(lp1552
g56
(g57
g58
NtRp1553
(dp1554
g61
(dp1555
g69
I4
ssg70
g1549
sg63
(lp1556
S'Jeanne.local'
p1557
asbasbasbag56
(g72
g58
NtRp1558
(dp1559
g61
(dp1560
sg70
g1006
sg63
(lp1561
g56
(g77
g58
NtRp1562
(dp1563
g61
(dp1564
g81
g82
ssg70
g1558
sg63
(lp1565
S'server_port'
p1566
asbag56
(g77
g58
NtRp1567
(dp1568
g61
(dp1569
g88
g89
ssg70
g1558
sg63
(lp1570
S':'
asbag56
(g77
g58
NtRp1571
(dp1572
g61
(dp1573
sg70
g1558
sg63
(lp1574
g56
(g57
g58
NtRp1575
(dp1576
g61
(dp1577
g69
I4
ssg70
g1571
sg63
(lp1578
S'8000'
p1579
asbasbasbag56
(g72
g58
NtRp1580
(dp1581
g61
(dp1582
sg70
g1006
sg63
(lp1583
g56
(g77
g58
NtRp1584
(dp1585
g61
(dp1586
g81
g82
ssg70
g1580
sg63
(lp1587
S'server_protocol'
p1588
asbag56
(g77
g58
NtRp1589
(dp1590
g61
(dp1591
g88
g89
ssg70
g1580
sg63
(lp1592
S':'
asbag56
(g77
g58
NtRp1593
(dp1594
g61
(dp1595
sg70
g1580
sg63
(lp1596
g56
(g57
g58
NtRp1597
(dp1598
g61
(dp1599
g69
I4
ssg70
g1593
sg63
(lp1600
S'HTTP/1.1'
p1601
asbasbasbag56
(g72
g58
NtRp1602
(dp1603
g61
(dp1604
sg70
g1006
sg63
(lp1605
g56
(g77
g58
NtRp1606
(dp1607
g61
(dp1608
g81
g82
ssg70
g1602
sg63
(lp1609
S'server_software'
p1610
asbag56
(g77
g58
NtRp1611
(dp1612
g61
(dp1613
g88
g89
ssg70
g1602
sg63
(lp1614
S':'
asbag56
(g77
g58
NtRp1615
(dp1616
g61
(dp1617
sg70
g1602
sg63
(lp1618
g56
(g57
g58
NtRp1619
(dp1620
g61
(dp1621
g69
I4
ssg70
g1615
sg63
(lp1622
S'Rocket 1.2.2'
p1623
asbasbasbag56
(g72
g58
NtRp1624
(dp1625
g61
(dp1626
sg70
g1006
sg63
(lp1627
g56
(g77
g58
NtRp1628
(dp1629
g61
(dp1630
g81
g82
ssg70
g1624
sg63
(lp1631
S'web2py_crontype'
p1632
asbag56
(g77
g58
NtRp1633
(dp1634
g61
(dp1635
g88
g89
ssg70
g1624
sg63
(lp1636
S':'
asbag56
(g77
g58
NtRp1637
(dp1638
g61
(dp1639
sg70
g1624
sg63
(lp1640
g56
(g57
g58
NtRp1641
(dp1642
g61
(dp1643
g69
I4
ssg70
g1637
sg63
(lp1644
S'hard'
p1645
asbasbasbag56
(g72
g58
NtRp1646
(dp1647
g61
(dp1648
sg70
g1006
sg63
(lp1649
g56
(g77
g58
NtRp1650
(dp1651
g61
(dp1652
g81
g82
ssg70
g1646
sg63
(lp1653
S'web2py_path'
p1654
asbag56
(g77
g58
NtRp1655
(dp1656
g61
(dp1657
g88
g89
ssg70
g1646
sg63
(lp1658
S':'
asbag56
(g77
g58
NtRp1659
(dp1660
g61
(dp1661
sg70
g1646
sg63
(lp1662
g56
(g57
g58
NtRp1663
(dp1664
g61
(dp1665
g69
I4
ssg70
g1659
sg63
(lp1666
g1053
asbasbasbag56
(g72
g58
NtRp1667
(dp1668
g61
(dp1669
sg70
g1006
sg63
(lp1670
g56
(g77
g58
NtRp1671
(dp1672
g61
(dp1673
g81
g82
ssg70
g1667
sg63
(lp1674
S'web2py_version'
p1675
asbag56
(g77
g58
NtRp1676
(dp1677
g61
(dp1678
g88
g89
ssg70
g1667
sg63
(lp1679
S':'
asbag56
(g77
g58
NtRp1680
(dp1681
g61
(dp1682
sg70
g1667
sg63
(lp1683
g56
(g57
g58
NtRp1684
(dp1685
g61
(dp1686
g69
I4
ssg70
g1680
sg63
(lp1687
S'Version 1.98.2 (2011-08-04 00:47:09)\n'
p1688
asbasbasbag56
(g72
g58
NtRp1689
(dp1690
g61
(dp1691
sg70
g1006
sg63
(lp1692
g56
(g77
g58
NtRp1693
(dp1694
g61
(dp1695
g81
g82
ssg70
g1689
sg63
(lp1696
S'wsgi_errors'
p1697
asbag56
(g77
g58
NtRp1698
(dp1699
g61
(dp1700
g88
g89
ssg70
g1689
sg63
(lp1701
S':'
asbag56
(g77
g58
NtRp1702
(dp1703
g61
(dp1704
sg70
g1689
sg63
(lp1705
g56
(g57
g58
NtRp1706
(dp1707
g61
(dp1708
g69
I4
ssg70
g1702
sg63
(lp1709
S"<open file '<stderr>', mode 'w' at 0x100287270>"
p1710
asbasbasbag56
(g72
g58
NtRp1711
(dp1712
g61
(dp1713
sg70
g1006
sg63
(lp1714
g56
(g77
g58
NtRp1715
(dp1716
g61
(dp1717
g81
g82
ssg70
g1711
sg63
(lp1718
S'wsgi_file_wrapper'
p1719
asbag56
(g77
g58
NtRp1720
(dp1721
g61
(dp1722
g88
g89
ssg70
g1711
sg63
(lp1723
S':'
asbag56
(g77
g58
NtRp1724
(dp1725
g61
(dp1726
sg70
g1711
sg63
(lp1727
g56
(g57
g58
NtRp1728
(dp1729
g61
(dp1730
g69
I4
ssg70
g1724
sg63
(lp1731
S'<class gluon.rocket.FileWrapper at 0x101668e20>'
p1732
asbasbasbag56
(g72
g58
NtRp1733
(dp1734
g61
(dp1735
sg70
g1006
sg63
(lp1736
g56
(g77
g58
NtRp1737
(dp1738
g61
(dp1739
g81
g82
ssg70
g1733
sg63
(lp1740
S'wsgi_input'
p1741
asbag56
(g77
g58
NtRp1742
(dp1743
g61
(dp1744
g88
g89
ssg70
g1733
sg63
(lp1745
S':'
asbag56
(g77
g58
NtRp1746
(dp1747
g61
(dp1748
sg70
g1733
sg63
(lp1749
g56
(g57
g58
NtRp1750
(dp1751
g61
(dp1752
g69
I4
ssg70
g1746
sg63
(lp1753
S'<socket._fileobject object at 0x102188ad0>'
p1754
asbasbasbag56
(g72
g58
NtRp1755
(dp1756
g61
(dp1757
sg70
g1006
sg63
(lp1758
g56
(g77
g58
NtRp1759
(dp1760
g61
(dp1761
g81
g82
ssg70
g1755
sg63
(lp1762
S'wsgi_multiprocess'
p1763
asbag56
(g77
g58
NtRp1764
(dp1765
g61
(dp1766
g88
g89
ssg70
g1755
sg63
(lp1767
S':'
asbag56
(g77
g58
NtRp1768
(dp1769
g61
(dp1770
sg70
g1755
sg63
(lp1771
g56
(g57
g58
NtRp1772
(dp1773
g61
(dp1774
g69
I4
ssg70
g1768
sg63
(lp1775
g99
asbasbasbag56
(g72
g58
NtRp1776
(dp1777
g61
(dp1778
sg70
g1006
sg63
(lp1779
g56
(g77
g58
NtRp1780
(dp1781
g61
(dp1782
g81
g82
ssg70
g1776
sg63
(lp1783
S'wsgi_multithread'
p1784
asbag56
(g77
g58
NtRp1785
(dp1786
g61
(dp1787
g88
g89
ssg70
g1776
sg63
(lp1788
S':'
asbag56
(g77
g58
NtRp1789
(dp1790
g61
(dp1791
sg70
g1776
sg63
(lp1792
g56
(g57
g58
NtRp1793
(dp1794
g61
(dp1795
g69
I4
ssg70
g1789
sg63
(lp1796
S'True'
p1797
asbasbasbag56
(g72
g58
NtRp1798
(dp1799
g61
(dp1800
sg70
g1006
sg63
(lp1801
g56
(g77
g58
NtRp1802
(dp1803
g61
(dp1804
g81
g82
ssg70
g1798
sg63
(lp1805
S'wsgi_run_once'
p1806
asbag56
(g77
g58
NtRp1807
(dp1808
g61
(dp1809
g88
g89
ssg70
g1798
sg63
(lp1810
S':'
asbag56
(g77
g58
NtRp1811
(dp1812
g61
(dp1813
sg70
g1798
sg63
(lp1814
g56
(g57
g58
NtRp1815
(dp1816
g61
(dp1817
g69
I4
ssg70
g1811
sg63
(lp1818
g99
asbasbasbag56
(g72
g58
NtRp1819
(dp1820
g61
(dp1821
sg70
g1006
sg63
(lp1822
g56
(g77
g58
NtRp1823
(dp1824
g61
(dp1825
g81
g82
ssg70
g1819
sg63
(lp1826
S'wsgi_url_scheme'
p1827
asbag56
(g77
g58
NtRp1828
(dp1829
g61
(dp1830
g88
g89
ssg70
g1819
sg63
(lp1831
S':'
asbag56
(g77
g58
NtRp1832
(dp1833
g61
(dp1834
sg70
g1819
sg63
(lp1835
g56
(g57
g58
NtRp1836
(dp1837
g61
(dp1838
g69
I4
ssg70
g1832
sg63
(lp1839
S'http'
p1840
asbasbasbag56
(g72
g58
NtRp1841
(dp1842
g61
(dp1843
sg70
g1006
sg63
(lp1844
g56
(g77
g58
NtRp1845
(dp1846
g61
(dp1847
g81
g82
ssg70
g1841
sg63
(lp1848
S'wsgi_version'
p1849
asbag56
(g77
g58
NtRp1850
(dp1851
g61
(dp1852
g88
g89
ssg70
g1841
sg63
(lp1853
S':'
asbag56
(g77
g58
NtRp1854
(dp1855
g61
(dp1856
sg70
g1841
sg63
(lp1857
g56
(g57
g58
NtRp1858
(dp1859
g61
(dp1860
g69
I4
ssg70
g1854
sg63
(lp1861
g56
(g65
g58
NtRp1862
(dp1863
g61
(dp1864
g69
I3
ssg70
Nsg63
(lp1865
g56
(g72
g58
NtRp1866
(dp1867
g61
(dp1868
sg70
g1862
sg63
(lp1869
g56
(g77
g58
NtRp1870
(dp1871
g61
(dp1872
sg70
g1866
sg63
(lp1873
g56
(g57
g58
NtRp1874
(dp1875
g61
(dp1876
g69
I3
ssg70
g1870
sg63
(lp1877
S'1'
asbasbasbag56
(g72
g58
NtRp1878
(dp1879
g61
(dp1880
sg70
g1862
sg63
(lp1881
g56
(g77
g58
NtRp1882
(dp1883
g61
(dp1884
sg70
g1878
sg63
(lp1885
g56
(g57
g58
NtRp1886
(dp1887
g61
(dp1888
g69
I3
ssg70
g1882
sg63
(lp1889
S'0'
asbasbasbasbasbasbasbasbasbasbasbag56
(g72
g58
NtRp1890
(dp1891
g61
(dp1892
sg70
g66
sg63
(lp1893
g56
(g77
g58
NtRp1894
(dp1895
g61
(dp1896
g81
g82
ssg70
g1890
sg63
(lp1897
S'extension'
p1898
asbag56
(g77
g58
NtRp1899
(dp1900
g61
(dp1901
g88
g89
ssg70
g1890
sg63
(lp1902
S':'
asbag56
(g77
g58
NtRp1903
(dp1904
g61
(dp1905
sg70
g1890
sg63
(lp1906
g56
(g57
g58
NtRp1907
(dp1908
g61
(dp1909
g69
I5
ssg70
g1903
sg63
(lp1910
S'html'
p1911
asbasbasbag56
(g72
g58
NtRp1912
(dp1913
g61
(dp1914
sg70
g66
sg63
(lp1915
g56
(g77
g58
NtRp1916
(dp1917
g61
(dp1918
g81
g82
ssg70
g1912
sg63
(lp1919
S'folder'
p1920
asbag56
(g77
g58
NtRp1921
(dp1922
g61
(dp1923
g88
g89
ssg70
g1912
sg63
(lp1924
S':'
asbag56
(g77
g58
NtRp1925
(dp1926
g61
(dp1927
sg70
g1912
sg63
(lp1928
g56
(g57
g58
NtRp1929
(dp1930
g61
(dp1931
g69
I5
ssg70
g1925
sg63
(lp1932
S'/Users/hellais/Documents/code/mygit/globaleaks/webapp/applications/init/'
p1933
asbasbasbag56
(g72
g58
NtRp1934
(dp1935
g61
(dp1936
sg70
g66
sg63
(lp1937
g56
(g77
g58
NtRp1938
(dp1939
g61
(dp1940
g81
g82
ssg70
g1934
sg63
(lp1941
S'function'
p1942
asbag56
(g77
g58
NtRp1943
(dp1944
g61
(dp1945
g88
g89
ssg70
g1934
sg63
(lp1946
S':'
asbag56
(g77
g58
NtRp1947
(dp1948
g61
(dp1949
sg70
g1934
sg63
(lp1950
g56
(g57
g58
NtRp1951
(dp1952
g61
(dp1953
g69
I5
ssg70
g1947
sg63
(lp1954
S'submission'
p1955
asbasbasbag56
(g72
g58
NtRp1956
(dp1957
g61
(dp1958
sg70
g66
sg63
(lp1959
g56
(g77
g58
NtRp1960
(dp1961
g61
(dp1962
g81
g82
ssg70
g1956
sg63
(lp1963
S'get_vars'
p1964
asbag56
(g77
g58
NtRp1965
(dp1966
g61
(dp1967
g88
g89
ssg70
g1956
sg63
(lp1968
S':'
asbag56
(g77
g58
NtRp1969
(dp1970
g61
(dp1971
sg70
g1956
sg63
(lp1972
g56
(g57
g58
NtRp1973
(dp1974
g61
(dp1975
g69
I5
ssg70
g1969
sg63
(lp1976
g56
(g65
g58
NtRp1977
(dp1978
g61
(dp1979
g69
I4
ssg70
Nsg63
(lp1980
sbasbasbasbag56
(g72
g58
NtRp1981
(dp1982
g61
(dp1983
sg70
g66
sg63
(lp1984
g56
(g77
g58
NtRp1985
(dp1986
g61
(dp1987
g81
g82
ssg70
g1981
sg63
(lp1988
S'is_https'
p1989
asbag56
(g77
g58
NtRp1990
(dp1991
g61
(dp1992
g88
g89
ssg70
g1981
sg63
(lp1993
S':'
asbag56
(g77
g58
NtRp1994
(dp1995
g61
(dp1996
sg70
g1981
sg63
(lp1997
g56
(g57
g58
NtRp1998
(dp1999
g61
(dp2000
g69
I5
ssg70
g1994
sg63
(lp2001
g99
asbasbasbag56
(g72
g58
NtRp2002
(dp2003
g61
(dp2004
sg70
g66
sg63
(lp2005
g56
(g77
g58
NtRp2006
(dp2007
g61
(dp2008
g81
g82
ssg70
g2002
sg63
(lp2009
S'is_local'
p2010
asbag56
(g77
g58
NtRp2011
(dp2012
g61
(dp2013
g88
g89
ssg70
g2002
sg63
(lp2014
S':'
asbag56
(g77
g58
NtRp2015
(dp2016
g61
(dp2017
sg70
g2002
sg63
(lp2018
g56
(g57
g58
NtRp2019
(dp2020
g61
(dp2021
g69
I5
ssg70
g2015
sg63
(lp2022
g1797
asbasbasbag56
(g72
g58
NtRp2023
(dp2024
g61
(dp2025
sg70
g66
sg63
(lp2026
g56
(g77
g58
NtRp2027
(dp2028
g61
(dp2029
g81
g82
ssg70
g2023
sg63
(lp2030
S'is_restful'
p2031
asbag56
(g77
g58
NtRp2032
(dp2033
g61
(dp2034
g88
g89
ssg70
g2023
sg63
(lp2035
S':'
asbag56
(g77
g58
NtRp2036
(dp2037
g61
(dp2038
sg70
g2023
sg63
(lp2039
g56
(g57
g58
NtRp2040
(dp2041
g61
(dp2042
g69
I5
ssg70
g2036
sg63
(lp2043
g99
asbasbasbag56
(g72
g58
NtRp2044
(dp2045
g61
(dp2046
sg70
g66
sg63
(lp2047
g56
(g77
g58
NtRp2048
(dp2049
g61
(dp2050
g81
g82
ssg70
g2044
sg63
(lp2051
S'now'
p2052
asbag56
(g77
g58
NtRp2053
(dp2054
g61
(dp2055
g88
g89
ssg70
g2044
sg63
(lp2056
S':'
asbag56
(g77
g58
NtRp2057
(dp2058
g61
(dp2059
sg70
g2044
sg63
(lp2060
g56
(g57
g58
NtRp2061
(dp2062
g61
(dp2063
g69
I5
ssg70
g2057
sg63
(lp2064
S'datetime.datetime(2011, 8, 28, 0, 12, 5, 690100)'
p2065
asbasbasbag56
(g72
g58
NtRp2066
(dp2067
g61
(dp2068
sg70
g66
sg63
(lp2069
g56
(g77
g58
NtRp2070
(dp2071
g61
(dp2072
g81
g82
ssg70
g2066
sg63
(lp2073
S'post_vars'
p2074
asbag56
(g77
g58
NtRp2075
(dp2076
g61
(dp2077
g88
g89
ssg70
g2066
sg63
(lp2078
S':'
asbag56
(g77
g58
NtRp2079
(dp2080
g61
(dp2081
sg70
g2066
sg63
(lp2082
g56
(g57
g58
NtRp2083
(dp2084
g61
(dp2085
g69
I5
ssg70
g2079
sg63
(lp2086
g56
(g65
g58
NtRp2087
(dp2088
g61
(dp2089
g69
I4
ssg70
Nsg63
(lp2090
sbasbasbasbag56
(g72
g58
NtRp2091
(dp2092
g61
(dp2093
sg70
g66
sg63
(lp2094
g56
(g77
g58
NtRp2095
(dp2096
g61
(dp2097
g81
g82
ssg70
g2091
sg63
(lp2098
S'url'
p2099
asbag56
(g77
g58
NtRp2100
(dp2101
g61
(dp2102
g88
g89
ssg70
g2091
sg63
(lp2103
S':'
asbag56
(g77
g58
NtRp2104
(dp2105
g61
(dp2106
sg70
g2091
sg63
(lp2107
g56
(g57
g58
NtRp2108
(dp2109
g61
(dp2110
g69
I5
ssg70
g2104
sg63
(lp2111
S'/init/default/submission'
p2112
asbasbasbag56
(g72
g58
NtRp2113
(dp2114
g61
(dp2115
sg70
g66
sg63
(lp2116
g56
(g77
g58
NtRp2117
(dp2118
g61
(dp2119
g81
g82
ssg70
g2113
sg63
(lp2120
S'uuid'
p2121
asbag56
(g77
g58
NtRp2122
(dp2123
g61
(dp2124
g88
g89
ssg70
g2113
sg63
(lp2125
S':'
asbag56
(g77
g58
NtRp2126
(dp2127
g61
(dp2128
sg70
g2113
sg63
(lp2129
g56
(g57
g58
NtRp2130
(dp2131
g61
(dp2132
g69
I5
ssg70
g2126
sg63
(lp2133
S'init/127.0.0.1.2011-08-28.00-12-05.c2ee4504-4882-4ff5-87c0-e766d3a525fa'
p2134
asbasbasbag56
(g72
g58
NtRp2135
(dp2136
g61
(dp2137
sg70
g66
sg63
(lp2138
g56
(g77
g58
NtRp2139
(dp2140
g61
(dp2141
g81
g82
ssg70
g2135
sg63
(lp2142
S'vars'
p2143
asbag56
(g77
g58
NtRp2144
(dp2145
g61
(dp2146
g88
g89
ssg70
g2135
sg63
(lp2147
S':'
asbag56
(g77
g58
NtRp2148
(dp2149
g61
(dp2150
sg70
g2135
sg63
(lp2151
g56
(g57
g58
NtRp2152
(dp2153
g61
(dp2154
g69
I5
ssg70
g2148
sg63
(lp2155
g56
(g65
g58
NtRp2156
(dp2157
g61
(dp2158
g69
I4
ssg70
Nsg63
(lp2159
sbasbasbasbag56
(g72
g58
NtRp2160
(dp2161
g61
(dp2162
sg70
g66
sg63
(lp2163
g56
(g77
g58
NtRp2164
(dp2165
g61
(dp2166
g81
g82
ssg70
g2160
sg63
(lp2167
S'wsgi'
p2168
asbag56
(g77
g58
NtRp2169
(dp2170
g61
(dp2171
g88
g89
ssg70
g2160
sg63
(lp2172
S':'
asbag56
(g77
g58
NtRp2173
(dp2174
g61
(dp2175
sg70
g2160
sg63
(lp2176
g56
(g57
g58
NtRp2177
(dp2178
g61
(dp2179
g69
I5
ssg70
g2173
sg63
(lp2180
g56
(g65
g58
NtRp2181
(dp2182
g61
(dp2183
g69
I4
ssg70
Nsg63
(lp2184
g56
(g72
g58
NtRp2185
(dp2186
g61
(dp2187
sg70
g2181
sg63
(lp2188
g56
(g77
g58
NtRp2189
(dp2190
g61
(dp2191
g81
g82
ssg70
g2185
sg63
(lp2192
S'environ'
p2193
asbag56
(g77
g58
NtRp2194
(dp2195
g61
(dp2196
g88
g89
ssg70
g2185
sg63
(lp2197
S':'
asbag56
(g77
g58
NtRp2198
(dp2199
g61
(dp2200
sg70
g2185
sg63
(lp2201
g56
(g57
g58
NtRp2202
(dp2203
g61
(dp2204
g69
I4
ssg70
g2198
sg63
(lp2205
g56
(g65
g58
NtRp2206
(dp2207
g61
(dp2208
g69
I3
ssg70
Nsg63
(lp2209
g56
(g72
g58
NtRp2210
(dp2211
g61
(dp2212
sg70
g2206
sg63
(lp2213
g56
(g77
g58
NtRp2214
(dp2215
g61
(dp2216
g81
g82
ssg70
g2210
sg63
(lp2217
S'HTTP_ACCEPT'
p2218
asbag56
(g77
g58
NtRp2219
(dp2220
g61
(dp2221
g88
g89
ssg70
g2210
sg63
(lp2222
S':'
asbag56
(g77
g58
NtRp2223
(dp2224
g61
(dp2225
sg70
g2210
sg63
(lp2226
g56
(g57
g58
NtRp2227
(dp2228
g61
(dp2229
g69
I3
ssg70
g2223
sg63
(lp2230
g1187
asbasbasbag56
(g72
g58
NtRp2231
(dp2232
g61
(dp2233
sg70
g2206
sg63
(lp2234
g56
(g77
g58
NtRp2235
(dp2236
g61
(dp2237
g81
g82
ssg70
g2231
sg63
(lp2238
S'HTTP_ACCEPT_CHARSET'
p2239
asbag56
(g77
g58
NtRp2240
(dp2241
g61
(dp2242
g88
g89
ssg70
g2231
sg63
(lp2243
S':'
asbag56
(g77
g58
NtRp2244
(dp2245
g61
(dp2246
sg70
g2231
sg63
(lp2247
g56
(g57
g58
NtRp2248
(dp2249
g61
(dp2250
g69
I3
ssg70
g2244
sg63
(lp2251
g1209
asbasbasbag56
(g72
g58
NtRp2252
(dp2253
g61
(dp2254
sg70
g2206
sg63
(lp2255
g56
(g77
g58
NtRp2256
(dp2257
g61
(dp2258
g81
g82
ssg70
g2252
sg63
(lp2259
S'HTTP_ACCEPT_ENCODING'
p2260
asbag56
(g77
g58
NtRp2261
(dp2262
g61
(dp2263
g88
g89
ssg70
g2252
sg63
(lp2264
S':'
asbag56
(g77
g58
NtRp2265
(dp2266
g61
(dp2267
sg70
g2252
sg63
(lp2268
g56
(g57
g58
NtRp2269
(dp2270
g61
(dp2271
g69
I3
ssg70
g2265
sg63
(lp2272
g1231
asbasbasbag56
(g72
g58
NtRp2273
(dp2274
g61
(dp2275
sg70
g2206
sg63
(lp2276
g56
(g77
g58
NtRp2277
(dp2278
g61
(dp2279
g81
g82
ssg70
g2273
sg63
(lp2280
S'HTTP_ACCEPT_LANGUAGE'
p2281
asbag56
(g77
g58
NtRp2282
(dp2283
g61
(dp2284
g88
g89
ssg70
g2273
sg63
(lp2285
S':'
asbag56
(g77
g58
NtRp2286
(dp2287
g61
(dp2288
sg70
g2273
sg63
(lp2289
g56
(g57
g58
NtRp2290
(dp2291
g61
(dp2292
g69
I3
ssg70
g2286
sg63
(lp2293
g1253
asbasbasbag56
(g72
g58
NtRp2294
(dp2295
g61
(dp2296
sg70
g2206
sg63
(lp2297
g56
(g77
g58
NtRp2298
(dp2299
g61
(dp2300
g81
g82
ssg70
g2294
sg63
(lp2301
S'HTTP_CACHE_CONTROL'
p2302
asbag56
(g77
g58
NtRp2303
(dp2304
g61
(dp2305
g88
g89
ssg70
g2294
sg63
(lp2306
S':'
asbag56
(g77
g58
NtRp2307
(dp2308
g61
(dp2309
sg70
g2294
sg63
(lp2310
g56
(g57
g58
NtRp2311
(dp2312
g61
(dp2313
g69
I3
ssg70
g2307
sg63
(lp2314
g1275
asbasbasbag56
(g72
g58
NtRp2315
(dp2316
g61
(dp2317
sg70
g2206
sg63
(lp2318
g56
(g77
g58
NtRp2319
(dp2320
g61
(dp2321
g81
g82
ssg70
g2315
sg63
(lp2322
S'HTTP_CONNECTION'
p2323
asbag56
(g77
g58
NtRp2324
(dp2325
g61
(dp2326
g88
g89
ssg70
g2315
sg63
(lp2327
S':'
asbag56
(g77
g58
NtRp2328
(dp2329
g61
(dp2330
sg70
g2315
sg63
(lp2331
g56
(g57
g58
NtRp2332
(dp2333
g61
(dp2334
g69
I3
ssg70
g2328
sg63
(lp2335
g1297
asbasbasbag56
(g72
g58
NtRp2336
(dp2337
g61
(dp2338
sg70
g2206
sg63
(lp2339
g56
(g77
g58
NtRp2340
(dp2341
g61
(dp2342
g81
g82
ssg70
g2336
sg63
(lp2343
S'HTTP_COOKIE'
p2344
asbag56
(g77
g58
NtRp2345
(dp2346
g61
(dp2347
g88
g89
ssg70
g2336
sg63
(lp2348
S':'
asbag56
(g77
g58
NtRp2349
(dp2350
g61
(dp2351
sg70
g2336
sg63
(lp2352
g56
(g57
g58
NtRp2353
(dp2354
g61
(dp2355
g69
I3
ssg70
g2349
sg63
(lp2356
g1319
asbasbasbag56
(g72
g58
NtRp2357
(dp2358
g61
(dp2359
sg70
g2206
sg63
(lp2360
g56
(g77
g58
NtRp2361
(dp2362
g61
(dp2363
g81
g82
ssg70
g2357
sg63
(lp2364
S'HTTP_HOST'
p2365
asbag56
(g77
g58
NtRp2366
(dp2367
g61
(dp2368
g88
g89
ssg70
g2357
sg63
(lp2369
S':'
asbag56
(g77
g58
NtRp2370
(dp2371
g61
(dp2372
sg70
g2357
sg63
(lp2373
g56
(g57
g58
NtRp2374
(dp2375
g61
(dp2376
g69
I3
ssg70
g2370
sg63
(lp2377
g1341
asbasbasbag56
(g72
g58
NtRp2378
(dp2379
g61
(dp2380
sg70
g2206
sg63
(lp2381
g56
(g77
g58
NtRp2382
(dp2383
g61
(dp2384
g81
g82
ssg70
g2378
sg63
(lp2385
S'HTTP_REFERER'
p2386
asbag56
(g77
g58
NtRp2387
(dp2388
g61
(dp2389
g88
g89
ssg70
g2378
sg63
(lp2390
S':'
asbag56
(g77
g58
NtRp2391
(dp2392
g61
(dp2393
sg70
g2378
sg63
(lp2394
g56
(g57
g58
NtRp2395
(dp2396
g61
(dp2397
g69
I3
ssg70
g2391
sg63
(lp2398
g1363
asbasbasbag56
(g72
g58
NtRp2399
(dp2400
g61
(dp2401
sg70
g2206
sg63
(lp2402
g56
(g77
g58
NtRp2403
(dp2404
g61
(dp2405
g81
g82
ssg70
g2399
sg63
(lp2406
S'HTTP_USER_AGENT'
p2407
asbag56
(g77
g58
NtRp2408
(dp2409
g61
(dp2410
g88
g89
ssg70
g2399
sg63
(lp2411
S':'
asbag56
(g77
g58
NtRp2412
(dp2413
g61
(dp2414
sg70
g2399
sg63
(lp2415
g56
(g57
g58
NtRp2416
(dp2417
g61
(dp2418
g69
I3
ssg70
g2412
sg63
(lp2419
g1385
asbasbasbag56
(g72
g58
NtRp2420
(dp2421
g61
(dp2422
sg70
g2206
sg63
(lp2423
g56
(g77
g58
NtRp2424
(dp2425
g61
(dp2426
g81
g82
ssg70
g2420
sg63
(lp2427
S'PATH_INFO'
p2428
asbag56
(g77
g58
NtRp2429
(dp2430
g61
(dp2431
g88
g89
ssg70
g2420
sg63
(lp2432
S':'
asbag56
(g77
g58
NtRp2433
(dp2434
g61
(dp2435
sg70
g2420
sg63
(lp2436
g56
(g57
g58
NtRp2437
(dp2438
g61
(dp2439
g69
I3
ssg70
g2433
sg63
(lp2440
g1428
asbasbasbag56
(g72
g58
NtRp2441
(dp2442
g61
(dp2443
sg70
g2206
sg63
(lp2444
g56
(g77
g58
NtRp2445
(dp2446
g61
(dp2447
g81
g82
ssg70
g2441
sg63
(lp2448
S'QUERY_STRING'
p2449
asbag56
(g77
g58
NtRp2450
(dp2451
g61
(dp2452
g88
g89
ssg70
g2441
sg63
(lp2453
S':'
asbag56
(g77
g58
NtRp2454
(dp2455
g61
(dp2456
sg70
g2441
sg63
(lp2457
g56
(g57
g58
NtRp2458
(dp2459
g61
(dp2460
g69
I3
ssg70
g2454
sg63
(lp2461
S''
asbasbasbag56
(g72
g58
NtRp2462
(dp2463
g61
(dp2464
sg70
g2206
sg63
(lp2465
g56
(g77
g58
NtRp2466
(dp2467
g61
(dp2468
g81
g82
ssg70
g2462
sg63
(lp2469
S'REMOTE_ADDR'
p2470
asbag56
(g77
g58
NtRp2471
(dp2472
g61
(dp2473
g88
g89
ssg70
g2462
sg63
(lp2474
S':'
asbag56
(g77
g58
NtRp2475
(dp2476
g61
(dp2477
sg70
g2462
sg63
(lp2478
g56
(g57
g58
NtRp2479
(dp2480
g61
(dp2481
g69
I3
ssg70
g2475
sg63
(lp2482
g189
asbasbasbag56
(g72
g58
NtRp2483
(dp2484
g61
(dp2485
sg70
g2206
sg63
(lp2486
g56
(g77
g58
NtRp2487
(dp2488
g61
(dp2489
g81
g82
ssg70
g2483
sg63
(lp2490
S'REMOTE_PORT'
p2491
asbag56
(g77
g58
NtRp2492
(dp2493
g61
(dp2494
g88
g89
ssg70
g2483
sg63
(lp2495
S':'
asbag56
(g77
g58
NtRp2496
(dp2497
g61
(dp2498
sg70
g2483
sg63
(lp2499
g56
(g57
g58
NtRp2500
(dp2501
g61
(dp2502
g69
I3
ssg70
g2496
sg63
(lp2503
g1492
asbasbasbag56
(g72
g58
NtRp2504
(dp2505
g61
(dp2506
sg70
g2206
sg63
(lp2507
g56
(g77
g58
NtRp2508
(dp2509
g61
(dp2510
g81
g82
ssg70
g2504
sg63
(lp2511
S'REQUEST_METHOD'
p2512
asbag56
(g77
g58
NtRp2513
(dp2514
g61
(dp2515
g88
g89
ssg70
g2504
sg63
(lp2516
S':'
asbag56
(g77
g58
NtRp2517
(dp2518
g61
(dp2519
sg70
g2504
sg63
(lp2520
g56
(g57
g58
NtRp2521
(dp2522
g61
(dp2523
g69
I3
ssg70
g2517
sg63
(lp2524
g1514
asbasbasbag56
(g72
g58
NtRp2525
(dp2526
g61
(dp2527
sg70
g2206
sg63
(lp2528
g56
(g77
g58
NtRp2529
(dp2530
g61
(dp2531
g81
g82
ssg70
g2525
sg63
(lp2532
S'SCRIPT_NAME'
p2533
asbag56
(g77
g58
NtRp2534
(dp2535
g61
(dp2536
g88
g89
ssg70
g2525
sg63
(lp2537
S':'
asbag56
(g77
g58
NtRp2538
(dp2539
g61
(dp2540
sg70
g2525
sg63
(lp2541
g56
(g57
g58
NtRp2542
(dp2543
g61
(dp2544
g69
I3
ssg70
g2538
sg63
(lp2545
S''
asbasbasbag56
(g72
g58
NtRp2546
(dp2547
g61
(dp2548
sg70
g2206
sg63
(lp2549
g56
(g77
g58
NtRp2550
(dp2551
g61
(dp2552
g81
g82
ssg70
g2546
sg63
(lp2553
S'SERVER_NAME'
p2554
asbag56
(g77
g58
NtRp2555
(dp2556
g61
(dp2557
g88
g89
ssg70
g2546
sg63
(lp2558
S':'
asbag56
(g77
g58
NtRp2559
(dp2560
g61
(dp2561
sg70
g2546
sg63
(lp2562
g56
(g57
g58
NtRp2563
(dp2564
g61
(dp2565
g69
I3
ssg70
g2559
sg63
(lp2566
g1557
asbasbasbag56
(g72
g58
NtRp2567
(dp2568
g61
(dp2569
sg70
g2206
sg63
(lp2570
g56
(g77
g58
NtRp2571
(dp2572
g61
(dp2573
g81
g82
ssg70
g2567
sg63
(lp2574
S'SERVER_PORT'
p2575
asbag56
(g77
g58
NtRp2576
(dp2577
g61
(dp2578
g88
g89
ssg70
g2567
sg63
(lp2579
S':'
asbag56
(g77
g58
NtRp2580
(dp2581
g61
(dp2582
sg70
g2567
sg63
(lp2583
g56
(g57
g58
NtRp2584
(dp2585
g61
(dp2586
g69
I3
ssg70
g2580
sg63
(lp2587
g1579
asbasbasbag56
(g72
g58
NtRp2588
(dp2589
g61
(dp2590
sg70
g2206
sg63
(lp2591
g56
(g77
g58
NtRp2592
(dp2593
g61
(dp2594
g81
g82
ssg70
g2588
sg63
(lp2595
S'SERVER_PROTOCOL'
p2596
asbag56
(g77
g58
NtRp2597
(dp2598
g61
(dp2599
g88
g89
ssg70
g2588
sg63
(lp2600
S':'
asbag56
(g77
g58
NtRp2601
(dp2602
g61
(dp2603
sg70
g2588
sg63
(lp2604
g56
(g57
g58
NtRp2605
(dp2606
g61
(dp2607
g69
I3
ssg70
g2601
sg63
(lp2608
g1601
asbasbasbag56
(g72
g58
NtRp2609
(dp2610
g61
(dp2611
sg70
g2206
sg63
(lp2612
g56
(g77
g58
NtRp2613
(dp2614
g61
(dp2615
g81
g82
ssg70
g2609
sg63
(lp2616
S'SERVER_SOFTWARE'
p2617
asbag56
(g77
g58
NtRp2618
(dp2619
g61
(dp2620
g88
g89
ssg70
g2609
sg63
(lp2621
S':'
asbag56
(g77
g58
NtRp2622
(dp2623
g61
(dp2624
sg70
g2609
sg63
(lp2625
g56
(g57
g58
NtRp2626
(dp2627
g61
(dp2628
g69
I3
ssg70
g2622
sg63
(lp2629
g1623
asbasbasbag56
(g72
g58
NtRp2630
(dp2631
g61
(dp2632
sg70
g2206
sg63
(lp2633
g56
(g77
g58
NtRp2634
(dp2635
g61
(dp2636
g81
g82
ssg70
g2630
sg63
(lp2637
S'wsgi.errors'
p2638
asbag56
(g77
g58
NtRp2639
(dp2640
g61
(dp2641
g88
g89
ssg70
g2630
sg63
(lp2642
S':'
asbag56
(g77
g58
NtRp2643
(dp2644
g61
(dp2645
sg70
g2630
sg63
(lp2646
g56
(g57
g58
NtRp2647
(dp2648
g61
(dp2649
g69
I3
ssg70
g2643
sg63
(lp2650
S"<open file '<stderr>', mode 'w' at 0x100287270>"
p2651
asbasbasbag56
(g72
g58
NtRp2652
(dp2653
g61
(dp2654
sg70
g2206
sg63
(lp2655
g56
(g77
g58
NtRp2656
(dp2657
g61
(dp2658
g81
g82
ssg70
g2652
sg63
(lp2659
S'wsgi.file_wrapper'
p2660
asbag56
(g77
g58
NtRp2661
(dp2662
g61
(dp2663
g88
g89
ssg70
g2652
sg63
(lp2664
S':'
asbag56
(g77
g58
NtRp2665
(dp2666
g61
(dp2667
sg70
g2652
sg63
(lp2668
g56
(g57
g58
NtRp2669
(dp2670
g61
(dp2671
g69
I3
ssg70
g2665
sg63
(lp2672
S'<class gluon.rocket.FileWrapper at 0x101668e20>'
p2673
asbasbasbag56
(g72
g58
NtRp2674
(dp2675
g61
(dp2676
sg70
g2206
sg63
(lp2677
g56
(g77
g58
NtRp2678
(dp2679
g61
(dp2680
g81
g82
ssg70
g2674
sg63
(lp2681
S'wsgi.input'
p2682
asbag56
(g77
g58
NtRp2683
(dp2684
g61
(dp2685
g88
g89
ssg70
g2674
sg63
(lp2686
S':'
asbag56
(g77
g58
NtRp2687
(dp2688
g61
(dp2689
sg70
g2674
sg63
(lp2690
g56
(g57
g58
NtRp2691
(dp2692
g61
(dp2693
g69
I3
ssg70
g2687
sg63
(lp2694
S'<cStringIO.StringO object at 0x101cf3928>'
p2695
asbasbasbag56
(g72
g58
NtRp2696
(dp2697
g61
(dp2698
sg70
g2206
sg63
(lp2699
g56
(g77
g58
NtRp2700
(dp2701
g61
(dp2702
g81
g82
ssg70
g2696
sg63
(lp2703
S'wsgi.multiprocess'
p2704
asbag56
(g77
g58
NtRp2705
(dp2706
g61
(dp2707
g88
g89
ssg70
g2696
sg63
(lp2708
S':'
asbag56
(g77
g58
NtRp2709
(dp2710
g61
(dp2711
sg70
g2696
sg63
(lp2712
g56
(g57
g58
NtRp2713
(dp2714
g61
(dp2715
g69
I3
ssg70
g2709
sg63
(lp2716
g99
asbasbasbag56
(g72
g58
NtRp2717
(dp2718
g61
(dp2719
sg70
g2206
sg63
(lp2720
g56
(g77
g58
NtRp2721
(dp2722
g61
(dp2723
g81
g82
ssg70
g2717
sg63
(lp2724
S'wsgi.multithread'
p2725
asbag56
(g77
g58
NtRp2726
(dp2727
g61
(dp2728
g88
g89
ssg70
g2717
sg63
(lp2729
S':'
asbag56
(g77
g58
NtRp2730
(dp2731
g61
(dp2732
sg70
g2717
sg63
(lp2733
g56
(g57
g58
NtRp2734
(dp2735
g61
(dp2736
g69
I3
ssg70
g2730
sg63
(lp2737
g1797
asbasbasbag56
(g72
g58
NtRp2738
(dp2739
g61
(dp2740
sg70
g2206
sg63
(lp2741
g56
(g77
g58
NtRp2742
(dp2743
g61
(dp2744
g81
g82
ssg70
g2738
sg63
(lp2745
S'wsgi.run_once'
p2746
asbag56
(g77
g58
NtRp2747
(dp2748
g61
(dp2749
g88
g89
ssg70
g2738
sg63
(lp2750
S':'
asbag56
(g77
g58
NtRp2751
(dp2752
g61
(dp2753
sg70
g2738
sg63
(lp2754
g56
(g57
g58
NtRp2755
(dp2756
g61
(dp2757
g69
I3
ssg70
g2751
sg63
(lp2758
g99
asbasbasbag56
(g72
g58
NtRp2759
(dp2760
g61
(dp2761
sg70
g2206
sg63
(lp2762
g56
(g77
g58
NtRp2763
(dp2764
g61
(dp2765
g81
g82
ssg70
g2759
sg63
(lp2766
S'wsgi.url_scheme'
p2767
asbag56
(g77
g58
NtRp2768
(dp2769
g61
(dp2770
g88
g89
ssg70
g2759
sg63
(lp2771
S':'
asbag56
(g77
g58
NtRp2772
(dp2773
g61
(dp2774
sg70
g2759
sg63
(lp2775
g56
(g57
g58
NtRp2776
(dp2777
g61
(dp2778
g69
I3
ssg70
g2772
sg63
(lp2779
g1840
asbasbasbag56
(g72
g58
NtRp2780
(dp2781
g61
(dp2782
sg70
g2206
sg63
(lp2783
g56
(g77
g58
NtRp2784
(dp2785
g61
(dp2786
g81
g82
ssg70
g2780
sg63
(lp2787
S'wsgi.version'
p2788
asbag56
(g77
g58
NtRp2789
(dp2790
g61
(dp2791
g88
g89
ssg70
g2780
sg63
(lp2792
S':'
asbag56
(g77
g58
NtRp2793
(dp2794
g61
(dp2795
sg70
g2780
sg63
(lp2796
g56
(g57
g58
NtRp2797
(dp2798
g61
(dp2799
g69
I3
ssg70
g2793
sg63
(lp2800
S'1'
asbasbasbasbasbasbasbasbasbasbasbasbasbsS'frames'
p2801
(lp2802
(dp2803
S'file'
p2804
S'/opt/local/Library/Frameworks/Python.framework/Versions/2.7/lib/python2.7/gluon/restricted.py'
p2805
sS'dump'
p2806
(dp2807
S'environment'
p2808
S"{'A': <class 'gluon.html.A'>, 'B': <class 'gluon.html.B'>, 'BEAUTIFY': <class 'gluon.html.BEAUTIFY'>, 'BODY': <class 'gluon.html.BODY'>, 'BR': <class 'gluon.html.BR'>, 'BUTTON': <class 'gluon.html.BUTTON'>, 'CAT': <class 'gluon.html.CAT'>, 'CENTER': <class 'gluon.html.CENTER'>, 'CLEANUP': <class 'gluon.validators.CLEANUP'>, 'CODE': <class 'gluon.html.CODE'>, ...}"
p2809
sS'ccode'
p2810
S'<code object <module> at 0x101cf14b0, file "/Use...p/applications/init/models/datamodel.py", line 1>'
p2811
ssS'lnum'
p2812
I192
sS'lines'
p2813
(dp2814
I192
S'        exec ccode in environment'
p2815
sI193
S'    except HTTP:'
p2816
sI194
S'        raise'
p2817
sI195
S'    except Exception, error:'
p2818
sI196
S'        # XXX Show exception in Wing IDE if running in debugger'
p2819
sI187
S'    try:'
p2820
sI188
S'        if type(code) == types.CodeType:'
p2821
sI189
S'            ccode = code'
p2822
sI190
S'        else:'
p2823
sI191
S'            ccode = compile2(code,layer)'
p2824
ssS'call'
p2825
S"(code='import time\\nfrom sql import db\\nfrom randomizer i...    pass\\n    leak = property(get_leak, set_leak)\\n', environment={'A': <class 'gluon.html.A'>, 'B': <class 'gluon.html.B'>, 'BEAUTIFY': <class 'gluon.html.BEAUTIFY'>, 'BODY': <class 'gluon.html.BODY'>, 'BR': <class 'gluon.html.BR'>, 'BUTTON': <class 'gluon.html.BUTTON'>, 'CAT': <class 'gluon.html.CAT'>, 'CENTER': <class 'gluon.html.CENTER'>, 'CLEANUP': <class 'gluon.validators.CLEANUP'>, 'CODE': <class 'gluon.html.CODE'>, ...}, layer='/Users/hellais/Documents/code/mygit/globaleaks/webapp/applications/init/models/datamodel.py')"
p2826
sS'func'
p2827
S'restricted'
p2828
sa(dp2829
g2804
S'/Users/hellais/Documents/code/mygit/globaleaks/webapp/applications/init/models/datamodel.py'
p2830
sg2806
(dp2831
S'randomizer'
p2832
S'undefined'
p2833
ssg2812
I3
sg2813
(dp2834
I2
S'from sql import db'
p2835
sI3
S'from randomizer import randomizer'
p2836
sI4
S''
sI5
S'class Leak(object):'
p2837
sI6
S'    def __init__(self, id):'
p2838
sI7
S'        self._id = id'
p2839
sI8
S''
sI9
S'    def get_id(self):'
p2840
sI10
S'        return self._id'
p2841
sI11
S'    def set_id(self):'
p2842
ssg2825
S'()'
p2843
sg2827
S'<module>'
p2844
sa(dp2845
g2804
S'/opt/local/Library/Frameworks/Python.framework/Versions/2.7/lib/python2.7/gluon/custom_import.py'
p2846
sg2806
(dp2847
S'fromlist'
p2848
S"('randomizer',)"
p2849
sS'level'
p2850
S'-1'
p2851
ssg2812
I280
sg2813
(dp2852
I275
S'                            .__call__(modules_prefix+"."+name,'
p2853
sI276
S'                                    globals, locals, fromlist, level)'
p2854
sI277
S'                except ImportError:'
p2855
sI278
S'                    pass'
p2856
sI279
S'        return super(_Web2pyImporter, self).__call__(name, globals, locals,'
p2857
sI280
S'                                                    fromlist, level)'
p2858
sI281
S'        #except Exception, e:'
p2859
sI282
S"        #    raise e  # Don't hide something that went wrong"
p2860
sI283
S'        #finally:'
p2861
sI284
S'        self.end()'
p2862
ssg2825
S"(self=<gluon.custom_import._Web2pyImporter object>, name='randomizer', globals={'A': <class 'gluon.html.A'>, 'B': <class 'gluon.html.B'>, 'BEAUTIFY': <class 'gluon.html.BEAUTIFY'>, 'BODY': <class 'gluon.html.BODY'>, 'BR': <class 'gluon.html.BR'>, 'BUTTON': <class 'gluon.html.BUTTON'>, 'CAT': <class 'gluon.html.CAT'>, 'CENTER': <class 'gluon.html.CENTER'>, 'CLEANUP': <class 'gluon.validators.CLEANUP'>, 'CODE': <class 'gluon.html.CODE'>, ...}, locals={'A': <class 'gluon.html.A'>, 'B': <class 'gluon.html.B'>, 'BEAUTIFY': <class 'gluon.html.BEAUTIFY'>, 'BODY': <class 'gluon.html.BODY'>, 'BR': <class 'gluon.html.BR'>, 'BUTTON': <class 'gluon.html.BUTTON'>, 'CAT': <class 'gluon.html.CAT'>, 'CENTER': <class 'gluon.html.CENTER'>, 'CLEANUP': <class 'gluon.validators.CLEANUP'>, 'CODE': <class 'gluon.html.CODE'>, ...}, fromlist=('randomizer',), level=-1)"
p2863
sg2827
S'__call__'
p2864
sa(dp2865
g2804
S'/opt/local/Library/Frameworks/Python.framework/Versions/2.7/lib/python2.7/gluon/custom_import.py'
p2866
sg2806
(dp2867
S'level'
p2868
S'-1'
p2869
ssg2812
I74
sg2813
(dp2870
I69
S'    def __call__(self, name, globals={}, locals={}, fromlist=[], level=-1):'
p2871
sI70
S'        """'
p2872
sI71
S'        The import method itself.'
p2873
sI72
S'        """'
p2874
sI73
S'        return _STANDARD_PYTHON_IMPORTER(name, globals, locals, fromlist,'
p2875
sI74
S'                                         level)'
p2876
sI75
S''
sI76
S'    def end(self):'
p2877
sI77
S'        """'
p2878
sI78
S'        Needed for clean up.'
p2879
ssg2825
S"(self=<gluon.custom_import._Web2pyImporter object>, name='randomizer', globals={'A': <class 'gluon.html.A'>, 'B': <class 'gluon.html.B'>, 'BEAUTIFY': <class 'gluon.html.BEAUTIFY'>, 'BODY': <class 'gluon.html.BODY'>, 'BR': <class 'gluon.html.BR'>, 'BUTTON': <class 'gluon.html.BUTTON'>, 'CAT': <class 'gluon.html.CAT'>, 'CENTER': <class 'gluon.html.CENTER'>, 'CLEANUP': <class 'gluon.validators.CLEANUP'>, 'CODE': <class 'gluon.html.CODE'>, ...}, locals={'A': <class 'gluon.html.A'>, 'B': <class 'gluon.html.B'>, 'BEAUTIFY': <class 'gluon.html.BEAUTIFY'>, 'BODY': <class 'gluon.html.BODY'>, 'BR': <class 'gluon.html.BR'>, 'BUTTON': <class 'gluon.html.BUTTON'>, 'CAT': <class 'gluon.html.CAT'>, 'CENTER': <class 'gluon.html.CENTER'>, 'CLEANUP': <class 'gluon.validators.CLEANUP'>, 'CODE': <class 'gluon.html.CODE'>, ...}, fromlist=('randomizer',), level=-1)"
p2880
sg2827
g2864
sasS'pyver'
p2881
S'Python 2.7.1: /opt/local/Library/Frameworks/Python.framework/Versions/2.7/Resources/Python.app/Contents/MacOS/Python'
p2882
sS'session'
p2883
g56
(g57
g58
NtRp2884
(dp2885
g61
(dp2886
sg63
(lp2887
g56
(g65
g58
NtRp2888
(dp2889
g61
(dp2890
g69
I5
ssg70
Nsg63
(lp2891
sbasbsS'etype'
p2892
S"<type 'exceptions.ImportError'>"
p2893
sS'date'
p2894
S'Sun Aug 28 00:12:05 2011'
p2895
sS'response'
p2896
g56
(g57
g58
NtRp2897
(dp2898
g61
(dp2899
sg63
(lp2900
g56
(g65
g58
NtRp2901
(dp2902
g61
(dp2903
g69
I5
ssg70
Nsg63
(lp2904
g56
(g72
g58
NtRp2905
(dp2906
g61
(dp2907
sg70
g2901
sg63
(lp2908
g56
(g77
g58
NtRp2909
(dp2910
g61
(dp2911
g81
g82
ssg70
g2905
sg63
(lp2912
g154
asbag56
(g77
g58
NtRp2913
(dp2914
g61
(dp2915
g88
g89
ssg70
g2905
sg63
(lp2916
S':'
asbag56
(g77
g58
NtRp2917
(dp2918
g61
(dp2919
sg70
g2905
sg63
(lp2920
g56
(g57
g58
NtRp2921
(dp2922
g61
(dp2923
g69
I5
ssg70
g2917
sg63
(lp2924
S'<cStringIO.StringO object at 0x103887148>'
p2925
asbasbasbag56
(g72
g58
NtRp2926
(dp2927
g61
(dp2928
sg70
g2901
sg63
(lp2929
g56
(g77
g58
NtRp2930
(dp2931
g61
(dp2932
g81
g82
ssg70
g2926
sg63
(lp2933
g220
asbag56
(g77
g58
NtRp2934
(dp2935
g61
(dp2936
g88
g89
ssg70
g2926
sg63
(lp2937
S':'
asbag56
(g77
g58
NtRp2938
(dp2939
g61
(dp2940
sg70
g2926
sg63
(lp2941
g56
(g57
g58
NtRp2942
(dp2943
g61
(dp2944
g69
I5
ssg70
g2938
sg63
(lp2945
g56
(g65
g58
NtRp2946
(dp2947
g61
(dp2948
g69
I4
ssg70
Nsg63
(lp2949
g56
(g72
g58
NtRp2950
(dp2951
g61
(dp2952
sg70
g2946
sg63
(lp2953
g56
(g77
g58
NtRp2954
(dp2955
g61
(dp2956
g81
g82
ssg70
g2950
sg63
(lp2957
S'session_id_init'
p2958
asbag56
(g77
g58
NtRp2959
(dp2960
g61
(dp2961
g88
g89
ssg70
g2950
sg63
(lp2962
S':'
asbag56
(g77
g58
NtRp2963
(dp2964
g61
(dp2965
sg70
g2950
sg63
(lp2966
g56
(g57
g58
NtRp2967
(dp2968
g61
(dp2969
g69
I4
ssg70
g2963
sg63
(lp2970
g56
(g65
g58
NtRp2971
(dp2972
g61
(dp2973
g69
I3
ssg70
Nsg63
(lp2974
g56
(g72
g58
NtRp2975
(dp2976
g61
(dp2977
sg70
g2971
sg63
(lp2978
g56
(g77
g58
NtRp2979
(dp2980
g61
(dp2981
g81
g82
ssg70
g2975
sg63
(lp2982
g270
asbag56
(g77
g58
NtRp2983
(dp2984
g61
(dp2985
g88
g89
ssg70
g2975
sg63
(lp2986
S':'
asbag56
(g77
g58
NtRp2987
(dp2988
g61
(dp2989
sg70
g2975
sg63
(lp2990
g56
(g57
g58
NtRp2991
(dp2992
g61
(dp2993
g69
I3
ssg70
g2987
sg63
(lp2994
S''
asbasbasbag56
(g72
g58
NtRp2995
(dp2996
g61
(dp2997
sg70
g2971
sg63
(lp2998
g56
(g77
g58
NtRp2999
(dp3000
g61
(dp3001
g81
g82
ssg70
g2995
sg63
(lp3002
g291
asbag56
(g77
g58
NtRp3003
(dp3004
g61
(dp3005
g88
g89
ssg70
g2995
sg63
(lp3006
S':'
asbag56
(g77
g58
NtRp3007
(dp3008
g61
(dp3009
sg70
g2995
sg63
(lp3010
g56
(g57
g58
NtRp3011
(dp3012
g61
(dp3013
g69
I3
ssg70
g3007
sg63
(lp3014
S''
asbasbasbag56
(g72
g58
NtRp3015
(dp3016
g61
(dp3017
sg70
g2971
sg63
(lp3018
g56
(g77
g58
NtRp3019
(dp3020
g61
(dp3021
g81
g82
ssg70
g3015
sg63
(lp3022
g312
asbag56
(g77
g58
NtRp3023
(dp3024
g61
(dp3025
g88
g89
ssg70
g3015
sg63
(lp3026
S':'
asbag56
(g77
g58
NtRp3027
(dp3028
g61
(dp3029
sg70
g3015
sg63
(lp3030
g56
(g57
g58
NtRp3031
(dp3032
g61
(dp3033
g69
I3
ssg70
g3027
sg63
(lp3034
S''
asbasbasbag56
(g72
g58
NtRp3035
(dp3036
g61
(dp3037
sg70
g2971
sg63
(lp3038
g56
(g77
g58
NtRp3039
(dp3040
g61
(dp3041
g81
g82
ssg70
g3035
sg63
(lp3042
g333
asbag56
(g77
g58
NtRp3043
(dp3044
g61
(dp3045
g88
g89
ssg70
g3035
sg63
(lp3046
S':'
asbag56
(g77
g58
NtRp3047
(dp3048
g61
(dp3049
sg70
g3035
sg63
(lp3050
g56
(g57
g58
NtRp3051
(dp3052
g61
(dp3053
g69
I3
ssg70
g3047
sg63
(lp3054
S''
asbasbasbag56
(g72
g58
NtRp3055
(dp3056
g61
(dp3057
sg70
g2971
sg63
(lp3058
g56
(g77
g58
NtRp3059
(dp3060
g61
(dp3061
g81
g82
ssg70
g3055
sg63
(lp3062
g354
asbag56
(g77
g58
NtRp3063
(dp3064
g61
(dp3065
g88
g89
ssg70
g3055
sg63
(lp3066
S':'
asbag56
(g77
g58
NtRp3067
(dp3068
g61
(dp3069
sg70
g3055
sg63
(lp3070
g56
(g57
g58
NtRp3071
(dp3072
g61
(dp3073
g69
I3
ssg70
g3067
sg63
(lp3074
S''
asbasbasbag56
(g72
g58
NtRp3075
(dp3076
g61
(dp3077
sg70
g2971
sg63
(lp3078
g56
(g77
g58
NtRp3079
(dp3080
g61
(dp3081
g81
g82
ssg70
g3075
sg63
(lp3082
g375
asbag56
(g77
g58
NtRp3083
(dp3084
g61
(dp3085
g88
g89
ssg70
g3075
sg63
(lp3086
S':'
asbag56
(g77
g58
NtRp3087
(dp3088
g61
(dp3089
sg70
g3075
sg63
(lp3090
g56
(g57
g58
NtRp3091
(dp3092
g61
(dp3093
g69
I3
ssg70
g3087
sg63
(lp3094
S'/'
asbasbasbag56
(g72
g58
NtRp3095
(dp3096
g61
(dp3097
sg70
g2971
sg63
(lp3098
g56
(g77
g58
NtRp3099
(dp3100
g61
(dp3101
g81
g82
ssg70
g3095
sg63
(lp3102
g396
asbag56
(g77
g58
NtRp3103
(dp3104
g61
(dp3105
g88
g89
ssg70
g3095
sg63
(lp3106
S':'
asbag56
(g77
g58
NtRp3107
(dp3108
g61
(dp3109
sg70
g3095
sg63
(lp3110
g56
(g57
g58
NtRp3111
(dp3112
g61
(dp3113
g69
I3
ssg70
g3107
sg63
(lp3114
S''
asbasbasbag56
(g72
g58
NtRp3115
(dp3116
g61
(dp3117
sg70
g2971
sg63
(lp3118
g56
(g77
g58
NtRp3119
(dp3120
g61
(dp3121
g81
g82
ssg70
g3115
sg63
(lp3122
g417
asbag56
(g77
g58
NtRp3123
(dp3124
g61
(dp3125
g88
g89
ssg70
g3115
sg63
(lp3126
S':'
asbag56
(g77
g58
NtRp3127
(dp3128
g61
(dp3129
sg70
g3115
sg63
(lp3130
g56
(g57
g58
NtRp3131
(dp3132
g61
(dp3133
g69
I3
ssg70
g3127
sg63
(lp3134
S''
asbasbasbasbasbasbasbasbasbasbasbag56
(g72
g58
NtRp3135
(dp3136
g61
(dp3137
sg70
g2901
sg63
(lp3138
g56
(g77
g58
NtRp3139
(dp3140
g61
(dp3141
g81
g82
ssg70
g3135
sg63
(lp3142
S'files'
p3143
asbag56
(g77
g58
NtRp3144
(dp3145
g61
(dp3146
g88
g89
ssg70
g3135
sg63
(lp3147
S':'
asbag56
(g77
g58
NtRp3148
(dp3149
g61
(dp3150
sg70
g3135
sg63
(lp3151
g56
(g57
g58
NtRp3152
(dp3153
g61
(dp3154
g69
I5
ssg70
g3148
sg63
(lp3155
g56
(g65
g58
NtRp3156
(dp3157
g61
(dp3158
g69
I4
ssg70
Nsg63
(lp3159
sbasbasbasbag56
(g72
g58
NtRp3160
(dp3161
g61
(dp3162
sg70
g2901
sg63
(lp3163
g56
(g77
g58
NtRp3164
(dp3165
g61
(dp3166
g81
g82
ssg70
g3160
sg63
(lp3167
S'flash'
p3168
asbag56
(g77
g58
NtRp3169
(dp3170
g61
(dp3171
g88
g89
ssg70
g3160
sg63
(lp3172
S':'
asbag56
(g77
g58
NtRp3173
(dp3174
g61
(dp3175
sg70
g3160
sg63
(lp3176
g56
(g57
g58
NtRp3177
(dp3178
g61
(dp3179
g69
I5
ssg70
g3173
sg63
(lp3180
S''
asbasbasbag56
(g72
g58
NtRp3181
(dp3182
g61
(dp3183
sg70
g2901
sg63
(lp3184
g56
(g77
g58
NtRp3185
(dp3186
g61
(dp3187
g81
g82
ssg70
g3181
sg63
(lp3188
S'generic_patterns'
p3189
asbag56
(g77
g58
NtRp3190
(dp3191
g61
(dp3192
g88
g89
ssg70
g3181
sg63
(lp3193
S':'
asbag56
(g77
g58
NtRp3194
(dp3195
g61
(dp3196
sg70
g3181
sg63
(lp3197
g56
(g57
g58
NtRp3198
(dp3199
g61
(dp3200
g69
I5
ssg70
g3194
sg63
(lp3201
g56
(g65
g58
NtRp3202
(dp3203
g61
(dp3204
g69
I4
ssg70
Nsg63
(lp3205
sbasbasbasbag56
(g72
g58
NtRp3206
(dp3207
g61
(dp3208
sg70
g2901
sg63
(lp3209
g56
(g77
g58
NtRp3210
(dp3211
g61
(dp3212
g81
g82
ssg70
g3206
sg63
(lp3213
S'headers'
p3214
asbag56
(g77
g58
NtRp3215
(dp3216
g61
(dp3217
g88
g89
ssg70
g3206
sg63
(lp3218
S':'
asbag56
(g77
g58
NtRp3219
(dp3220
g61
(dp3221
sg70
g3206
sg63
(lp3222
g56
(g57
g58
NtRp3223
(dp3224
g61
(dp3225
g69
I5
ssg70
g3219
sg63
(lp3226
g56
(g65
g58
NtRp3227
(dp3228
g61
(dp3229
g69
I4
ssg70
Nsg63
(lp3230
g56
(g72
g58
NtRp3231
(dp3232
g61
(dp3233
sg70
g3227
sg63
(lp3234
g56
(g77
g58
NtRp3235
(dp3236
g61
(dp3237
g81
g82
ssg70
g3231
sg63
(lp3238
S'Cache-Control'
p3239
asbag56
(g77
g58
NtRp3240
(dp3241
g61
(dp3242
g88
g89
ssg70
g3231
sg63
(lp3243
S':'
asbag56
(g77
g58
NtRp3244
(dp3245
g61
(dp3246
sg70
g3231
sg63
(lp3247
g56
(g57
g58
NtRp3248
(dp3249
g61
(dp3250
g69
I4
ssg70
g3244
sg63
(lp3251
S'no-store, no-cache, must-revalidate, post-check=0, pre-check=0'
p3252
asbasbasbag56
(g72
g58
NtRp3253
(dp3254
g61
(dp3255
sg70
g3227
sg63
(lp3256
g56
(g77
g58
NtRp3257
(dp3258
g61
(dp3259
g81
g82
ssg70
g3253
sg63
(lp3260
S'Content-Type'
p3261
asbag56
(g77
g58
NtRp3262
(dp3263
g61
(dp3264
g88
g89
ssg70
g3253
sg63
(lp3265
S':'
asbag56
(g77
g58
NtRp3266
(dp3267
g61
(dp3268
sg70
g3253
sg63
(lp3269
g56
(g57
g58
NtRp3270
(dp3271
g61
(dp3272
g69
I4
ssg70
g3266
sg63
(lp3273
S'text/html; charset=utf-8'
p3274
asbasbasbag56
(g72
g58
NtRp3275
(dp3276
g61
(dp3277
sg70
g3227
sg63
(lp3278
g56
(g77
g58
NtRp3279
(dp3280
g61
(dp3281
g81
g82
ssg70
g3275
sg63
(lp3282
S'Expires'
p3283
asbag56
(g77
g58
NtRp3284
(dp3285
g61
(dp3286
g88
g89
ssg70
g3275
sg63
(lp3287
S':'
asbag56
(g77
g58
NtRp3288
(dp3289
g61
(dp3290
sg70
g3275
sg63
(lp3291
g56
(g57
g58
NtRp3292
(dp3293
g61
(dp3294
g69
I4
ssg70
g3288
sg63
(lp3295
S'Sat, 27 Aug 2011 22:12:05 GMT'
p3296
asbasbasbag56
(g72
g58
NtRp3297
(dp3298
g61
(dp3299
sg70
g3227
sg63
(lp3300
g56
(g77
g58
NtRp3301
(dp3302
g61
(dp3303
g81
g82
ssg70
g3297
sg63
(lp3304
S'Pragma'
p3305
asbag56
(g77
g58
NtRp3306
(dp3307
g61
(dp3308
g88
g89
ssg70
g3297
sg63
(lp3309
S':'
asbag56
(g77
g58
NtRp3310
(dp3311
g61
(dp3312
sg70
g3297
sg63
(lp3313
g56
(g57
g58
NtRp3314
(dp3315
g61
(dp3316
g69
I4
ssg70
g3310
sg63
(lp3317
S'no-cache'
p3318
asbasbasbag56
(g72
g58
NtRp3319
(dp3320
g61
(dp3321
sg70
g3227
sg63
(lp3322
g56
(g77
g58
NtRp3323
(dp3324
g61
(dp3325
g81
g82
ssg70
g3319
sg63
(lp3326
S'X-Powered-By'
p3327
asbag56
(g77
g58
NtRp3328
(dp3329
g61
(dp3330
g88
g89
ssg70
g3319
sg63
(lp3331
S':'
asbag56
(g77
g58
NtRp3332
(dp3333
g61
(dp3334
sg70
g3319
sg63
(lp3335
g56
(g57
g58
NtRp3336
(dp3337
g61
(dp3338
g69
I4
ssg70
g3332
sg63
(lp3339
S'web2py'
p3340
asbasbasbasbasbasbasbag56
(g72
g58
NtRp3341
(dp3342
g61
(dp3343
sg70
g2901
sg63
(lp3344
g56
(g77
g58
NtRp3345
(dp3346
g61
(dp3347
g81
g82
ssg70
g3341
sg63
(lp3348
S'menu'
p3349
asbag56
(g77
g58
NtRp3350
(dp3351
g61
(dp3352
g88
g89
ssg70
g3341
sg63
(lp3353
S':'
asbag56
(g77
g58
NtRp3354
(dp3355
g61
(dp3356
sg70
g3341
sg63
(lp3357
g56
(g57
g58
NtRp3358
(dp3359
g61
(dp3360
g69
I5
ssg70
g3354
sg63
(lp3361
g56
(g65
g58
NtRp3362
(dp3363
g61
(dp3364
g69
I4
ssg70
Nsg63
(lp3365
sbasbasbasbag56
(g72
g58
NtRp3366
(dp3367
g61
(dp3368
sg70
g2901
sg63
(lp3369
g56
(g77
g58
NtRp3370
(dp3371
g61
(dp3372
g81
g82
ssg70
g3366
sg63
(lp3373
S'meta'
p3374
asbag56
(g77
g58
NtRp3375
(dp3376
g61
(dp3377
g88
g89
ssg70
g3366
sg63
(lp3378
S':'
asbag56
(g77
g58
NtRp3379
(dp3380
g61
(dp3381
sg70
g3366
sg63
(lp3382
g56
(g57
g58
NtRp3383
(dp3384
g61
(dp3385
g69
I5
ssg70
g3379
sg63
(lp3386
g56
(g65
g58
NtRp3387
(dp3388
g61
(dp3389
g69
I4
ssg70
Nsg63
(lp3390
sbasbasbasbag56
(g72
g58
NtRp3391
(dp3392
g61
(dp3393
sg70
g2901
sg63
(lp3394
g56
(g77
g58
NtRp3395
(dp3396
g61
(dp3397
g81
g82
ssg70
g3391
sg63
(lp3398
S'postprocessing'
p3399
asbag56
(g77
g58
NtRp3400
(dp3401
g61
(dp3402
g88
g89
ssg70
g3391
sg63
(lp3403
S':'
asbag56
(g77
g58
NtRp3404
(dp3405
g61
(dp3406
sg70
g3391
sg63
(lp3407
g56
(g57
g58
NtRp3408
(dp3409
g61
(dp3410
g69
I5
ssg70
g3404
sg63
(lp3411
g56
(g65
g58
NtRp3412
(dp3413
g61
(dp3414
g69
I4
ssg70
Nsg63
(lp3415
sbasbasbasbag56
(g72
g58
NtRp3416
(dp3417
g61
(dp3418
sg70
g2901
sg63
(lp3419
g56
(g77
g58
NtRp3420
(dp3421
g61
(dp3422
g81
g82
ssg70
g3416
sg63
(lp3423
S'session_file'
p3424
asbag56
(g77
g58
NtRp3425
(dp3426
g61
(dp3427
g88
g89
ssg70
g3416
sg63
(lp3428
S':'
asbag56
(g77
g58
NtRp3429
(dp3430
g61
(dp3431
sg70
g3416
sg63
(lp3432
g56
(g57
g58
NtRp3433
(dp3434
g61
(dp3435
g69
I5
ssg70
g3429
sg63
(lp3436
S"<open file '/Users/hellais/Documents/code/mygit/globaleaks/webapp/applications/init/sessions/127.0.0.1-a8551263-bc3c-430c-abb2-8711fac671c1', mode 'rb+' at 0x102db5420>"
p3437
asbasbasbag56
(g72
g58
NtRp3438
(dp3439
g61
(dp3440
sg70
g2901
sg63
(lp3441
g56
(g77
g58
NtRp3442
(dp3443
g61
(dp3444
g81
g82
ssg70
g3438
sg63
(lp3445
S'session_filename'
p3446
asbag56
(g77
g58
NtRp3447
(dp3448
g61
(dp3449
g88
g89
ssg70
g3438
sg63
(lp3450
S':'
asbag56
(g77
g58
NtRp3451
(dp3452
g61
(dp3453
sg70
g3438
sg63
(lp3454
g56
(g57
g58
NtRp3455
(dp3456
g61
(dp3457
g69
I5
ssg70
g3451
sg63
(lp3458
S'/Users/hellais/Documents/code/mygit/globaleaks/webapp/applications/init/sessions/127.0.0.1-a8551263-bc3c-430c-abb2-8711fac671c1'
p3459
asbasbasbag56
(g72
g58
NtRp3460
(dp3461
g61
(dp3462
sg70
g2901
sg63
(lp3463
g56
(g77
g58
NtRp3464
(dp3465
g61
(dp3466
g81
g82
ssg70
g3460
sg63
(lp3467
S'session_id'
p3468
asbag56
(g77
g58
NtRp3469
(dp3470
g61
(dp3471
g88
g89
ssg70
g3460
sg63
(lp3472
S':'
asbag56
(g77
g58
NtRp3473
(dp3474
g61
(dp3475
sg70
g3460
sg63
(lp3476
g56
(g57
g58
NtRp3477
(dp3478
g61
(dp3479
g69
I5
ssg70
g3473
sg63
(lp3480
S'127.0.0.1-a8551263-bc3c-430c-abb2-8711fac671c1'
p3481
asbasbasbag56
(g72
g58
NtRp3482
(dp3483
g61
(dp3484
sg70
g2901
sg63
(lp3485
g56
(g77
g58
NtRp3486
(dp3487
g61
(dp3488
g81
g82
ssg70
g3482
sg63
(lp3489
S'session_id_name'
p3490
asbag56
(g77
g58
NtRp3491
(dp3492
g61
(dp3493
g88
g89
ssg70
g3482
sg63
(lp3494
S':'
asbag56
(g77
g58
NtRp3495
(dp3496
g61
(dp3497
sg70
g3482
sg63
(lp3498
g56
(g57
g58
NtRp3499
(dp3500
g61
(dp3501
g69
I5
ssg70
g3495
sg63
(lp3502
g2958
asbasbasbag56
(g72
g58
NtRp3503
(dp3504
g61
(dp3505
sg70
g2901
sg63
(lp3506
g56
(g77
g58
NtRp3507
(dp3508
g61
(dp3509
g81
g82
ssg70
g3503
sg63
(lp3510
S'session_locked'
p3511
asbag56
(g77
g58
NtRp3512
(dp3513
g61
(dp3514
g88
g89
ssg70
g3503
sg63
(lp3515
S':'
asbag56
(g77
g58
NtRp3516
(dp3517
g61
(dp3518
sg70
g3503
sg63
(lp3519
g56
(g57
g58
NtRp3520
(dp3521
g61
(dp3522
g69
I5
ssg70
g3516
sg63
(lp3523
g1797
asbasbasbag56
(g72
g58
NtRp3524
(dp3525
g61
(dp3526
sg70
g2901
sg63
(lp3527
g56
(g77
g58
NtRp3528
(dp3529
g61
(dp3530
g81
g82
ssg70
g3524
sg63
(lp3531
S'session_new'
p3532
asbag56
(g77
g58
NtRp3533
(dp3534
g61
(dp3535
g88
g89
ssg70
g3524
sg63
(lp3536
S':'
asbag56
(g77
g58
NtRp3537
(dp3538
g61
(dp3539
sg70
g3524
sg63
(lp3540
g56
(g57
g58
NtRp3541
(dp3542
g61
(dp3543
g69
I5
ssg70
g3537
sg63
(lp3544
g99
asbasbasbag56
(g72
g58
NtRp3545
(dp3546
g61
(dp3547
sg70
g2901
sg63
(lp3548
g56
(g77
g58
NtRp3549
(dp3550
g61
(dp3551
g81
g82
ssg70
g3545
sg63
(lp3552
S'status'
p3553
asbag56
(g77
g58
NtRp3554
(dp3555
g61
(dp3556
g88
g89
ssg70
g3545
sg63
(lp3557
S':'
asbag56
(g77
g58
NtRp3558
(dp3559
g61
(dp3560
sg70
g3545
sg63
(lp3561
g56
(g57
g58
NtRp3562
(dp3563
g61
(dp3564
g69
I5
ssg70
g3558
sg63
(lp3565
S'200'
p3566
asbasbasbag56
(g72
g58
NtRp3567
(dp3568
g61
(dp3569
sg70
g2901
sg63
(lp3570
g56
(g77
g58
NtRp3571
(dp3572
g61
(dp3573
g81
g82
ssg70
g3567
sg63
(lp3574
g2121
asbag56
(g77
g58
NtRp3575
(dp3576
g61
(dp3577
g88
g89
ssg70
g3567
sg63
(lp3578
S':'
asbag56
(g77
g58
NtRp3579
(dp3580
g61
(dp3581
sg70
g3567
sg63
(lp3582
g56
(g57
g58
NtRp3583
(dp3584
g61
(dp3585
g69
I5
ssg70
g3579
sg63
(lp3586
g2134
asbasbasbag56
(g72
g58
NtRp3587
(dp3588
g61
(dp3589
sg70
g2901
sg63
(lp3590
g56
(g77
g58
NtRp3591
(dp3592
g61
(dp3593
g81
g82
ssg70
g3587
sg63
(lp3594
S'view'
p3595
asbag56
(g77
g58
NtRp3596
(dp3597
g61
(dp3598
g88
g89
ssg70
g3587
sg63
(lp3599
S':'
asbag56
(g77
g58
NtRp3600
(dp3601
g61
(dp3602
sg70
g3587
sg63
(lp3603
g56
(g57
g58
NtRp3604
(dp3605
g61
(dp3606
g69
I5
ssg70
g3600
sg63
(lp3607
S'default/submission.html'
p3608
asbasbasbasbasbsS'locals'
p3609
(dp3610
S'fromlist'
p3611
S"('randomizer',)"
p3612
sS'name'
p3613
S"'randomizer'"
p3614
sg69
S'-1'
p3615
sS'self'
p3616
S'<gluon.custom_import._Web2pyImporter object>'
p3617
sS'globals'
p3618
S"{'A': <class 'gluon.html.A'>, 'B': <class 'gluon.html.B'>, 'BEAUTIFY': <class 'gluon.html.BEAUTIFY'>, 'BODY': <class 'gluon.html.BODY'>, 'BR': <class 'gluon.html.BR'>, 'BUTTON': <class 'gluon.html.BUTTON'>, 'CAT': <class 'gluon.html.CAT'>, 'CENTER': <class 'gluon.html.CENTER'>, 'CLEANUP': <class 'gluon.validators.CLEANUP'>, 'CODE': <class 'gluon.html.CODE'>, ...}"
p3619
sg3609
S"{'A': <class 'gluon.html.A'>, 'B': <class 'gluon.html.B'>, 'BEAUTIFY': <class 'gluon.html.BEAUTIFY'>, 'BODY': <class 'gluon.html.BODY'>, 'BR': <class 'gluon.html.BR'>, 'BUTTON': <class 'gluon.html.BUTTON'>, 'CAT': <class 'gluon.html.CAT'>, 'CENTER': <class 'gluon.html.CENTER'>, 'CLEANUP': <class 'gluon.validators.CLEANUP'>, 'CODE': <class 'gluon.html.CODE'>, ...}"
p3620
sssS'traceback'
p3621
S'Traceback (most recent call last):\n  File "/opt/local/Library/Frameworks/Python.framework/Versions/2.7/lib/python2.7/gluon/restricted.py", line 192, in restricted\n    exec ccode in environment\n  File "/Users/hellais/Documents/code/mygit/globaleaks/webapp/applications/init/models/datamodel.py", line 3, in <module>\n    from randomizer import randomizer\n  File "/opt/local/Library/Frameworks/Python.framework/Versions/2.7/lib/python2.7/gluon/custom_import.py", line 280, in __call__\n    fromlist, level)\n  File "/opt/local/Library/Frameworks/Python.framework/Versions/2.7/lib/python2.7/gluon/custom_import.py", line 74, in __call__\n    level)\nImportError: No module named randomizer\n'
p3622
s.