(dp1
S'output'
p2
S''
sS'layer'
p3
S'/Users/hellais/Documents/code/mygit/globaleaks/webapp/applications/init/controllers/default.py'
p4
sS'code'
p5
S'# -*- coding: utf-8 -*-\n### required - do no delete\ndef user(): return dict(form=auth())\ndef download(): return response.download(request,db)\ndef call():\n    session.forget()\n    return service()\n### end requires\ndef index():\n    return dict(message=T("Hello World, I am GlobaLeaks!"))\n\ndef submission():\n    form_content = (Field(\'Title\', requires=IS_NOT_EMPTY()),\n                    Field(\'Description\', \'text\', requires=IS_NOT_EMPTY()),\n                    Field(\'Tags\'),Field(\'material\', \'upload\', uploadfolder="uploads/"),\n                    Field(\'dislaimer\', \'boolean\', requires=IS_EQUAL_TO("on", error_message="Please read the disclaimer")))\n   \n    form = SQLFORM.factory(*form_content)\n    \n    if form.accepts(request.vars, session):\n        l = request.vars\n        leak_id = gl.create_leak(l.Title, l.Description, None, None,\n                {"Al Jazeera":10 , "CNN":20, "Leaker":0}, l.Tags)\n        \n        #response.flash = \'form accepted\'\n        leak = Leak(leak_id)\n\n        #FIXME do this better...\n        for tulip in leak.tulips:\n            print tulip.target\n            if tulip.target=="Leaker":\n                return dict(leak_id=leak_id, tulip=tulip.url, form=None)\n\n        return dict(leak_id=leak_id, form=None, tulip=None)\n    elif form.errors:\n        response.flash = \'form has errors\'\n    else:\n        response.flash = \'please fill the form\'        \n    \n    return dict(form=form, leak_id=None, tulip=None)\n\ndef tulip():\n    tulip_url = request.args[0]\n    tul = Tulip(url=tulip_url)\n    return dict(message=tul.id)\n\ndef error():\n    return dict()\n\nresponse._vars=response._caller(tulip)\n'
p6
sS'snapshot'
p7
(dp8
S'exception'
p9
(dp10
S'__hash__'
p11
S"<method-wrapper '__hash__' of exceptions.AttributeError object>"
p12
sS'__setattr__'
p13
S"<method-wrapper '__setattr__' of exceptions.AttributeError object>"
p14
sS'__reduce_ex__'
p15
S'<built-in method __reduce_ex__ of exceptions.AttributeError object>'
p16
sS'__getslice__'
p17
S"<method-wrapper '__getslice__' of exceptions.AttributeError object>"
p18
sS'__getitem__'
p19
S"<method-wrapper '__getitem__' of exceptions.AttributeError object>"
p20
sS'__setstate__'
p21
S'<built-in method __setstate__ of exceptions.AttributeError object>'
p22
sS'args'
p23
S'("\'Rows\' object has no attribute \'id\'",)'
p24
sS'__reduce__'
p25
S'<built-in method __reduce__ of exceptions.AttributeError object>'
p26
sS'__str__'
p27
S"<method-wrapper '__str__' of exceptions.AttributeError object>"
p28
sS'__format__'
p29
S'<built-in method __format__ of exceptions.AttributeError object>'
p30
sS'__getattribute__'
p31
S"<method-wrapper '__getattribute__' of exceptions.AttributeError object>"
p32
sS'__class__'
p33
S"<type 'exceptions.AttributeError'>"
p34
sS'__unicode__'
p35
S'<built-in method __unicode__ of exceptions.AttributeError object>'
p36
sS'__delattr__'
p37
S"<method-wrapper '__delattr__' of exceptions.AttributeError object>"
p38
sS'__subclasshook__'
p39
S'<built-in method __subclasshook__ of type object>'
p40
sS'__repr__'
p41
S"<method-wrapper '__repr__' of exceptions.AttributeError object>"
p42
sS'__dict__'
p43
S'{}'
p44
sS'__sizeof__'
p45
S'<built-in method __sizeof__ of exceptions.AttributeError object>'
p46
sS'__doc__'
p47
S"'Attribute not found.'"
p48
sS'__init__'
p49
S"<method-wrapper '__init__' of exceptions.AttributeError object>"
p50
sS'__new__'
p51
S'<built-in method __new__ of type object>'
p52
ssS'evalue'
p53
S"'Rows' object has no attribute 'id'"
p54
sS'request'
p55
ccopy_reg
_reconstructor
p56
(cgluon.html
BEAUTIFY
p57
c__builtin__
object
p58
NtRp59
(dp60
S'attributes'
p61
(dp62
sS'components'
p63
(lp64
g56
(cgluon.html
TABLE
p65
g58
NtRp66
(dp67
g61
(dp68
S'level'
p69
I5
ssS'parent'
p70
Nsg63
(lp71
g56
(cgluon.html
TR
p72
g58
NtRp73
(dp74
g61
(dp75
sg70
g66
sg63
(lp76
g56
(cgluon.html
TD
p77
g58
NtRp78
(dp79
g61
(dp80
S'_style'
p81
S'font-weight:bold;'
p82
ssg70
g73
sg63
(lp83
S'ajax'
p84
asbag56
(g77
g58
NtRp85
(dp86
g61
(dp87
S'_valign'
p88
S'top'
p89
ssg70
g73
sg63
(lp90
S':'
asbag56
(g77
g58
NtRp91
(dp92
g61
(dp93
sg70
g73
sg63
(lp94
g56
(g57
g58
NtRp95
(dp96
g61
(dp97
g69
I5
ssg70
g91
sg63
(lp98
S'False'
p99
asbasbasbag56
(g72
g58
NtRp100
(dp101
g61
(dp102
sg70
g66
sg63
(lp103
g56
(g77
g58
NtRp104
(dp105
g61
(dp106
g81
g82
ssg70
g100
sg63
(lp107
S'application'
p108
asbag56
(g77
g58
NtRp109
(dp110
g61
(dp111
g88
g89
ssg70
g100
sg63
(lp112
S':'
asbag56
(g77
g58
NtRp113
(dp114
g61
(dp115
sg70
g100
sg63
(lp116
g56
(g57
g58
NtRp117
(dp118
g61
(dp119
g69
I5
ssg70
g113
sg63
(lp120
S'init'
p121
asbasbasbag56
(g72
g58
NtRp122
(dp123
g61
(dp124
sg70
g66
sg63
(lp125
g56
(g77
g58
NtRp126
(dp127
g61
(dp128
g81
g82
ssg70
g122
sg63
(lp129
g23
asbag56
(g77
g58
NtRp130
(dp131
g61
(dp132
g88
g89
ssg70
g122
sg63
(lp133
S':'
asbag56
(g77
g58
NtRp134
(dp135
g61
(dp136
sg70
g122
sg63
(lp137
g56
(g57
g58
NtRp138
(dp139
g61
(dp140
g69
I5
ssg70
g134
sg63
(lp141
g56
(g65
g58
NtRp142
(dp143
g61
(dp144
g69
I4
ssg70
Nsg63
(lp145
g56
(g72
g58
NtRp146
(dp147
g61
(dp148
sg70
g142
sg63
(lp149
g56
(g77
g58
NtRp150
(dp151
g61
(dp152
sg70
g146
sg63
(lp153
g56
(g57
g58
NtRp154
(dp155
g61
(dp156
g69
I4
ssg70
g150
sg63
(lp157
S'0f05e204af4d1ffabf462df37c8c606a3240f45a2e2fcb3bef41ea5b823b55d0'
p158
asbasbasbasbasbasbasbag56
(g72
g58
NtRp159
(dp160
g61
(dp161
sg70
g66
sg63
(lp162
g56
(g77
g58
NtRp163
(dp164
g61
(dp165
g81
g82
ssg70
g159
sg63
(lp166
S'body'
p167
asbag56
(g77
g58
NtRp168
(dp169
g61
(dp170
g88
g89
ssg70
g159
sg63
(lp171
S':'
asbag56
(g77
g58
NtRp172
(dp173
g61
(dp174
sg70
g159
sg63
(lp175
g56
(g57
g58
NtRp176
(dp177
g61
(dp178
g69
I5
ssg70
g172
sg63
(lp179
S'<cStringIO.StringO object at 0x1019261f0>'
p180
asbasbasbag56
(g72
g58
NtRp181
(dp182
g61
(dp183
sg70
g66
sg63
(lp184
g56
(g77
g58
NtRp185
(dp186
g61
(dp187
g81
g82
ssg70
g181
sg63
(lp188
S'client'
p189
asbag56
(g77
g58
NtRp190
(dp191
g61
(dp192
g88
g89
ssg70
g181
sg63
(lp193
S':'
asbag56
(g77
g58
NtRp194
(dp195
g61
(dp196
sg70
g181
sg63
(lp197
g56
(g57
g58
NtRp198
(dp199
g61
(dp200
g69
I5
ssg70
g194
sg63
(lp201
S'127.0.0.1'
p202
asbasbasbag56
(g72
g58
NtRp203
(dp204
g61
(dp205
sg70
g66
sg63
(lp206
g56
(g77
g58
NtRp207
(dp208
g61
(dp209
g81
g82
ssg70
g203
sg63
(lp210
S'controller'
p211
asbag56
(g77
g58
NtRp212
(dp213
g61
(dp214
g88
g89
ssg70
g203
sg63
(lp215
S':'
asbag56
(g77
g58
NtRp216
(dp217
g61
(dp218
sg70
g203
sg63
(lp219
g56
(g57
g58
NtRp220
(dp221
g61
(dp222
g69
I5
ssg70
g216
sg63
(lp223
S'default'
p224
asbasbasbag56
(g72
g58
NtRp225
(dp226
g61
(dp227
sg70
g66
sg63
(lp228
g56
(g77
g58
NtRp229
(dp230
g61
(dp231
g81
g82
ssg70
g225
sg63
(lp232
S'cookies'
p233
asbag56
(g77
g58
NtRp234
(dp235
g61
(dp236
g88
g89
ssg70
g225
sg63
(lp237
S':'
asbag56
(g77
g58
NtRp238
(dp239
g61
(dp240
sg70
g225
sg63
(lp241
g56
(g57
g58
NtRp242
(dp243
g61
(dp244
g69
I5
ssg70
g238
sg63
(lp245
g56
(g65
g58
NtRp246
(dp247
g61
(dp248
g69
I4
ssg70
Nsg63
(lp249
g56
(g72
g58
NtRp250
(dp251
g61
(dp252
sg70
g246
sg63
(lp253
g56
(g77
g58
NtRp254
(dp255
g61
(dp256
g81
g82
ssg70
g250
sg63
(lp257
S'session_id_admin'
p258
asbag56
(g77
g58
NtRp259
(dp260
g61
(dp261
g88
g89
ssg70
g250
sg63
(lp262
S':'
asbag56
(g77
g58
NtRp263
(dp264
g61
(dp265
sg70
g250
sg63
(lp266
g56
(g57
g58
NtRp267
(dp268
g61
(dp269
g69
I4
ssg70
g263
sg63
(lp270
g56
(g65
g58
NtRp271
(dp272
g61
(dp273
g69
I3
ssg70
Nsg63
(lp274
g56
(g72
g58
NtRp275
(dp276
g61
(dp277
sg70
g271
sg63
(lp278
g56
(g77
g58
NtRp279
(dp280
g61
(dp281
g81
g82
ssg70
g275
sg63
(lp282
S'comment'
p283
asbag56
(g77
g58
NtRp284
(dp285
g61
(dp286
g88
g89
ssg70
g275
sg63
(lp287
S':'
asbag56
(g77
g58
NtRp288
(dp289
g61
(dp290
sg70
g275
sg63
(lp291
g56
(g57
g58
NtRp292
(dp293
g61
(dp294
g69
I3
ssg70
g288
sg63
(lp295
S''
asbasbasbag56
(g72
g58
NtRp296
(dp297
g61
(dp298
sg70
g271
sg63
(lp299
g56
(g77
g58
NtRp300
(dp301
g61
(dp302
g81
g82
ssg70
g296
sg63
(lp303
S'domain'
p304
asbag56
(g77
g58
NtRp305
(dp306
g61
(dp307
g88
g89
ssg70
g296
sg63
(lp308
S':'
asbag56
(g77
g58
NtRp309
(dp310
g61
(dp311
sg70
g296
sg63
(lp312
g56
(g57
g58
NtRp313
(dp314
g61
(dp315
g69
I3
ssg70
g309
sg63
(lp316
S''
asbasbasbag56
(g72
g58
NtRp317
(dp318
g61
(dp319
sg70
g271
sg63
(lp320
g56
(g77
g58
NtRp321
(dp322
g61
(dp323
g81
g82
ssg70
g317
sg63
(lp324
S'expires'
p325
asbag56
(g77
g58
NtRp326
(dp327
g61
(dp328
g88
g89
ssg70
g317
sg63
(lp329
S':'
asbag56
(g77
g58
NtRp330
(dp331
g61
(dp332
sg70
g317
sg63
(lp333
g56
(g57
g58
NtRp334
(dp335
g61
(dp336
g69
I3
ssg70
g330
sg63
(lp337
S''
asbasbasbag56
(g72
g58
NtRp338
(dp339
g61
(dp340
sg70
g271
sg63
(lp341
g56
(g77
g58
NtRp342
(dp343
g61
(dp344
g81
g82
ssg70
g338
sg63
(lp345
S'httponly'
p346
asbag56
(g77
g58
NtRp347
(dp348
g61
(dp349
g88
g89
ssg70
g338
sg63
(lp350
S':'
asbag56
(g77
g58
NtRp351
(dp352
g61
(dp353
sg70
g338
sg63
(lp354
g56
(g57
g58
NtRp355
(dp356
g61
(dp357
g69
I3
ssg70
g351
sg63
(lp358
S''
asbasbasbag56
(g72
g58
NtRp359
(dp360
g61
(dp361
sg70
g271
sg63
(lp362
g56
(g77
g58
NtRp363
(dp364
g61
(dp365
g81
g82
ssg70
g359
sg63
(lp366
S'max-age'
p367
asbag56
(g77
g58
NtRp368
(dp369
g61
(dp370
g88
g89
ssg70
g359
sg63
(lp371
S':'
asbag56
(g77
g58
NtRp372
(dp373
g61
(dp374
sg70
g359
sg63
(lp375
g56
(g57
g58
NtRp376
(dp377
g61
(dp378
g69
I3
ssg70
g372
sg63
(lp379
S''
asbasbasbag56
(g72
g58
NtRp380
(dp381
g61
(dp382
sg70
g271
sg63
(lp383
g56
(g77
g58
NtRp384
(dp385
g61
(dp386
g81
g82
ssg70
g380
sg63
(lp387
S'path'
p388
asbag56
(g77
g58
NtRp389
(dp390
g61
(dp391
g88
g89
ssg70
g380
sg63
(lp392
S':'
asbag56
(g77
g58
NtRp393
(dp394
g61
(dp395
sg70
g380
sg63
(lp396
g56
(g57
g58
NtRp397
(dp398
g61
(dp399
g69
I3
ssg70
g393
sg63
(lp400
S''
asbasbasbag56
(g72
g58
NtRp401
(dp402
g61
(dp403
sg70
g271
sg63
(lp404
g56
(g77
g58
NtRp405
(dp406
g61
(dp407
g81
g82
ssg70
g401
sg63
(lp408
S'secure'
p409
asbag56
(g77
g58
NtRp410
(dp411
g61
(dp412
g88
g89
ssg70
g401
sg63
(lp413
S':'
asbag56
(g77
g58
NtRp414
(dp415
g61
(dp416
sg70
g401
sg63
(lp417
g56
(g57
g58
NtRp418
(dp419
g61
(dp420
g69
I3
ssg70
g414
sg63
(lp421
S''
asbasbasbag56
(g72
g58
NtRp422
(dp423
g61
(dp424
sg70
g271
sg63
(lp425
g56
(g77
g58
NtRp426
(dp427
g61
(dp428
g81
g82
ssg70
g422
sg63
(lp429
S'version'
p430
asbag56
(g77
g58
NtRp431
(dp432
g61
(dp433
g88
g89
ssg70
g422
sg63
(lp434
S':'
asbag56
(g77
g58
NtRp435
(dp436
g61
(dp437
sg70
g422
sg63
(lp438
g56
(g57
g58
NtRp439
(dp440
g61
(dp441
g69
I3
ssg70
g435
sg63
(lp442
S''
asbasbasbasbasbasbasbag56
(g72
g58
NtRp443
(dp444
g61
(dp445
sg70
g246
sg63
(lp446
g56
(g77
g58
NtRp447
(dp448
g61
(dp449
g81
g82
ssg70
g443
sg63
(lp450
S'session_id_blabla'
p451
asbag56
(g77
g58
NtRp452
(dp453
g61
(dp454
g88
g89
ssg70
g443
sg63
(lp455
S':'
asbag56
(g77
g58
NtRp456
(dp457
g61
(dp458
sg70
g443
sg63
(lp459
g56
(g57
g58
NtRp460
(dp461
g61
(dp462
g69
I4
ssg70
g456
sg63
(lp463
g56
(g65
g58
NtRp464
(dp465
g61
(dp466
g69
I3
ssg70
Nsg63
(lp467
g56
(g72
g58
NtRp468
(dp469
g61
(dp470
sg70
g464
sg63
(lp471
g56
(g77
g58
NtRp472
(dp473
g61
(dp474
g81
g82
ssg70
g468
sg63
(lp475
g283
asbag56
(g77
g58
NtRp476
(dp477
g61
(dp478
g88
g89
ssg70
g468
sg63
(lp479
S':'
asbag56
(g77
g58
NtRp480
(dp481
g61
(dp482
sg70
g468
sg63
(lp483
g56
(g57
g58
NtRp484
(dp485
g61
(dp486
g69
I3
ssg70
g480
sg63
(lp487
S''
asbasbasbag56
(g72
g58
NtRp488
(dp489
g61
(dp490
sg70
g464
sg63
(lp491
g56
(g77
g58
NtRp492
(dp493
g61
(dp494
g81
g82
ssg70
g488
sg63
(lp495
g304
asbag56
(g77
g58
NtRp496
(dp497
g61
(dp498
g88
g89
ssg70
g488
sg63
(lp499
S':'
asbag56
(g77
g58
NtRp500
(dp501
g61
(dp502
sg70
g488
sg63
(lp503
g56
(g57
g58
NtRp504
(dp505
g61
(dp506
g69
I3
ssg70
g500
sg63
(lp507
S''
asbasbasbag56
(g72
g58
NtRp508
(dp509
g61
(dp510
sg70
g464
sg63
(lp511
g56
(g77
g58
NtRp512
(dp513
g61
(dp514
g81
g82
ssg70
g508
sg63
(lp515
g325
asbag56
(g77
g58
NtRp516
(dp517
g61
(dp518
g88
g89
ssg70
g508
sg63
(lp519
S':'
asbag56
(g77
g58
NtRp520
(dp521
g61
(dp522
sg70
g508
sg63
(lp523
g56
(g57
g58
NtRp524
(dp525
g61
(dp526
g69
I3
ssg70
g520
sg63
(lp527
S''
asbasbasbag56
(g72
g58
NtRp528
(dp529
g61
(dp530
sg70
g464
sg63
(lp531
g56
(g77
g58
NtRp532
(dp533
g61
(dp534
g81
g82
ssg70
g528
sg63
(lp535
g346
asbag56
(g77
g58
NtRp536
(dp537
g61
(dp538
g88
g89
ssg70
g528
sg63
(lp539
S':'
asbag56
(g77
g58
NtRp540
(dp541
g61
(dp542
sg70
g528
sg63
(lp543
g56
(g57
g58
NtRp544
(dp545
g61
(dp546
g69
I3
ssg70
g540
sg63
(lp547
S''
asbasbasbag56
(g72
g58
NtRp548
(dp549
g61
(dp550
sg70
g464
sg63
(lp551
g56
(g77
g58
NtRp552
(dp553
g61
(dp554
g81
g82
ssg70
g548
sg63
(lp555
g367
asbag56
(g77
g58
NtRp556
(dp557
g61
(dp558
g88
g89
ssg70
g548
sg63
(lp559
S':'
asbag56
(g77
g58
NtRp560
(dp561
g61
(dp562
sg70
g548
sg63
(lp563
g56
(g57
g58
NtRp564
(dp565
g61
(dp566
g69
I3
ssg70
g560
sg63
(lp567
S''
asbasbasbag56
(g72
g58
NtRp568
(dp569
g61
(dp570
sg70
g464
sg63
(lp571
g56
(g77
g58
NtRp572
(dp573
g61
(dp574
g81
g82
ssg70
g568
sg63
(lp575
g388
asbag56
(g77
g58
NtRp576
(dp577
g61
(dp578
g88
g89
ssg70
g568
sg63
(lp579
S':'
asbag56
(g77
g58
NtRp580
(dp581
g61
(dp582
sg70
g568
sg63
(lp583
g56
(g57
g58
NtRp584
(dp585
g61
(dp586
g69
I3
ssg70
g580
sg63
(lp587
S''
asbasbasbag56
(g72
g58
NtRp588
(dp589
g61
(dp590
sg70
g464
sg63
(lp591
g56
(g77
g58
NtRp592
(dp593
g61
(dp594
g81
g82
ssg70
g588
sg63
(lp595
g409
asbag56
(g77
g58
NtRp596
(dp597
g61
(dp598
g88
g89
ssg70
g588
sg63
(lp599
S':'
asbag56
(g77
g58
NtRp600
(dp601
g61
(dp602
sg70
g588
sg63
(lp603
g56
(g57
g58
NtRp604
(dp605
g61
(dp606
g69
I3
ssg70
g600
sg63
(lp607
S''
asbasbasbag56
(g72
g58
NtRp608
(dp609
g61
(dp610
sg70
g464
sg63
(lp611
g56
(g77
g58
NtRp612
(dp613
g61
(dp614
g81
g82
ssg70
g608
sg63
(lp615
g430
asbag56
(g77
g58
NtRp616
(dp617
g61
(dp618
g88
g89
ssg70
g608
sg63
(lp619
S':'
asbag56
(g77
g58
NtRp620
(dp621
g61
(dp622
sg70
g608
sg63
(lp623
g56
(g57
g58
NtRp624
(dp625
g61
(dp626
g69
I3
ssg70
g620
sg63
(lp627
S''
asbasbasbasbasbasbasbag56
(g72
g58
NtRp628
(dp629
g61
(dp630
sg70
g246
sg63
(lp631
g56
(g77
g58
NtRp632
(dp633
g61
(dp634
g81
g82
ssg70
g628
sg63
(lp635
S'session_id_globaleaks'
p636
asbag56
(g77
g58
NtRp637
(dp638
g61
(dp639
g88
g89
ssg70
g628
sg63
(lp640
S':'
asbag56
(g77
g58
NtRp641
(dp642
g61
(dp643
sg70
g628
sg63
(lp644
g56
(g57
g58
NtRp645
(dp646
g61
(dp647
g69
I4
ssg70
g641
sg63
(lp648
g56
(g65
g58
NtRp649
(dp650
g61
(dp651
g69
I3
ssg70
Nsg63
(lp652
g56
(g72
g58
NtRp653
(dp654
g61
(dp655
sg70
g649
sg63
(lp656
g56
(g77
g58
NtRp657
(dp658
g61
(dp659
g81
g82
ssg70
g653
sg63
(lp660
g283
asbag56
(g77
g58
NtRp661
(dp662
g61
(dp663
g88
g89
ssg70
g653
sg63
(lp664
S':'
asbag56
(g77
g58
NtRp665
(dp666
g61
(dp667
sg70
g653
sg63
(lp668
g56
(g57
g58
NtRp669
(dp670
g61
(dp671
g69
I3
ssg70
g665
sg63
(lp672
S''
asbasbasbag56
(g72
g58
NtRp673
(dp674
g61
(dp675
sg70
g649
sg63
(lp676
g56
(g77
g58
NtRp677
(dp678
g61
(dp679
g81
g82
ssg70
g673
sg63
(lp680
g304
asbag56
(g77
g58
NtRp681
(dp682
g61
(dp683
g88
g89
ssg70
g673
sg63
(lp684
S':'
asbag56
(g77
g58
NtRp685
(dp686
g61
(dp687
sg70
g673
sg63
(lp688
g56
(g57
g58
NtRp689
(dp690
g61
(dp691
g69
I3
ssg70
g685
sg63
(lp692
S''
asbasbasbag56
(g72
g58
NtRp693
(dp694
g61
(dp695
sg70
g649
sg63
(lp696
g56
(g77
g58
NtRp697
(dp698
g61
(dp699
g81
g82
ssg70
g693
sg63
(lp700
g325
asbag56
(g77
g58
NtRp701
(dp702
g61
(dp703
g88
g89
ssg70
g693
sg63
(lp704
S':'
asbag56
(g77
g58
NtRp705
(dp706
g61
(dp707
sg70
g693
sg63
(lp708
g56
(g57
g58
NtRp709
(dp710
g61
(dp711
g69
I3
ssg70
g705
sg63
(lp712
S''
asbasbasbag56
(g72
g58
NtRp713
(dp714
g61
(dp715
sg70
g649
sg63
(lp716
g56
(g77
g58
NtRp717
(dp718
g61
(dp719
g81
g82
ssg70
g713
sg63
(lp720
g346
asbag56
(g77
g58
NtRp721
(dp722
g61
(dp723
g88
g89
ssg70
g713
sg63
(lp724
S':'
asbag56
(g77
g58
NtRp725
(dp726
g61
(dp727
sg70
g713
sg63
(lp728
g56
(g57
g58
NtRp729
(dp730
g61
(dp731
g69
I3
ssg70
g725
sg63
(lp732
S''
asbasbasbag56
(g72
g58
NtRp733
(dp734
g61
(dp735
sg70
g649
sg63
(lp736
g56
(g77
g58
NtRp737
(dp738
g61
(dp739
g81
g82
ssg70
g733
sg63
(lp740
g367
asbag56
(g77
g58
NtRp741
(dp742
g61
(dp743
g88
g89
ssg70
g733
sg63
(lp744
S':'
asbag56
(g77
g58
NtRp745
(dp746
g61
(dp747
sg70
g733
sg63
(lp748
g56
(g57
g58
NtRp749
(dp750
g61
(dp751
g69
I3
ssg70
g745
sg63
(lp752
S''
asbasbasbag56
(g72
g58
NtRp753
(dp754
g61
(dp755
sg70
g649
sg63
(lp756
g56
(g77
g58
NtRp757
(dp758
g61
(dp759
g81
g82
ssg70
g753
sg63
(lp760
g388
asbag56
(g77
g58
NtRp761
(dp762
g61
(dp763
g88
g89
ssg70
g753
sg63
(lp764
S':'
asbag56
(g77
g58
NtRp765
(dp766
g61
(dp767
sg70
g753
sg63
(lp768
g56
(g57
g58
NtRp769
(dp770
g61
(dp771
g69
I3
ssg70
g765
sg63
(lp772
S''
asbasbasbag56
(g72
g58
NtRp773
(dp774
g61
(dp775
sg70
g649
sg63
(lp776
g56
(g77
g58
NtRp777
(dp778
g61
(dp779
g81
g82
ssg70
g773
sg63
(lp780
g409
asbag56
(g77
g58
NtRp781
(dp782
g61
(dp783
g88
g89
ssg70
g773
sg63
(lp784
S':'
asbag56
(g77
g58
NtRp785
(dp786
g61
(dp787
sg70
g773
sg63
(lp788
g56
(g57
g58
NtRp789
(dp790
g61
(dp791
g69
I3
ssg70
g785
sg63
(lp792
S''
asbasbasbag56
(g72
g58
NtRp793
(dp794
g61
(dp795
sg70
g649
sg63
(lp796
g56
(g77
g58
NtRp797
(dp798
g61
(dp799
g81
g82
ssg70
g793
sg63
(lp800
g430
asbag56
(g77
g58
NtRp801
(dp802
g61
(dp803
g88
g89
ssg70
g793
sg63
(lp804
S':'
asbag56
(g77
g58
NtRp805
(dp806
g61
(dp807
sg70
g793
sg63
(lp808
g56
(g57
g58
NtRp809
(dp810
g61
(dp811
g69
I3
ssg70
g805
sg63
(lp812
S''
asbasbasbasbasbasbasbag56
(g72
g58
NtRp813
(dp814
g61
(dp815
sg70
g246
sg63
(lp816
g56
(g77
g58
NtRp817
(dp818
g61
(dp819
g81
g82
ssg70
g813
sg63
(lp820
S'session_id_init'
p821
asbag56
(g77
g58
NtRp822
(dp823
g61
(dp824
g88
g89
ssg70
g813
sg63
(lp825
S':'
asbag56
(g77
g58
NtRp826
(dp827
g61
(dp828
sg70
g813
sg63
(lp829
g56
(g57
g58
NtRp830
(dp831
g61
(dp832
g69
I4
ssg70
g826
sg63
(lp833
g56
(g65
g58
NtRp834
(dp835
g61
(dp836
g69
I3
ssg70
Nsg63
(lp837
g56
(g72
g58
NtRp838
(dp839
g61
(dp840
sg70
g834
sg63
(lp841
g56
(g77
g58
NtRp842
(dp843
g61
(dp844
g81
g82
ssg70
g838
sg63
(lp845
g283
asbag56
(g77
g58
NtRp846
(dp847
g61
(dp848
g88
g89
ssg70
g838
sg63
(lp849
S':'
asbag56
(g77
g58
NtRp850
(dp851
g61
(dp852
sg70
g838
sg63
(lp853
g56
(g57
g58
NtRp854
(dp855
g61
(dp856
g69
I3
ssg70
g850
sg63
(lp857
S''
asbasbasbag56
(g72
g58
NtRp858
(dp859
g61
(dp860
sg70
g834
sg63
(lp861
g56
(g77
g58
NtRp862
(dp863
g61
(dp864
g81
g82
ssg70
g858
sg63
(lp865
g304
asbag56
(g77
g58
NtRp866
(dp867
g61
(dp868
g88
g89
ssg70
g858
sg63
(lp869
S':'
asbag56
(g77
g58
NtRp870
(dp871
g61
(dp872
sg70
g858
sg63
(lp873
g56
(g57
g58
NtRp874
(dp875
g61
(dp876
g69
I3
ssg70
g870
sg63
(lp877
S''
asbasbasbag56
(g72
g58
NtRp878
(dp879
g61
(dp880
sg70
g834
sg63
(lp881
g56
(g77
g58
NtRp882
(dp883
g61
(dp884
g81
g82
ssg70
g878
sg63
(lp885
g325
asbag56
(g77
g58
NtRp886
(dp887
g61
(dp888
g88
g89
ssg70
g878
sg63
(lp889
S':'
asbag56
(g77
g58
NtRp890
(dp891
g61
(dp892
sg70
g878
sg63
(lp893
g56
(g57
g58
NtRp894
(dp895
g61
(dp896
g69
I3
ssg70
g890
sg63
(lp897
S''
asbasbasbag56
(g72
g58
NtRp898
(dp899
g61
(dp900
sg70
g834
sg63
(lp901
g56
(g77
g58
NtRp902
(dp903
g61
(dp904
g81
g82
ssg70
g898
sg63
(lp905
g346
asbag56
(g77
g58
NtRp906
(dp907
g61
(dp908
g88
g89
ssg70
g898
sg63
(lp909
S':'
asbag56
(g77
g58
NtRp910
(dp911
g61
(dp912
sg70
g898
sg63
(lp913
g56
(g57
g58
NtRp914
(dp915
g61
(dp916
g69
I3
ssg70
g910
sg63
(lp917
S''
asbasbasbag56
(g72
g58
NtRp918
(dp919
g61
(dp920
sg70
g834
sg63
(lp921
g56
(g77
g58
NtRp922
(dp923
g61
(dp924
g81
g82
ssg70
g918
sg63
(lp925
g367
asbag56
(g77
g58
NtRp926
(dp927
g61
(dp928
g88
g89
ssg70
g918
sg63
(lp929
S':'
asbag56
(g77
g58
NtRp930
(dp931
g61
(dp932
sg70
g918
sg63
(lp933
g56
(g57
g58
NtRp934
(dp935
g61
(dp936
g69
I3
ssg70
g930
sg63
(lp937
S''
asbasbasbag56
(g72
g58
NtRp938
(dp939
g61
(dp940
sg70
g834
sg63
(lp941
g56
(g77
g58
NtRp942
(dp943
g61
(dp944
g81
g82
ssg70
g938
sg63
(lp945
g388
asbag56
(g77
g58
NtRp946
(dp947
g61
(dp948
g88
g89
ssg70
g938
sg63
(lp949
S':'
asbag56
(g77
g58
NtRp950
(dp951
g61
(dp952
sg70
g938
sg63
(lp953
g56
(g57
g58
NtRp954
(dp955
g61
(dp956
g69
I3
ssg70
g950
sg63
(lp957
S''
asbasbasbag56
(g72
g58
NtRp958
(dp959
g61
(dp960
sg70
g834
sg63
(lp961
g56
(g77
g58
NtRp962
(dp963
g61
(dp964
g81
g82
ssg70
g958
sg63
(lp965
g409
asbag56
(g77
g58
NtRp966
(dp967
g61
(dp968
g88
g89
ssg70
g958
sg63
(lp969
S':'
asbag56
(g77
g58
NtRp970
(dp971
g61
(dp972
sg70
g958
sg63
(lp973
g56
(g57
g58
NtRp974
(dp975
g61
(dp976
g69
I3
ssg70
g970
sg63
(lp977
S''
asbasbasbag56
(g72
g58
NtRp978
(dp979
g61
(dp980
sg70
g834
sg63
(lp981
g56
(g77
g58
NtRp982
(dp983
g61
(dp984
g81
g82
ssg70
g978
sg63
(lp985
g430
asbag56
(g77
g58
NtRp986
(dp987
g61
(dp988
g88
g89
ssg70
g978
sg63
(lp989
S':'
asbag56
(g77
g58
NtRp990
(dp991
g61
(dp992
sg70
g978
sg63
(lp993
g56
(g57
g58
NtRp994
(dp995
g61
(dp996
g69
I3
ssg70
g990
sg63
(lp997
S''
asbasbasbasbasbasbasbasbasbasbasbag56
(g72
g58
NtRp998
(dp999
g61
(dp1000
sg70
g66
sg63
(lp1001
g56
(g77
g58
NtRp1002
(dp1003
g61
(dp1004
g81
g82
ssg70
g998
sg63
(lp1005
S'env'
p1006
asbag56
(g77
g58
NtRp1007
(dp1008
g61
(dp1009
g88
g89
ssg70
g998
sg63
(lp1010
S':'
asbag56
(g77
g58
NtRp1011
(dp1012
g61
(dp1013
sg70
g998
sg63
(lp1014
g56
(g57
g58
NtRp1015
(dp1016
g61
(dp1017
g69
I5
ssg70
g1011
sg63
(lp1018
g56
(g65
g58
NtRp1019
(dp1020
g61
(dp1021
g69
I4
ssg70
Nsg63
(lp1022
g56
(g72
g58
NtRp1023
(dp1024
g61
(dp1025
sg70
g1019
sg63
(lp1026
g56
(g77
g58
NtRp1027
(dp1028
g61
(dp1029
g81
g82
ssg70
g1023
sg63
(lp1030
S'app_folders'
p1031
asbag56
(g77
g58
NtRp1032
(dp1033
g61
(dp1034
g88
g89
ssg70
g1023
sg63
(lp1035
S':'
asbag56
(g77
g58
NtRp1036
(dp1037
g61
(dp1038
sg70
g1023
sg63
(lp1039
g56
(g57
g58
NtRp1040
(dp1041
g61
(dp1042
g69
I4
ssg70
g1036
sg63
(lp1043
S"set(['/Users/hellais/Documents/code/mygit/globaleaks/webapp/applications/init/', '/Users/hellais/Documents/code/mygit/globaleaks/webapp/applications/admin/'])"
p1044
asbasbasbag56
(g72
g58
NtRp1045
(dp1046
g61
(dp1047
sg70
g1019
sg63
(lp1048
g56
(g77
g58
NtRp1049
(dp1050
g61
(dp1051
g81
g82
ssg70
g1045
sg63
(lp1052
S'applications_parent'
p1053
asbag56
(g77
g58
NtRp1054
(dp1055
g61
(dp1056
g88
g89
ssg70
g1045
sg63
(lp1057
S':'
asbag56
(g77
g58
NtRp1058
(dp1059
g61
(dp1060
sg70
g1045
sg63
(lp1061
g56
(g57
g58
NtRp1062
(dp1063
g61
(dp1064
g69
I4
ssg70
g1058
sg63
(lp1065
S'/Users/hellais/Documents/code/mygit/globaleaks/webapp'
p1066
asbasbasbag56
(g72
g58
NtRp1067
(dp1068
g61
(dp1069
sg70
g1019
sg63
(lp1070
g56
(g77
g58
NtRp1071
(dp1072
g61
(dp1073
g81
g82
ssg70
g1067
sg63
(lp1074
S'cmd_args'
p1075
asbag56
(g77
g58
NtRp1076
(dp1077
g61
(dp1078
g88
g89
ssg70
g1067
sg63
(lp1079
S':'
asbag56
(g77
g58
NtRp1080
(dp1081
g61
(dp1082
sg70
g1067
sg63
(lp1083
g56
(g57
g58
NtRp1084
(dp1085
g61
(dp1086
g69
I4
ssg70
g1080
sg63
(lp1087
g56
(g65
g58
NtRp1088
(dp1089
g61
(dp1090
g69
I3
ssg70
Nsg63
(lp1091
sbasbasbasbag56
(g72
g58
NtRp1092
(dp1093
g61
(dp1094
sg70
g1019
sg63
(lp1095
g56
(g77
g58
NtRp1096
(dp1097
g61
(dp1098
g81
g82
ssg70
g1092
sg63
(lp1099
S'cmd_options'
p1100
asbag56
(g77
g58
NtRp1101
(dp1102
g61
(dp1103
g88
g89
ssg70
g1092
sg63
(lp1104
S':'
asbag56
(g77
g58
NtRp1105
(dp1106
g61
(dp1107
sg70
g1092
sg63
(lp1108
g56
(g57
g58
NtRp1109
(dp1110
g61
(dp1111
g69
I4
ssg70
g1105
sg63
(lp1112
S"<Values at 0x1015f1320: {'verbose': False, 'ip': '127.0.0.1', 'shutdown_timeout': 5, 'taskbar': False, 'port': 8000, 'maxthreads': None, 'softcron': False, 'server_name': 'Jeanne.local', 'bpython': False, 'nogui': False, 'nocron': False, 'extcron': False, 'debuglevel': 30, 'test': None, 'folder': '/Users/hellais/Documents/code/mygit/globaleaks/webapp', 'config': '', 'import_models': False, 'winservice': '', 'shell': None, 'run': '', 'log_filename': 'httpserver.log', 'args': [''], 'profiler_filename': None, 'ssl_private_key': '', 'password': 'antani', 'request_queue_size': 5, 'ssl_certificate': '', 'cronjob': False, 'plain': False, 'quiet': False, 'interfaces': None, 'minthreads': None, 'timeout': 10, 'numthreads': None, 'nobanner': False, 'pid_filename': 'httpserver.pid'}>"
p1113
asbasbasbag56
(g72
g58
NtRp1114
(dp1115
g61
(dp1116
sg70
g1019
sg63
(lp1117
g56
(g77
g58
NtRp1118
(dp1119
g61
(dp1120
g81
g82
ssg70
g1114
sg63
(lp1121
S'db_sessions'
p1122
asbag56
(g77
g58
NtRp1123
(dp1124
g61
(dp1125
g88
g89
ssg70
g1114
sg63
(lp1126
S':'
asbag56
(g77
g58
NtRp1127
(dp1128
g61
(dp1129
sg70
g1114
sg63
(lp1130
g56
(g57
g58
NtRp1131
(dp1132
g61
(dp1133
g69
I4
ssg70
g1127
sg63
(lp1134
S'set([])'
p1135
asbasbasbag56
(g72
g58
NtRp1136
(dp1137
g61
(dp1138
sg70
g1019
sg63
(lp1139
g56
(g77
g58
NtRp1140
(dp1141
g61
(dp1142
g81
g82
ssg70
g1136
sg63
(lp1143
S'debugging'
p1144
asbag56
(g77
g58
NtRp1145
(dp1146
g61
(dp1147
g88
g89
ssg70
g1136
sg63
(lp1148
S':'
asbag56
(g77
g58
NtRp1149
(dp1150
g61
(dp1151
sg70
g1136
sg63
(lp1152
g56
(g57
g58
NtRp1153
(dp1154
g61
(dp1155
g69
I4
ssg70
g1149
sg63
(lp1156
g99
asbasbasbag56
(g72
g58
NtRp1157
(dp1158
g61
(dp1159
sg70
g1019
sg63
(lp1160
g56
(g77
g58
NtRp1161
(dp1162
g61
(dp1163
g81
g82
ssg70
g1157
sg63
(lp1164
S'gluon_parent'
p1165
asbag56
(g77
g58
NtRp1166
(dp1167
g61
(dp1168
g88
g89
ssg70
g1157
sg63
(lp1169
S':'
asbag56
(g77
g58
NtRp1170
(dp1171
g61
(dp1172
sg70
g1157
sg63
(lp1173
g56
(g57
g58
NtRp1174
(dp1175
g61
(dp1176
g69
I4
ssg70
g1170
sg63
(lp1177
S'/Users/hellais/Documents/code/mygit/globaleaks/webapp'
p1178
asbasbasbag56
(g72
g58
NtRp1179
(dp1180
g61
(dp1181
sg70
g1019
sg63
(lp1182
g56
(g77
g58
NtRp1183
(dp1184
g61
(dp1185
g81
g82
ssg70
g1179
sg63
(lp1186
S'http_accept'
p1187
asbag56
(g77
g58
NtRp1188
(dp1189
g61
(dp1190
g88
g89
ssg70
g1179
sg63
(lp1191
S':'
asbag56
(g77
g58
NtRp1192
(dp1193
g61
(dp1194
sg70
g1179
sg63
(lp1195
g56
(g57
g58
NtRp1196
(dp1197
g61
(dp1198
g69
I4
ssg70
g1192
sg63
(lp1199
S'text/html,application/xhtml+xml,application/xml;q=0.9,*/*;q=0.8'
p1200
asbasbasbag56
(g72
g58
NtRp1201
(dp1202
g61
(dp1203
sg70
g1019
sg63
(lp1204
g56
(g77
g58
NtRp1205
(dp1206
g61
(dp1207
g81
g82
ssg70
g1201
sg63
(lp1208
S'http_accept_charset'
p1209
asbag56
(g77
g58
NtRp1210
(dp1211
g61
(dp1212
g88
g89
ssg70
g1201
sg63
(lp1213
S':'
asbag56
(g77
g58
NtRp1214
(dp1215
g61
(dp1216
sg70
g1201
sg63
(lp1217
g56
(g57
g58
NtRp1218
(dp1219
g61
(dp1220
g69
I4
ssg70
g1214
sg63
(lp1221
S'ISO-8859-1,utf-8;q=0.7,*;q=0.7'
p1222
asbasbasbag56
(g72
g58
NtRp1223
(dp1224
g61
(dp1225
sg70
g1019
sg63
(lp1226
g56
(g77
g58
NtRp1227
(dp1228
g61
(dp1229
g81
g82
ssg70
g1223
sg63
(lp1230
S'http_accept_encoding'
p1231
asbag56
(g77
g58
NtRp1232
(dp1233
g61
(dp1234
g88
g89
ssg70
g1223
sg63
(lp1235
S':'
asbag56
(g77
g58
NtRp1236
(dp1237
g61
(dp1238
sg70
g1223
sg63
(lp1239
g56
(g57
g58
NtRp1240
(dp1241
g61
(dp1242
g69
I4
ssg70
g1236
sg63
(lp1243
S'gzip, deflate'
p1244
asbasbasbag56
(g72
g58
NtRp1245
(dp1246
g61
(dp1247
sg70
g1019
sg63
(lp1248
g56
(g77
g58
NtRp1249
(dp1250
g61
(dp1251
g81
g82
ssg70
g1245
sg63
(lp1252
S'http_accept_language'
p1253
asbag56
(g77
g58
NtRp1254
(dp1255
g61
(dp1256
g88
g89
ssg70
g1245
sg63
(lp1257
S':'
asbag56
(g77
g58
NtRp1258
(dp1259
g61
(dp1260
sg70
g1245
sg63
(lp1261
g56
(g57
g58
NtRp1262
(dp1263
g61
(dp1264
g69
I4
ssg70
g1258
sg63
(lp1265
S'en-us,en;q=0.5'
p1266
asbasbasbag56
(g72
g58
NtRp1267
(dp1268
g61
(dp1269
sg70
g1019
sg63
(lp1270
g56
(g77
g58
NtRp1271
(dp1272
g61
(dp1273
g81
g82
ssg70
g1267
sg63
(lp1274
S'http_cache_control'
p1275
asbag56
(g77
g58
NtRp1276
(dp1277
g61
(dp1278
g88
g89
ssg70
g1267
sg63
(lp1279
S':'
asbag56
(g77
g58
NtRp1280
(dp1281
g61
(dp1282
sg70
g1267
sg63
(lp1283
g56
(g57
g58
NtRp1284
(dp1285
g61
(dp1286
g69
I4
ssg70
g1280
sg63
(lp1287
S'max-age=0'
p1288
asbasbasbag56
(g72
g58
NtRp1289
(dp1290
g61
(dp1291
sg70
g1019
sg63
(lp1292
g56
(g77
g58
NtRp1293
(dp1294
g61
(dp1295
g81
g82
ssg70
g1289
sg63
(lp1296
S'http_connection'
p1297
asbag56
(g77
g58
NtRp1298
(dp1299
g61
(dp1300
g88
g89
ssg70
g1289
sg63
(lp1301
S':'
asbag56
(g77
g58
NtRp1302
(dp1303
g61
(dp1304
sg70
g1289
sg63
(lp1305
g56
(g57
g58
NtRp1306
(dp1307
g61
(dp1308
g69
I4
ssg70
g1302
sg63
(lp1309
S'keep-alive'
p1310
asbasbasbag56
(g72
g58
NtRp1311
(dp1312
g61
(dp1313
sg70
g1019
sg63
(lp1314
g56
(g77
g58
NtRp1315
(dp1316
g61
(dp1317
g81
g82
ssg70
g1311
sg63
(lp1318
S'http_cookie'
p1319
asbag56
(g77
g58
NtRp1320
(dp1321
g61
(dp1322
g88
g89
ssg70
g1311
sg63
(lp1323
S':'
asbag56
(g77
g58
NtRp1324
(dp1325
g61
(dp1326
sg70
g1311
sg63
(lp1327
g56
(g57
g58
NtRp1328
(dp1329
g61
(dp1330
g69
I4
ssg70
g1324
sg63
(lp1331
S'session_id_admin=127.0.0.1-67122ce4-50b2-4acf-b28e-7a14feeff4d9; session_id_globaleaks=127.0.0.1-c6d5b9b3-1ec7-41c1-8d72-04c21b7a6b11; session_id_blabla=127.0.0.1-c445384e-a3ea-4484-8fe2-52f3295bbb7c; session_id_init=127.0.0.1-a8551263-bc3c-430c-abb2-8711fac671c1'
p1332
asbasbasbag56
(g72
g58
NtRp1333
(dp1334
g61
(dp1335
sg70
g1019
sg63
(lp1336
g56
(g77
g58
NtRp1337
(dp1338
g61
(dp1339
g81
g82
ssg70
g1333
sg63
(lp1340
S'http_host'
p1341
asbag56
(g77
g58
NtRp1342
(dp1343
g61
(dp1344
g88
g89
ssg70
g1333
sg63
(lp1345
S':'
asbag56
(g77
g58
NtRp1346
(dp1347
g61
(dp1348
sg70
g1333
sg63
(lp1349
g56
(g57
g58
NtRp1350
(dp1351
g61
(dp1352
g69
I4
ssg70
g1346
sg63
(lp1353
S'127.0.0.1:8000'
p1354
asbasbasbag56
(g72
g58
NtRp1355
(dp1356
g61
(dp1357
sg70
g1019
sg63
(lp1358
g56
(g77
g58
NtRp1359
(dp1360
g61
(dp1361
g81
g82
ssg70
g1355
sg63
(lp1362
S'http_referer'
p1363
asbag56
(g77
g58
NtRp1364
(dp1365
g61
(dp1366
g88
g89
ssg70
g1355
sg63
(lp1367
S':'
asbag56
(g77
g58
NtRp1368
(dp1369
g61
(dp1370
sg70
g1355
sg63
(lp1371
g56
(g57
g58
NtRp1372
(dp1373
g61
(dp1374
g69
I4
ssg70
g1368
sg63
(lp1375
S'http://127.0.0.1:8000/init/default/submission'
p1376
asbasbasbag56
(g72
g58
NtRp1377
(dp1378
g61
(dp1379
sg70
g1019
sg63
(lp1380
g56
(g77
g58
NtRp1381
(dp1382
g61
(dp1383
g81
g82
ssg70
g1377
sg63
(lp1384
S'http_user_agent'
p1385
asbag56
(g77
g58
NtRp1386
(dp1387
g61
(dp1388
g88
g89
ssg70
g1377
sg63
(lp1389
S':'
asbag56
(g77
g58
NtRp1390
(dp1391
g61
(dp1392
sg70
g1377
sg63
(lp1393
g56
(g57
g58
NtRp1394
(dp1395
g61
(dp1396
g69
I4
ssg70
g1390
sg63
(lp1397
S'Mozilla/5.0 (Macintosh; Intel Mac OS X 10.6; rv:5.0.1) Gecko/20100101 Firefox/5.0.1'
p1398
asbasbasbag56
(g72
g58
NtRp1399
(dp1400
g61
(dp1401
sg70
g1019
sg63
(lp1402
g56
(g77
g58
NtRp1403
(dp1404
g61
(dp1405
g81
g82
ssg70
g1399
sg63
(lp1406
S'is_jython'
p1407
asbag56
(g77
g58
NtRp1408
(dp1409
g61
(dp1410
g88
g89
ssg70
g1399
sg63
(lp1411
S':'
asbag56
(g77
g58
NtRp1412
(dp1413
g61
(dp1414
sg70
g1399
sg63
(lp1415
g56
(g57
g58
NtRp1416
(dp1417
g61
(dp1418
g69
I4
ssg70
g1412
sg63
(lp1419
g99
asbasbasbag56
(g72
g58
NtRp1420
(dp1421
g61
(dp1422
sg70
g1019
sg63
(lp1423
g56
(g77
g58
NtRp1424
(dp1425
g61
(dp1426
g81
g82
ssg70
g1420
sg63
(lp1427
S'path_info'
p1428
asbag56
(g77
g58
NtRp1429
(dp1430
g61
(dp1431
g88
g89
ssg70
g1420
sg63
(lp1432
S':'
asbag56
(g77
g58
NtRp1433
(dp1434
g61
(dp1435
sg70
g1420
sg63
(lp1436
g56
(g57
g58
NtRp1437
(dp1438
g61
(dp1439
g69
I4
ssg70
g1433
sg63
(lp1440
S'/init/default/tulip/0f05e204af4d1ffabf462df37c8c606a3240f45a2e2fcb3bef41ea5b823b55d0'
p1441
asbasbasbag56
(g72
g58
NtRp1442
(dp1443
g61
(dp1444
sg70
g1019
sg63
(lp1445
g56
(g77
g58
NtRp1446
(dp1447
g61
(dp1448
g81
g82
ssg70
g1442
sg63
(lp1449
S'query_string'
p1450
asbag56
(g77
g58
NtRp1451
(dp1452
g61
(dp1453
g88
g89
ssg70
g1442
sg63
(lp1454
S':'
asbag56
(g77
g58
NtRp1455
(dp1456
g61
(dp1457
sg70
g1442
sg63
(lp1458
g56
(g57
g58
NtRp1459
(dp1460
g61
(dp1461
g69
I4
ssg70
g1455
sg63
(lp1462
S''
asbasbasbag56
(g72
g58
NtRp1463
(dp1464
g61
(dp1465
sg70
g1019
sg63
(lp1466
g56
(g77
g58
NtRp1467
(dp1468
g61
(dp1469
g81
g82
ssg70
g1463
sg63
(lp1470
S'remote_addr'
p1471
asbag56
(g77
g58
NtRp1472
(dp1473
g61
(dp1474
g88
g89
ssg70
g1463
sg63
(lp1475
S':'
asbag56
(g77
g58
NtRp1476
(dp1477
g61
(dp1478
sg70
g1463
sg63
(lp1479
g56
(g57
g58
NtRp1480
(dp1481
g61
(dp1482
g69
I4
ssg70
g1476
sg63
(lp1483
g202
asbasbasbag56
(g72
g58
NtRp1484
(dp1485
g61
(dp1486
sg70
g1019
sg63
(lp1487
g56
(g77
g58
NtRp1488
(dp1489
g61
(dp1490
g81
g82
ssg70
g1484
sg63
(lp1491
S'remote_port'
p1492
asbag56
(g77
g58
NtRp1493
(dp1494
g61
(dp1495
g88
g89
ssg70
g1484
sg63
(lp1496
S':'
asbag56
(g77
g58
NtRp1497
(dp1498
g61
(dp1499
sg70
g1484
sg63
(lp1500
g56
(g57
g58
NtRp1501
(dp1502
g61
(dp1503
g69
I4
ssg70
g1497
sg63
(lp1504
S'55626'
p1505
asbasbasbag56
(g72
g58
NtRp1506
(dp1507
g61
(dp1508
sg70
g1019
sg63
(lp1509
g56
(g77
g58
NtRp1510
(dp1511
g61
(dp1512
g81
g82
ssg70
g1506
sg63
(lp1513
S'request_method'
p1514
asbag56
(g77
g58
NtRp1515
(dp1516
g61
(dp1517
g88
g89
ssg70
g1506
sg63
(lp1518
S':'
asbag56
(g77
g58
NtRp1519
(dp1520
g61
(dp1521
sg70
g1506
sg63
(lp1522
g56
(g57
g58
NtRp1523
(dp1524
g61
(dp1525
g69
I4
ssg70
g1519
sg63
(lp1526
S'GET'
p1527
asbasbasbag56
(g72
g58
NtRp1528
(dp1529
g61
(dp1530
sg70
g1019
sg63
(lp1531
g56
(g77
g58
NtRp1532
(dp1533
g61
(dp1534
g81
g82
ssg70
g1528
sg63
(lp1535
S'script_name'
p1536
asbag56
(g77
g58
NtRp1537
(dp1538
g61
(dp1539
g88
g89
ssg70
g1528
sg63
(lp1540
S':'
asbag56
(g77
g58
NtRp1541
(dp1542
g61
(dp1543
sg70
g1528
sg63
(lp1544
g56
(g57
g58
NtRp1545
(dp1546
g61
(dp1547
g69
I4
ssg70
g1541
sg63
(lp1548
S''
asbasbasbag56
(g72
g58
NtRp1549
(dp1550
g61
(dp1551
sg70
g1019
sg63
(lp1552
g56
(g77
g58
NtRp1553
(dp1554
g61
(dp1555
g81
g82
ssg70
g1549
sg63
(lp1556
S'server_name'
p1557
asbag56
(g77
g58
NtRp1558
(dp1559
g61
(dp1560
g88
g89
ssg70
g1549
sg63
(lp1561
S':'
asbag56
(g77
g58
NtRp1562
(dp1563
g61
(dp1564
sg70
g1549
sg63
(lp1565
g56
(g57
g58
NtRp1566
(dp1567
g61
(dp1568
g69
I4
ssg70
g1562
sg63
(lp1569
S'Jeanne.local'
p1570
asbasbasbag56
(g72
g58
NtRp1571
(dp1572
g61
(dp1573
sg70
g1019
sg63
(lp1574
g56
(g77
g58
NtRp1575
(dp1576
g61
(dp1577
g81
g82
ssg70
g1571
sg63
(lp1578
S'server_port'
p1579
asbag56
(g77
g58
NtRp1580
(dp1581
g61
(dp1582
g88
g89
ssg70
g1571
sg63
(lp1583
S':'
asbag56
(g77
g58
NtRp1584
(dp1585
g61
(dp1586
sg70
g1571
sg63
(lp1587
g56
(g57
g58
NtRp1588
(dp1589
g61
(dp1590
g69
I4
ssg70
g1584
sg63
(lp1591
S'8000'
p1592
asbasbasbag56
(g72
g58
NtRp1593
(dp1594
g61
(dp1595
sg70
g1019
sg63
(lp1596
g56
(g77
g58
NtRp1597
(dp1598
g61
(dp1599
g81
g82
ssg70
g1593
sg63
(lp1600
S'server_protocol'
p1601
asbag56
(g77
g58
NtRp1602
(dp1603
g61
(dp1604
g88
g89
ssg70
g1593
sg63
(lp1605
S':'
asbag56
(g77
g58
NtRp1606
(dp1607
g61
(dp1608
sg70
g1593
sg63
(lp1609
g56
(g57
g58
NtRp1610
(dp1611
g61
(dp1612
g69
I4
ssg70
g1606
sg63
(lp1613
S'HTTP/1.1'
p1614
asbasbasbag56
(g72
g58
NtRp1615
(dp1616
g61
(dp1617
sg70
g1019
sg63
(lp1618
g56
(g77
g58
NtRp1619
(dp1620
g61
(dp1621
g81
g82
ssg70
g1615
sg63
(lp1622
S'server_software'
p1623
asbag56
(g77
g58
NtRp1624
(dp1625
g61
(dp1626
g88
g89
ssg70
g1615
sg63
(lp1627
S':'
asbag56
(g77
g58
NtRp1628
(dp1629
g61
(dp1630
sg70
g1615
sg63
(lp1631
g56
(g57
g58
NtRp1632
(dp1633
g61
(dp1634
g69
I4
ssg70
g1628
sg63
(lp1635
S'Rocket 1.2.2'
p1636
asbasbasbag56
(g72
g58
NtRp1637
(dp1638
g61
(dp1639
sg70
g1019
sg63
(lp1640
g56
(g77
g58
NtRp1641
(dp1642
g61
(dp1643
g81
g82
ssg70
g1637
sg63
(lp1644
S'web2py_crontype'
p1645
asbag56
(g77
g58
NtRp1646
(dp1647
g61
(dp1648
g88
g89
ssg70
g1637
sg63
(lp1649
S':'
asbag56
(g77
g58
NtRp1650
(dp1651
g61
(dp1652
sg70
g1637
sg63
(lp1653
g56
(g57
g58
NtRp1654
(dp1655
g61
(dp1656
g69
I4
ssg70
g1650
sg63
(lp1657
S'hard'
p1658
asbasbasbag56
(g72
g58
NtRp1659
(dp1660
g61
(dp1661
sg70
g1019
sg63
(lp1662
g56
(g77
g58
NtRp1663
(dp1664
g61
(dp1665
g81
g82
ssg70
g1659
sg63
(lp1666
S'web2py_path'
p1667
asbag56
(g77
g58
NtRp1668
(dp1669
g61
(dp1670
g88
g89
ssg70
g1659
sg63
(lp1671
S':'
asbag56
(g77
g58
NtRp1672
(dp1673
g61
(dp1674
sg70
g1659
sg63
(lp1675
g56
(g57
g58
NtRp1676
(dp1677
g61
(dp1678
g69
I4
ssg70
g1672
sg63
(lp1679
g1066
asbasbasbag56
(g72
g58
NtRp1680
(dp1681
g61
(dp1682
sg70
g1019
sg63
(lp1683
g56
(g77
g58
NtRp1684
(dp1685
g61
(dp1686
g81
g82
ssg70
g1680
sg63
(lp1687
S'web2py_version'
p1688
asbag56
(g77
g58
NtRp1689
(dp1690
g61
(dp1691
g88
g89
ssg70
g1680
sg63
(lp1692
S':'
asbag56
(g77
g58
NtRp1693
(dp1694
g61
(dp1695
sg70
g1680
sg63
(lp1696
g56
(g57
g58
NtRp1697
(dp1698
g61
(dp1699
g69
I4
ssg70
g1693
sg63
(lp1700
S'Version 1.98.2 (2011-08-04 00:47:09)\n'
p1701
asbasbasbag56
(g72
g58
NtRp1702
(dp1703
g61
(dp1704
sg70
g1019
sg63
(lp1705
g56
(g77
g58
NtRp1706
(dp1707
g61
(dp1708
g81
g82
ssg70
g1702
sg63
(lp1709
S'wsgi_errors'
p1710
asbag56
(g77
g58
NtRp1711
(dp1712
g61
(dp1713
g88
g89
ssg70
g1702
sg63
(lp1714
S':'
asbag56
(g77
g58
NtRp1715
(dp1716
g61
(dp1717
sg70
g1702
sg63
(lp1718
g56
(g57
g58
NtRp1719
(dp1720
g61
(dp1721
g69
I4
ssg70
g1715
sg63
(lp1722
S"<open file '<stderr>', mode 'w' at 0x100287270>"
p1723
asbasbasbag56
(g72
g58
NtRp1724
(dp1725
g61
(dp1726
sg70
g1019
sg63
(lp1727
g56
(g77
g58
NtRp1728
(dp1729
g61
(dp1730
g81
g82
ssg70
g1724
sg63
(lp1731
S'wsgi_file_wrapper'
p1732
asbag56
(g77
g58
NtRp1733
(dp1734
g61
(dp1735
g88
g89
ssg70
g1724
sg63
(lp1736
S':'
asbag56
(g77
g58
NtRp1737
(dp1738
g61
(dp1739
sg70
g1724
sg63
(lp1740
g56
(g57
g58
NtRp1741
(dp1742
g61
(dp1743
g69
I4
ssg70
g1737
sg63
(lp1744
S'<class gluon.rocket.FileWrapper at 0x101668e20>'
p1745
asbasbasbag56
(g72
g58
NtRp1746
(dp1747
g61
(dp1748
sg70
g1019
sg63
(lp1749
g56
(g77
g58
NtRp1750
(dp1751
g61
(dp1752
g81
g82
ssg70
g1746
sg63
(lp1753
S'wsgi_input'
p1754
asbag56
(g77
g58
NtRp1755
(dp1756
g61
(dp1757
g88
g89
ssg70
g1746
sg63
(lp1758
S':'
asbag56
(g77
g58
NtRp1759
(dp1760
g61
(dp1761
sg70
g1746
sg63
(lp1762
g56
(g57
g58
NtRp1763
(dp1764
g61
(dp1765
g69
I4
ssg70
g1759
sg63
(lp1766
S'<socket._fileobject object at 0x1026bacd0>'
p1767
asbasbasbag56
(g72
g58
NtRp1768
(dp1769
g61
(dp1770
sg70
g1019
sg63
(lp1771
g56
(g77
g58
NtRp1772
(dp1773
g61
(dp1774
g81
g82
ssg70
g1768
sg63
(lp1775
S'wsgi_multiprocess'
p1776
asbag56
(g77
g58
NtRp1777
(dp1778
g61
(dp1779
g88
g89
ssg70
g1768
sg63
(lp1780
S':'
asbag56
(g77
g58
NtRp1781
(dp1782
g61
(dp1783
sg70
g1768
sg63
(lp1784
g56
(g57
g58
NtRp1785
(dp1786
g61
(dp1787
g69
I4
ssg70
g1781
sg63
(lp1788
g99
asbasbasbag56
(g72
g58
NtRp1789
(dp1790
g61
(dp1791
sg70
g1019
sg63
(lp1792
g56
(g77
g58
NtRp1793
(dp1794
g61
(dp1795
g81
g82
ssg70
g1789
sg63
(lp1796
S'wsgi_multithread'
p1797
asbag56
(g77
g58
NtRp1798
(dp1799
g61
(dp1800
g88
g89
ssg70
g1789
sg63
(lp1801
S':'
asbag56
(g77
g58
NtRp1802
(dp1803
g61
(dp1804
sg70
g1789
sg63
(lp1805
g56
(g57
g58
NtRp1806
(dp1807
g61
(dp1808
g69
I4
ssg70
g1802
sg63
(lp1809
S'True'
p1810
asbasbasbag56
(g72
g58
NtRp1811
(dp1812
g61
(dp1813
sg70
g1019
sg63
(lp1814
g56
(g77
g58
NtRp1815
(dp1816
g61
(dp1817
g81
g82
ssg70
g1811
sg63
(lp1818
S'wsgi_run_once'
p1819
asbag56
(g77
g58
NtRp1820
(dp1821
g61
(dp1822
g88
g89
ssg70
g1811
sg63
(lp1823
S':'
asbag56
(g77
g58
NtRp1824
(dp1825
g61
(dp1826
sg70
g1811
sg63
(lp1827
g56
(g57
g58
NtRp1828
(dp1829
g61
(dp1830
g69
I4
ssg70
g1824
sg63
(lp1831
g99
asbasbasbag56
(g72
g58
NtRp1832
(dp1833
g61
(dp1834
sg70
g1019
sg63
(lp1835
g56
(g77
g58
NtRp1836
(dp1837
g61
(dp1838
g81
g82
ssg70
g1832
sg63
(lp1839
S'wsgi_url_scheme'
p1840
asbag56
(g77
g58
NtRp1841
(dp1842
g61
(dp1843
g88
g89
ssg70
g1832
sg63
(lp1844
S':'
asbag56
(g77
g58
NtRp1845
(dp1846
g61
(dp1847
sg70
g1832
sg63
(lp1848
g56
(g57
g58
NtRp1849
(dp1850
g61
(dp1851
g69
I4
ssg70
g1845
sg63
(lp1852
S'http'
p1853
asbasbasbag56
(g72
g58
NtRp1854
(dp1855
g61
(dp1856
sg70
g1019
sg63
(lp1857
g56
(g77
g58
NtRp1858
(dp1859
g61
(dp1860
g81
g82
ssg70
g1854
sg63
(lp1861
S'wsgi_version'
p1862
asbag56
(g77
g58
NtRp1863
(dp1864
g61
(dp1865
g88
g89
ssg70
g1854
sg63
(lp1866
S':'
asbag56
(g77
g58
NtRp1867
(dp1868
g61
(dp1869
sg70
g1854
sg63
(lp1870
g56
(g57
g58
NtRp1871
(dp1872
g61
(dp1873
g69
I4
ssg70
g1867
sg63
(lp1874
g56
(g65
g58
NtRp1875
(dp1876
g61
(dp1877
g69
I3
ssg70
Nsg63
(lp1878
g56
(g72
g58
NtRp1879
(dp1880
g61
(dp1881
sg70
g1875
sg63
(lp1882
g56
(g77
g58
NtRp1883
(dp1884
g61
(dp1885
sg70
g1879
sg63
(lp1886
g56
(g57
g58
NtRp1887
(dp1888
g61
(dp1889
g69
I3
ssg70
g1883
sg63
(lp1890
S'1'
asbasbasbag56
(g72
g58
NtRp1891
(dp1892
g61
(dp1893
sg70
g1875
sg63
(lp1894
g56
(g77
g58
NtRp1895
(dp1896
g61
(dp1897
sg70
g1891
sg63
(lp1898
g56
(g57
g58
NtRp1899
(dp1900
g61
(dp1901
g69
I3
ssg70
g1895
sg63
(lp1902
S'0'
asbasbasbasbasbasbasbasbasbasbasbag56
(g72
g58
NtRp1903
(dp1904
g61
(dp1905
sg70
g66
sg63
(lp1906
g56
(g77
g58
NtRp1907
(dp1908
g61
(dp1909
g81
g82
ssg70
g1903
sg63
(lp1910
S'extension'
p1911
asbag56
(g77
g58
NtRp1912
(dp1913
g61
(dp1914
g88
g89
ssg70
g1903
sg63
(lp1915
S':'
asbag56
(g77
g58
NtRp1916
(dp1917
g61
(dp1918
sg70
g1903
sg63
(lp1919
g56
(g57
g58
NtRp1920
(dp1921
g61
(dp1922
g69
I5
ssg70
g1916
sg63
(lp1923
S'html'
p1924
asbasbasbag56
(g72
g58
NtRp1925
(dp1926
g61
(dp1927
sg70
g66
sg63
(lp1928
g56
(g77
g58
NtRp1929
(dp1930
g61
(dp1931
g81
g82
ssg70
g1925
sg63
(lp1932
S'folder'
p1933
asbag56
(g77
g58
NtRp1934
(dp1935
g61
(dp1936
g88
g89
ssg70
g1925
sg63
(lp1937
S':'
asbag56
(g77
g58
NtRp1938
(dp1939
g61
(dp1940
sg70
g1925
sg63
(lp1941
g56
(g57
g58
NtRp1942
(dp1943
g61
(dp1944
g69
I5
ssg70
g1938
sg63
(lp1945
S'/Users/hellais/Documents/code/mygit/globaleaks/webapp/applications/init/'
p1946
asbasbasbag56
(g72
g58
NtRp1947
(dp1948
g61
(dp1949
sg70
g66
sg63
(lp1950
g56
(g77
g58
NtRp1951
(dp1952
g61
(dp1953
g81
g82
ssg70
g1947
sg63
(lp1954
S'function'
p1955
asbag56
(g77
g58
NtRp1956
(dp1957
g61
(dp1958
g88
g89
ssg70
g1947
sg63
(lp1959
S':'
asbag56
(g77
g58
NtRp1960
(dp1961
g61
(dp1962
sg70
g1947
sg63
(lp1963
g56
(g57
g58
NtRp1964
(dp1965
g61
(dp1966
g69
I5
ssg70
g1960
sg63
(lp1967
S'tulip'
p1968
asbasbasbag56
(g72
g58
NtRp1969
(dp1970
g61
(dp1971
sg70
g66
sg63
(lp1972
g56
(g77
g58
NtRp1973
(dp1974
g61
(dp1975
g81
g82
ssg70
g1969
sg63
(lp1976
S'get_vars'
p1977
asbag56
(g77
g58
NtRp1978
(dp1979
g61
(dp1980
g88
g89
ssg70
g1969
sg63
(lp1981
S':'
asbag56
(g77
g58
NtRp1982
(dp1983
g61
(dp1984
sg70
g1969
sg63
(lp1985
g56
(g57
g58
NtRp1986
(dp1987
g61
(dp1988
g69
I5
ssg70
g1982
sg63
(lp1989
g56
(g65
g58
NtRp1990
(dp1991
g61
(dp1992
g69
I4
ssg70
Nsg63
(lp1993
sbasbasbasbag56
(g72
g58
NtRp1994
(dp1995
g61
(dp1996
sg70
g66
sg63
(lp1997
g56
(g77
g58
NtRp1998
(dp1999
g61
(dp2000
g81
g82
ssg70
g1994
sg63
(lp2001
S'is_https'
p2002
asbag56
(g77
g58
NtRp2003
(dp2004
g61
(dp2005
g88
g89
ssg70
g1994
sg63
(lp2006
S':'
asbag56
(g77
g58
NtRp2007
(dp2008
g61
(dp2009
sg70
g1994
sg63
(lp2010
g56
(g57
g58
NtRp2011
(dp2012
g61
(dp2013
g69
I5
ssg70
g2007
sg63
(lp2014
g99
asbasbasbag56
(g72
g58
NtRp2015
(dp2016
g61
(dp2017
sg70
g66
sg63
(lp2018
g56
(g77
g58
NtRp2019
(dp2020
g61
(dp2021
g81
g82
ssg70
g2015
sg63
(lp2022
S'is_local'
p2023
asbag56
(g77
g58
NtRp2024
(dp2025
g61
(dp2026
g88
g89
ssg70
g2015
sg63
(lp2027
S':'
asbag56
(g77
g58
NtRp2028
(dp2029
g61
(dp2030
sg70
g2015
sg63
(lp2031
g56
(g57
g58
NtRp2032
(dp2033
g61
(dp2034
g69
I5
ssg70
g2028
sg63
(lp2035
g1810
asbasbasbag56
(g72
g58
NtRp2036
(dp2037
g61
(dp2038
sg70
g66
sg63
(lp2039
g56
(g77
g58
NtRp2040
(dp2041
g61
(dp2042
g81
g82
ssg70
g2036
sg63
(lp2043
S'is_restful'
p2044
asbag56
(g77
g58
NtRp2045
(dp2046
g61
(dp2047
g88
g89
ssg70
g2036
sg63
(lp2048
S':'
asbag56
(g77
g58
NtRp2049
(dp2050
g61
(dp2051
sg70
g2036
sg63
(lp2052
g56
(g57
g58
NtRp2053
(dp2054
g61
(dp2055
g69
I5
ssg70
g2049
sg63
(lp2056
g99
asbasbasbag56
(g72
g58
NtRp2057
(dp2058
g61
(dp2059
sg70
g66
sg63
(lp2060
g56
(g77
g58
NtRp2061
(dp2062
g61
(dp2063
g81
g82
ssg70
g2057
sg63
(lp2064
S'now'
p2065
asbag56
(g77
g58
NtRp2066
(dp2067
g61
(dp2068
g88
g89
ssg70
g2057
sg63
(lp2069
S':'
asbag56
(g77
g58
NtRp2070
(dp2071
g61
(dp2072
sg70
g2057
sg63
(lp2073
g56
(g57
g58
NtRp2074
(dp2075
g61
(dp2076
g69
I5
ssg70
g2070
sg63
(lp2077
S'datetime.datetime(2011, 8, 28, 1, 48, 58, 92929)'
p2078
asbasbasbag56
(g72
g58
NtRp2079
(dp2080
g61
(dp2081
sg70
g66
sg63
(lp2082
g56
(g77
g58
NtRp2083
(dp2084
g61
(dp2085
g81
g82
ssg70
g2079
sg63
(lp2086
S'post_vars'
p2087
asbag56
(g77
g58
NtRp2088
(dp2089
g61
(dp2090
g88
g89
ssg70
g2079
sg63
(lp2091
S':'
asbag56
(g77
g58
NtRp2092
(dp2093
g61
(dp2094
sg70
g2079
sg63
(lp2095
g56
(g57
g58
NtRp2096
(dp2097
g61
(dp2098
g69
I5
ssg70
g2092
sg63
(lp2099
g56
(g65
g58
NtRp2100
(dp2101
g61
(dp2102
g69
I4
ssg70
Nsg63
(lp2103
sbasbasbasbag56
(g72
g58
NtRp2104
(dp2105
g61
(dp2106
sg70
g66
sg63
(lp2107
g56
(g77
g58
NtRp2108
(dp2109
g61
(dp2110
g81
g82
ssg70
g2104
sg63
(lp2111
S'raw_args'
p2112
asbag56
(g77
g58
NtRp2113
(dp2114
g61
(dp2115
g88
g89
ssg70
g2104
sg63
(lp2116
S':'
asbag56
(g77
g58
NtRp2117
(dp2118
g61
(dp2119
sg70
g2104
sg63
(lp2120
g56
(g57
g58
NtRp2121
(dp2122
g61
(dp2123
g69
I5
ssg70
g2117
sg63
(lp2124
g158
asbasbasbag56
(g72
g58
NtRp2125
(dp2126
g61
(dp2127
sg70
g66
sg63
(lp2128
g56
(g77
g58
NtRp2129
(dp2130
g61
(dp2131
g81
g82
ssg70
g2125
sg63
(lp2132
S'url'
p2133
asbag56
(g77
g58
NtRp2134
(dp2135
g61
(dp2136
g88
g89
ssg70
g2125
sg63
(lp2137
S':'
asbag56
(g77
g58
NtRp2138
(dp2139
g61
(dp2140
sg70
g2125
sg63
(lp2141
g56
(g57
g58
NtRp2142
(dp2143
g61
(dp2144
g69
I5
ssg70
g2138
sg63
(lp2145
S'/init/default/tulip/0f05e204af4d1ffabf462df37c8c606a3240f45a2e2fcb3bef41ea5b823b55d0'
p2146
asbasbasbag56
(g72
g58
NtRp2147
(dp2148
g61
(dp2149
sg70
g66
sg63
(lp2150
g56
(g77
g58
NtRp2151
(dp2152
g61
(dp2153
g81
g82
ssg70
g2147
sg63
(lp2154
S'uuid'
p2155
asbag56
(g77
g58
NtRp2156
(dp2157
g61
(dp2158
g88
g89
ssg70
g2147
sg63
(lp2159
S':'
asbag56
(g77
g58
NtRp2160
(dp2161
g61
(dp2162
sg70
g2147
sg63
(lp2163
g56
(g57
g58
NtRp2164
(dp2165
g61
(dp2166
g69
I5
ssg70
g2160
sg63
(lp2167
S'init/127.0.0.1.2011-08-28.01-48-58.c4ff4df7-602a-4d7e-8ddc-637cbad0a742'
p2168
asbasbasbag56
(g72
g58
NtRp2169
(dp2170
g61
(dp2171
sg70
g66
sg63
(lp2172
g56
(g77
g58
NtRp2173
(dp2174
g61
(dp2175
g81
g82
ssg70
g2169
sg63
(lp2176
S'vars'
p2177
asbag56
(g77
g58
NtRp2178
(dp2179
g61
(dp2180
g88
g89
ssg70
g2169
sg63
(lp2181
S':'
asbag56
(g77
g58
NtRp2182
(dp2183
g61
(dp2184
sg70
g2169
sg63
(lp2185
g56
(g57
g58
NtRp2186
(dp2187
g61
(dp2188
g69
I5
ssg70
g2182
sg63
(lp2189
g56
(g65
g58
NtRp2190
(dp2191
g61
(dp2192
g69
I4
ssg70
Nsg63
(lp2193
sbasbasbasbag56
(g72
g58
NtRp2194
(dp2195
g61
(dp2196
sg70
g66
sg63
(lp2197
g56
(g77
g58
NtRp2198
(dp2199
g61
(dp2200
g81
g82
ssg70
g2194
sg63
(lp2201
S'wsgi'
p2202
asbag56
(g77
g58
NtRp2203
(dp2204
g61
(dp2205
g88
g89
ssg70
g2194
sg63
(lp2206
S':'
asbag56
(g77
g58
NtRp2207
(dp2208
g61
(dp2209
sg70
g2194
sg63
(lp2210
g56
(g57
g58
NtRp2211
(dp2212
g61
(dp2213
g69
I5
ssg70
g2207
sg63
(lp2214
g56
(g65
g58
NtRp2215
(dp2216
g61
(dp2217
g69
I4
ssg70
Nsg63
(lp2218
g56
(g72
g58
NtRp2219
(dp2220
g61
(dp2221
sg70
g2215
sg63
(lp2222
g56
(g77
g58
NtRp2223
(dp2224
g61
(dp2225
g81
g82
ssg70
g2219
sg63
(lp2226
S'environ'
p2227
asbag56
(g77
g58
NtRp2228
(dp2229
g61
(dp2230
g88
g89
ssg70
g2219
sg63
(lp2231
S':'
asbag56
(g77
g58
NtRp2232
(dp2233
g61
(dp2234
sg70
g2219
sg63
(lp2235
g56
(g57
g58
NtRp2236
(dp2237
g61
(dp2238
g69
I4
ssg70
g2232
sg63
(lp2239
g56
(g65
g58
NtRp2240
(dp2241
g61
(dp2242
g69
I3
ssg70
Nsg63
(lp2243
g56
(g72
g58
NtRp2244
(dp2245
g61
(dp2246
sg70
g2240
sg63
(lp2247
g56
(g77
g58
NtRp2248
(dp2249
g61
(dp2250
g81
g82
ssg70
g2244
sg63
(lp2251
S'HTTP_ACCEPT'
p2252
asbag56
(g77
g58
NtRp2253
(dp2254
g61
(dp2255
g88
g89
ssg70
g2244
sg63
(lp2256
S':'
asbag56
(g77
g58
NtRp2257
(dp2258
g61
(dp2259
sg70
g2244
sg63
(lp2260
g56
(g57
g58
NtRp2261
(dp2262
g61
(dp2263
g69
I3
ssg70
g2257
sg63
(lp2264
g1200
asbasbasbag56
(g72
g58
NtRp2265
(dp2266
g61
(dp2267
sg70
g2240
sg63
(lp2268
g56
(g77
g58
NtRp2269
(dp2270
g61
(dp2271
g81
g82
ssg70
g2265
sg63
(lp2272
S'HTTP_ACCEPT_CHARSET'
p2273
asbag56
(g77
g58
NtRp2274
(dp2275
g61
(dp2276
g88
g89
ssg70
g2265
sg63
(lp2277
S':'
asbag56
(g77
g58
NtRp2278
(dp2279
g61
(dp2280
sg70
g2265
sg63
(lp2281
g56
(g57
g58
NtRp2282
(dp2283
g61
(dp2284
g69
I3
ssg70
g2278
sg63
(lp2285
g1222
asbasbasbag56
(g72
g58
NtRp2286
(dp2287
g61
(dp2288
sg70
g2240
sg63
(lp2289
g56
(g77
g58
NtRp2290
(dp2291
g61
(dp2292
g81
g82
ssg70
g2286
sg63
(lp2293
S'HTTP_ACCEPT_ENCODING'
p2294
asbag56
(g77
g58
NtRp2295
(dp2296
g61
(dp2297
g88
g89
ssg70
g2286
sg63
(lp2298
S':'
asbag56
(g77
g58
NtRp2299
(dp2300
g61
(dp2301
sg70
g2286
sg63
(lp2302
g56
(g57
g58
NtRp2303
(dp2304
g61
(dp2305
g69
I3
ssg70
g2299
sg63
(lp2306
g1244
asbasbasbag56
(g72
g58
NtRp2307
(dp2308
g61
(dp2309
sg70
g2240
sg63
(lp2310
g56
(g77
g58
NtRp2311
(dp2312
g61
(dp2313
g81
g82
ssg70
g2307
sg63
(lp2314
S'HTTP_ACCEPT_LANGUAGE'
p2315
asbag56
(g77
g58
NtRp2316
(dp2317
g61
(dp2318
g88
g89
ssg70
g2307
sg63
(lp2319
S':'
asbag56
(g77
g58
NtRp2320
(dp2321
g61
(dp2322
sg70
g2307
sg63
(lp2323
g56
(g57
g58
NtRp2324
(dp2325
g61
(dp2326
g69
I3
ssg70
g2320
sg63
(lp2327
g1266
asbasbasbag56
(g72
g58
NtRp2328
(dp2329
g61
(dp2330
sg70
g2240
sg63
(lp2331
g56
(g77
g58
NtRp2332
(dp2333
g61
(dp2334
g81
g82
ssg70
g2328
sg63
(lp2335
S'HTTP_CACHE_CONTROL'
p2336
asbag56
(g77
g58
NtRp2337
(dp2338
g61
(dp2339
g88
g89
ssg70
g2328
sg63
(lp2340
S':'
asbag56
(g77
g58
NtRp2341
(dp2342
g61
(dp2343
sg70
g2328
sg63
(lp2344
g56
(g57
g58
NtRp2345
(dp2346
g61
(dp2347
g69
I3
ssg70
g2341
sg63
(lp2348
g1288
asbasbasbag56
(g72
g58
NtRp2349
(dp2350
g61
(dp2351
sg70
g2240
sg63
(lp2352
g56
(g77
g58
NtRp2353
(dp2354
g61
(dp2355
g81
g82
ssg70
g2349
sg63
(lp2356
S'HTTP_CONNECTION'
p2357
asbag56
(g77
g58
NtRp2358
(dp2359
g61
(dp2360
g88
g89
ssg70
g2349
sg63
(lp2361
S':'
asbag56
(g77
g58
NtRp2362
(dp2363
g61
(dp2364
sg70
g2349
sg63
(lp2365
g56
(g57
g58
NtRp2366
(dp2367
g61
(dp2368
g69
I3
ssg70
g2362
sg63
(lp2369
g1310
asbasbasbag56
(g72
g58
NtRp2370
(dp2371
g61
(dp2372
sg70
g2240
sg63
(lp2373
g56
(g77
g58
NtRp2374
(dp2375
g61
(dp2376
g81
g82
ssg70
g2370
sg63
(lp2377
S'HTTP_COOKIE'
p2378
asbag56
(g77
g58
NtRp2379
(dp2380
g61
(dp2381
g88
g89
ssg70
g2370
sg63
(lp2382
S':'
asbag56
(g77
g58
NtRp2383
(dp2384
g61
(dp2385
sg70
g2370
sg63
(lp2386
g56
(g57
g58
NtRp2387
(dp2388
g61
(dp2389
g69
I3
ssg70
g2383
sg63
(lp2390
g1332
asbasbasbag56
(g72
g58
NtRp2391
(dp2392
g61
(dp2393
sg70
g2240
sg63
(lp2394
g56
(g77
g58
NtRp2395
(dp2396
g61
(dp2397
g81
g82
ssg70
g2391
sg63
(lp2398
S'HTTP_HOST'
p2399
asbag56
(g77
g58
NtRp2400
(dp2401
g61
(dp2402
g88
g89
ssg70
g2391
sg63
(lp2403
S':'
asbag56
(g77
g58
NtRp2404
(dp2405
g61
(dp2406
sg70
g2391
sg63
(lp2407
g56
(g57
g58
NtRp2408
(dp2409
g61
(dp2410
g69
I3
ssg70
g2404
sg63
(lp2411
g1354
asbasbasbag56
(g72
g58
NtRp2412
(dp2413
g61
(dp2414
sg70
g2240
sg63
(lp2415
g56
(g77
g58
NtRp2416
(dp2417
g61
(dp2418
g81
g82
ssg70
g2412
sg63
(lp2419
S'HTTP_REFERER'
p2420
asbag56
(g77
g58
NtRp2421
(dp2422
g61
(dp2423
g88
g89
ssg70
g2412
sg63
(lp2424
S':'
asbag56
(g77
g58
NtRp2425
(dp2426
g61
(dp2427
sg70
g2412
sg63
(lp2428
g56
(g57
g58
NtRp2429
(dp2430
g61
(dp2431
g69
I3
ssg70
g2425
sg63
(lp2432
g1376
asbasbasbag56
(g72
g58
NtRp2433
(dp2434
g61
(dp2435
sg70
g2240
sg63
(lp2436
g56
(g77
g58
NtRp2437
(dp2438
g61
(dp2439
g81
g82
ssg70
g2433
sg63
(lp2440
S'HTTP_USER_AGENT'
p2441
asbag56
(g77
g58
NtRp2442
(dp2443
g61
(dp2444
g88
g89
ssg70
g2433
sg63
(lp2445
S':'
asbag56
(g77
g58
NtRp2446
(dp2447
g61
(dp2448
sg70
g2433
sg63
(lp2449
g56
(g57
g58
NtRp2450
(dp2451
g61
(dp2452
g69
I3
ssg70
g2446
sg63
(lp2453
g1398
asbasbasbag56
(g72
g58
NtRp2454
(dp2455
g61
(dp2456
sg70
g2240
sg63
(lp2457
g56
(g77
g58
NtRp2458
(dp2459
g61
(dp2460
g81
g82
ssg70
g2454
sg63
(lp2461
S'PATH_INFO'
p2462
asbag56
(g77
g58
NtRp2463
(dp2464
g61
(dp2465
g88
g89
ssg70
g2454
sg63
(lp2466
S':'
asbag56
(g77
g58
NtRp2467
(dp2468
g61
(dp2469
sg70
g2454
sg63
(lp2470
g56
(g57
g58
NtRp2471
(dp2472
g61
(dp2473
g69
I3
ssg70
g2467
sg63
(lp2474
g1441
asbasbasbag56
(g72
g58
NtRp2475
(dp2476
g61
(dp2477
sg70
g2240
sg63
(lp2478
g56
(g77
g58
NtRp2479
(dp2480
g61
(dp2481
g81
g82
ssg70
g2475
sg63
(lp2482
S'QUERY_STRING'
p2483
asbag56
(g77
g58
NtRp2484
(dp2485
g61
(dp2486
g88
g89
ssg70
g2475
sg63
(lp2487
S':'
asbag56
(g77
g58
NtRp2488
(dp2489
g61
(dp2490
sg70
g2475
sg63
(lp2491
g56
(g57
g58
NtRp2492
(dp2493
g61
(dp2494
g69
I3
ssg70
g2488
sg63
(lp2495
S''
asbasbasbag56
(g72
g58
NtRp2496
(dp2497
g61
(dp2498
sg70
g2240
sg63
(lp2499
g56
(g77
g58
NtRp2500
(dp2501
g61
(dp2502
g81
g82
ssg70
g2496
sg63
(lp2503
S'REMOTE_ADDR'
p2504
asbag56
(g77
g58
NtRp2505
(dp2506
g61
(dp2507
g88
g89
ssg70
g2496
sg63
(lp2508
S':'
asbag56
(g77
g58
NtRp2509
(dp2510
g61
(dp2511
sg70
g2496
sg63
(lp2512
g56
(g57
g58
NtRp2513
(dp2514
g61
(dp2515
g69
I3
ssg70
g2509
sg63
(lp2516
g202
asbasbasbag56
(g72
g58
NtRp2517
(dp2518
g61
(dp2519
sg70
g2240
sg63
(lp2520
g56
(g77
g58
NtRp2521
(dp2522
g61
(dp2523
g81
g82
ssg70
g2517
sg63
(lp2524
S'REMOTE_PORT'
p2525
asbag56
(g77
g58
NtRp2526
(dp2527
g61
(dp2528
g88
g89
ssg70
g2517
sg63
(lp2529
S':'
asbag56
(g77
g58
NtRp2530
(dp2531
g61
(dp2532
sg70
g2517
sg63
(lp2533
g56
(g57
g58
NtRp2534
(dp2535
g61
(dp2536
g69
I3
ssg70
g2530
sg63
(lp2537
g1505
asbasbasbag56
(g72
g58
NtRp2538
(dp2539
g61
(dp2540
sg70
g2240
sg63
(lp2541
g56
(g77
g58
NtRp2542
(dp2543
g61
(dp2544
g81
g82
ssg70
g2538
sg63
(lp2545
S'REQUEST_METHOD'
p2546
asbag56
(g77
g58
NtRp2547
(dp2548
g61
(dp2549
g88
g89
ssg70
g2538
sg63
(lp2550
S':'
asbag56
(g77
g58
NtRp2551
(dp2552
g61
(dp2553
sg70
g2538
sg63
(lp2554
g56
(g57
g58
NtRp2555
(dp2556
g61
(dp2557
g69
I3
ssg70
g2551
sg63
(lp2558
g1527
asbasbasbag56
(g72
g58
NtRp2559
(dp2560
g61
(dp2561
sg70
g2240
sg63
(lp2562
g56
(g77
g58
NtRp2563
(dp2564
g61
(dp2565
g81
g82
ssg70
g2559
sg63
(lp2566
S'SCRIPT_NAME'
p2567
asbag56
(g77
g58
NtRp2568
(dp2569
g61
(dp2570
g88
g89
ssg70
g2559
sg63
(lp2571
S':'
asbag56
(g77
g58
NtRp2572
(dp2573
g61
(dp2574
sg70
g2559
sg63
(lp2575
g56
(g57
g58
NtRp2576
(dp2577
g61
(dp2578
g69
I3
ssg70
g2572
sg63
(lp2579
S''
asbasbasbag56
(g72
g58
NtRp2580
(dp2581
g61
(dp2582
sg70
g2240
sg63
(lp2583
g56
(g77
g58
NtRp2584
(dp2585
g61
(dp2586
g81
g82
ssg70
g2580
sg63
(lp2587
S'SERVER_NAME'
p2588
asbag56
(g77
g58
NtRp2589
(dp2590
g61
(dp2591
g88
g89
ssg70
g2580
sg63
(lp2592
S':'
asbag56
(g77
g58
NtRp2593
(dp2594
g61
(dp2595
sg70
g2580
sg63
(lp2596
g56
(g57
g58
NtRp2597
(dp2598
g61
(dp2599
g69
I3
ssg70
g2593
sg63
(lp2600
g1570
asbasbasbag56
(g72
g58
NtRp2601
(dp2602
g61
(dp2603
sg70
g2240
sg63
(lp2604
g56
(g77
g58
NtRp2605
(dp2606
g61
(dp2607
g81
g82
ssg70
g2601
sg63
(lp2608
S'SERVER_PORT'
p2609
asbag56
(g77
g58
NtRp2610
(dp2611
g61
(dp2612
g88
g89
ssg70
g2601
sg63
(lp2613
S':'
asbag56
(g77
g58
NtRp2614
(dp2615
g61
(dp2616
sg70
g2601
sg63
(lp2617
g56
(g57
g58
NtRp2618
(dp2619
g61
(dp2620
g69
I3
ssg70
g2614
sg63
(lp2621
g1592
asbasbasbag56
(g72
g58
NtRp2622
(dp2623
g61
(dp2624
sg70
g2240
sg63
(lp2625
g56
(g77
g58
NtRp2626
(dp2627
g61
(dp2628
g81
g82
ssg70
g2622
sg63
(lp2629
S'SERVER_PROTOCOL'
p2630
asbag56
(g77
g58
NtRp2631
(dp2632
g61
(dp2633
g88
g89
ssg70
g2622
sg63
(lp2634
S':'
asbag56
(g77
g58
NtRp2635
(dp2636
g61
(dp2637
sg70
g2622
sg63
(lp2638
g56
(g57
g58
NtRp2639
(dp2640
g61
(dp2641
g69
I3
ssg70
g2635
sg63
(lp2642
g1614
asbasbasbag56
(g72
g58
NtRp2643
(dp2644
g61
(dp2645
sg70
g2240
sg63
(lp2646
g56
(g77
g58
NtRp2647
(dp2648
g61
(dp2649
g81
g82
ssg70
g2643
sg63
(lp2650
S'SERVER_SOFTWARE'
p2651
asbag56
(g77
g58
NtRp2652
(dp2653
g61
(dp2654
g88
g89
ssg70
g2643
sg63
(lp2655
S':'
asbag56
(g77
g58
NtRp2656
(dp2657
g61
(dp2658
sg70
g2643
sg63
(lp2659
g56
(g57
g58
NtRp2660
(dp2661
g61
(dp2662
g69
I3
ssg70
g2656
sg63
(lp2663
g1636
asbasbasbag56
(g72
g58
NtRp2664
(dp2665
g61
(dp2666
sg70
g2240
sg63
(lp2667
g56
(g77
g58
NtRp2668
(dp2669
g61
(dp2670
g81
g82
ssg70
g2664
sg63
(lp2671
S'wsgi.errors'
p2672
asbag56
(g77
g58
NtRp2673
(dp2674
g61
(dp2675
g88
g89
ssg70
g2664
sg63
(lp2676
S':'
asbag56
(g77
g58
NtRp2677
(dp2678
g61
(dp2679
sg70
g2664
sg63
(lp2680
g56
(g57
g58
NtRp2681
(dp2682
g61
(dp2683
g69
I3
ssg70
g2677
sg63
(lp2684
S"<open file '<stderr>', mode 'w' at 0x100287270>"
p2685
asbasbasbag56
(g72
g58
NtRp2686
(dp2687
g61
(dp2688
sg70
g2240
sg63
(lp2689
g56
(g77
g58
NtRp2690
(dp2691
g61
(dp2692
g81
g82
ssg70
g2686
sg63
(lp2693
S'wsgi.file_wrapper'
p2694
asbag56
(g77
g58
NtRp2695
(dp2696
g61
(dp2697
g88
g89
ssg70
g2686
sg63
(lp2698
S':'
asbag56
(g77
g58
NtRp2699
(dp2700
g61
(dp2701
sg70
g2686
sg63
(lp2702
g56
(g57
g58
NtRp2703
(dp2704
g61
(dp2705
g69
I3
ssg70
g2699
sg63
(lp2706
S'<class gluon.rocket.FileWrapper at 0x101668e20>'
p2707
asbasbasbag56
(g72
g58
NtRp2708
(dp2709
g61
(dp2710
sg70
g2240
sg63
(lp2711
g56
(g77
g58
NtRp2712
(dp2713
g61
(dp2714
g81
g82
ssg70
g2708
sg63
(lp2715
S'wsgi.input'
p2716
asbag56
(g77
g58
NtRp2717
(dp2718
g61
(dp2719
g88
g89
ssg70
g2708
sg63
(lp2720
S':'
asbag56
(g77
g58
NtRp2721
(dp2722
g61
(dp2723
sg70
g2708
sg63
(lp2724
g56
(g57
g58
NtRp2725
(dp2726
g61
(dp2727
g69
I3
ssg70
g2721
sg63
(lp2728
S'<cStringIO.StringO object at 0x1019261f0>'
p2729
asbasbasbag56
(g72
g58
NtRp2730
(dp2731
g61
(dp2732
sg70
g2240
sg63
(lp2733
g56
(g77
g58
NtRp2734
(dp2735
g61
(dp2736
g81
g82
ssg70
g2730
sg63
(lp2737
S'wsgi.multiprocess'
p2738
asbag56
(g77
g58
NtRp2739
(dp2740
g61
(dp2741
g88
g89
ssg70
g2730
sg63
(lp2742
S':'
asbag56
(g77
g58
NtRp2743
(dp2744
g61
(dp2745
sg70
g2730
sg63
(lp2746
g56
(g57
g58
NtRp2747
(dp2748
g61
(dp2749
g69
I3
ssg70
g2743
sg63
(lp2750
g99
asbasbasbag56
(g72
g58
NtRp2751
(dp2752
g61
(dp2753
sg70
g2240
sg63
(lp2754
g56
(g77
g58
NtRp2755
(dp2756
g61
(dp2757
g81
g82
ssg70
g2751
sg63
(lp2758
S'wsgi.multithread'
p2759
asbag56
(g77
g58
NtRp2760
(dp2761
g61
(dp2762
g88
g89
ssg70
g2751
sg63
(lp2763
S':'
asbag56
(g77
g58
NtRp2764
(dp2765
g61
(dp2766
sg70
g2751
sg63
(lp2767
g56
(g57
g58
NtRp2768
(dp2769
g61
(dp2770
g69
I3
ssg70
g2764
sg63
(lp2771
g1810
asbasbasbag56
(g72
g58
NtRp2772
(dp2773
g61
(dp2774
sg70
g2240
sg63
(lp2775
g56
(g77
g58
NtRp2776
(dp2777
g61
(dp2778
g81
g82
ssg70
g2772
sg63
(lp2779
S'wsgi.run_once'
p2780
asbag56
(g77
g58
NtRp2781
(dp2782
g61
(dp2783
g88
g89
ssg70
g2772
sg63
(lp2784
S':'
asbag56
(g77
g58
NtRp2785
(dp2786
g61
(dp2787
sg70
g2772
sg63
(lp2788
g56
(g57
g58
NtRp2789
(dp2790
g61
(dp2791
g69
I3
ssg70
g2785
sg63
(lp2792
g99
asbasbasbag56
(g72
g58
NtRp2793
(dp2794
g61
(dp2795
sg70
g2240
sg63
(lp2796
g56
(g77
g58
NtRp2797
(dp2798
g61
(dp2799
g81
g82
ssg70
g2793
sg63
(lp2800
S'wsgi.url_scheme'
p2801
asbag56
(g77
g58
NtRp2802
(dp2803
g61
(dp2804
g88
g89
ssg70
g2793
sg63
(lp2805
S':'
asbag56
(g77
g58
NtRp2806
(dp2807
g61
(dp2808
sg70
g2793
sg63
(lp2809
g56
(g57
g58
NtRp2810
(dp2811
g61
(dp2812
g69
I3
ssg70
g2806
sg63
(lp2813
g1853
asbasbasbag56
(g72
g58
NtRp2814
(dp2815
g61
(dp2816
sg70
g2240
sg63
(lp2817
g56
(g77
g58
NtRp2818
(dp2819
g61
(dp2820
g81
g82
ssg70
g2814
sg63
(lp2821
S'wsgi.version'
p2822
asbag56
(g77
g58
NtRp2823
(dp2824
g61
(dp2825
g88
g89
ssg70
g2814
sg63
(lp2826
S':'
asbag56
(g77
g58
NtRp2827
(dp2828
g61
(dp2829
sg70
g2814
sg63
(lp2830
g56
(g57
g58
NtRp2831
(dp2832
g61
(dp2833
g69
I3
ssg70
g2827
sg63
(lp2834
S'1'
asbasbasbasbasbasbasbasbasbasbasbasbasbsS'frames'
p2835
(lp2836
(dp2837
S'file'
p2838
S'/opt/local/Library/Frameworks/Python.framework/Versions/2.7/lib/python2.7/gluon/restricted.py'
p2839
sS'dump'
p2840
(dp2841
S'environment'
p2842
S"{'A': <class 'gluon.html.A'>, 'Auth': <class 'gluon.tools.Auth'>, 'B': <class 'gluon.html.B'>, 'BEAUTIFY': <class 'gluon.html.BEAUTIFY'>, 'BODY': <class 'gluon.html.BODY'>, 'BR': <class 'gluon.html.BR'>, 'BUTTON': <class 'gluon.html.BUTTON'>, 'CAT': <class 'gluon.html.CAT'>, 'CENTER': <class 'gluon.html.CENTER'>, 'CLEANUP': <class 'gluon.validators.CLEANUP'>, ...}"
p2843
sS'ccode'
p2844
S'<code object <module> at 0x1021839b0, file "/Use...pplications/init/controllers/default.py", line 3>'
p2845
ssS'lnum'
p2846
I192
sS'lines'
p2847
(dp2848
I192
S'        exec ccode in environment'
p2849
sI193
S'    except HTTP:'
p2850
sI194
S'        raise'
p2851
sI195
S'    except Exception, error:'
p2852
sI196
S'        # XXX Show exception in Wing IDE if running in debugger'
p2853
sI187
S'    try:'
p2854
sI188
S'        if type(code) == types.CodeType:'
p2855
sI189
S'            ccode = code'
p2856
sI190
S'        else:'
p2857
sI191
S'            ccode = compile2(code,layer)'
p2858
ssS'call'
p2859
S"(code='# -*- coding: utf-8 -*-\\n### required - do no del...n dict()\\n\\nresponse._vars=response._caller(tulip)\\n', environment={'A': <class 'gluon.html.A'>, 'Auth': <class 'gluon.tools.Auth'>, 'B': <class 'gluon.html.B'>, 'BEAUTIFY': <class 'gluon.html.BEAUTIFY'>, 'BODY': <class 'gluon.html.BODY'>, 'BR': <class 'gluon.html.BR'>, 'BUTTON': <class 'gluon.html.BUTTON'>, 'CAT': <class 'gluon.html.CAT'>, 'CENTER': <class 'gluon.html.CENTER'>, 'CLEANUP': <class 'gluon.validators.CLEANUP'>, ...}, layer='/Users/hellais/Documents/code/mygit/globaleaks/webapp/applications/init/controllers/default.py')"
p2860
sS'func'
p2861
S'restricted'
p2862
sa(dp2863
g2838
S'/Users/hellais/Documents/code/mygit/globaleaks/webapp/applications/init/controllers/default.py'
p2864
sg2840
(dp2865
sg2846
I50
sg2847
(dp2866
I39
S''
sI40
S'    return dict(form=form, leak_id=None, tulip=None)'
p2867
sI41
S''
sI42
S'def tulip():'
p2868
sI43
S'    tulip_url = request.args[0]'
p2869
sI44
S'    tul = Tulip(url=tulip_url)'
p2870
sI45
S'    return dict(message=tul.id)'
p2871
sI46
S''
sI47
S'def error():'
p2872
sI48
S'    return dict()'
p2873
ssg2859
S'()'
p2874
sg2861
S'<module>'
p2875
sa(dp2876
g2838
S'/opt/local/Library/Frameworks/Python.framework/Versions/2.7/lib/python2.7/gluon/globals.py'
p2877
sg2840
(dp2878
S'self'
p2879
S'undefined'
p2880
sS'f'
S'<function tulip>'
p2881
ssg2846
I145
sg2847
(dp2882
I140
S'        self.meta = Storage()      # used by web2py_ajax.html'
p2883
sI141
S'        self.menu = []             # used by the default view layout'
p2884
sI142
S'        self.files = []            # used by web2py_ajax.html'
p2885
sI143
S'        self.generic_patterns = [] # patterns to allow generic views'
p2886
sI144
S'        self._vars = None'
p2887
sI145
S'        self._caller = lambda f: f()'
p2888
sI146
S'        self._view_environment = None'
p2889
sI147
S'        self._custom_commit = None'
p2890
sI148
S'        self._custom_rollback = None'
p2891
sI149
S''
ssg2859
S'(f=<function tulip>)'
p2892
sg2861
S'<lambda>'
p2893
sa(dp2894
g2838
S'/Users/hellais/Documents/code/mygit/globaleaks/webapp/applications/init/controllers/default.py'
p2895
sg2840
(dp2896
S'url'
p2897
g2880
sS'tul'
p2898
g2880
sS'global Tulip'
p2899
S"<class 'Tulip'>"
p2900
sS'tulip_url'
p2901
S"'0f05e204af4d1ffabf462df37c8c606a3240f45a2e2fcb3bef41ea5b823b55d0'"
p2902
ssg2846
I44
sg2847
(dp2903
I39
S''
sI40
S'    return dict(form=form, leak_id=None, tulip=None)'
p2904
sI41
S''
sI42
S'def tulip():'
p2905
sI43
S'    tulip_url = request.args[0]'
p2906
sI44
S'    tul = Tulip(url=tulip_url)'
p2907
sI45
S'    return dict(message=tul.id)'
p2908
sI46
S''
sI47
S'def error():'
p2909
sI48
S'    return dict()'
p2910
ssg2859
S'()'
p2911
sg2861
S'tulip'
p2912
sa(dp2913
g2838
S'/Users/hellais/Documents/code/mygit/globaleaks/webapp/applications/init/models/datamodel.py'
p2914
sg2840
(dp2915
S'db.tulip.uri'
p2916
S'<gluon.dal.Field object>'
p2917
sS'url'
p2918
S"'0f05e204af4d1ffabf462df37c8c606a3240f45a2e2fcb3bef41ea5b823b55d0'"
p2919
sS'self'
p2920
S'<Tulip object>'
p2921
sS').select'
p2922
g2880
sS'db.tulip'
p2923
S"<Table {'leak_id': <gluon.dal.Field object at 0x..., 'id': <gluon.dal.Field object at 0x10371bed0>}>"
p2924
sS'global db'
p2925
S'<DAL {\'_migrate_enabled\': True, \'_lastsql\': "SEL...\'_uri_hash\': \'fb87181b96a99be45f5a23f4277867ce\'}>'
p2926
sS'self._id'
p2927
g2880
ssg2846
I82
sg2847
(dp2928
I77
S''
sI78
S''
sI79
S'class Tulip(object):'
p2929
sI80
S'    def __init__(self, id=None, url=None):'
p2930
sI81
S'        if url:'
p2931
sI82
S'            self._id = db(db.tulip.uri==url).select().id'
p2932
sI83
S'        else:'
p2933
sI84
S'            self._id = id'
p2934
sI85
S''
sI86
S'    def get_id(self):'
p2935
ssg2859
S"(self=<Tulip object>, id=None, url='0f05e204af4d1ffabf462df37c8c606a3240f45a2e2fcb3bef41ea5b823b55d0')"
p2936
sg2861
g49
sasS'pyver'
p2937
S'Python 2.7.1: /opt/local/Library/Frameworks/Python.framework/Versions/2.7/Resources/Python.app/Contents/MacOS/Python'
p2938
sS'session'
p2939
g56
(g57
g58
NtRp2940
(dp2941
g61
(dp2942
sg63
(lp2943
g56
(g65
g58
NtRp2944
(dp2945
g61
(dp2946
g69
I5
ssg70
Nsg63
(lp2947
sbasbsS'etype'
p2948
S"<type 'exceptions.AttributeError'>"
p2949
sS'date'
p2950
S'Sun Aug 28 01:48:58 2011'
p2951
sS'response'
p2952
g56
(g57
g58
NtRp2953
(dp2954
g61
(dp2955
sg63
(lp2956
g56
(g65
g58
NtRp2957
(dp2958
g61
(dp2959
g69
I5
ssg70
Nsg63
(lp2960
g56
(g72
g58
NtRp2961
(dp2962
g61
(dp2963
sg70
g2957
sg63
(lp2964
g56
(g77
g58
NtRp2965
(dp2966
g61
(dp2967
g81
g82
ssg70
g2961
sg63
(lp2968
g167
asbag56
(g77
g58
NtRp2969
(dp2970
g61
(dp2971
g88
g89
ssg70
g2961
sg63
(lp2972
S':'
asbag56
(g77
g58
NtRp2973
(dp2974
g61
(dp2975
sg70
g2961
sg63
(lp2976
g56
(g57
g58
NtRp2977
(dp2978
g61
(dp2979
g69
I5
ssg70
g2973
sg63
(lp2980
S'<cStringIO.StringO object at 0x101926f10>'
p2981
asbasbasbag56
(g72
g58
NtRp2982
(dp2983
g61
(dp2984
sg70
g2957
sg63
(lp2985
g56
(g77
g58
NtRp2986
(dp2987
g61
(dp2988
g81
g82
ssg70
g2982
sg63
(lp2989
g233
asbag56
(g77
g58
NtRp2990
(dp2991
g61
(dp2992
g88
g89
ssg70
g2982
sg63
(lp2993
S':'
asbag56
(g77
g58
NtRp2994
(dp2995
g61
(dp2996
sg70
g2982
sg63
(lp2997
g56
(g57
g58
NtRp2998
(dp2999
g61
(dp3000
g69
I5
ssg70
g2994
sg63
(lp3001
g56
(g65
g58
NtRp3002
(dp3003
g61
(dp3004
g69
I4
ssg70
Nsg63
(lp3005
g56
(g72
g58
NtRp3006
(dp3007
g61
(dp3008
sg70
g3002
sg63
(lp3009
g56
(g77
g58
NtRp3010
(dp3011
g61
(dp3012
g81
g82
ssg70
g3006
sg63
(lp3013
S'session_id_init'
p3014
asbag56
(g77
g58
NtRp3015
(dp3016
g61
(dp3017
g88
g89
ssg70
g3006
sg63
(lp3018
S':'
asbag56
(g77
g58
NtRp3019
(dp3020
g61
(dp3021
sg70
g3006
sg63
(lp3022
g56
(g57
g58
NtRp3023
(dp3024
g61
(dp3025
g69
I4
ssg70
g3019
sg63
(lp3026
g56
(g65
g58
NtRp3027
(dp3028
g61
(dp3029
g69
I3
ssg70
Nsg63
(lp3030
g56
(g72
g58
NtRp3031
(dp3032
g61
(dp3033
sg70
g3027
sg63
(lp3034
g56
(g77
g58
NtRp3035
(dp3036
g61
(dp3037
g81
g82
ssg70
g3031
sg63
(lp3038
g283
asbag56
(g77
g58
NtRp3039
(dp3040
g61
(dp3041
g88
g89
ssg70
g3031
sg63
(lp3042
S':'
asbag56
(g77
g58
NtRp3043
(dp3044
g61
(dp3045
sg70
g3031
sg63
(lp3046
g56
(g57
g58
NtRp3047
(dp3048
g61
(dp3049
g69
I3
ssg70
g3043
sg63
(lp3050
S''
asbasbasbag56
(g72
g58
NtRp3051
(dp3052
g61
(dp3053
sg70
g3027
sg63
(lp3054
g56
(g77
g58
NtRp3055
(dp3056
g61
(dp3057
g81
g82
ssg70
g3051
sg63
(lp3058
g304
asbag56
(g77
g58
NtRp3059
(dp3060
g61
(dp3061
g88
g89
ssg70
g3051
sg63
(lp3062
S':'
asbag56
(g77
g58
NtRp3063
(dp3064
g61
(dp3065
sg70
g3051
sg63
(lp3066
g56
(g57
g58
NtRp3067
(dp3068
g61
(dp3069
g69
I3
ssg70
g3063
sg63
(lp3070
S''
asbasbasbag56
(g72
g58
NtRp3071
(dp3072
g61
(dp3073
sg70
g3027
sg63
(lp3074
g56
(g77
g58
NtRp3075
(dp3076
g61
(dp3077
g81
g82
ssg70
g3071
sg63
(lp3078
g325
asbag56
(g77
g58
NtRp3079
(dp3080
g61
(dp3081
g88
g89
ssg70
g3071
sg63
(lp3082
S':'
asbag56
(g77
g58
NtRp3083
(dp3084
g61
(dp3085
sg70
g3071
sg63
(lp3086
g56
(g57
g58
NtRp3087
(dp3088
g61
(dp3089
g69
I3
ssg70
g3083
sg63
(lp3090
S''
asbasbasbag56
(g72
g58
NtRp3091
(dp3092
g61
(dp3093
sg70
g3027
sg63
(lp3094
g56
(g77
g58
NtRp3095
(dp3096
g61
(dp3097
g81
g82
ssg70
g3091
sg63
(lp3098
g346
asbag56
(g77
g58
NtRp3099
(dp3100
g61
(dp3101
g88
g89
ssg70
g3091
sg63
(lp3102
S':'
asbag56
(g77
g58
NtRp3103
(dp3104
g61
(dp3105
sg70
g3091
sg63
(lp3106
g56
(g57
g58
NtRp3107
(dp3108
g61
(dp3109
g69
I3
ssg70
g3103
sg63
(lp3110
S''
asbasbasbag56
(g72
g58
NtRp3111
(dp3112
g61
(dp3113
sg70
g3027
sg63
(lp3114
g56
(g77
g58
NtRp3115
(dp3116
g61
(dp3117
g81
g82
ssg70
g3111
sg63
(lp3118
g367
asbag56
(g77
g58
NtRp3119
(dp3120
g61
(dp3121
g88
g89
ssg70
g3111
sg63
(lp3122
S':'
asbag56
(g77
g58
NtRp3123
(dp3124
g61
(dp3125
sg70
g3111
sg63
(lp3126
g56
(g57
g58
NtRp3127
(dp3128
g61
(dp3129
g69
I3
ssg70
g3123
sg63
(lp3130
S''
asbasbasbag56
(g72
g58
NtRp3131
(dp3132
g61
(dp3133
sg70
g3027
sg63
(lp3134
g56
(g77
g58
NtRp3135
(dp3136
g61
(dp3137
g81
g82
ssg70
g3131
sg63
(lp3138
g388
asbag56
(g77
g58
NtRp3139
(dp3140
g61
(dp3141
g88
g89
ssg70
g3131
sg63
(lp3142
S':'
asbag56
(g77
g58
NtRp3143
(dp3144
g61
(dp3145
sg70
g3131
sg63
(lp3146
g56
(g57
g58
NtRp3147
(dp3148
g61
(dp3149
g69
I3
ssg70
g3143
sg63
(lp3150
S'/'
asbasbasbag56
(g72
g58
NtRp3151
(dp3152
g61
(dp3153
sg70
g3027
sg63
(lp3154
g56
(g77
g58
NtRp3155
(dp3156
g61
(dp3157
g81
g82
ssg70
g3151
sg63
(lp3158
g409
asbag56
(g77
g58
NtRp3159
(dp3160
g61
(dp3161
g88
g89
ssg70
g3151
sg63
(lp3162
S':'
asbag56
(g77
g58
NtRp3163
(dp3164
g61
(dp3165
sg70
g3151
sg63
(lp3166
g56
(g57
g58
NtRp3167
(dp3168
g61
(dp3169
g69
I3
ssg70
g3163
sg63
(lp3170
S''
asbasbasbag56
(g72
g58
NtRp3171
(dp3172
g61
(dp3173
sg70
g3027
sg63
(lp3174
g56
(g77
g58
NtRp3175
(dp3176
g61
(dp3177
g81
g82
ssg70
g3171
sg63
(lp3178
g430
asbag56
(g77
g58
NtRp3179
(dp3180
g61
(dp3181
g88
g89
ssg70
g3171
sg63
(lp3182
S':'
asbag56
(g77
g58
NtRp3183
(dp3184
g61
(dp3185
sg70
g3171
sg63
(lp3186
g56
(g57
g58
NtRp3187
(dp3188
g61
(dp3189
g69
I3
ssg70
g3183
sg63
(lp3190
S''
asbasbasbasbasbasbasbasbasbasbasbag56
(g72
g58
NtRp3191
(dp3192
g61
(dp3193
sg70
g2957
sg63
(lp3194
g56
(g77
g58
NtRp3195
(dp3196
g61
(dp3197
g81
g82
ssg70
g3191
sg63
(lp3198
S'files'
p3199
asbag56
(g77
g58
NtRp3200
(dp3201
g61
(dp3202
g88
g89
ssg70
g3191
sg63
(lp3203
S':'
asbag56
(g77
g58
NtRp3204
(dp3205
g61
(dp3206
sg70
g3191
sg63
(lp3207
g56
(g57
g58
NtRp3208
(dp3209
g61
(dp3210
g69
I5
ssg70
g3204
sg63
(lp3211
g56
(g65
g58
NtRp3212
(dp3213
g61
(dp3214
g69
I4
ssg70
Nsg63
(lp3215
sbasbasbasbag56
(g72
g58
NtRp3216
(dp3217
g61
(dp3218
sg70
g2957
sg63
(lp3219
g56
(g77
g58
NtRp3220
(dp3221
g61
(dp3222
g81
g82
ssg70
g3216
sg63
(lp3223
S'flash'
p3224
asbag56
(g77
g58
NtRp3225
(dp3226
g61
(dp3227
g88
g89
ssg70
g3216
sg63
(lp3228
S':'
asbag56
(g77
g58
NtRp3229
(dp3230
g61
(dp3231
sg70
g3216
sg63
(lp3232
g56
(g57
g58
NtRp3233
(dp3234
g61
(dp3235
g69
I5
ssg70
g3229
sg63
(lp3236
S''
asbasbasbag56
(g72
g58
NtRp3237
(dp3238
g61
(dp3239
sg70
g2957
sg63
(lp3240
g56
(g77
g58
NtRp3241
(dp3242
g61
(dp3243
g81
g82
ssg70
g3237
sg63
(lp3244
S'generic_patterns'
p3245
asbag56
(g77
g58
NtRp3246
(dp3247
g61
(dp3248
g88
g89
ssg70
g3237
sg63
(lp3249
S':'
asbag56
(g77
g58
NtRp3250
(dp3251
g61
(dp3252
sg70
g3237
sg63
(lp3253
g56
(g57
g58
NtRp3254
(dp3255
g61
(dp3256
g69
I5
ssg70
g3250
sg63
(lp3257
g56
(g65
g58
NtRp3258
(dp3259
g61
(dp3260
g69
I4
ssg70
Nsg63
(lp3261
sbasbasbasbag56
(g72
g58
NtRp3262
(dp3263
g61
(dp3264
sg70
g2957
sg63
(lp3265
g56
(g77
g58
NtRp3266
(dp3267
g61
(dp3268
g81
g82
ssg70
g3262
sg63
(lp3269
S'headers'
p3270
asbag56
(g77
g58
NtRp3271
(dp3272
g61
(dp3273
g88
g89
ssg70
g3262
sg63
(lp3274
S':'
asbag56
(g77
g58
NtRp3275
(dp3276
g61
(dp3277
sg70
g3262
sg63
(lp3278
g56
(g57
g58
NtRp3279
(dp3280
g61
(dp3281
g69
I5
ssg70
g3275
sg63
(lp3282
g56
(g65
g58
NtRp3283
(dp3284
g61
(dp3285
g69
I4
ssg70
Nsg63
(lp3286
g56
(g72
g58
NtRp3287
(dp3288
g61
(dp3289
sg70
g3283
sg63
(lp3290
g56
(g77
g58
NtRp3291
(dp3292
g61
(dp3293
g81
g82
ssg70
g3287
sg63
(lp3294
S'Cache-Control'
p3295
asbag56
(g77
g58
NtRp3296
(dp3297
g61
(dp3298
g88
g89
ssg70
g3287
sg63
(lp3299
S':'
asbag56
(g77
g58
NtRp3300
(dp3301
g61
(dp3302
sg70
g3287
sg63
(lp3303
g56
(g57
g58
NtRp3304
(dp3305
g61
(dp3306
g69
I4
ssg70
g3300
sg63
(lp3307
S'no-store, no-cache, must-revalidate, post-check=0, pre-check=0'
p3308
asbasbasbag56
(g72
g58
NtRp3309
(dp3310
g61
(dp3311
sg70
g3283
sg63
(lp3312
g56
(g77
g58
NtRp3313
(dp3314
g61
(dp3315
g81
g82
ssg70
g3309
sg63
(lp3316
S'Content-Type'
p3317
asbag56
(g77
g58
NtRp3318
(dp3319
g61
(dp3320
g88
g89
ssg70
g3309
sg63
(lp3321
S':'
asbag56
(g77
g58
NtRp3322
(dp3323
g61
(dp3324
sg70
g3309
sg63
(lp3325
g56
(g57
g58
NtRp3326
(dp3327
g61
(dp3328
g69
I4
ssg70
g3322
sg63
(lp3329
S'text/html; charset=utf-8'
p3330
asbasbasbag56
(g72
g58
NtRp3331
(dp3332
g61
(dp3333
sg70
g3283
sg63
(lp3334
g56
(g77
g58
NtRp3335
(dp3336
g61
(dp3337
g81
g82
ssg70
g3331
sg63
(lp3338
S'Expires'
p3339
asbag56
(g77
g58
NtRp3340
(dp3341
g61
(dp3342
g88
g89
ssg70
g3331
sg63
(lp3343
S':'
asbag56
(g77
g58
NtRp3344
(dp3345
g61
(dp3346
sg70
g3331
sg63
(lp3347
g56
(g57
g58
NtRp3348
(dp3349
g61
(dp3350
g69
I4
ssg70
g3344
sg63
(lp3351
S'Sat, 27 Aug 2011 23:48:58 GMT'
p3352
asbasbasbag56
(g72
g58
NtRp3353
(dp3354
g61
(dp3355
sg70
g3283
sg63
(lp3356
g56
(g77
g58
NtRp3357
(dp3358
g61
(dp3359
g81
g82
ssg70
g3353
sg63
(lp3360
S'Pragma'
p3361
asbag56
(g77
g58
NtRp3362
(dp3363
g61
(dp3364
g88
g89
ssg70
g3353
sg63
(lp3365
S':'
asbag56
(g77
g58
NtRp3366
(dp3367
g61
(dp3368
sg70
g3353
sg63
(lp3369
g56
(g57
g58
NtRp3370
(dp3371
g61
(dp3372
g69
I4
ssg70
g3366
sg63
(lp3373
S'no-cache'
p3374
asbasbasbag56
(g72
g58
NtRp3375
(dp3376
g61
(dp3377
sg70
g3283
sg63
(lp3378
g56
(g77
g58
NtRp3379
(dp3380
g61
(dp3381
g81
g82
ssg70
g3375
sg63
(lp3382
S'X-Powered-By'
p3383
asbag56
(g77
g58
NtRp3384
(dp3385
g61
(dp3386
g88
g89
ssg70
g3375
sg63
(lp3387
S':'
asbag56
(g77
g58
NtRp3388
(dp3389
g61
(dp3390
sg70
g3375
sg63
(lp3391
g56
(g57
g58
NtRp3392
(dp3393
g61
(dp3394
g69
I4
ssg70
g3388
sg63
(lp3395
S'web2py'
p3396
asbasbasbasbasbasbasbag56
(g72
g58
NtRp3397
(dp3398
g61
(dp3399
sg70
g2957
sg63
(lp3400
g56
(g77
g58
NtRp3401
(dp3402
g61
(dp3403
g81
g82
ssg70
g3397
sg63
(lp3404
S'menu'
p3405
asbag56
(g77
g58
NtRp3406
(dp3407
g61
(dp3408
g88
g89
ssg70
g3397
sg63
(lp3409
S':'
asbag56
(g77
g58
NtRp3410
(dp3411
g61
(dp3412
sg70
g3397
sg63
(lp3413
g56
(g57
g58
NtRp3414
(dp3415
g61
(dp3416
g69
I5
ssg70
g3410
sg63
(lp3417
g56
(g65
g58
NtRp3418
(dp3419
g61
(dp3420
g69
I4
ssg70
Nsg63
(lp3421
g56
(g72
g58
NtRp3422
(dp3423
g61
(dp3424
sg70
g3418
sg63
(lp3425
g56
(g77
g58
NtRp3426
(dp3427
g61
(dp3428
sg70
g3422
sg63
(lp3429
g56
(g57
g58
NtRp3430
(dp3431
g61
(dp3432
g69
I4
ssg70
g3426
sg63
(lp3433
g56
(g65
g58
NtRp3434
(dp3435
g61
(dp3436
g69
I3
ssg70
Nsg63
(lp3437
g56
(g72
g58
NtRp3438
(dp3439
g61
(dp3440
sg70
g3434
sg63
(lp3441
g56
(g77
g58
NtRp3442
(dp3443
g61
(dp3444
sg70
g3438
sg63
(lp3445
g56
(g57
g58
NtRp3446
(dp3447
g61
(dp3448
g69
I3
ssg70
g3442
sg63
(lp3449
cgluon.languages
lazyT_unpickle
p3450
(S't\x05\x00\x00\x00Index'
tRp3451
asbasbasbag56
(g72
g58
NtRp3452
(dp3453
g61
(dp3454
sg70
g3434
sg63
(lp3455
g56
(g77
g58
NtRp3456
(dp3457
g61
(dp3458
sg70
g3452
sg63
(lp3459
g56
(g57
g58
NtRp3460
(dp3461
g61
(dp3462
g69
I3
ssg70
g3456
sg63
(lp3463
g99
asbasbasbag56
(g72
g58
NtRp3464
(dp3465
g61
(dp3466
sg70
g3434
sg63
(lp3467
g56
(g77
g58
NtRp3468
(dp3469
g61
(dp3470
sg70
g3464
sg63
(lp3471
g56
(g57
g58
NtRp3472
(dp3473
g61
(dp3474
g69
I3
ssg70
g3468
sg63
(lp3475
S'/init/default/index'
p3476
asbasbasbag56
(g72
g58
NtRp3477
(dp3478
g61
(dp3479
sg70
g3434
sg63
(lp3480
g56
(g77
g58
NtRp3481
(dp3482
g61
(dp3483
sg70
g3477
sg63
(lp3484
g56
(g57
g58
NtRp3485
(dp3486
g61
(dp3487
g69
I3
ssg70
g3481
sg63
(lp3488
g56
(g65
g58
NtRp3489
(dp3490
g61
(dp3491
g69
I2
ssg70
Nsg63
(lp3492
sbasbasbasbasbasbasbasbasbasbasbasbag56
(g72
g58
NtRp3493
(dp3494
g61
(dp3495
sg70
g2957
sg63
(lp3496
g56
(g77
g58
NtRp3497
(dp3498
g61
(dp3499
g81
g82
ssg70
g3493
sg63
(lp3500
S'meta'
p3501
asbag56
(g77
g58
NtRp3502
(dp3503
g61
(dp3504
g88
g89
ssg70
g3493
sg63
(lp3505
S':'
asbag56
(g77
g58
NtRp3506
(dp3507
g61
(dp3508
sg70
g3493
sg63
(lp3509
g56
(g57
g58
NtRp3510
(dp3511
g61
(dp3512
g69
I5
ssg70
g3506
sg63
(lp3513
g56
(g65
g58
NtRp3514
(dp3515
g61
(dp3516
g69
I4
ssg70
Nsg63
(lp3517
g56
(g72
g58
NtRp3518
(dp3519
g61
(dp3520
sg70
g3514
sg63
(lp3521
g56
(g77
g58
NtRp3522
(dp3523
g61
(dp3524
g81
g82
ssg70
g3518
sg63
(lp3525
S'author'
p3526
asbag56
(g77
g58
NtRp3527
(dp3528
g61
(dp3529
g88
g89
ssg70
g3518
sg63
(lp3530
S':'
asbag56
(g77
g58
NtRp3531
(dp3532
g61
(dp3533
sg70
g3518
sg63
(lp3534
g56
(g57
g58
NtRp3535
(dp3536
g61
(dp3537
g69
I4
ssg70
g3531
sg63
(lp3538
S'RGC <info@globaleaks.org>'
p3539
asbasbasbag56
(g72
g58
NtRp3540
(dp3541
g61
(dp3542
sg70
g3514
sg63
(lp3543
g56
(g77
g58
NtRp3544
(dp3545
g61
(dp3546
g81
g82
ssg70
g3540
sg63
(lp3547
S'description'
p3548
asbag56
(g77
g58
NtRp3549
(dp3550
g61
(dp3551
g88
g89
ssg70
g3540
sg63
(lp3552
S':'
asbag56
(g77
g58
NtRp3553
(dp3554
g61
(dp3555
sg70
g3540
sg63
(lp3556
g56
(g57
g58
NtRp3557
(dp3558
g61
(dp3559
g69
I4
ssg70
g3553
sg63
(lp3560
S''
asbasbasbag56
(g72
g58
NtRp3561
(dp3562
g61
(dp3563
sg70
g3514
sg63
(lp3564
g56
(g77
g58
NtRp3565
(dp3566
g61
(dp3567
g81
g82
ssg70
g3561
sg63
(lp3568
S'keywords'
p3569
asbag56
(g77
g58
NtRp3570
(dp3571
g61
(dp3572
g88
g89
ssg70
g3561
sg63
(lp3573
S':'
asbag56
(g77
g58
NtRp3574
(dp3575
g61
(dp3576
sg70
g3561
sg63
(lp3577
g56
(g57
g58
NtRp3578
(dp3579
g61
(dp3580
g69
I4
ssg70
g3574
sg63
(lp3581
S''
asbasbasbasbasbasbasbag56
(g72
g58
NtRp3582
(dp3583
g61
(dp3584
sg70
g2957
sg63
(lp3585
g56
(g77
g58
NtRp3586
(dp3587
g61
(dp3588
g81
g82
ssg70
g3582
sg63
(lp3589
S'postprocessing'
p3590
asbag56
(g77
g58
NtRp3591
(dp3592
g61
(dp3593
g88
g89
ssg70
g3582
sg63
(lp3594
S':'
asbag56
(g77
g58
NtRp3595
(dp3596
g61
(dp3597
sg70
g3582
sg63
(lp3598
g56
(g57
g58
NtRp3599
(dp3600
g61
(dp3601
g69
I5
ssg70
g3595
sg63
(lp3602
g56
(g65
g58
NtRp3603
(dp3604
g61
(dp3605
g69
I4
ssg70
Nsg63
(lp3606
sbasbasbasbag56
(g72
g58
NtRp3607
(dp3608
g61
(dp3609
sg70
g2957
sg63
(lp3610
g56
(g77
g58
NtRp3611
(dp3612
g61
(dp3613
g81
g82
ssg70
g3607
sg63
(lp3614
S'session_file'
p3615
asbag56
(g77
g58
NtRp3616
(dp3617
g61
(dp3618
g88
g89
ssg70
g3607
sg63
(lp3619
S':'
asbag56
(g77
g58
NtRp3620
(dp3621
g61
(dp3622
sg70
g3607
sg63
(lp3623
g56
(g57
g58
NtRp3624
(dp3625
g61
(dp3626
g69
I5
ssg70
g3620
sg63
(lp3627
S"<open file '/Users/hellais/Documents/code/mygit/globaleaks/webapp/applications/init/sessions/127.0.0.1-a8551263-bc3c-430c-abb2-8711fac671c1', mode 'rb+' at 0x10196d8a0>"
p3628
asbasbasbag56
(g72
g58
NtRp3629
(dp3630
g61
(dp3631
sg70
g2957
sg63
(lp3632
g56
(g77
g58
NtRp3633
(dp3634
g61
(dp3635
g81
g82
ssg70
g3629
sg63
(lp3636
S'session_filename'
p3637
asbag56
(g77
g58
NtRp3638
(dp3639
g61
(dp3640
g88
g89
ssg70
g3629
sg63
(lp3641
S':'
asbag56
(g77
g58
NtRp3642
(dp3643
g61
(dp3644
sg70
g3629
sg63
(lp3645
g56
(g57
g58
NtRp3646
(dp3647
g61
(dp3648
g69
I5
ssg70
g3642
sg63
(lp3649
S'/Users/hellais/Documents/code/mygit/globaleaks/webapp/applications/init/sessions/127.0.0.1-a8551263-bc3c-430c-abb2-8711fac671c1'
p3650
asbasbasbag56
(g72
g58
NtRp3651
(dp3652
g61
(dp3653
sg70
g2957
sg63
(lp3654
g56
(g77
g58
NtRp3655
(dp3656
g61
(dp3657
g81
g82
ssg70
g3651
sg63
(lp3658
S'session_id'
p3659
asbag56
(g77
g58
NtRp3660
(dp3661
g61
(dp3662
g88
g89
ssg70
g3651
sg63
(lp3663
S':'
asbag56
(g77
g58
NtRp3664
(dp3665
g61
(dp3666
sg70
g3651
sg63
(lp3667
g56
(g57
g58
NtRp3668
(dp3669
g61
(dp3670
g69
I5
ssg70
g3664
sg63
(lp3671
S'127.0.0.1-a8551263-bc3c-430c-abb2-8711fac671c1'
p3672
asbasbasbag56
(g72
g58
NtRp3673
(dp3674
g61
(dp3675
sg70
g2957
sg63
(lp3676
g56
(g77
g58
NtRp3677
(dp3678
g61
(dp3679
g81
g82
ssg70
g3673
sg63
(lp3680
S'session_id_name'
p3681
asbag56
(g77
g58
NtRp3682
(dp3683
g61
(dp3684
g88
g89
ssg70
g3673
sg63
(lp3685
S':'
asbag56
(g77
g58
NtRp3686
(dp3687
g61
(dp3688
sg70
g3673
sg63
(lp3689
g56
(g57
g58
NtRp3690
(dp3691
g61
(dp3692
g69
I5
ssg70
g3686
sg63
(lp3693
g3014
asbasbasbag56
(g72
g58
NtRp3694
(dp3695
g61
(dp3696
sg70
g2957
sg63
(lp3697
g56
(g77
g58
NtRp3698
(dp3699
g61
(dp3700
g81
g82
ssg70
g3694
sg63
(lp3701
S'session_locked'
p3702
asbag56
(g77
g58
NtRp3703
(dp3704
g61
(dp3705
g88
g89
ssg70
g3694
sg63
(lp3706
S':'
asbag56
(g77
g58
NtRp3707
(dp3708
g61
(dp3709
sg70
g3694
sg63
(lp3710
g56
(g57
g58
NtRp3711
(dp3712
g61
(dp3713
g69
I5
ssg70
g3707
sg63
(lp3714
g1810
asbasbasbag56
(g72
g58
NtRp3715
(dp3716
g61
(dp3717
sg70
g2957
sg63
(lp3718
g56
(g77
g58
NtRp3719
(dp3720
g61
(dp3721
g81
g82
ssg70
g3715
sg63
(lp3722
S'session_new'
p3723
asbag56
(g77
g58
NtRp3724
(dp3725
g61
(dp3726
g88
g89
ssg70
g3715
sg63
(lp3727
S':'
asbag56
(g77
g58
NtRp3728
(dp3729
g61
(dp3730
sg70
g3715
sg63
(lp3731
g56
(g57
g58
NtRp3732
(dp3733
g61
(dp3734
g69
I5
ssg70
g3728
sg63
(lp3735
g99
asbasbasbag56
(g72
g58
NtRp3736
(dp3737
g61
(dp3738
sg70
g2957
sg63
(lp3739
g56
(g77
g58
NtRp3740
(dp3741
g61
(dp3742
g81
g82
ssg70
g3736
sg63
(lp3743
S'status'
p3744
asbag56
(g77
g58
NtRp3745
(dp3746
g61
(dp3747
g88
g89
ssg70
g3736
sg63
(lp3748
S':'
asbag56
(g77
g58
NtRp3749
(dp3750
g61
(dp3751
sg70
g3736
sg63
(lp3752
g56
(g57
g58
NtRp3753
(dp3754
g61
(dp3755
g69
I5
ssg70
g3749
sg63
(lp3756
S'200'
p3757
asbasbasbag56
(g72
g58
NtRp3758
(dp3759
g61
(dp3760
sg70
g2957
sg63
(lp3761
g56
(g77
g58
NtRp3762
(dp3763
g61
(dp3764
g81
g82
ssg70
g3758
sg63
(lp3765
S'subtitle'
p3766
asbag56
(g77
g58
NtRp3767
(dp3768
g61
(dp3769
g88
g89
ssg70
g3758
sg63
(lp3770
S':'
asbag56
(g77
g58
NtRp3771
(dp3772
g61
(dp3773
sg70
g3758
sg63
(lp3774
g56
(g57
g58
NtRp3775
(dp3776
g61
(dp3777
g69
I5
ssg70
g3771
sg63
(lp3778
S'Open Source Whistleblowing Platform'
p3779
asbasbasbag56
(g72
g58
NtRp3780
(dp3781
g61
(dp3782
sg70
g2957
sg63
(lp3783
g56
(g77
g58
NtRp3784
(dp3785
g61
(dp3786
g81
g82
ssg70
g3780
sg63
(lp3787
S'title'
p3788
asbag56
(g77
g58
NtRp3789
(dp3790
g61
(dp3791
g88
g89
ssg70
g3780
sg63
(lp3792
S':'
asbag56
(g77
g58
NtRp3793
(dp3794
g61
(dp3795
sg70
g3780
sg63
(lp3796
g56
(g57
g58
NtRp3797
(dp3798
g61
(dp3799
g69
I5
ssg70
g3793
sg63
(lp3800
S'GlobaLeaks'
p3801
asbasbasbag56
(g72
g58
NtRp3802
(dp3803
g61
(dp3804
sg70
g2957
sg63
(lp3805
g56
(g77
g58
NtRp3806
(dp3807
g61
(dp3808
g81
g82
ssg70
g3802
sg63
(lp3809
g2155
asbag56
(g77
g58
NtRp3810
(dp3811
g61
(dp3812
g88
g89
ssg70
g3802
sg63
(lp3813
S':'
asbag56
(g77
g58
NtRp3814
(dp3815
g61
(dp3816
sg70
g3802
sg63
(lp3817
g56
(g57
g58
NtRp3818
(dp3819
g61
(dp3820
g69
I5
ssg70
g3814
sg63
(lp3821
g2168
asbasbasbag56
(g72
g58
NtRp3822
(dp3823
g61
(dp3824
sg70
g2957
sg63
(lp3825
g56
(g77
g58
NtRp3826
(dp3827
g61
(dp3828
g81
g82
ssg70
g3822
sg63
(lp3829
S'view'
p3830
asbag56
(g77
g58
NtRp3831
(dp3832
g61
(dp3833
g88
g89
ssg70
g3822
sg63
(lp3834
S':'
asbag56
(g77
g58
NtRp3835
(dp3836
g61
(dp3837
sg70
g3822
sg63
(lp3838
g56
(g57
g58
NtRp3839
(dp3840
g61
(dp3841
g69
I5
ssg70
g3835
sg63
(lp3842
S'default/tulip.html'
p3843
asbasbasbasbasbsS'locals'
p3844
(dp3845
g2133
S"'0f05e204af4d1ffabf462df37c8c606a3240f45a2e2fcb3bef41ea5b823b55d0'"
p3846
sS'self'
p3847
S'<Tulip object>'
p3848
sS'id'
p3849
S'None'
p3850
sssS'traceback'
p3851
S'Traceback (most recent call last):\n  File "/opt/local/Library/Frameworks/Python.framework/Versions/2.7/lib/python2.7/gluon/restricted.py", line 192, in restricted\n    exec ccode in environment\n  File "/Users/hellais/Documents/code/mygit/globaleaks/webapp/applications/init/controllers/default.py", line 50, in <module>\n  File "/opt/local/Library/Frameworks/Python.framework/Versions/2.7/lib/python2.7/gluon/globals.py", line 145, in <lambda>\n    self._caller = lambda f: f()\n  File "/Users/hellais/Documents/code/mygit/globaleaks/webapp/applications/init/controllers/default.py", line 44, in tulip\n    tul = Tulip(url=tulip_url)\n  File "/Users/hellais/Documents/code/mygit/globaleaks/webapp/applications/init/models/datamodel.py", line 82, in __init__\n    self._id = db(db.tulip.uri==url).select().id\nAttributeError: \'Rows\' object has no attribute \'id\'\n'
p3852
s.