(dp1
S'output'
p2
S''
sS'layer'
p3
S'/Users/hellais/Documents/code/mygit/globaleaks/webapp/applications/init/controllers/default.py'
p4
sS'code'
p5
S'# -*- coding: utf-8 -*-\n### required - do no delete\ndef user(): return dict(form=auth())\ndef download(): return response.download(request,db)\ndef call():\n    session.forget()\n    return service()\n### end requires\ndef index():\n    return dict(message=T("Hello World, I am GlobaLeaks!"))\n\ndef submission():\n    form_content = (Field(\'Title\', requires=IS_NOT_EMPTY()),\n                    Field(\'Description\', \'text\', requires=IS_NOT_EMPTY()),\n                    Field(\'Tags\'),Field(\'material\', \'upload\', uploadfolder="uploads/"),\n                    Field(\'dislaimer\', \'boolean\', requires=IS_EQUAL_TO("on", error_message="Please read the disclaimer")))\n   \n    form = SQLFORM.factory(*form_content)\n    \n    if form.accepts(request.vars, session):\n        l = request.vars\n        leak_id = gl.create_leak(l.Title, l.Description, None, None,\n                {"Al Jazeera":10 , "CNN":20, "Leaker":0}, l.Tags)\n        \n        #response.flash = \'form accepted\'\n        leak = Leak(leak_id)\n\n        #FIXME do this better...\n        for tulip in leak.tulips:\n            print tulip.target\n            if tulip.target=="Leaker":\n                return dict(leak_id=leak_id, tulip=tulip.url, form=None)\n\n        return dict(leak_id=leak_id, form=None, tulip=None)\n    elif form.errors:\n        response.flash = \'form has errors\'\n    else:\n        response.flash = \'please fill the form\'        \n    \n    return dict(form=form, leak_id=None, tulip=None)\n\ndef tulip():\n    tulip_url = request.args[0]\n    t = Tulip(url=tulip_url)\n    return dict(message=t.id)\n\ndef error():\n    return dict()\n\nresponse._vars=response._caller(tulip)\n'
p6
sS'snapshot'
p7
(dp8
S'exception'
p9
(dp10
S'__hash__'
p11
S"<method-wrapper '__hash__' of exceptions.IndexError object>"
p12
sS'__setattr__'
p13
S"<method-wrapper '__setattr__' of exceptions.IndexError object>"
p14
sS'__reduce_ex__'
p15
S'<built-in method __reduce_ex__ of exceptions.IndexError object>'
p16
sS'__getslice__'
p17
S"<method-wrapper '__getslice__' of exceptions.IndexError object>"
p18
sS'__getitem__'
p19
S"<method-wrapper '__getitem__' of exceptions.IndexError object>"
p20
sS'__setstate__'
p21
S'<built-in method __setstate__ of exceptions.IndexError object>'
p22
sS'args'
p23
S"('list index out of range',)"
p24
sS'__reduce__'
p25
S'<built-in method __reduce__ of exceptions.IndexError object>'
p26
sS'__str__'
p27
S"<method-wrapper '__str__' of exceptions.IndexError object>"
p28
sS'__format__'
p29
S'<built-in method __format__ of exceptions.IndexError object>'
p30
sS'__getattribute__'
p31
S"<method-wrapper '__getattribute__' of exceptions.IndexError object>"
p32
sS'__class__'
p33
S"<type 'exceptions.IndexError'>"
p34
sS'__unicode__'
p35
S'<built-in method __unicode__ of exceptions.IndexError object>'
p36
sS'__delattr__'
p37
S"<method-wrapper '__delattr__' of exceptions.IndexError object>"
p38
sS'__subclasshook__'
p39
S'<built-in method __subclasshook__ of type object>'
p40
sS'__repr__'
p41
S"<method-wrapper '__repr__' of exceptions.IndexError object>"
p42
sS'__dict__'
p43
S'{}'
p44
sS'__sizeof__'
p45
S'<built-in method __sizeof__ of exceptions.IndexError object>'
p46
sS'__doc__'
p47
S"'Sequence index out of range.'"
p48
sS'__init__'
p49
S"<method-wrapper '__init__' of exceptions.IndexError object>"
p50
sS'__new__'
p51
S'<built-in method __new__ of type object>'
p52
ssS'evalue'
p53
S'list index out of range'
p54
sS'request'
p55
ccopy_reg
_reconstructor
p56
(cgluon.html
BEAUTIFY
p57
c__builtin__
object
p58
NtRp59
(dp60
S'attributes'
p61
(dp62
sS'components'
p63
(lp64
g56
(cgluon.html
TABLE
p65
g58
NtRp66
(dp67
g61
(dp68
S'level'
p69
I5
ssS'parent'
p70
Nsg63
(lp71
g56
(cgluon.html
TR
p72
g58
NtRp73
(dp74
g61
(dp75
sg70
g66
sg63
(lp76
g56
(cgluon.html
TD
p77
g58
NtRp78
(dp79
g61
(dp80
S'_style'
p81
S'font-weight:bold;'
p82
ssg70
g73
sg63
(lp83
S'ajax'
p84
asbag56
(g77
g58
NtRp85
(dp86
g61
(dp87
S'_valign'
p88
S'top'
p89
ssg70
g73
sg63
(lp90
S':'
asbag56
(g77
g58
NtRp91
(dp92
g61
(dp93
sg70
g73
sg63
(lp94
g56
(g57
g58
NtRp95
(dp96
g61
(dp97
g69
I5
ssg70
g91
sg63
(lp98
S'False'
p99
asbasbasbag56
(g72
g58
NtRp100
(dp101
g61
(dp102
sg70
g66
sg63
(lp103
g56
(g77
g58
NtRp104
(dp105
g61
(dp106
g81
g82
ssg70
g100
sg63
(lp107
S'application'
p108
asbag56
(g77
g58
NtRp109
(dp110
g61
(dp111
g88
g89
ssg70
g100
sg63
(lp112
S':'
asbag56
(g77
g58
NtRp113
(dp114
g61
(dp115
sg70
g100
sg63
(lp116
g56
(g57
g58
NtRp117
(dp118
g61
(dp119
g69
I5
ssg70
g113
sg63
(lp120
S'init'
p121
asbasbasbag56
(g72
g58
NtRp122
(dp123
g61
(dp124
sg70
g66
sg63
(lp125
g56
(g77
g58
NtRp126
(dp127
g61
(dp128
g81
g82
ssg70
g122
sg63
(lp129
g23
asbag56
(g77
g58
NtRp130
(dp131
g61
(dp132
g88
g89
ssg70
g122
sg63
(lp133
S':'
asbag56
(g77
g58
NtRp134
(dp135
g61
(dp136
sg70
g122
sg63
(lp137
g56
(g57
g58
NtRp138
(dp139
g61
(dp140
g69
I5
ssg70
g134
sg63
(lp141
g56
(g65
g58
NtRp142
(dp143
g61
(dp144
g69
I4
ssg70
Nsg63
(lp145
g56
(g72
g58
NtRp146
(dp147
g61
(dp148
sg70
g142
sg63
(lp149
g56
(g77
g58
NtRp150
(dp151
g61
(dp152
sg70
g146
sg63
(lp153
g56
(g57
g58
NtRp154
(dp155
g61
(dp156
g69
I4
ssg70
g150
sg63
(lp157
S'0f05e204af4d1ffabf462df37c8c606a3240f45a2e2fcb3bef41ea5b823b55d0'
p158
asbasbasbasbasbasbasbag56
(g72
g58
NtRp159
(dp160
g61
(dp161
sg70
g66
sg63
(lp162
g56
(g77
g58
NtRp163
(dp164
g61
(dp165
g81
g82
ssg70
g159
sg63
(lp166
S'body'
p167
asbag56
(g77
g58
NtRp168
(dp169
g61
(dp170
g88
g89
ssg70
g159
sg63
(lp171
S':'
asbag56
(g77
g58
NtRp172
(dp173
g61
(dp174
sg70
g159
sg63
(lp175
g56
(g57
g58
NtRp176
(dp177
g61
(dp178
g69
I5
ssg70
g172
sg63
(lp179
S'<cStringIO.StringO object at 0x103b72260>'
p180
asbasbasbag56
(g72
g58
NtRp181
(dp182
g61
(dp183
sg70
g66
sg63
(lp184
g56
(g77
g58
NtRp185
(dp186
g61
(dp187
g81
g82
ssg70
g181
sg63
(lp188
S'client'
p189
asbag56
(g77
g58
NtRp190
(dp191
g61
(dp192
g88
g89
ssg70
g181
sg63
(lp193
S':'
asbag56
(g77
g58
NtRp194
(dp195
g61
(dp196
sg70
g181
sg63
(lp197
g56
(g57
g58
NtRp198
(dp199
g61
(dp200
g69
I5
ssg70
g194
sg63
(lp201
S'127.0.0.1'
p202
asbasbasbag56
(g72
g58
NtRp203
(dp204
g61
(dp205
sg70
g66
sg63
(lp206
g56
(g77
g58
NtRp207
(dp208
g61
(dp209
g81
g82
ssg70
g203
sg63
(lp210
S'controller'
p211
asbag56
(g77
g58
NtRp212
(dp213
g61
(dp214
g88
g89
ssg70
g203
sg63
(lp215
S':'
asbag56
(g77
g58
NtRp216
(dp217
g61
(dp218
sg70
g203
sg63
(lp219
g56
(g57
g58
NtRp220
(dp221
g61
(dp222
g69
I5
ssg70
g216
sg63
(lp223
S'default'
p224
asbasbasbag56
(g72
g58
NtRp225
(dp226
g61
(dp227
sg70
g66
sg63
(lp228
g56
(g77
g58
NtRp229
(dp230
g61
(dp231
g81
g82
ssg70
g225
sg63
(lp232
S'cookies'
p233
asbag56
(g77
g58
NtRp234
(dp235
g61
(dp236
g88
g89
ssg70
g225
sg63
(lp237
S':'
asbag56
(g77
g58
NtRp238
(dp239
g61
(dp240
sg70
g225
sg63
(lp241
g56
(g57
g58
NtRp242
(dp243
g61
(dp244
g69
I5
ssg70
g238
sg63
(lp245
g56
(g65
g58
NtRp246
(dp247
g61
(dp248
g69
I4
ssg70
Nsg63
(lp249
g56
(g72
g58
NtRp250
(dp251
g61
(dp252
sg70
g246
sg63
(lp253
g56
(g77
g58
NtRp254
(dp255
g61
(dp256
g81
g82
ssg70
g250
sg63
(lp257
S'session_id_admin'
p258
asbag56
(g77
g58
NtRp259
(dp260
g61
(dp261
g88
g89
ssg70
g250
sg63
(lp262
S':'
asbag56
(g77
g58
NtRp263
(dp264
g61
(dp265
sg70
g250
sg63
(lp266
g56
(g57
g58
NtRp267
(dp268
g61
(dp269
g69
I4
ssg70
g263
sg63
(lp270
g56
(g65
g58
NtRp271
(dp272
g61
(dp273
g69
I3
ssg70
Nsg63
(lp274
g56
(g72
g58
NtRp275
(dp276
g61
(dp277
sg70
g271
sg63
(lp278
g56
(g77
g58
NtRp279
(dp280
g61
(dp281
g81
g82
ssg70
g275
sg63
(lp282
S'comment'
p283
asbag56
(g77
g58
NtRp284
(dp285
g61
(dp286
g88
g89
ssg70
g275
sg63
(lp287
S':'
asbag56
(g77
g58
NtRp288
(dp289
g61
(dp290
sg70
g275
sg63
(lp291
g56
(g57
g58
NtRp292
(dp293
g61
(dp294
g69
I3
ssg70
g288
sg63
(lp295
S''
asbasbasbag56
(g72
g58
NtRp296
(dp297
g61
(dp298
sg70
g271
sg63
(lp299
g56
(g77
g58
NtRp300
(dp301
g61
(dp302
g81
g82
ssg70
g296
sg63
(lp303
S'domain'
p304
asbag56
(g77
g58
NtRp305
(dp306
g61
(dp307
g88
g89
ssg70
g296
sg63
(lp308
S':'
asbag56
(g77
g58
NtRp309
(dp310
g61
(dp311
sg70
g296
sg63
(lp312
g56
(g57
g58
NtRp313
(dp314
g61
(dp315
g69
I3
ssg70
g309
sg63
(lp316
S''
asbasbasbag56
(g72
g58
NtRp317
(dp318
g61
(dp319
sg70
g271
sg63
(lp320
g56
(g77
g58
NtRp321
(dp322
g61
(dp323
g81
g82
ssg70
g317
sg63
(lp324
S'expires'
p325
asbag56
(g77
g58
NtRp326
(dp327
g61
(dp328
g88
g89
ssg70
g317
sg63
(lp329
S':'
asbag56
(g77
g58
NtRp330
(dp331
g61
(dp332
sg70
g317
sg63
(lp333
g56
(g57
g58
NtRp334
(dp335
g61
(dp336
g69
I3
ssg70
g330
sg63
(lp337
S''
asbasbasbag56
(g72
g58
NtRp338
(dp339
g61
(dp340
sg70
g271
sg63
(lp341
g56
(g77
g58
NtRp342
(dp343
g61
(dp344
g81
g82
ssg70
g338
sg63
(lp345
S'httponly'
p346
asbag56
(g77
g58
NtRp347
(dp348
g61
(dp349
g88
g89
ssg70
g338
sg63
(lp350
S':'
asbag56
(g77
g58
NtRp351
(dp352
g61
(dp353
sg70
g338
sg63
(lp354
g56
(g57
g58
NtRp355
(dp356
g61
(dp357
g69
I3
ssg70
g351
sg63
(lp358
S''
asbasbasbag56
(g72
g58
NtRp359
(dp360
g61
(dp361
sg70
g271
sg63
(lp362
g56
(g77
g58
NtRp363
(dp364
g61
(dp365
g81
g82
ssg70
g359
sg63
(lp366
S'max-age'
p367
asbag56
(g77
g58
NtRp368
(dp369
g61
(dp370
g88
g89
ssg70
g359
sg63
(lp371
S':'
asbag56
(g77
g58
NtRp372
(dp373
g61
(dp374
sg70
g359
sg63
(lp375
g56
(g57
g58
NtRp376
(dp377
g61
(dp378
g69
I3
ssg70
g372
sg63
(lp379
S''
asbasbasbag56
(g72
g58
NtRp380
(dp381
g61
(dp382
sg70
g271
sg63
(lp383
g56
(g77
g58
NtRp384
(dp385
g61
(dp386
g81
g82
ssg70
g380
sg63
(lp387
S'path'
p388
asbag56
(g77
g58
NtRp389
(dp390
g61
(dp391
g88
g89
ssg70
g380
sg63
(lp392
S':'
asbag56
(g77
g58
NtRp393
(dp394
g61
(dp395
sg70
g380
sg63
(lp396
g56
(g57
g58
NtRp397
(dp398
g61
(dp399
g69
I3
ssg70
g393
sg63
(lp400
S''
asbasbasbag56
(g72
g58
NtRp401
(dp402
g61
(dp403
sg70
g271
sg63
(lp404
g56
(g77
g58
NtRp405
(dp406
g61
(dp407
g81
g82
ssg70
g401
sg63
(lp408
S'secure'
p409
asbag56
(g77
g58
NtRp410
(dp411
g61
(dp412
g88
g89
ssg70
g401
sg63
(lp413
S':'
asbag56
(g77
g58
NtRp414
(dp415
g61
(dp416
sg70
g401
sg63
(lp417
g56
(g57
g58
NtRp418
(dp419
g61
(dp420
g69
I3
ssg70
g414
sg63
(lp421
S''
asbasbasbag56
(g72
g58
NtRp422
(dp423
g61
(dp424
sg70
g271
sg63
(lp425
g56
(g77
g58
NtRp426
(dp427
g61
(dp428
g81
g82
ssg70
g422
sg63
(lp429
S'version'
p430
asbag56
(g77
g58
NtRp431
(dp432
g61
(dp433
g88
g89
ssg70
g422
sg63
(lp434
S':'
asbag56
(g77
g58
NtRp435
(dp436
g61
(dp437
sg70
g422
sg63
(lp438
g56
(g57
g58
NtRp439
(dp440
g61
(dp441
g69
I3
ssg70
g435
sg63
(lp442
S''
asbasbasbasbasbasbasbag56
(g72
g58
NtRp443
(dp444
g61
(dp445
sg70
g246
sg63
(lp446
g56
(g77
g58
NtRp447
(dp448
g61
(dp449
g81
g82
ssg70
g443
sg63
(lp450
S'session_id_blabla'
p451
asbag56
(g77
g58
NtRp452
(dp453
g61
(dp454
g88
g89
ssg70
g443
sg63
(lp455
S':'
asbag56
(g77
g58
NtRp456
(dp457
g61
(dp458
sg70
g443
sg63
(lp459
g56
(g57
g58
NtRp460
(dp461
g61
(dp462
g69
I4
ssg70
g456
sg63
(lp463
g56
(g65
g58
NtRp464
(dp465
g61
(dp466
g69
I3
ssg70
Nsg63
(lp467
g56
(g72
g58
NtRp468
(dp469
g61
(dp470
sg70
g464
sg63
(lp471
g56
(g77
g58
NtRp472
(dp473
g61
(dp474
g81
g82
ssg70
g468
sg63
(lp475
g283
asbag56
(g77
g58
NtRp476
(dp477
g61
(dp478
g88
g89
ssg70
g468
sg63
(lp479
S':'
asbag56
(g77
g58
NtRp480
(dp481
g61
(dp482
sg70
g468
sg63
(lp483
g56
(g57
g58
NtRp484
(dp485
g61
(dp486
g69
I3
ssg70
g480
sg63
(lp487
S''
asbasbasbag56
(g72
g58
NtRp488
(dp489
g61
(dp490
sg70
g464
sg63
(lp491
g56
(g77
g58
NtRp492
(dp493
g61
(dp494
g81
g82
ssg70
g488
sg63
(lp495
g304
asbag56
(g77
g58
NtRp496
(dp497
g61
(dp498
g88
g89
ssg70
g488
sg63
(lp499
S':'
asbag56
(g77
g58
NtRp500
(dp501
g61
(dp502
sg70
g488
sg63
(lp503
g56
(g57
g58
NtRp504
(dp505
g61
(dp506
g69
I3
ssg70
g500
sg63
(lp507
S''
asbasbasbag56
(g72
g58
NtRp508
(dp509
g61
(dp510
sg70
g464
sg63
(lp511
g56
(g77
g58
NtRp512
(dp513
g61
(dp514
g81
g82
ssg70
g508
sg63
(lp515
g325
asbag56
(g77
g58
NtRp516
(dp517
g61
(dp518
g88
g89
ssg70
g508
sg63
(lp519
S':'
asbag56
(g77
g58
NtRp520
(dp521
g61
(dp522
sg70
g508
sg63
(lp523
g56
(g57
g58
NtRp524
(dp525
g61
(dp526
g69
I3
ssg70
g520
sg63
(lp527
S''
asbasbasbag56
(g72
g58
NtRp528
(dp529
g61
(dp530
sg70
g464
sg63
(lp531
g56
(g77
g58
NtRp532
(dp533
g61
(dp534
g81
g82
ssg70
g528
sg63
(lp535
g346
asbag56
(g77
g58
NtRp536
(dp537
g61
(dp538
g88
g89
ssg70
g528
sg63
(lp539
S':'
asbag56
(g77
g58
NtRp540
(dp541
g61
(dp542
sg70
g528
sg63
(lp543
g56
(g57
g58
NtRp544
(dp545
g61
(dp546
g69
I3
ssg70
g540
sg63
(lp547
S''
asbasbasbag56
(g72
g58
NtRp548
(dp549
g61
(dp550
sg70
g464
sg63
(lp551
g56
(g77
g58
NtRp552
(dp553
g61
(dp554
g81
g82
ssg70
g548
sg63
(lp555
g367
asbag56
(g77
g58
NtRp556
(dp557
g61
(dp558
g88
g89
ssg70
g548
sg63
(lp559
S':'
asbag56
(g77
g58
NtRp560
(dp561
g61
(dp562
sg70
g548
sg63
(lp563
g56
(g57
g58
NtRp564
(dp565
g61
(dp566
g69
I3
ssg70
g560
sg63
(lp567
S''
asbasbasbag56
(g72
g58
NtRp568
(dp569
g61
(dp570
sg70
g464
sg63
(lp571
g56
(g77
g58
NtRp572
(dp573
g61
(dp574
g81
g82
ssg70
g568
sg63
(lp575
g388
asbag56
(g77
g58
NtRp576
(dp577
g61
(dp578
g88
g89
ssg70
g568
sg63
(lp579
S':'
asbag56
(g77
g58
NtRp580
(dp581
g61
(dp582
sg70
g568
sg63
(lp583
g56
(g57
g58
NtRp584
(dp585
g61
(dp586
g69
I3
ssg70
g580
sg63
(lp587
S''
asbasbasbag56
(g72
g58
NtRp588
(dp589
g61
(dp590
sg70
g464
sg63
(lp591
g56
(g77
g58
NtRp592
(dp593
g61
(dp594
g81
g82
ssg70
g588
sg63
(lp595
g409
asbag56
(g77
g58
NtRp596
(dp597
g61
(dp598
g88
g89
ssg70
g588
sg63
(lp599
S':'
asbag56
(g77
g58
NtRp600
(dp601
g61
(dp602
sg70
g588
sg63
(lp603
g56
(g57
g58
NtRp604
(dp605
g61
(dp606
g69
I3
ssg70
g600
sg63
(lp607
S''
asbasbasbag56
(g72
g58
NtRp608
(dp609
g61
(dp610
sg70
g464
sg63
(lp611
g56
(g77
g58
NtRp612
(dp613
g61
(dp614
g81
g82
ssg70
g608
sg63
(lp615
g430
asbag56
(g77
g58
NtRp616
(dp617
g61
(dp618
g88
g89
ssg70
g608
sg63
(lp619
S':'
asbag56
(g77
g58
NtRp620
(dp621
g61
(dp622
sg70
g608
sg63
(lp623
g56
(g57
g58
NtRp624
(dp625
g61
(dp626
g69
I3
ssg70
g620
sg63
(lp627
S''
asbasbasbasbasbasbasbag56
(g72
g58
NtRp628
(dp629
g61
(dp630
sg70
g246
sg63
(lp631
g56
(g77
g58
NtRp632
(dp633
g61
(dp634
g81
g82
ssg70
g628
sg63
(lp635
S'session_id_globaleaks'
p636
asbag56
(g77
g58
NtRp637
(dp638
g61
(dp639
g88
g89
ssg70
g628
sg63
(lp640
S':'
asbag56
(g77
g58
NtRp641
(dp642
g61
(dp643
sg70
g628
sg63
(lp644
g56
(g57
g58
NtRp645
(dp646
g61
(dp647
g69
I4
ssg70
g641
sg63
(lp648
g56
(g65
g58
NtRp649
(dp650
g61
(dp651
g69
I3
ssg70
Nsg63
(lp652
g56
(g72
g58
NtRp653
(dp654
g61
(dp655
sg70
g649
sg63
(lp656
g56
(g77
g58
NtRp657
(dp658
g61
(dp659
g81
g82
ssg70
g653
sg63
(lp660
g283
asbag56
(g77
g58
NtRp661
(dp662
g61
(dp663
g88
g89
ssg70
g653
sg63
(lp664
S':'
asbag56
(g77
g58
NtRp665
(dp666
g61
(dp667
sg70
g653
sg63
(lp668
g56
(g57
g58
NtRp669
(dp670
g61
(dp671
g69
I3
ssg70
g665
sg63
(lp672
S''
asbasbasbag56
(g72
g58
NtRp673
(dp674
g61
(dp675
sg70
g649
sg63
(lp676
g56
(g77
g58
NtRp677
(dp678
g61
(dp679
g81
g82
ssg70
g673
sg63
(lp680
g304
asbag56
(g77
g58
NtRp681
(dp682
g61
(dp683
g88
g89
ssg70
g673
sg63
(lp684
S':'
asbag56
(g77
g58
NtRp685
(dp686
g61
(dp687
sg70
g673
sg63
(lp688
g56
(g57
g58
NtRp689
(dp690
g61
(dp691
g69
I3
ssg70
g685
sg63
(lp692
S''
asbasbasbag56
(g72
g58
NtRp693
(dp694
g61
(dp695
sg70
g649
sg63
(lp696
g56
(g77
g58
NtRp697
(dp698
g61
(dp699
g81
g82
ssg70
g693
sg63
(lp700
g325
asbag56
(g77
g58
NtRp701
(dp702
g61
(dp703
g88
g89
ssg70
g693
sg63
(lp704
S':'
asbag56
(g77
g58
NtRp705
(dp706
g61
(dp707
sg70
g693
sg63
(lp708
g56
(g57
g58
NtRp709
(dp710
g61
(dp711
g69
I3
ssg70
g705
sg63
(lp712
S''
asbasbasbag56
(g72
g58
NtRp713
(dp714
g61
(dp715
sg70
g649
sg63
(lp716
g56
(g77
g58
NtRp717
(dp718
g61
(dp719
g81
g82
ssg70
g713
sg63
(lp720
g346
asbag56
(g77
g58
NtRp721
(dp722
g61
(dp723
g88
g89
ssg70
g713
sg63
(lp724
S':'
asbag56
(g77
g58
NtRp725
(dp726
g61
(dp727
sg70
g713
sg63
(lp728
g56
(g57
g58
NtRp729
(dp730
g61
(dp731
g69
I3
ssg70
g725
sg63
(lp732
S''
asbasbasbag56
(g72
g58
NtRp733
(dp734
g61
(dp735
sg70
g649
sg63
(lp736
g56
(g77
g58
NtRp737
(dp738
g61
(dp739
g81
g82
ssg70
g733
sg63
(lp740
g367
asbag56
(g77
g58
NtRp741
(dp742
g61
(dp743
g88
g89
ssg70
g733
sg63
(lp744
S':'
asbag56
(g77
g58
NtRp745
(dp746
g61
(dp747
sg70
g733
sg63
(lp748
g56
(g57
g58
NtRp749
(dp750
g61
(dp751
g69
I3
ssg70
g745
sg63
(lp752
S''
asbasbasbag56
(g72
g58
NtRp753
(dp754
g61
(dp755
sg70
g649
sg63
(lp756
g56
(g77
g58
NtRp757
(dp758
g61
(dp759
g81
g82
ssg70
g753
sg63
(lp760
g388
asbag56
(g77
g58
NtRp761
(dp762
g61
(dp763
g88
g89
ssg70
g753
sg63
(lp764
S':'
asbag56
(g77
g58
NtRp765
(dp766
g61
(dp767
sg70
g753
sg63
(lp768
g56
(g57
g58
NtRp769
(dp770
g61
(dp771
g69
I3
ssg70
g765
sg63
(lp772
S''
asbasbasbag56
(g72
g58
NtRp773
(dp774
g61
(dp775
sg70
g649
sg63
(lp776
g56
(g77
g58
NtRp777
(dp778
g61
(dp779
g81
g82
ssg70
g773
sg63
(lp780
g409
asbag56
(g77
g58
NtRp781
(dp782
g61
(dp783
g88
g89
ssg70
g773
sg63
(lp784
S':'
asbag56
(g77
g58
NtRp785
(dp786
g61
(dp787
sg70
g773
sg63
(lp788
g56
(g57
g58
NtRp789
(dp790
g61
(dp791
g69
I3
ssg70
g785
sg63
(lp792
S''
asbasbasbag56
(g72
g58
NtRp793
(dp794
g61
(dp795
sg70
g649
sg63
(lp796
g56
(g77
g58
NtRp797
(dp798
g61
(dp799
g81
g82
ssg70
g793
sg63
(lp800
g430
asbag56
(g77
g58
NtRp801
(dp802
g61
(dp803
g88
g89
ssg70
g793
sg63
(lp804
S':'
asbag56
(g77
g58
NtRp805
(dp806
g61
(dp807
sg70
g793
sg63
(lp808
g56
(g57
g58
NtRp809
(dp810
g61
(dp811
g69
I3
ssg70
g805
sg63
(lp812
S''
asbasbasbasbasbasbasbag56
(g72
g58
NtRp813
(dp814
g61
(dp815
sg70
g246
sg63
(lp816
g56
(g77
g58
NtRp817
(dp818
g61
(dp819
g81
g82
ssg70
g813
sg63
(lp820
S'session_id_init'
p821
asbag56
(g77
g58
NtRp822
(dp823
g61
(dp824
g88
g89
ssg70
g813
sg63
(lp825
S':'
asbag56
(g77
g58
NtRp826
(dp827
g61
(dp828
sg70
g813
sg63
(lp829
g56
(g57
g58
NtRp830
(dp831
g61
(dp832
g69
I4
ssg70
g826
sg63
(lp833
g56
(g65
g58
NtRp834
(dp835
g61
(dp836
g69
I3
ssg70
Nsg63
(lp837
g56
(g72
g58
NtRp838
(dp839
g61
(dp840
sg70
g834
sg63
(lp841
g56
(g77
g58
NtRp842
(dp843
g61
(dp844
g81
g82
ssg70
g838
sg63
(lp845
g283
asbag56
(g77
g58
NtRp846
(dp847
g61
(dp848
g88
g89
ssg70
g838
sg63
(lp849
S':'
asbag56
(g77
g58
NtRp850
(dp851
g61
(dp852
sg70
g838
sg63
(lp853
g56
(g57
g58
NtRp854
(dp855
g61
(dp856
g69
I3
ssg70
g850
sg63
(lp857
S''
asbasbasbag56
(g72
g58
NtRp858
(dp859
g61
(dp860
sg70
g834
sg63
(lp861
g56
(g77
g58
NtRp862
(dp863
g61
(dp864
g81
g82
ssg70
g858
sg63
(lp865
g304
asbag56
(g77
g58
NtRp866
(dp867
g61
(dp868
g88
g89
ssg70
g858
sg63
(lp869
S':'
asbag56
(g77
g58
NtRp870
(dp871
g61
(dp872
sg70
g858
sg63
(lp873
g56
(g57
g58
NtRp874
(dp875
g61
(dp876
g69
I3
ssg70
g870
sg63
(lp877
S''
asbasbasbag56
(g72
g58
NtRp878
(dp879
g61
(dp880
sg70
g834
sg63
(lp881
g56
(g77
g58
NtRp882
(dp883
g61
(dp884
g81
g82
ssg70
g878
sg63
(lp885
g325
asbag56
(g77
g58
NtRp886
(dp887
g61
(dp888
g88
g89
ssg70
g878
sg63
(lp889
S':'
asbag56
(g77
g58
NtRp890
(dp891
g61
(dp892
sg70
g878
sg63
(lp893
g56
(g57
g58
NtRp894
(dp895
g61
(dp896
g69
I3
ssg70
g890
sg63
(lp897
S''
asbasbasbag56
(g72
g58
NtRp898
(dp899
g61
(dp900
sg70
g834
sg63
(lp901
g56
(g77
g58
NtRp902
(dp903
g61
(dp904
g81
g82
ssg70
g898
sg63
(lp905
g346
asbag56
(g77
g58
NtRp906
(dp907
g61
(dp908
g88
g89
ssg70
g898
sg63
(lp909
S':'
asbag56
(g77
g58
NtRp910
(dp911
g61
(dp912
sg70
g898
sg63
(lp913
g56
(g57
g58
NtRp914
(dp915
g61
(dp916
g69
I3
ssg70
g910
sg63
(lp917
S''
asbasbasbag56
(g72
g58
NtRp918
(dp919
g61
(dp920
sg70
g834
sg63
(lp921
g56
(g77
g58
NtRp922
(dp923
g61
(dp924
g81
g82
ssg70
g918
sg63
(lp925
g367
asbag56
(g77
g58
NtRp926
(dp927
g61
(dp928
g88
g89
ssg70
g918
sg63
(lp929
S':'
asbag56
(g77
g58
NtRp930
(dp931
g61
(dp932
sg70
g918
sg63
(lp933
g56
(g57
g58
NtRp934
(dp935
g61
(dp936
g69
I3
ssg70
g930
sg63
(lp937
S''
asbasbasbag56
(g72
g58
NtRp938
(dp939
g61
(dp940
sg70
g834
sg63
(lp941
g56
(g77
g58
NtRp942
(dp943
g61
(dp944
g81
g82
ssg70
g938
sg63
(lp945
g388
asbag56
(g77
g58
NtRp946
(dp947
g61
(dp948
g88
g89
ssg70
g938
sg63
(lp949
S':'
asbag56
(g77
g58
NtRp950
(dp951
g61
(dp952
sg70
g938
sg63
(lp953
g56
(g57
g58
NtRp954
(dp955
g61
(dp956
g69
I3
ssg70
g950
sg63
(lp957
S''
asbasbasbag56
(g72
g58
NtRp958
(dp959
g61
(dp960
sg70
g834
sg63
(lp961
g56
(g77
g58
NtRp962
(dp963
g61
(dp964
g81
g82
ssg70
g958
sg63
(lp965
g409
asbag56
(g77
g58
NtRp966
(dp967
g61
(dp968
g88
g89
ssg70
g958
sg63
(lp969
S':'
asbag56
(g77
g58
NtRp970
(dp971
g61
(dp972
sg70
g958
sg63
(lp973
g56
(g57
g58
NtRp974
(dp975
g61
(dp976
g69
I3
ssg70
g970
sg63
(lp977
S''
asbasbasbag56
(g72
g58
NtRp978
(dp979
g61
(dp980
sg70
g834
sg63
(lp981
g56
(g77
g58
NtRp982
(dp983
g61
(dp984
g81
g82
ssg70
g978
sg63
(lp985
g430
asbag56
(g77
g58
NtRp986
(dp987
g61
(dp988
g88
g89
ssg70
g978
sg63
(lp989
S':'
asbag56
(g77
g58
NtRp990
(dp991
g61
(dp992
sg70
g978
sg63
(lp993
g56
(g57
g58
NtRp994
(dp995
g61
(dp996
g69
I3
ssg70
g990
sg63
(lp997
S''
asbasbasbasbasbasbasbasbasbasbasbag56
(g72
g58
NtRp998
(dp999
g61
(dp1000
sg70
g66
sg63
(lp1001
g56
(g77
g58
NtRp1002
(dp1003
g61
(dp1004
g81
g82
ssg70
g998
sg63
(lp1005
S'env'
p1006
asbag56
(g77
g58
NtRp1007
(dp1008
g61
(dp1009
g88
g89
ssg70
g998
sg63
(lp1010
S':'
asbag56
(g77
g58
NtRp1011
(dp1012
g61
(dp1013
sg70
g998
sg63
(lp1014
g56
(g57
g58
NtRp1015
(dp1016
g61
(dp1017
g69
I5
ssg70
g1011
sg63
(lp1018
g56
(g65
g58
NtRp1019
(dp1020
g61
(dp1021
g69
I4
ssg70
Nsg63
(lp1022
g56
(g72
g58
NtRp1023
(dp1024
g61
(dp1025
sg70
g1019
sg63
(lp1026
g56
(g77
g58
NtRp1027
(dp1028
g61
(dp1029
g81
g82
ssg70
g1023
sg63
(lp1030
S'app_folders'
p1031
asbag56
(g77
g58
NtRp1032
(dp1033
g61
(dp1034
g88
g89
ssg70
g1023
sg63
(lp1035
S':'
asbag56
(g77
g58
NtRp1036
(dp1037
g61
(dp1038
sg70
g1023
sg63
(lp1039
g56
(g57
g58
NtRp1040
(dp1041
g61
(dp1042
g69
I4
ssg70
g1036
sg63
(lp1043
S"set(['/Users/hellais/Documents/code/mygit/globaleaks/webapp/applications/init/', '/Users/hellais/Documents/code/mygit/globaleaks/webapp/applications/admin/'])"
p1044
asbasbasbag56
(g72
g58
NtRp1045
(dp1046
g61
(dp1047
sg70
g1019
sg63
(lp1048
g56
(g77
g58
NtRp1049
(dp1050
g61
(dp1051
g81
g82
ssg70
g1045
sg63
(lp1052
S'applications_parent'
p1053
asbag56
(g77
g58
NtRp1054
(dp1055
g61
(dp1056
g88
g89
ssg70
g1045
sg63
(lp1057
S':'
asbag56
(g77
g58
NtRp1058
(dp1059
g61
(dp1060
sg70
g1045
sg63
(lp1061
g56
(g57
g58
NtRp1062
(dp1063
g61
(dp1064
g69
I4
ssg70
g1058
sg63
(lp1065
S'/Users/hellais/Documents/code/mygit/globaleaks/webapp'
p1066
asbasbasbag56
(g72
g58
NtRp1067
(dp1068
g61
(dp1069
sg70
g1019
sg63
(lp1070
g56
(g77
g58
NtRp1071
(dp1072
g61
(dp1073
g81
g82
ssg70
g1067
sg63
(lp1074
S'cmd_args'
p1075
asbag56
(g77
g58
NtRp1076
(dp1077
g61
(dp1078
g88
g89
ssg70
g1067
sg63
(lp1079
S':'
asbag56
(g77
g58
NtRp1080
(dp1081
g61
(dp1082
sg70
g1067
sg63
(lp1083
g56
(g57
g58
NtRp1084
(dp1085
g61
(dp1086
g69
I4
ssg70
g1080
sg63
(lp1087
g56
(g65
g58
NtRp1088
(dp1089
g61
(dp1090
g69
I3
ssg70
Nsg63
(lp1091
sbasbasbasbag56
(g72
g58
NtRp1092
(dp1093
g61
(dp1094
sg70
g1019
sg63
(lp1095
g56
(g77
g58
NtRp1096
(dp1097
g61
(dp1098
g81
g82
ssg70
g1092
sg63
(lp1099
S'cmd_options'
p1100
asbag56
(g77
g58
NtRp1101
(dp1102
g61
(dp1103
g88
g89
ssg70
g1092
sg63
(lp1104
S':'
asbag56
(g77
g58
NtRp1105
(dp1106
g61
(dp1107
sg70
g1092
sg63
(lp1108
g56
(g57
g58
NtRp1109
(dp1110
g61
(dp1111
g69
I4
ssg70
g1105
sg63
(lp1112
S"<Values at 0x1015f1320: {'verbose': False, 'ip': '127.0.0.1', 'shutdown_timeout': 5, 'taskbar': False, 'port': 8000, 'maxthreads': None, 'softcron': False, 'server_name': 'Jeanne.local', 'bpython': False, 'nogui': False, 'nocron': False, 'extcron': False, 'debuglevel': 30, 'test': None, 'folder': '/Users/hellais/Documents/code/mygit/globaleaks/webapp', 'config': '', 'import_models': False, 'winservice': '', 'shell': None, 'run': '', 'log_filename': 'httpserver.log', 'args': [''], 'profiler_filename': None, 'ssl_private_key': '', 'password': 'antani', 'request_queue_size': 5, 'ssl_certificate': '', 'cronjob': False, 'plain': False, 'quiet': False, 'interfaces': None, 'minthreads': None, 'timeout': 10, 'numthreads': None, 'nobanner': False, 'pid_filename': 'httpserver.pid'}>"
p1113
asbasbasbag56
(g72
g58
NtRp1114
(dp1115
g61
(dp1116
sg70
g1019
sg63
(lp1117
g56
(g77
g58
NtRp1118
(dp1119
g61
(dp1120
g81
g82
ssg70
g1114
sg63
(lp1121
S'db_sessions'
p1122
asbag56
(g77
g58
NtRp1123
(dp1124
g61
(dp1125
g88
g89
ssg70
g1114
sg63
(lp1126
S':'
asbag56
(g77
g58
NtRp1127
(dp1128
g61
(dp1129
sg70
g1114
sg63
(lp1130
g56
(g57
g58
NtRp1131
(dp1132
g61
(dp1133
g69
I4
ssg70
g1127
sg63
(lp1134
S'set([])'
p1135
asbasbasbag56
(g72
g58
NtRp1136
(dp1137
g61
(dp1138
sg70
g1019
sg63
(lp1139
g56
(g77
g58
NtRp1140
(dp1141
g61
(dp1142
g81
g82
ssg70
g1136
sg63
(lp1143
S'debugging'
p1144
asbag56
(g77
g58
NtRp1145
(dp1146
g61
(dp1147
g88
g89
ssg70
g1136
sg63
(lp1148
S':'
asbag56
(g77
g58
NtRp1149
(dp1150
g61
(dp1151
sg70
g1136
sg63
(lp1152
g56
(g57
g58
NtRp1153
(dp1154
g61
(dp1155
g69
I4
ssg70
g1149
sg63
(lp1156
g99
asbasbasbag56
(g72
g58
NtRp1157
(dp1158
g61
(dp1159
sg70
g1019
sg63
(lp1160
g56
(g77
g58
NtRp1161
(dp1162
g61
(dp1163
g81
g82
ssg70
g1157
sg63
(lp1164
S'gluon_parent'
p1165
asbag56
(g77
g58
NtRp1166
(dp1167
g61
(dp1168
g88
g89
ssg70
g1157
sg63
(lp1169
S':'
asbag56
(g77
g58
NtRp1170
(dp1171
g61
(dp1172
sg70
g1157
sg63
(lp1173
g56
(g57
g58
NtRp1174
(dp1175
g61
(dp1176
g69
I4
ssg70
g1170
sg63
(lp1177
S'/Users/hellais/Documents/code/mygit/globaleaks/webapp'
p1178
asbasbasbag56
(g72
g58
NtRp1179
(dp1180
g61
(dp1181
sg70
g1019
sg63
(lp1182
g56
(g77
g58
NtRp1183
(dp1184
g61
(dp1185
g81
g82
ssg70
g1179
sg63
(lp1186
S'http_accept'
p1187
asbag56
(g77
g58
NtRp1188
(dp1189
g61
(dp1190
g88
g89
ssg70
g1179
sg63
(lp1191
S':'
asbag56
(g77
g58
NtRp1192
(dp1193
g61
(dp1194
sg70
g1179
sg63
(lp1195
g56
(g57
g58
NtRp1196
(dp1197
g61
(dp1198
g69
I4
ssg70
g1192
sg63
(lp1199
S'text/html,application/xhtml+xml,application/xml;q=0.9,*/*;q=0.8'
p1200
asbasbasbag56
(g72
g58
NtRp1201
(dp1202
g61
(dp1203
sg70
g1019
sg63
(lp1204
g56
(g77
g58
NtRp1205
(dp1206
g61
(dp1207
g81
g82
ssg70
g1201
sg63
(lp1208
S'http_accept_charset'
p1209
asbag56
(g77
g58
NtRp1210
(dp1211
g61
(dp1212
g88
g89
ssg70
g1201
sg63
(lp1213
S':'
asbag56
(g77
g58
NtRp1214
(dp1215
g61
(dp1216
sg70
g1201
sg63
(lp1217
g56
(g57
g58
NtRp1218
(dp1219
g61
(dp1220
g69
I4
ssg70
g1214
sg63
(lp1221
S'ISO-8859-1,utf-8;q=0.7,*;q=0.7'
p1222
asbasbasbag56
(g72
g58
NtRp1223
(dp1224
g61
(dp1225
sg70
g1019
sg63
(lp1226
g56
(g77
g58
NtRp1227
(dp1228
g61
(dp1229
g81
g82
ssg70
g1223
sg63
(lp1230
S'http_accept_encoding'
p1231
asbag56
(g77
g58
NtRp1232
(dp1233
g61
(dp1234
g88
g89
ssg70
g1223
sg63
(lp1235
S':'
asbag56
(g77
g58
NtRp1236
(dp1237
g61
(dp1238
sg70
g1223
sg63
(lp1239
g56
(g57
g58
NtRp1240
(dp1241
g61
(dp1242
g69
I4
ssg70
g1236
sg63
(lp1243
S'gzip, deflate'
p1244
asbasbasbag56
(g72
g58
NtRp1245
(dp1246
g61
(dp1247
sg70
g1019
sg63
(lp1248
g56
(g77
g58
NtRp1249
(dp1250
g61
(dp1251
g81
g82
ssg70
g1245
sg63
(lp1252
S'http_accept_language'
p1253
asbag56
(g77
g58
NtRp1254
(dp1255
g61
(dp1256
g88
g89
ssg70
g1245
sg63
(lp1257
S':'
asbag56
(g77
g58
NtRp1258
(dp1259
g61
(dp1260
sg70
g1245
sg63
(lp1261
g56
(g57
g58
NtRp1262
(dp1263
g61
(dp1264
g69
I4
ssg70
g1258
sg63
(lp1265
S'en-us,en;q=0.5'
p1266
asbasbasbag56
(g72
g58
NtRp1267
(dp1268
g61
(dp1269
sg70
g1019
sg63
(lp1270
g56
(g77
g58
NtRp1271
(dp1272
g61
(dp1273
g81
g82
ssg70
g1267
sg63
(lp1274
S'http_cache_control'
p1275
asbag56
(g77
g58
NtRp1276
(dp1277
g61
(dp1278
g88
g89
ssg70
g1267
sg63
(lp1279
S':'
asbag56
(g77
g58
NtRp1280
(dp1281
g61
(dp1282
sg70
g1267
sg63
(lp1283
g56
(g57
g58
NtRp1284
(dp1285
g61
(dp1286
g69
I4
ssg70
g1280
sg63
(lp1287
S'max-age=0'
p1288
asbasbasbag56
(g72
g58
NtRp1289
(dp1290
g61
(dp1291
sg70
g1019
sg63
(lp1292
g56
(g77
g58
NtRp1293
(dp1294
g61
(dp1295
g81
g82
ssg70
g1289
sg63
(lp1296
S'http_connection'
p1297
asbag56
(g77
g58
NtRp1298
(dp1299
g61
(dp1300
g88
g89
ssg70
g1289
sg63
(lp1301
S':'
asbag56
(g77
g58
NtRp1302
(dp1303
g61
(dp1304
sg70
g1289
sg63
(lp1305
g56
(g57
g58
NtRp1306
(dp1307
g61
(dp1308
g69
I4
ssg70
g1302
sg63
(lp1309
S'keep-alive'
p1310
asbasbasbag56
(g72
g58
NtRp1311
(dp1312
g61
(dp1313
sg70
g1019
sg63
(lp1314
g56
(g77
g58
NtRp1315
(dp1316
g61
(dp1317
g81
g82
ssg70
g1311
sg63
(lp1318
S'http_cookie'
p1319
asbag56
(g77
g58
NtRp1320
(dp1321
g61
(dp1322
g88
g89
ssg70
g1311
sg63
(lp1323
S':'
asbag56
(g77
g58
NtRp1324
(dp1325
g61
(dp1326
sg70
g1311
sg63
(lp1327
g56
(g57
g58
NtRp1328
(dp1329
g61
(dp1330
g69
I4
ssg70
g1324
sg63
(lp1331
S'session_id_admin=127.0.0.1-67122ce4-50b2-4acf-b28e-7a14feeff4d9; session_id_globaleaks=127.0.0.1-c6d5b9b3-1ec7-41c1-8d72-04c21b7a6b11; session_id_blabla=127.0.0.1-c445384e-a3ea-4484-8fe2-52f3295bbb7c; session_id_init=127.0.0.1-a8551263-bc3c-430c-abb2-8711fac671c1'
p1332
asbasbasbag56
(g72
g58
NtRp1333
(dp1334
g61
(dp1335
sg70
g1019
sg63
(lp1336
g56
(g77
g58
NtRp1337
(dp1338
g61
(dp1339
g81
g82
ssg70
g1333
sg63
(lp1340
S'http_host'
p1341
asbag56
(g77
g58
NtRp1342
(dp1343
g61
(dp1344
g88
g89
ssg70
g1333
sg63
(lp1345
S':'
asbag56
(g77
g58
NtRp1346
(dp1347
g61
(dp1348
sg70
g1333
sg63
(lp1349
g56
(g57
g58
NtRp1350
(dp1351
g61
(dp1352
g69
I4
ssg70
g1346
sg63
(lp1353
S'127.0.0.1:8000'
p1354
asbasbasbag56
(g72
g58
NtRp1355
(dp1356
g61
(dp1357
sg70
g1019
sg63
(lp1358
g56
(g77
g58
NtRp1359
(dp1360
g61
(dp1361
g81
g82
ssg70
g1355
sg63
(lp1362
S'http_user_agent'
p1363
asbag56
(g77
g58
NtRp1364
(dp1365
g61
(dp1366
g88
g89
ssg70
g1355
sg63
(lp1367
S':'
asbag56
(g77
g58
NtRp1368
(dp1369
g61
(dp1370
sg70
g1355
sg63
(lp1371
g56
(g57
g58
NtRp1372
(dp1373
g61
(dp1374
g69
I4
ssg70
g1368
sg63
(lp1375
S'Mozilla/5.0 (Macintosh; Intel Mac OS X 10.6; rv:5.0.1) Gecko/20100101 Firefox/5.0.1'
p1376
asbasbasbag56
(g72
g58
NtRp1377
(dp1378
g61
(dp1379
sg70
g1019
sg63
(lp1380
g56
(g77
g58
NtRp1381
(dp1382
g61
(dp1383
g81
g82
ssg70
g1377
sg63
(lp1384
S'is_jython'
p1385
asbag56
(g77
g58
NtRp1386
(dp1387
g61
(dp1388
g88
g89
ssg70
g1377
sg63
(lp1389
S':'
asbag56
(g77
g58
NtRp1390
(dp1391
g61
(dp1392
sg70
g1377
sg63
(lp1393
g56
(g57
g58
NtRp1394
(dp1395
g61
(dp1396
g69
I4
ssg70
g1390
sg63
(lp1397
g99
asbasbasbag56
(g72
g58
NtRp1398
(dp1399
g61
(dp1400
sg70
g1019
sg63
(lp1401
g56
(g77
g58
NtRp1402
(dp1403
g61
(dp1404
g81
g82
ssg70
g1398
sg63
(lp1405
S'path_info'
p1406
asbag56
(g77
g58
NtRp1407
(dp1408
g61
(dp1409
g88
g89
ssg70
g1398
sg63
(lp1410
S':'
asbag56
(g77
g58
NtRp1411
(dp1412
g61
(dp1413
sg70
g1398
sg63
(lp1414
g56
(g57
g58
NtRp1415
(dp1416
g61
(dp1417
g69
I4
ssg70
g1411
sg63
(lp1418
S'/init/default/tulip/0f05e204af4d1ffabf462df37c8c606a3240f45a2e2fcb3bef41ea5b823b55d0'
p1419
asbasbasbag56
(g72
g58
NtRp1420
(dp1421
g61
(dp1422
sg70
g1019
sg63
(lp1423
g56
(g77
g58
NtRp1424
(dp1425
g61
(dp1426
g81
g82
ssg70
g1420
sg63
(lp1427
S'query_string'
p1428
asbag56
(g77
g58
NtRp1429
(dp1430
g61
(dp1431
g88
g89
ssg70
g1420
sg63
(lp1432
S':'
asbag56
(g77
g58
NtRp1433
(dp1434
g61
(dp1435
sg70
g1420
sg63
(lp1436
g56
(g57
g58
NtRp1437
(dp1438
g61
(dp1439
g69
I4
ssg70
g1433
sg63
(lp1440
S''
asbasbasbag56
(g72
g58
NtRp1441
(dp1442
g61
(dp1443
sg70
g1019
sg63
(lp1444
g56
(g77
g58
NtRp1445
(dp1446
g61
(dp1447
g81
g82
ssg70
g1441
sg63
(lp1448
S'remote_addr'
p1449
asbag56
(g77
g58
NtRp1450
(dp1451
g61
(dp1452
g88
g89
ssg70
g1441
sg63
(lp1453
S':'
asbag56
(g77
g58
NtRp1454
(dp1455
g61
(dp1456
sg70
g1441
sg63
(lp1457
g56
(g57
g58
NtRp1458
(dp1459
g61
(dp1460
g69
I4
ssg70
g1454
sg63
(lp1461
g202
asbasbasbag56
(g72
g58
NtRp1462
(dp1463
g61
(dp1464
sg70
g1019
sg63
(lp1465
g56
(g77
g58
NtRp1466
(dp1467
g61
(dp1468
g81
g82
ssg70
g1462
sg63
(lp1469
S'remote_port'
p1470
asbag56
(g77
g58
NtRp1471
(dp1472
g61
(dp1473
g88
g89
ssg70
g1462
sg63
(lp1474
S':'
asbag56
(g77
g58
NtRp1475
(dp1476
g61
(dp1477
sg70
g1462
sg63
(lp1478
g56
(g57
g58
NtRp1479
(dp1480
g61
(dp1481
g69
I4
ssg70
g1475
sg63
(lp1482
S'55666'
p1483
asbasbasbag56
(g72
g58
NtRp1484
(dp1485
g61
(dp1486
sg70
g1019
sg63
(lp1487
g56
(g77
g58
NtRp1488
(dp1489
g61
(dp1490
g81
g82
ssg70
g1484
sg63
(lp1491
S'request_method'
p1492
asbag56
(g77
g58
NtRp1493
(dp1494
g61
(dp1495
g88
g89
ssg70
g1484
sg63
(lp1496
S':'
asbag56
(g77
g58
NtRp1497
(dp1498
g61
(dp1499
sg70
g1484
sg63
(lp1500
g56
(g57
g58
NtRp1501
(dp1502
g61
(dp1503
g69
I4
ssg70
g1497
sg63
(lp1504
S'GET'
p1505
asbasbasbag56
(g72
g58
NtRp1506
(dp1507
g61
(dp1508
sg70
g1019
sg63
(lp1509
g56
(g77
g58
NtRp1510
(dp1511
g61
(dp1512
g81
g82
ssg70
g1506
sg63
(lp1513
S'script_name'
p1514
asbag56
(g77
g58
NtRp1515
(dp1516
g61
(dp1517
g88
g89
ssg70
g1506
sg63
(lp1518
S':'
asbag56
(g77
g58
NtRp1519
(dp1520
g61
(dp1521
sg70
g1506
sg63
(lp1522
g56
(g57
g58
NtRp1523
(dp1524
g61
(dp1525
g69
I4
ssg70
g1519
sg63
(lp1526
S''
asbasbasbag56
(g72
g58
NtRp1527
(dp1528
g61
(dp1529
sg70
g1019
sg63
(lp1530
g56
(g77
g58
NtRp1531
(dp1532
g61
(dp1533
g81
g82
ssg70
g1527
sg63
(lp1534
S'server_name'
p1535
asbag56
(g77
g58
NtRp1536
(dp1537
g61
(dp1538
g88
g89
ssg70
g1527
sg63
(lp1539
S':'
asbag56
(g77
g58
NtRp1540
(dp1541
g61
(dp1542
sg70
g1527
sg63
(lp1543
g56
(g57
g58
NtRp1544
(dp1545
g61
(dp1546
g69
I4
ssg70
g1540
sg63
(lp1547
S'Jeanne.local'
p1548
asbasbasbag56
(g72
g58
NtRp1549
(dp1550
g61
(dp1551
sg70
g1019
sg63
(lp1552
g56
(g77
g58
NtRp1553
(dp1554
g61
(dp1555
g81
g82
ssg70
g1549
sg63
(lp1556
S'server_port'
p1557
asbag56
(g77
g58
NtRp1558
(dp1559
g61
(dp1560
g88
g89
ssg70
g1549
sg63
(lp1561
S':'
asbag56
(g77
g58
NtRp1562
(dp1563
g61
(dp1564
sg70
g1549
sg63
(lp1565
g56
(g57
g58
NtRp1566
(dp1567
g61
(dp1568
g69
I4
ssg70
g1562
sg63
(lp1569
S'8000'
p1570
asbasbasbag56
(g72
g58
NtRp1571
(dp1572
g61
(dp1573
sg70
g1019
sg63
(lp1574
g56
(g77
g58
NtRp1575
(dp1576
g61
(dp1577
g81
g82
ssg70
g1571
sg63
(lp1578
S'server_protocol'
p1579
asbag56
(g77
g58
NtRp1580
(dp1581
g61
(dp1582
g88
g89
ssg70
g1571
sg63
(lp1583
S':'
asbag56
(g77
g58
NtRp1584
(dp1585
g61
(dp1586
sg70
g1571
sg63
(lp1587
g56
(g57
g58
NtRp1588
(dp1589
g61
(dp1590
g69
I4
ssg70
g1584
sg63
(lp1591
S'HTTP/1.1'
p1592
asbasbasbag56
(g72
g58
NtRp1593
(dp1594
g61
(dp1595
sg70
g1019
sg63
(lp1596
g56
(g77
g58
NtRp1597
(dp1598
g61
(dp1599
g81
g82
ssg70
g1593
sg63
(lp1600
S'server_software'
p1601
asbag56
(g77
g58
NtRp1602
(dp1603
g61
(dp1604
g88
g89
ssg70
g1593
sg63
(lp1605
S':'
asbag56
(g77
g58
NtRp1606
(dp1607
g61
(dp1608
sg70
g1593
sg63
(lp1609
g56
(g57
g58
NtRp1610
(dp1611
g61
(dp1612
g69
I4
ssg70
g1606
sg63
(lp1613
S'Rocket 1.2.2'
p1614
asbasbasbag56
(g72
g58
NtRp1615
(dp1616
g61
(dp1617
sg70
g1019
sg63
(lp1618
g56
(g77
g58
NtRp1619
(dp1620
g61
(dp1621
g81
g82
ssg70
g1615
sg63
(lp1622
S'web2py_crontype'
p1623
asbag56
(g77
g58
NtRp1624
(dp1625
g61
(dp1626
g88
g89
ssg70
g1615
sg63
(lp1627
S':'
asbag56
(g77
g58
NtRp1628
(dp1629
g61
(dp1630
sg70
g1615
sg63
(lp1631
g56
(g57
g58
NtRp1632
(dp1633
g61
(dp1634
g69
I4
ssg70
g1628
sg63
(lp1635
S'hard'
p1636
asbasbasbag56
(g72
g58
NtRp1637
(dp1638
g61
(dp1639
sg70
g1019
sg63
(lp1640
g56
(g77
g58
NtRp1641
(dp1642
g61
(dp1643
g81
g82
ssg70
g1637
sg63
(lp1644
S'web2py_path'
p1645
asbag56
(g77
g58
NtRp1646
(dp1647
g61
(dp1648
g88
g89
ssg70
g1637
sg63
(lp1649
S':'
asbag56
(g77
g58
NtRp1650
(dp1651
g61
(dp1652
sg70
g1637
sg63
(lp1653
g56
(g57
g58
NtRp1654
(dp1655
g61
(dp1656
g69
I4
ssg70
g1650
sg63
(lp1657
g1066
asbasbasbag56
(g72
g58
NtRp1658
(dp1659
g61
(dp1660
sg70
g1019
sg63
(lp1661
g56
(g77
g58
NtRp1662
(dp1663
g61
(dp1664
g81
g82
ssg70
g1658
sg63
(lp1665
S'web2py_version'
p1666
asbag56
(g77
g58
NtRp1667
(dp1668
g61
(dp1669
g88
g89
ssg70
g1658
sg63
(lp1670
S':'
asbag56
(g77
g58
NtRp1671
(dp1672
g61
(dp1673
sg70
g1658
sg63
(lp1674
g56
(g57
g58
NtRp1675
(dp1676
g61
(dp1677
g69
I4
ssg70
g1671
sg63
(lp1678
S'Version 1.98.2 (2011-08-04 00:47:09)\n'
p1679
asbasbasbag56
(g72
g58
NtRp1680
(dp1681
g61
(dp1682
sg70
g1019
sg63
(lp1683
g56
(g77
g58
NtRp1684
(dp1685
g61
(dp1686
g81
g82
ssg70
g1680
sg63
(lp1687
S'wsgi_errors'
p1688
asbag56
(g77
g58
NtRp1689
(dp1690
g61
(dp1691
g88
g89
ssg70
g1680
sg63
(lp1692
S':'
asbag56
(g77
g58
NtRp1693
(dp1694
g61
(dp1695
sg70
g1680
sg63
(lp1696
g56
(g57
g58
NtRp1697
(dp1698
g61
(dp1699
g69
I4
ssg70
g1693
sg63
(lp1700
S"<open file '<stderr>', mode 'w' at 0x100287270>"
p1701
asbasbasbag56
(g72
g58
NtRp1702
(dp1703
g61
(dp1704
sg70
g1019
sg63
(lp1705
g56
(g77
g58
NtRp1706
(dp1707
g61
(dp1708
g81
g82
ssg70
g1702
sg63
(lp1709
S'wsgi_file_wrapper'
p1710
asbag56
(g77
g58
NtRp1711
(dp1712
g61
(dp1713
g88
g89
ssg70
g1702
sg63
(lp1714
S':'
asbag56
(g77
g58
NtRp1715
(dp1716
g61
(dp1717
sg70
g1702
sg63
(lp1718
g56
(g57
g58
NtRp1719
(dp1720
g61
(dp1721
g69
I4
ssg70
g1715
sg63
(lp1722
S'<class gluon.rocket.FileWrapper at 0x101668e20>'
p1723
asbasbasbag56
(g72
g58
NtRp1724
(dp1725
g61
(dp1726
sg70
g1019
sg63
(lp1727
g56
(g77
g58
NtRp1728
(dp1729
g61
(dp1730
g81
g82
ssg70
g1724
sg63
(lp1731
S'wsgi_input'
p1732
asbag56
(g77
g58
NtRp1733
(dp1734
g61
(dp1735
g88
g89
ssg70
g1724
sg63
(lp1736
S':'
asbag56
(g77
g58
NtRp1737
(dp1738
g61
(dp1739
sg70
g1724
sg63
(lp1740
g56
(g57
g58
NtRp1741
(dp1742
g61
(dp1743
g69
I4
ssg70
g1737
sg63
(lp1744
S'<socket._fileobject object at 0x101e81f50>'
p1745
asbasbasbag56
(g72
g58
NtRp1746
(dp1747
g61
(dp1748
sg70
g1019
sg63
(lp1749
g56
(g77
g58
NtRp1750
(dp1751
g61
(dp1752
g81
g82
ssg70
g1746
sg63
(lp1753
S'wsgi_multiprocess'
p1754
asbag56
(g77
g58
NtRp1755
(dp1756
g61
(dp1757
g88
g89
ssg70
g1746
sg63
(lp1758
S':'
asbag56
(g77
g58
NtRp1759
(dp1760
g61
(dp1761
sg70
g1746
sg63
(lp1762
g56
(g57
g58
NtRp1763
(dp1764
g61
(dp1765
g69
I4
ssg70
g1759
sg63
(lp1766
g99
asbasbasbag56
(g72
g58
NtRp1767
(dp1768
g61
(dp1769
sg70
g1019
sg63
(lp1770
g56
(g77
g58
NtRp1771
(dp1772
g61
(dp1773
g81
g82
ssg70
g1767
sg63
(lp1774
S'wsgi_multithread'
p1775
asbag56
(g77
g58
NtRp1776
(dp1777
g61
(dp1778
g88
g89
ssg70
g1767
sg63
(lp1779
S':'
asbag56
(g77
g58
NtRp1780
(dp1781
g61
(dp1782
sg70
g1767
sg63
(lp1783
g56
(g57
g58
NtRp1784
(dp1785
g61
(dp1786
g69
I4
ssg70
g1780
sg63
(lp1787
S'True'
p1788
asbasbasbag56
(g72
g58
NtRp1789
(dp1790
g61
(dp1791
sg70
g1019
sg63
(lp1792
g56
(g77
g58
NtRp1793
(dp1794
g61
(dp1795
g81
g82
ssg70
g1789
sg63
(lp1796
S'wsgi_run_once'
p1797
asbag56
(g77
g58
NtRp1798
(dp1799
g61
(dp1800
g88
g89
ssg70
g1789
sg63
(lp1801
S':'
asbag56
(g77
g58
NtRp1802
(dp1803
g61
(dp1804
sg70
g1789
sg63
(lp1805
g56
(g57
g58
NtRp1806
(dp1807
g61
(dp1808
g69
I4
ssg70
g1802
sg63
(lp1809
g99
asbasbasbag56
(g72
g58
NtRp1810
(dp1811
g61
(dp1812
sg70
g1019
sg63
(lp1813
g56
(g77
g58
NtRp1814
(dp1815
g61
(dp1816
g81
g82
ssg70
g1810
sg63
(lp1817
S'wsgi_url_scheme'
p1818
asbag56
(g77
g58
NtRp1819
(dp1820
g61
(dp1821
g88
g89
ssg70
g1810
sg63
(lp1822
S':'
asbag56
(g77
g58
NtRp1823
(dp1824
g61
(dp1825
sg70
g1810
sg63
(lp1826
g56
(g57
g58
NtRp1827
(dp1828
g61
(dp1829
g69
I4
ssg70
g1823
sg63
(lp1830
S'http'
p1831
asbasbasbag56
(g72
g58
NtRp1832
(dp1833
g61
(dp1834
sg70
g1019
sg63
(lp1835
g56
(g77
g58
NtRp1836
(dp1837
g61
(dp1838
g81
g82
ssg70
g1832
sg63
(lp1839
S'wsgi_version'
p1840
asbag56
(g77
g58
NtRp1841
(dp1842
g61
(dp1843
g88
g89
ssg70
g1832
sg63
(lp1844
S':'
asbag56
(g77
g58
NtRp1845
(dp1846
g61
(dp1847
sg70
g1832
sg63
(lp1848
g56
(g57
g58
NtRp1849
(dp1850
g61
(dp1851
g69
I4
ssg70
g1845
sg63
(lp1852
g56
(g65
g58
NtRp1853
(dp1854
g61
(dp1855
g69
I3
ssg70
Nsg63
(lp1856
g56
(g72
g58
NtRp1857
(dp1858
g61
(dp1859
sg70
g1853
sg63
(lp1860
g56
(g77
g58
NtRp1861
(dp1862
g61
(dp1863
sg70
g1857
sg63
(lp1864
g56
(g57
g58
NtRp1865
(dp1866
g61
(dp1867
g69
I3
ssg70
g1861
sg63
(lp1868
S'1'
asbasbasbag56
(g72
g58
NtRp1869
(dp1870
g61
(dp1871
sg70
g1853
sg63
(lp1872
g56
(g77
g58
NtRp1873
(dp1874
g61
(dp1875
sg70
g1869
sg63
(lp1876
g56
(g57
g58
NtRp1877
(dp1878
g61
(dp1879
g69
I3
ssg70
g1873
sg63
(lp1880
S'0'
asbasbasbasbasbasbasbasbasbasbasbag56
(g72
g58
NtRp1881
(dp1882
g61
(dp1883
sg70
g66
sg63
(lp1884
g56
(g77
g58
NtRp1885
(dp1886
g61
(dp1887
g81
g82
ssg70
g1881
sg63
(lp1888
S'extension'
p1889
asbag56
(g77
g58
NtRp1890
(dp1891
g61
(dp1892
g88
g89
ssg70
g1881
sg63
(lp1893
S':'
asbag56
(g77
g58
NtRp1894
(dp1895
g61
(dp1896
sg70
g1881
sg63
(lp1897
g56
(g57
g58
NtRp1898
(dp1899
g61
(dp1900
g69
I5
ssg70
g1894
sg63
(lp1901
S'html'
p1902
asbasbasbag56
(g72
g58
NtRp1903
(dp1904
g61
(dp1905
sg70
g66
sg63
(lp1906
g56
(g77
g58
NtRp1907
(dp1908
g61
(dp1909
g81
g82
ssg70
g1903
sg63
(lp1910
S'folder'
p1911
asbag56
(g77
g58
NtRp1912
(dp1913
g61
(dp1914
g88
g89
ssg70
g1903
sg63
(lp1915
S':'
asbag56
(g77
g58
NtRp1916
(dp1917
g61
(dp1918
sg70
g1903
sg63
(lp1919
g56
(g57
g58
NtRp1920
(dp1921
g61
(dp1922
g69
I5
ssg70
g1916
sg63
(lp1923
S'/Users/hellais/Documents/code/mygit/globaleaks/webapp/applications/init/'
p1924
asbasbasbag56
(g72
g58
NtRp1925
(dp1926
g61
(dp1927
sg70
g66
sg63
(lp1928
g56
(g77
g58
NtRp1929
(dp1930
g61
(dp1931
g81
g82
ssg70
g1925
sg63
(lp1932
S'function'
p1933
asbag56
(g77
g58
NtRp1934
(dp1935
g61
(dp1936
g88
g89
ssg70
g1925
sg63
(lp1937
S':'
asbag56
(g77
g58
NtRp1938
(dp1939
g61
(dp1940
sg70
g1925
sg63
(lp1941
g56
(g57
g58
NtRp1942
(dp1943
g61
(dp1944
g69
I5
ssg70
g1938
sg63
(lp1945
S'tulip'
p1946
asbasbasbag56
(g72
g58
NtRp1947
(dp1948
g61
(dp1949
sg70
g66
sg63
(lp1950
g56
(g77
g58
NtRp1951
(dp1952
g61
(dp1953
g81
g82
ssg70
g1947
sg63
(lp1954
S'get_vars'
p1955
asbag56
(g77
g58
NtRp1956
(dp1957
g61
(dp1958
g88
g89
ssg70
g1947
sg63
(lp1959
S':'
asbag56
(g77
g58
NtRp1960
(dp1961
g61
(dp1962
sg70
g1947
sg63
(lp1963
g56
(g57
g58
NtRp1964
(dp1965
g61
(dp1966
g69
I5
ssg70
g1960
sg63
(lp1967
g56
(g65
g58
NtRp1968
(dp1969
g61
(dp1970
g69
I4
ssg70
Nsg63
(lp1971
sbasbasbasbag56
(g72
g58
NtRp1972
(dp1973
g61
(dp1974
sg70
g66
sg63
(lp1975
g56
(g77
g58
NtRp1976
(dp1977
g61
(dp1978
g81
g82
ssg70
g1972
sg63
(lp1979
S'is_https'
p1980
asbag56
(g77
g58
NtRp1981
(dp1982
g61
(dp1983
g88
g89
ssg70
g1972
sg63
(lp1984
S':'
asbag56
(g77
g58
NtRp1985
(dp1986
g61
(dp1987
sg70
g1972
sg63
(lp1988
g56
(g57
g58
NtRp1989
(dp1990
g61
(dp1991
g69
I5
ssg70
g1985
sg63
(lp1992
g99
asbasbasbag56
(g72
g58
NtRp1993
(dp1994
g61
(dp1995
sg70
g66
sg63
(lp1996
g56
(g77
g58
NtRp1997
(dp1998
g61
(dp1999
g81
g82
ssg70
g1993
sg63
(lp2000
S'is_local'
p2001
asbag56
(g77
g58
NtRp2002
(dp2003
g61
(dp2004
g88
g89
ssg70
g1993
sg63
(lp2005
S':'
asbag56
(g77
g58
NtRp2006
(dp2007
g61
(dp2008
sg70
g1993
sg63
(lp2009
g56
(g57
g58
NtRp2010
(dp2011
g61
(dp2012
g69
I5
ssg70
g2006
sg63
(lp2013
g1788
asbasbasbag56
(g72
g58
NtRp2014
(dp2015
g61
(dp2016
sg70
g66
sg63
(lp2017
g56
(g77
g58
NtRp2018
(dp2019
g61
(dp2020
g81
g82
ssg70
g2014
sg63
(lp2021
S'is_restful'
p2022
asbag56
(g77
g58
NtRp2023
(dp2024
g61
(dp2025
g88
g89
ssg70
g2014
sg63
(lp2026
S':'
asbag56
(g77
g58
NtRp2027
(dp2028
g61
(dp2029
sg70
g2014
sg63
(lp2030
g56
(g57
g58
NtRp2031
(dp2032
g61
(dp2033
g69
I5
ssg70
g2027
sg63
(lp2034
g99
asbasbasbag56
(g72
g58
NtRp2035
(dp2036
g61
(dp2037
sg70
g66
sg63
(lp2038
g56
(g77
g58
NtRp2039
(dp2040
g61
(dp2041
g81
g82
ssg70
g2035
sg63
(lp2042
S'now'
p2043
asbag56
(g77
g58
NtRp2044
(dp2045
g61
(dp2046
g88
g89
ssg70
g2035
sg63
(lp2047
S':'
asbag56
(g77
g58
NtRp2048
(dp2049
g61
(dp2050
sg70
g2035
sg63
(lp2051
g56
(g57
g58
NtRp2052
(dp2053
g61
(dp2054
g69
I5
ssg70
g2048
sg63
(lp2055
S'datetime.datetime(2011, 8, 28, 1, 52, 26, 970194)'
p2056
asbasbasbag56
(g72
g58
NtRp2057
(dp2058
g61
(dp2059
sg70
g66
sg63
(lp2060
g56
(g77
g58
NtRp2061
(dp2062
g61
(dp2063
g81
g82
ssg70
g2057
sg63
(lp2064
S'post_vars'
p2065
asbag56
(g77
g58
NtRp2066
(dp2067
g61
(dp2068
g88
g89
ssg70
g2057
sg63
(lp2069
S':'
asbag56
(g77
g58
NtRp2070
(dp2071
g61
(dp2072
sg70
g2057
sg63
(lp2073
g56
(g57
g58
NtRp2074
(dp2075
g61
(dp2076
g69
I5
ssg70
g2070
sg63
(lp2077
g56
(g65
g58
NtRp2078
(dp2079
g61
(dp2080
g69
I4
ssg70
Nsg63
(lp2081
sbasbasbasbag56
(g72
g58
NtRp2082
(dp2083
g61
(dp2084
sg70
g66
sg63
(lp2085
g56
(g77
g58
NtRp2086
(dp2087
g61
(dp2088
g81
g82
ssg70
g2082
sg63
(lp2089
S'raw_args'
p2090
asbag56
(g77
g58
NtRp2091
(dp2092
g61
(dp2093
g88
g89
ssg70
g2082
sg63
(lp2094
S':'
asbag56
(g77
g58
NtRp2095
(dp2096
g61
(dp2097
sg70
g2082
sg63
(lp2098
g56
(g57
g58
NtRp2099
(dp2100
g61
(dp2101
g69
I5
ssg70
g2095
sg63
(lp2102
g158
asbasbasbag56
(g72
g58
NtRp2103
(dp2104
g61
(dp2105
sg70
g66
sg63
(lp2106
g56
(g77
g58
NtRp2107
(dp2108
g61
(dp2109
g81
g82
ssg70
g2103
sg63
(lp2110
S'url'
p2111
asbag56
(g77
g58
NtRp2112
(dp2113
g61
(dp2114
g88
g89
ssg70
g2103
sg63
(lp2115
S':'
asbag56
(g77
g58
NtRp2116
(dp2117
g61
(dp2118
sg70
g2103
sg63
(lp2119
g56
(g57
g58
NtRp2120
(dp2121
g61
(dp2122
g69
I5
ssg70
g2116
sg63
(lp2123
S'/init/default/tulip/0f05e204af4d1ffabf462df37c8c606a3240f45a2e2fcb3bef41ea5b823b55d0'
p2124
asbasbasbag56
(g72
g58
NtRp2125
(dp2126
g61
(dp2127
sg70
g66
sg63
(lp2128
g56
(g77
g58
NtRp2129
(dp2130
g61
(dp2131
g81
g82
ssg70
g2125
sg63
(lp2132
S'uuid'
p2133
asbag56
(g77
g58
NtRp2134
(dp2135
g61
(dp2136
g88
g89
ssg70
g2125
sg63
(lp2137
S':'
asbag56
(g77
g58
NtRp2138
(dp2139
g61
(dp2140
sg70
g2125
sg63
(lp2141
g56
(g57
g58
NtRp2142
(dp2143
g61
(dp2144
g69
I5
ssg70
g2138
sg63
(lp2145
S'init/127.0.0.1.2011-08-28.01-52-26.d2fc10e4-58b5-48f1-859f-102c39b9c2a8'
p2146
asbasbasbag56
(g72
g58
NtRp2147
(dp2148
g61
(dp2149
sg70
g66
sg63
(lp2150
g56
(g77
g58
NtRp2151
(dp2152
g61
(dp2153
g81
g82
ssg70
g2147
sg63
(lp2154
S'vars'
p2155
asbag56
(g77
g58
NtRp2156
(dp2157
g61
(dp2158
g88
g89
ssg70
g2147
sg63
(lp2159
S':'
asbag56
(g77
g58
NtRp2160
(dp2161
g61
(dp2162
sg70
g2147
sg63
(lp2163
g56
(g57
g58
NtRp2164
(dp2165
g61
(dp2166
g69
I5
ssg70
g2160
sg63
(lp2167
g56
(g65
g58
NtRp2168
(dp2169
g61
(dp2170
g69
I4
ssg70
Nsg63
(lp2171
sbasbasbasbag56
(g72
g58
NtRp2172
(dp2173
g61
(dp2174
sg70
g66
sg63
(lp2175
g56
(g77
g58
NtRp2176
(dp2177
g61
(dp2178
g81
g82
ssg70
g2172
sg63
(lp2179
S'wsgi'
p2180
asbag56
(g77
g58
NtRp2181
(dp2182
g61
(dp2183
g88
g89
ssg70
g2172
sg63
(lp2184
S':'
asbag56
(g77
g58
NtRp2185
(dp2186
g61
(dp2187
sg70
g2172
sg63
(lp2188
g56
(g57
g58
NtRp2189
(dp2190
g61
(dp2191
g69
I5
ssg70
g2185
sg63
(lp2192
g56
(g65
g58
NtRp2193
(dp2194
g61
(dp2195
g69
I4
ssg70
Nsg63
(lp2196
g56
(g72
g58
NtRp2197
(dp2198
g61
(dp2199
sg70
g2193
sg63
(lp2200
g56
(g77
g58
NtRp2201
(dp2202
g61
(dp2203
g81
g82
ssg70
g2197
sg63
(lp2204
S'environ'
p2205
asbag56
(g77
g58
NtRp2206
(dp2207
g61
(dp2208
g88
g89
ssg70
g2197
sg63
(lp2209
S':'
asbag56
(g77
g58
NtRp2210
(dp2211
g61
(dp2212
sg70
g2197
sg63
(lp2213
g56
(g57
g58
NtRp2214
(dp2215
g61
(dp2216
g69
I4
ssg70
g2210
sg63
(lp2217
g56
(g65
g58
NtRp2218
(dp2219
g61
(dp2220
g69
I3
ssg70
Nsg63
(lp2221
g56
(g72
g58
NtRp2222
(dp2223
g61
(dp2224
sg70
g2218
sg63
(lp2225
g56
(g77
g58
NtRp2226
(dp2227
g61
(dp2228
g81
g82
ssg70
g2222
sg63
(lp2229
S'HTTP_ACCEPT'
p2230
asbag56
(g77
g58
NtRp2231
(dp2232
g61
(dp2233
g88
g89
ssg70
g2222
sg63
(lp2234
S':'
asbag56
(g77
g58
NtRp2235
(dp2236
g61
(dp2237
sg70
g2222
sg63
(lp2238
g56
(g57
g58
NtRp2239
(dp2240
g61
(dp2241
g69
I3
ssg70
g2235
sg63
(lp2242
g1200
asbasbasbag56
(g72
g58
NtRp2243
(dp2244
g61
(dp2245
sg70
g2218
sg63
(lp2246
g56
(g77
g58
NtRp2247
(dp2248
g61
(dp2249
g81
g82
ssg70
g2243
sg63
(lp2250
S'HTTP_ACCEPT_CHARSET'
p2251
asbag56
(g77
g58
NtRp2252
(dp2253
g61
(dp2254
g88
g89
ssg70
g2243
sg63
(lp2255
S':'
asbag56
(g77
g58
NtRp2256
(dp2257
g61
(dp2258
sg70
g2243
sg63
(lp2259
g56
(g57
g58
NtRp2260
(dp2261
g61
(dp2262
g69
I3
ssg70
g2256
sg63
(lp2263
g1222
asbasbasbag56
(g72
g58
NtRp2264
(dp2265
g61
(dp2266
sg70
g2218
sg63
(lp2267
g56
(g77
g58
NtRp2268
(dp2269
g61
(dp2270
g81
g82
ssg70
g2264
sg63
(lp2271
S'HTTP_ACCEPT_ENCODING'
p2272
asbag56
(g77
g58
NtRp2273
(dp2274
g61
(dp2275
g88
g89
ssg70
g2264
sg63
(lp2276
S':'
asbag56
(g77
g58
NtRp2277
(dp2278
g61
(dp2279
sg70
g2264
sg63
(lp2280
g56
(g57
g58
NtRp2281
(dp2282
g61
(dp2283
g69
I3
ssg70
g2277
sg63
(lp2284
g1244
asbasbasbag56
(g72
g58
NtRp2285
(dp2286
g61
(dp2287
sg70
g2218
sg63
(lp2288
g56
(g77
g58
NtRp2289
(dp2290
g61
(dp2291
g81
g82
ssg70
g2285
sg63
(lp2292
S'HTTP_ACCEPT_LANGUAGE'
p2293
asbag56
(g77
g58
NtRp2294
(dp2295
g61
(dp2296
g88
g89
ssg70
g2285
sg63
(lp2297
S':'
asbag56
(g77
g58
NtRp2298
(dp2299
g61
(dp2300
sg70
g2285
sg63
(lp2301
g56
(g57
g58
NtRp2302
(dp2303
g61
(dp2304
g69
I3
ssg70
g2298
sg63
(lp2305
g1266
asbasbasbag56
(g72
g58
NtRp2306
(dp2307
g61
(dp2308
sg70
g2218
sg63
(lp2309
g56
(g77
g58
NtRp2310
(dp2311
g61
(dp2312
g81
g82
ssg70
g2306
sg63
(lp2313
S'HTTP_CACHE_CONTROL'
p2314
asbag56
(g77
g58
NtRp2315
(dp2316
g61
(dp2317
g88
g89
ssg70
g2306
sg63
(lp2318
S':'
asbag56
(g77
g58
NtRp2319
(dp2320
g61
(dp2321
sg70
g2306
sg63
(lp2322
g56
(g57
g58
NtRp2323
(dp2324
g61
(dp2325
g69
I3
ssg70
g2319
sg63
(lp2326
g1288
asbasbasbag56
(g72
g58
NtRp2327
(dp2328
g61
(dp2329
sg70
g2218
sg63
(lp2330
g56
(g77
g58
NtRp2331
(dp2332
g61
(dp2333
g81
g82
ssg70
g2327
sg63
(lp2334
S'HTTP_CONNECTION'
p2335
asbag56
(g77
g58
NtRp2336
(dp2337
g61
(dp2338
g88
g89
ssg70
g2327
sg63
(lp2339
S':'
asbag56
(g77
g58
NtRp2340
(dp2341
g61
(dp2342
sg70
g2327
sg63
(lp2343
g56
(g57
g58
NtRp2344
(dp2345
g61
(dp2346
g69
I3
ssg70
g2340
sg63
(lp2347
g1310
asbasbasbag56
(g72
g58
NtRp2348
(dp2349
g61
(dp2350
sg70
g2218
sg63
(lp2351
g56
(g77
g58
NtRp2352
(dp2353
g61
(dp2354
g81
g82
ssg70
g2348
sg63
(lp2355
S'HTTP_COOKIE'
p2356
asbag56
(g77
g58
NtRp2357
(dp2358
g61
(dp2359
g88
g89
ssg70
g2348
sg63
(lp2360
S':'
asbag56
(g77
g58
NtRp2361
(dp2362
g61
(dp2363
sg70
g2348
sg63
(lp2364
g56
(g57
g58
NtRp2365
(dp2366
g61
(dp2367
g69
I3
ssg70
g2361
sg63
(lp2368
g1332
asbasbasbag56
(g72
g58
NtRp2369
(dp2370
g61
(dp2371
sg70
g2218
sg63
(lp2372
g56
(g77
g58
NtRp2373
(dp2374
g61
(dp2375
g81
g82
ssg70
g2369
sg63
(lp2376
S'HTTP_HOST'
p2377
asbag56
(g77
g58
NtRp2378
(dp2379
g61
(dp2380
g88
g89
ssg70
g2369
sg63
(lp2381
S':'
asbag56
(g77
g58
NtRp2382
(dp2383
g61
(dp2384
sg70
g2369
sg63
(lp2385
g56
(g57
g58
NtRp2386
(dp2387
g61
(dp2388
g69
I3
ssg70
g2382
sg63
(lp2389
g1354
asbasbasbag56
(g72
g58
NtRp2390
(dp2391
g61
(dp2392
sg70
g2218
sg63
(lp2393
g56
(g77
g58
NtRp2394
(dp2395
g61
(dp2396
g81
g82
ssg70
g2390
sg63
(lp2397
S'HTTP_USER_AGENT'
p2398
asbag56
(g77
g58
NtRp2399
(dp2400
g61
(dp2401
g88
g89
ssg70
g2390
sg63
(lp2402
S':'
asbag56
(g77
g58
NtRp2403
(dp2404
g61
(dp2405
sg70
g2390
sg63
(lp2406
g56
(g57
g58
NtRp2407
(dp2408
g61
(dp2409
g69
I3
ssg70
g2403
sg63
(lp2410
g1376
asbasbasbag56
(g72
g58
NtRp2411
(dp2412
g61
(dp2413
sg70
g2218
sg63
(lp2414
g56
(g77
g58
NtRp2415
(dp2416
g61
(dp2417
g81
g82
ssg70
g2411
sg63
(lp2418
S'PATH_INFO'
p2419
asbag56
(g77
g58
NtRp2420
(dp2421
g61
(dp2422
g88
g89
ssg70
g2411
sg63
(lp2423
S':'
asbag56
(g77
g58
NtRp2424
(dp2425
g61
(dp2426
sg70
g2411
sg63
(lp2427
g56
(g57
g58
NtRp2428
(dp2429
g61
(dp2430
g69
I3
ssg70
g2424
sg63
(lp2431
g1419
asbasbasbag56
(g72
g58
NtRp2432
(dp2433
g61
(dp2434
sg70
g2218
sg63
(lp2435
g56
(g77
g58
NtRp2436
(dp2437
g61
(dp2438
g81
g82
ssg70
g2432
sg63
(lp2439
S'QUERY_STRING'
p2440
asbag56
(g77
g58
NtRp2441
(dp2442
g61
(dp2443
g88
g89
ssg70
g2432
sg63
(lp2444
S':'
asbag56
(g77
g58
NtRp2445
(dp2446
g61
(dp2447
sg70
g2432
sg63
(lp2448
g56
(g57
g58
NtRp2449
(dp2450
g61
(dp2451
g69
I3
ssg70
g2445
sg63
(lp2452
S''
asbasbasbag56
(g72
g58
NtRp2453
(dp2454
g61
(dp2455
sg70
g2218
sg63
(lp2456
g56
(g77
g58
NtRp2457
(dp2458
g61
(dp2459
g81
g82
ssg70
g2453
sg63
(lp2460
S'REMOTE_ADDR'
p2461
asbag56
(g77
g58
NtRp2462
(dp2463
g61
(dp2464
g88
g89
ssg70
g2453
sg63
(lp2465
S':'
asbag56
(g77
g58
NtRp2466
(dp2467
g61
(dp2468
sg70
g2453
sg63
(lp2469
g56
(g57
g58
NtRp2470
(dp2471
g61
(dp2472
g69
I3
ssg70
g2466
sg63
(lp2473
g202
asbasbasbag56
(g72
g58
NtRp2474
(dp2475
g61
(dp2476
sg70
g2218
sg63
(lp2477
g56
(g77
g58
NtRp2478
(dp2479
g61
(dp2480
g81
g82
ssg70
g2474
sg63
(lp2481
S'REMOTE_PORT'
p2482
asbag56
(g77
g58
NtRp2483
(dp2484
g61
(dp2485
g88
g89
ssg70
g2474
sg63
(lp2486
S':'
asbag56
(g77
g58
NtRp2487
(dp2488
g61
(dp2489
sg70
g2474
sg63
(lp2490
g56
(g57
g58
NtRp2491
(dp2492
g61
(dp2493
g69
I3
ssg70
g2487
sg63
(lp2494
g1483
asbasbasbag56
(g72
g58
NtRp2495
(dp2496
g61
(dp2497
sg70
g2218
sg63
(lp2498
g56
(g77
g58
NtRp2499
(dp2500
g61
(dp2501
g81
g82
ssg70
g2495
sg63
(lp2502
S'REQUEST_METHOD'
p2503
asbag56
(g77
g58
NtRp2504
(dp2505
g61
(dp2506
g88
g89
ssg70
g2495
sg63
(lp2507
S':'
asbag56
(g77
g58
NtRp2508
(dp2509
g61
(dp2510
sg70
g2495
sg63
(lp2511
g56
(g57
g58
NtRp2512
(dp2513
g61
(dp2514
g69
I3
ssg70
g2508
sg63
(lp2515
g1505
asbasbasbag56
(g72
g58
NtRp2516
(dp2517
g61
(dp2518
sg70
g2218
sg63
(lp2519
g56
(g77
g58
NtRp2520
(dp2521
g61
(dp2522
g81
g82
ssg70
g2516
sg63
(lp2523
S'SCRIPT_NAME'
p2524
asbag56
(g77
g58
NtRp2525
(dp2526
g61
(dp2527
g88
g89
ssg70
g2516
sg63
(lp2528
S':'
asbag56
(g77
g58
NtRp2529
(dp2530
g61
(dp2531
sg70
g2516
sg63
(lp2532
g56
(g57
g58
NtRp2533
(dp2534
g61
(dp2535
g69
I3
ssg70
g2529
sg63
(lp2536
S''
asbasbasbag56
(g72
g58
NtRp2537
(dp2538
g61
(dp2539
sg70
g2218
sg63
(lp2540
g56
(g77
g58
NtRp2541
(dp2542
g61
(dp2543
g81
g82
ssg70
g2537
sg63
(lp2544
S'SERVER_NAME'
p2545
asbag56
(g77
g58
NtRp2546
(dp2547
g61
(dp2548
g88
g89
ssg70
g2537
sg63
(lp2549
S':'
asbag56
(g77
g58
NtRp2550
(dp2551
g61
(dp2552
sg70
g2537
sg63
(lp2553
g56
(g57
g58
NtRp2554
(dp2555
g61
(dp2556
g69
I3
ssg70
g2550
sg63
(lp2557
g1548
asbasbasbag56
(g72
g58
NtRp2558
(dp2559
g61
(dp2560
sg70
g2218
sg63
(lp2561
g56
(g77
g58
NtRp2562
(dp2563
g61
(dp2564
g81
g82
ssg70
g2558
sg63
(lp2565
S'SERVER_PORT'
p2566
asbag56
(g77
g58
NtRp2567
(dp2568
g61
(dp2569
g88
g89
ssg70
g2558
sg63
(lp2570
S':'
asbag56
(g77
g58
NtRp2571
(dp2572
g61
(dp2573
sg70
g2558
sg63
(lp2574
g56
(g57
g58
NtRp2575
(dp2576
g61
(dp2577
g69
I3
ssg70
g2571
sg63
(lp2578
g1570
asbasbasbag56
(g72
g58
NtRp2579
(dp2580
g61
(dp2581
sg70
g2218
sg63
(lp2582
g56
(g77
g58
NtRp2583
(dp2584
g61
(dp2585
g81
g82
ssg70
g2579
sg63
(lp2586
S'SERVER_PROTOCOL'
p2587
asbag56
(g77
g58
NtRp2588
(dp2589
g61
(dp2590
g88
g89
ssg70
g2579
sg63
(lp2591
S':'
asbag56
(g77
g58
NtRp2592
(dp2593
g61
(dp2594
sg70
g2579
sg63
(lp2595
g56
(g57
g58
NtRp2596
(dp2597
g61
(dp2598
g69
I3
ssg70
g2592
sg63
(lp2599
g1592
asbasbasbag56
(g72
g58
NtRp2600
(dp2601
g61
(dp2602
sg70
g2218
sg63
(lp2603
g56
(g77
g58
NtRp2604
(dp2605
g61
(dp2606
g81
g82
ssg70
g2600
sg63
(lp2607
S'SERVER_SOFTWARE'
p2608
asbag56
(g77
g58
NtRp2609
(dp2610
g61
(dp2611
g88
g89
ssg70
g2600
sg63
(lp2612
S':'
asbag56
(g77
g58
NtRp2613
(dp2614
g61
(dp2615
sg70
g2600
sg63
(lp2616
g56
(g57
g58
NtRp2617
(dp2618
g61
(dp2619
g69
I3
ssg70
g2613
sg63
(lp2620
g1614
asbasbasbag56
(g72
g58
NtRp2621
(dp2622
g61
(dp2623
sg70
g2218
sg63
(lp2624
g56
(g77
g58
NtRp2625
(dp2626
g61
(dp2627
g81
g82
ssg70
g2621
sg63
(lp2628
S'wsgi.errors'
p2629
asbag56
(g77
g58
NtRp2630
(dp2631
g61
(dp2632
g88
g89
ssg70
g2621
sg63
(lp2633
S':'
asbag56
(g77
g58
NtRp2634
(dp2635
g61
(dp2636
sg70
g2621
sg63
(lp2637
g56
(g57
g58
NtRp2638
(dp2639
g61
(dp2640
g69
I3
ssg70
g2634
sg63
(lp2641
S"<open file '<stderr>', mode 'w' at 0x100287270>"
p2642
asbasbasbag56
(g72
g58
NtRp2643
(dp2644
g61
(dp2645
sg70
g2218
sg63
(lp2646
g56
(g77
g58
NtRp2647
(dp2648
g61
(dp2649
g81
g82
ssg70
g2643
sg63
(lp2650
S'wsgi.file_wrapper'
p2651
asbag56
(g77
g58
NtRp2652
(dp2653
g61
(dp2654
g88
g89
ssg70
g2643
sg63
(lp2655
S':'
asbag56
(g77
g58
NtRp2656
(dp2657
g61
(dp2658
sg70
g2643
sg63
(lp2659
g56
(g57
g58
NtRp2660
(dp2661
g61
(dp2662
g69
I3
ssg70
g2656
sg63
(lp2663
S'<class gluon.rocket.FileWrapper at 0x101668e20>'
p2664
asbasbasbag56
(g72
g58
NtRp2665
(dp2666
g61
(dp2667
sg70
g2218
sg63
(lp2668
g56
(g77
g58
NtRp2669
(dp2670
g61
(dp2671
g81
g82
ssg70
g2665
sg63
(lp2672
S'wsgi.input'
p2673
asbag56
(g77
g58
NtRp2674
(dp2675
g61
(dp2676
g88
g89
ssg70
g2665
sg63
(lp2677
S':'
asbag56
(g77
g58
NtRp2678
(dp2679
g61
(dp2680
sg70
g2665
sg63
(lp2681
g56
(g57
g58
NtRp2682
(dp2683
g61
(dp2684
g69
I3
ssg70
g2678
sg63
(lp2685
S'<cStringIO.StringO object at 0x103b72260>'
p2686
asbasbasbag56
(g72
g58
NtRp2687
(dp2688
g61
(dp2689
sg70
g2218
sg63
(lp2690
g56
(g77
g58
NtRp2691
(dp2692
g61
(dp2693
g81
g82
ssg70
g2687
sg63
(lp2694
S'wsgi.multiprocess'
p2695
asbag56
(g77
g58
NtRp2696
(dp2697
g61
(dp2698
g88
g89
ssg70
g2687
sg63
(lp2699
S':'
asbag56
(g77
g58
NtRp2700
(dp2701
g61
(dp2702
sg70
g2687
sg63
(lp2703
g56
(g57
g58
NtRp2704
(dp2705
g61
(dp2706
g69
I3
ssg70
g2700
sg63
(lp2707
g99
asbasbasbag56
(g72
g58
NtRp2708
(dp2709
g61
(dp2710
sg70
g2218
sg63
(lp2711
g56
(g77
g58
NtRp2712
(dp2713
g61
(dp2714
g81
g82
ssg70
g2708
sg63
(lp2715
S'wsgi.multithread'
p2716
asbag56
(g77
g58
NtRp2717
(dp2718
g61
(dp2719
g88
g89
ssg70
g2708
sg63
(lp2720
S':'
asbag56
(g77
g58
NtRp2721
(dp2722
g61
(dp2723
sg70
g2708
sg63
(lp2724
g56
(g57
g58
NtRp2725
(dp2726
g61
(dp2727
g69
I3
ssg70
g2721
sg63
(lp2728
g1788
asbasbasbag56
(g72
g58
NtRp2729
(dp2730
g61
(dp2731
sg70
g2218
sg63
(lp2732
g56
(g77
g58
NtRp2733
(dp2734
g61
(dp2735
g81
g82
ssg70
g2729
sg63
(lp2736
S'wsgi.run_once'
p2737
asbag56
(g77
g58
NtRp2738
(dp2739
g61
(dp2740
g88
g89
ssg70
g2729
sg63
(lp2741
S':'
asbag56
(g77
g58
NtRp2742
(dp2743
g61
(dp2744
sg70
g2729
sg63
(lp2745
g56
(g57
g58
NtRp2746
(dp2747
g61
(dp2748
g69
I3
ssg70
g2742
sg63
(lp2749
g99
asbasbasbag56
(g72
g58
NtRp2750
(dp2751
g61
(dp2752
sg70
g2218
sg63
(lp2753
g56
(g77
g58
NtRp2754
(dp2755
g61
(dp2756
g81
g82
ssg70
g2750
sg63
(lp2757
S'wsgi.url_scheme'
p2758
asbag56
(g77
g58
NtRp2759
(dp2760
g61
(dp2761
g88
g89
ssg70
g2750
sg63
(lp2762
S':'
asbag56
(g77
g58
NtRp2763
(dp2764
g61
(dp2765
sg70
g2750
sg63
(lp2766
g56
(g57
g58
NtRp2767
(dp2768
g61
(dp2769
g69
I3
ssg70
g2763
sg63
(lp2770
g1831
asbasbasbag56
(g72
g58
NtRp2771
(dp2772
g61
(dp2773
sg70
g2218
sg63
(lp2774
g56
(g77
g58
NtRp2775
(dp2776
g61
(dp2777
g81
g82
ssg70
g2771
sg63
(lp2778
S'wsgi.version'
p2779
asbag56
(g77
g58
NtRp2780
(dp2781
g61
(dp2782
g88
g89
ssg70
g2771
sg63
(lp2783
S':'
asbag56
(g77
g58
NtRp2784
(dp2785
g61
(dp2786
sg70
g2771
sg63
(lp2787
g56
(g57
g58
NtRp2788
(dp2789
g61
(dp2790
g69
I3
ssg70
g2784
sg63
(lp2791
S'1'
asbasbasbasbasbasbasbasbasbasbasbasbasbsS'frames'
p2792
(lp2793
(dp2794
S'file'
p2795
S'/opt/local/Library/Frameworks/Python.framework/Versions/2.7/lib/python2.7/gluon/restricted.py'
p2796
sS'dump'
p2797
(dp2798
S'environment'
p2799
S"{'A': <class 'gluon.html.A'>, 'Auth': <class 'gluon.tools.Auth'>, 'B': <class 'gluon.html.B'>, 'BEAUTIFY': <class 'gluon.html.BEAUTIFY'>, 'BODY': <class 'gluon.html.BODY'>, 'BR': <class 'gluon.html.BR'>, 'BUTTON': <class 'gluon.html.BUTTON'>, 'CAT': <class 'gluon.html.CAT'>, 'CENTER': <class 'gluon.html.CENTER'>, 'CLEANUP': <class 'gluon.validators.CLEANUP'>, ...}"
p2800
sS'ccode'
p2801
S'<code object <module> at 0x101caf0b0, file "/Use...pplications/init/controllers/default.py", line 3>'
p2802
ssS'lnum'
p2803
I192
sS'lines'
p2804
(dp2805
I192
S'        exec ccode in environment'
p2806
sI193
S'    except HTTP:'
p2807
sI194
S'        raise'
p2808
sI195
S'    except Exception, error:'
p2809
sI196
S'        # XXX Show exception in Wing IDE if running in debugger'
p2810
sI187
S'    try:'
p2811
sI188
S'        if type(code) == types.CodeType:'
p2812
sI189
S'            ccode = code'
p2813
sI190
S'        else:'
p2814
sI191
S'            ccode = compile2(code,layer)'
p2815
ssS'call'
p2816
S"(code='# -*- coding: utf-8 -*-\\n### required - do no del...n dict()\\n\\nresponse._vars=response._caller(tulip)\\n', environment={'A': <class 'gluon.html.A'>, 'Auth': <class 'gluon.tools.Auth'>, 'B': <class 'gluon.html.B'>, 'BEAUTIFY': <class 'gluon.html.BEAUTIFY'>, 'BODY': <class 'gluon.html.BODY'>, 'BR': <class 'gluon.html.BR'>, 'BUTTON': <class 'gluon.html.BUTTON'>, 'CAT': <class 'gluon.html.CAT'>, 'CENTER': <class 'gluon.html.CENTER'>, 'CLEANUP': <class 'gluon.validators.CLEANUP'>, ...}, layer='/Users/hellais/Documents/code/mygit/globaleaks/webapp/applications/init/controllers/default.py')"
p2817
sS'func'
p2818
S'restricted'
p2819
sa(dp2820
g2795
S'/Users/hellais/Documents/code/mygit/globaleaks/webapp/applications/init/controllers/default.py'
p2821
sg2797
(dp2822
sg2803
I50
sg2804
(dp2823
I39
S''
sI40
S'    return dict(form=form, leak_id=None, tulip=None)'
p2824
sI41
S''
sI42
S'def tulip():'
p2825
sI43
S'    tulip_url = request.args[0]'
p2826
sI44
S'    t = Tulip(url=tulip_url)'
p2827
sI45
S'    return dict(message=t.id)'
p2828
sI46
S''
sI47
S'def error():'
p2829
sI48
S'    return dict()'
p2830
ssg2816
S'()'
p2831
sg2818
S'<module>'
p2832
sa(dp2833
g2795
S'/opt/local/Library/Frameworks/Python.framework/Versions/2.7/lib/python2.7/gluon/globals.py'
p2834
sg2797
(dp2835
S'self'
p2836
S'undefined'
p2837
sS'f'
S'<function tulip>'
p2838
ssg2803
I145
sg2804
(dp2839
I140
S'        self.meta = Storage()      # used by web2py_ajax.html'
p2840
sI141
S'        self.menu = []             # used by the default view layout'
p2841
sI142
S'        self.files = []            # used by web2py_ajax.html'
p2842
sI143
S'        self.generic_patterns = [] # patterns to allow generic views'
p2843
sI144
S'        self._vars = None'
p2844
sI145
S'        self._caller = lambda f: f()'
p2845
sI146
S'        self._view_environment = None'
p2846
sI147
S'        self._custom_commit = None'
p2847
sI148
S'        self._custom_rollback = None'
p2848
sI149
S''
ssg2816
S'(f=<function tulip>)'
p2849
sg2818
S'<lambda>'
p2850
sa(dp2851
g2795
S'/Users/hellais/Documents/code/mygit/globaleaks/webapp/applications/init/controllers/default.py'
p2852
sg2797
(dp2853
S'url'
p2854
g2837
sS'tulip_url'
p2855
S"'0f05e204af4d1ffabf462df37c8c606a3240f45a2e2fcb3bef41ea5b823b55d0'"
p2856
sS't'
g2837
sS'global Tulip'
p2857
S"<class 'Tulip'>"
p2858
ssg2803
I44
sg2804
(dp2859
I39
S''
sI40
S'    return dict(form=form, leak_id=None, tulip=None)'
p2860
sI41
S''
sI42
S'def tulip():'
p2861
sI43
S'    tulip_url = request.args[0]'
p2862
sI44
S'    t = Tulip(url=tulip_url)'
p2863
sI45
S'    return dict(message=t.id)'
p2864
sI46
S''
sI47
S'def error():'
p2865
sI48
S'    return dict()'
p2866
ssg2816
S'()'
p2867
sg2818
S'tulip'
p2868
sa(dp2869
g2795
S'/Users/hellais/Documents/code/mygit/globaleaks/webapp/applications/init/models/datamodel.py'
p2870
sg2797
(dp2871
S'global db'
p2872
S'<DAL {\'_migrate_enabled\': True, \'_lastsql\': "SEL...\'_uri_hash\': \'fb87181b96a99be45f5a23f4277867ce\'}>'
p2873
sS'db.tulip'
p2874
S"<Table {'leak_id': <gluon.dal.Field object at 0x..., 'id': <gluon.dal.Field object at 0x102185690>}>"
p2875
sS').select'
p2876
g2837
sS'url'
p2877
S"'0f05e204af4d1ffabf462df37c8c606a3240f45a2e2fcb3bef41ea5b823b55d0'"
p2878
sS'db.tulip.uri'
p2879
S'<gluon.dal.Field object>'
p2880
ssg2803
I82
sg2804
(dp2881
I77
S''
sI78
S''
sI79
S'class Tulip(object):'
p2882
sI80
S'    def __init__(self, id=None, url=None):'
p2883
sI81
S'        if url:'
p2884
sI82
S'            print db(db.tulip.uri==url).select()[1]'
p2885
sI83
S'            self._id = db(db.tulip.uri==url).select()[0]'
p2886
sI84
S''
sI85
S'        else:'
p2887
sI86
S'            self._id = id'
p2888
ssg2816
S"(self=<Tulip object>, id=None, url='0f05e204af4d1ffabf462df37c8c606a3240f45a2e2fcb3bef41ea5b823b55d0')"
p2889
sg2818
g49
sa(dp2890
g2795
S'/opt/local/Library/Frameworks/Python.framework/Versions/2.7/lib/python2.7/gluon/dal.py'
p2891
sg2797
(dp2892
S'i'
S'1'
sS'self'
p2893
S'<gluon.dal.Rows object>'
p2894
sS'self.records'
p2895
S"[<Row {'tulip': <Row {'leak_id': 19, 'allowed_dow...e_record': <function <lambda> at 0x101e826e0>}>}>]"
p2896
sS'row'
p2897
g2837
ssg2803
I5619
sg2804
(dp2898
I5614
S''
sI5615
S'    def __getslice__(self, a, b):'
p2899
sI5616
S'        return Rows(self.db,self.records[a:b],self.colnames)'
p2900
sI5617
S''
sI5618
S'    def __getitem__(self, i):'
p2901
sI5619
S'        row = self.records[i]'
p2902
sI5620
S'        keys = row.keys()'
p2903
sI5621
S"        if self.compact and len(keys) == 1 and keys[0] != '_extra':"
p2904
sI5622
S'            return row[row.keys()[0]]'
p2905
sI5623
S'        return row'
p2906
ssg2816
S'(self=<gluon.dal.Rows object>, i=1)'
p2907
sg2818
g19
sasS'pyver'
p2908
S'Python 2.7.1: /opt/local/Library/Frameworks/Python.framework/Versions/2.7/Resources/Python.app/Contents/MacOS/Python'
p2909
sS'session'
p2910
g56
(g57
g58
NtRp2911
(dp2912
g61
(dp2913
sg63
(lp2914
g56
(g65
g58
NtRp2915
(dp2916
g61
(dp2917
g69
I5
ssg70
Nsg63
(lp2918
sbasbsS'etype'
p2919
S"<type 'exceptions.IndexError'>"
p2920
sS'date'
p2921
S'Sun Aug 28 01:52:26 2011'
p2922
sS'response'
p2923
g56
(g57
g58
NtRp2924
(dp2925
g61
(dp2926
sg63
(lp2927
g56
(g65
g58
NtRp2928
(dp2929
g61
(dp2930
g69
I5
ssg70
Nsg63
(lp2931
g56
(g72
g58
NtRp2932
(dp2933
g61
(dp2934
sg70
g2928
sg63
(lp2935
g56
(g77
g58
NtRp2936
(dp2937
g61
(dp2938
g81
g82
ssg70
g2932
sg63
(lp2939
g167
asbag56
(g77
g58
NtRp2940
(dp2941
g61
(dp2942
g88
g89
ssg70
g2932
sg63
(lp2943
S':'
asbag56
(g77
g58
NtRp2944
(dp2945
g61
(dp2946
sg70
g2932
sg63
(lp2947
g56
(g57
g58
NtRp2948
(dp2949
g61
(dp2950
g69
I5
ssg70
g2944
sg63
(lp2951
S'<cStringIO.StringO object at 0x1037a3c70>'
p2952
asbasbasbag56
(g72
g58
NtRp2953
(dp2954
g61
(dp2955
sg70
g2928
sg63
(lp2956
g56
(g77
g58
NtRp2957
(dp2958
g61
(dp2959
g81
g82
ssg70
g2953
sg63
(lp2960
g233
asbag56
(g77
g58
NtRp2961
(dp2962
g61
(dp2963
g88
g89
ssg70
g2953
sg63
(lp2964
S':'
asbag56
(g77
g58
NtRp2965
(dp2966
g61
(dp2967
sg70
g2953
sg63
(lp2968
g56
(g57
g58
NtRp2969
(dp2970
g61
(dp2971
g69
I5
ssg70
g2965
sg63
(lp2972
g56
(g65
g58
NtRp2973
(dp2974
g61
(dp2975
g69
I4
ssg70
Nsg63
(lp2976
g56
(g72
g58
NtRp2977
(dp2978
g61
(dp2979
sg70
g2973
sg63
(lp2980
g56
(g77
g58
NtRp2981
(dp2982
g61
(dp2983
g81
g82
ssg70
g2977
sg63
(lp2984
S'session_id_init'
p2985
asbag56
(g77
g58
NtRp2986
(dp2987
g61
(dp2988
g88
g89
ssg70
g2977
sg63
(lp2989
S':'
asbag56
(g77
g58
NtRp2990
(dp2991
g61
(dp2992
sg70
g2977
sg63
(lp2993
g56
(g57
g58
NtRp2994
(dp2995
g61
(dp2996
g69
I4
ssg70
g2990
sg63
(lp2997
g56
(g65
g58
NtRp2998
(dp2999
g61
(dp3000
g69
I3
ssg70
Nsg63
(lp3001
g56
(g72
g58
NtRp3002
(dp3003
g61
(dp3004
sg70
g2998
sg63
(lp3005
g56
(g77
g58
NtRp3006
(dp3007
g61
(dp3008
g81
g82
ssg70
g3002
sg63
(lp3009
g283
asbag56
(g77
g58
NtRp3010
(dp3011
g61
(dp3012
g88
g89
ssg70
g3002
sg63
(lp3013
S':'
asbag56
(g77
g58
NtRp3014
(dp3015
g61
(dp3016
sg70
g3002
sg63
(lp3017
g56
(g57
g58
NtRp3018
(dp3019
g61
(dp3020
g69
I3
ssg70
g3014
sg63
(lp3021
S''
asbasbasbag56
(g72
g58
NtRp3022
(dp3023
g61
(dp3024
sg70
g2998
sg63
(lp3025
g56
(g77
g58
NtRp3026
(dp3027
g61
(dp3028
g81
g82
ssg70
g3022
sg63
(lp3029
g304
asbag56
(g77
g58
NtRp3030
(dp3031
g61
(dp3032
g88
g89
ssg70
g3022
sg63
(lp3033
S':'
asbag56
(g77
g58
NtRp3034
(dp3035
g61
(dp3036
sg70
g3022
sg63
(lp3037
g56
(g57
g58
NtRp3038
(dp3039
g61
(dp3040
g69
I3
ssg70
g3034
sg63
(lp3041
S''
asbasbasbag56
(g72
g58
NtRp3042
(dp3043
g61
(dp3044
sg70
g2998
sg63
(lp3045
g56
(g77
g58
NtRp3046
(dp3047
g61
(dp3048
g81
g82
ssg70
g3042
sg63
(lp3049
g325
asbag56
(g77
g58
NtRp3050
(dp3051
g61
(dp3052
g88
g89
ssg70
g3042
sg63
(lp3053
S':'
asbag56
(g77
g58
NtRp3054
(dp3055
g61
(dp3056
sg70
g3042
sg63
(lp3057
g56
(g57
g58
NtRp3058
(dp3059
g61
(dp3060
g69
I3
ssg70
g3054
sg63
(lp3061
S''
asbasbasbag56
(g72
g58
NtRp3062
(dp3063
g61
(dp3064
sg70
g2998
sg63
(lp3065
g56
(g77
g58
NtRp3066
(dp3067
g61
(dp3068
g81
g82
ssg70
g3062
sg63
(lp3069
g346
asbag56
(g77
g58
NtRp3070
(dp3071
g61
(dp3072
g88
g89
ssg70
g3062
sg63
(lp3073
S':'
asbag56
(g77
g58
NtRp3074
(dp3075
g61
(dp3076
sg70
g3062
sg63
(lp3077
g56
(g57
g58
NtRp3078
(dp3079
g61
(dp3080
g69
I3
ssg70
g3074
sg63
(lp3081
S''
asbasbasbag56
(g72
g58
NtRp3082
(dp3083
g61
(dp3084
sg70
g2998
sg63
(lp3085
g56
(g77
g58
NtRp3086
(dp3087
g61
(dp3088
g81
g82
ssg70
g3082
sg63
(lp3089
g367
asbag56
(g77
g58
NtRp3090
(dp3091
g61
(dp3092
g88
g89
ssg70
g3082
sg63
(lp3093
S':'
asbag56
(g77
g58
NtRp3094
(dp3095
g61
(dp3096
sg70
g3082
sg63
(lp3097
g56
(g57
g58
NtRp3098
(dp3099
g61
(dp3100
g69
I3
ssg70
g3094
sg63
(lp3101
S''
asbasbasbag56
(g72
g58
NtRp3102
(dp3103
g61
(dp3104
sg70
g2998
sg63
(lp3105
g56
(g77
g58
NtRp3106
(dp3107
g61
(dp3108
g81
g82
ssg70
g3102
sg63
(lp3109
g388
asbag56
(g77
g58
NtRp3110
(dp3111
g61
(dp3112
g88
g89
ssg70
g3102
sg63
(lp3113
S':'
asbag56
(g77
g58
NtRp3114
(dp3115
g61
(dp3116
sg70
g3102
sg63
(lp3117
g56
(g57
g58
NtRp3118
(dp3119
g61
(dp3120
g69
I3
ssg70
g3114
sg63
(lp3121
S'/'
asbasbasbag56
(g72
g58
NtRp3122
(dp3123
g61
(dp3124
sg70
g2998
sg63
(lp3125
g56
(g77
g58
NtRp3126
(dp3127
g61
(dp3128
g81
g82
ssg70
g3122
sg63
(lp3129
g409
asbag56
(g77
g58
NtRp3130
(dp3131
g61
(dp3132
g88
g89
ssg70
g3122
sg63
(lp3133
S':'
asbag56
(g77
g58
NtRp3134
(dp3135
g61
(dp3136
sg70
g3122
sg63
(lp3137
g56
(g57
g58
NtRp3138
(dp3139
g61
(dp3140
g69
I3
ssg70
g3134
sg63
(lp3141
S''
asbasbasbag56
(g72
g58
NtRp3142
(dp3143
g61
(dp3144
sg70
g2998
sg63
(lp3145
g56
(g77
g58
NtRp3146
(dp3147
g61
(dp3148
g81
g82
ssg70
g3142
sg63
(lp3149
g430
asbag56
(g77
g58
NtRp3150
(dp3151
g61
(dp3152
g88
g89
ssg70
g3142
sg63
(lp3153
S':'
asbag56
(g77
g58
NtRp3154
(dp3155
g61
(dp3156
sg70
g3142
sg63
(lp3157
g56
(g57
g58
NtRp3158
(dp3159
g61
(dp3160
g69
I3
ssg70
g3154
sg63
(lp3161
S''
asbasbasbasbasbasbasbasbasbasbasbag56
(g72
g58
NtRp3162
(dp3163
g61
(dp3164
sg70
g2928
sg63
(lp3165
g56
(g77
g58
NtRp3166
(dp3167
g61
(dp3168
g81
g82
ssg70
g3162
sg63
(lp3169
S'files'
p3170
asbag56
(g77
g58
NtRp3171
(dp3172
g61
(dp3173
g88
g89
ssg70
g3162
sg63
(lp3174
S':'
asbag56
(g77
g58
NtRp3175
(dp3176
g61
(dp3177
sg70
g3162
sg63
(lp3178
g56
(g57
g58
NtRp3179
(dp3180
g61
(dp3181
g69
I5
ssg70
g3175
sg63
(lp3182
g56
(g65
g58
NtRp3183
(dp3184
g61
(dp3185
g69
I4
ssg70
Nsg63
(lp3186
sbasbasbasbag56
(g72
g58
NtRp3187
(dp3188
g61
(dp3189
sg70
g2928
sg63
(lp3190
g56
(g77
g58
NtRp3191
(dp3192
g61
(dp3193
g81
g82
ssg70
g3187
sg63
(lp3194
S'flash'
p3195
asbag56
(g77
g58
NtRp3196
(dp3197
g61
(dp3198
g88
g89
ssg70
g3187
sg63
(lp3199
S':'
asbag56
(g77
g58
NtRp3200
(dp3201
g61
(dp3202
sg70
g3187
sg63
(lp3203
g56
(g57
g58
NtRp3204
(dp3205
g61
(dp3206
g69
I5
ssg70
g3200
sg63
(lp3207
S''
asbasbasbag56
(g72
g58
NtRp3208
(dp3209
g61
(dp3210
sg70
g2928
sg63
(lp3211
g56
(g77
g58
NtRp3212
(dp3213
g61
(dp3214
g81
g82
ssg70
g3208
sg63
(lp3215
S'generic_patterns'
p3216
asbag56
(g77
g58
NtRp3217
(dp3218
g61
(dp3219
g88
g89
ssg70
g3208
sg63
(lp3220
S':'
asbag56
(g77
g58
NtRp3221
(dp3222
g61
(dp3223
sg70
g3208
sg63
(lp3224
g56
(g57
g58
NtRp3225
(dp3226
g61
(dp3227
g69
I5
ssg70
g3221
sg63
(lp3228
g56
(g65
g58
NtRp3229
(dp3230
g61
(dp3231
g69
I4
ssg70
Nsg63
(lp3232
sbasbasbasbag56
(g72
g58
NtRp3233
(dp3234
g61
(dp3235
sg70
g2928
sg63
(lp3236
g56
(g77
g58
NtRp3237
(dp3238
g61
(dp3239
g81
g82
ssg70
g3233
sg63
(lp3240
S'headers'
p3241
asbag56
(g77
g58
NtRp3242
(dp3243
g61
(dp3244
g88
g89
ssg70
g3233
sg63
(lp3245
S':'
asbag56
(g77
g58
NtRp3246
(dp3247
g61
(dp3248
sg70
g3233
sg63
(lp3249
g56
(g57
g58
NtRp3250
(dp3251
g61
(dp3252
g69
I5
ssg70
g3246
sg63
(lp3253
g56
(g65
g58
NtRp3254
(dp3255
g61
(dp3256
g69
I4
ssg70
Nsg63
(lp3257
g56
(g72
g58
NtRp3258
(dp3259
g61
(dp3260
sg70
g3254
sg63
(lp3261
g56
(g77
g58
NtRp3262
(dp3263
g61
(dp3264
g81
g82
ssg70
g3258
sg63
(lp3265
S'Cache-Control'
p3266
asbag56
(g77
g58
NtRp3267
(dp3268
g61
(dp3269
g88
g89
ssg70
g3258
sg63
(lp3270
S':'
asbag56
(g77
g58
NtRp3271
(dp3272
g61
(dp3273
sg70
g3258
sg63
(lp3274
g56
(g57
g58
NtRp3275
(dp3276
g61
(dp3277
g69
I4
ssg70
g3271
sg63
(lp3278
S'no-store, no-cache, must-revalidate, post-check=0, pre-check=0'
p3279
asbasbasbag56
(g72
g58
NtRp3280
(dp3281
g61
(dp3282
sg70
g3254
sg63
(lp3283
g56
(g77
g58
NtRp3284
(dp3285
g61
(dp3286
g81
g82
ssg70
g3280
sg63
(lp3287
S'Content-Type'
p3288
asbag56
(g77
g58
NtRp3289
(dp3290
g61
(dp3291
g88
g89
ssg70
g3280
sg63
(lp3292
S':'
asbag56
(g77
g58
NtRp3293
(dp3294
g61
(dp3295
sg70
g3280
sg63
(lp3296
g56
(g57
g58
NtRp3297
(dp3298
g61
(dp3299
g69
I4
ssg70
g3293
sg63
(lp3300
S'text/html; charset=utf-8'
p3301
asbasbasbag56
(g72
g58
NtRp3302
(dp3303
g61
(dp3304
sg70
g3254
sg63
(lp3305
g56
(g77
g58
NtRp3306
(dp3307
g61
(dp3308
g81
g82
ssg70
g3302
sg63
(lp3309
S'Expires'
p3310
asbag56
(g77
g58
NtRp3311
(dp3312
g61
(dp3313
g88
g89
ssg70
g3302
sg63
(lp3314
S':'
asbag56
(g77
g58
NtRp3315
(dp3316
g61
(dp3317
sg70
g3302
sg63
(lp3318
g56
(g57
g58
NtRp3319
(dp3320
g61
(dp3321
g69
I4
ssg70
g3315
sg63
(lp3322
S'Sat, 27 Aug 2011 23:52:26 GMT'
p3323
asbasbasbag56
(g72
g58
NtRp3324
(dp3325
g61
(dp3326
sg70
g3254
sg63
(lp3327
g56
(g77
g58
NtRp3328
(dp3329
g61
(dp3330
g81
g82
ssg70
g3324
sg63
(lp3331
S'Pragma'
p3332
asbag56
(g77
g58
NtRp3333
(dp3334
g61
(dp3335
g88
g89
ssg70
g3324
sg63
(lp3336
S':'
asbag56
(g77
g58
NtRp3337
(dp3338
g61
(dp3339
sg70
g3324
sg63
(lp3340
g56
(g57
g58
NtRp3341
(dp3342
g61
(dp3343
g69
I4
ssg70
g3337
sg63
(lp3344
S'no-cache'
p3345
asbasbasbag56
(g72
g58
NtRp3346
(dp3347
g61
(dp3348
sg70
g3254
sg63
(lp3349
g56
(g77
g58
NtRp3350
(dp3351
g61
(dp3352
g81
g82
ssg70
g3346
sg63
(lp3353
S'X-Powered-By'
p3354
asbag56
(g77
g58
NtRp3355
(dp3356
g61
(dp3357
g88
g89
ssg70
g3346
sg63
(lp3358
S':'
asbag56
(g77
g58
NtRp3359
(dp3360
g61
(dp3361
sg70
g3346
sg63
(lp3362
g56
(g57
g58
NtRp3363
(dp3364
g61
(dp3365
g69
I4
ssg70
g3359
sg63
(lp3366
S'web2py'
p3367
asbasbasbasbasbasbasbag56
(g72
g58
NtRp3368
(dp3369
g61
(dp3370
sg70
g2928
sg63
(lp3371
g56
(g77
g58
NtRp3372
(dp3373
g61
(dp3374
g81
g82
ssg70
g3368
sg63
(lp3375
S'menu'
p3376
asbag56
(g77
g58
NtRp3377
(dp3378
g61
(dp3379
g88
g89
ssg70
g3368
sg63
(lp3380
S':'
asbag56
(g77
g58
NtRp3381
(dp3382
g61
(dp3383
sg70
g3368
sg63
(lp3384
g56
(g57
g58
NtRp3385
(dp3386
g61
(dp3387
g69
I5
ssg70
g3381
sg63
(lp3388
g56
(g65
g58
NtRp3389
(dp3390
g61
(dp3391
g69
I4
ssg70
Nsg63
(lp3392
g56
(g72
g58
NtRp3393
(dp3394
g61
(dp3395
sg70
g3389
sg63
(lp3396
g56
(g77
g58
NtRp3397
(dp3398
g61
(dp3399
sg70
g3393
sg63
(lp3400
g56
(g57
g58
NtRp3401
(dp3402
g61
(dp3403
g69
I4
ssg70
g3397
sg63
(lp3404
g56
(g65
g58
NtRp3405
(dp3406
g61
(dp3407
g69
I3
ssg70
Nsg63
(lp3408
g56
(g72
g58
NtRp3409
(dp3410
g61
(dp3411
sg70
g3405
sg63
(lp3412
g56
(g77
g58
NtRp3413
(dp3414
g61
(dp3415
sg70
g3409
sg63
(lp3416
g56
(g57
g58
NtRp3417
(dp3418
g61
(dp3419
g69
I3
ssg70
g3413
sg63
(lp3420
cgluon.languages
lazyT_unpickle
p3421
(S't\x05\x00\x00\x00Index'
tRp3422
asbasbasbag56
(g72
g58
NtRp3423
(dp3424
g61
(dp3425
sg70
g3405
sg63
(lp3426
g56
(g77
g58
NtRp3427
(dp3428
g61
(dp3429
sg70
g3423
sg63
(lp3430
g56
(g57
g58
NtRp3431
(dp3432
g61
(dp3433
g69
I3
ssg70
g3427
sg63
(lp3434
g99
asbasbasbag56
(g72
g58
NtRp3435
(dp3436
g61
(dp3437
sg70
g3405
sg63
(lp3438
g56
(g77
g58
NtRp3439
(dp3440
g61
(dp3441
sg70
g3435
sg63
(lp3442
g56
(g57
g58
NtRp3443
(dp3444
g61
(dp3445
g69
I3
ssg70
g3439
sg63
(lp3446
S'/init/default/index'
p3447
asbasbasbag56
(g72
g58
NtRp3448
(dp3449
g61
(dp3450
sg70
g3405
sg63
(lp3451
g56
(g77
g58
NtRp3452
(dp3453
g61
(dp3454
sg70
g3448
sg63
(lp3455
g56
(g57
g58
NtRp3456
(dp3457
g61
(dp3458
g69
I3
ssg70
g3452
sg63
(lp3459
g56
(g65
g58
NtRp3460
(dp3461
g61
(dp3462
g69
I2
ssg70
Nsg63
(lp3463
sbasbasbasbasbasbasbasbasbasbasbasbag56
(g72
g58
NtRp3464
(dp3465
g61
(dp3466
sg70
g2928
sg63
(lp3467
g56
(g77
g58
NtRp3468
(dp3469
g61
(dp3470
g81
g82
ssg70
g3464
sg63
(lp3471
S'meta'
p3472
asbag56
(g77
g58
NtRp3473
(dp3474
g61
(dp3475
g88
g89
ssg70
g3464
sg63
(lp3476
S':'
asbag56
(g77
g58
NtRp3477
(dp3478
g61
(dp3479
sg70
g3464
sg63
(lp3480
g56
(g57
g58
NtRp3481
(dp3482
g61
(dp3483
g69
I5
ssg70
g3477
sg63
(lp3484
g56
(g65
g58
NtRp3485
(dp3486
g61
(dp3487
g69
I4
ssg70
Nsg63
(lp3488
g56
(g72
g58
NtRp3489
(dp3490
g61
(dp3491
sg70
g3485
sg63
(lp3492
g56
(g77
g58
NtRp3493
(dp3494
g61
(dp3495
g81
g82
ssg70
g3489
sg63
(lp3496
S'author'
p3497
asbag56
(g77
g58
NtRp3498
(dp3499
g61
(dp3500
g88
g89
ssg70
g3489
sg63
(lp3501
S':'
asbag56
(g77
g58
NtRp3502
(dp3503
g61
(dp3504
sg70
g3489
sg63
(lp3505
g56
(g57
g58
NtRp3506
(dp3507
g61
(dp3508
g69
I4
ssg70
g3502
sg63
(lp3509
S'RGC <info@globaleaks.org>'
p3510
asbasbasbag56
(g72
g58
NtRp3511
(dp3512
g61
(dp3513
sg70
g3485
sg63
(lp3514
g56
(g77
g58
NtRp3515
(dp3516
g61
(dp3517
g81
g82
ssg70
g3511
sg63
(lp3518
S'description'
p3519
asbag56
(g77
g58
NtRp3520
(dp3521
g61
(dp3522
g88
g89
ssg70
g3511
sg63
(lp3523
S':'
asbag56
(g77
g58
NtRp3524
(dp3525
g61
(dp3526
sg70
g3511
sg63
(lp3527
g56
(g57
g58
NtRp3528
(dp3529
g61
(dp3530
g69
I4
ssg70
g3524
sg63
(lp3531
S''
asbasbasbag56
(g72
g58
NtRp3532
(dp3533
g61
(dp3534
sg70
g3485
sg63
(lp3535
g56
(g77
g58
NtRp3536
(dp3537
g61
(dp3538
g81
g82
ssg70
g3532
sg63
(lp3539
S'keywords'
p3540
asbag56
(g77
g58
NtRp3541
(dp3542
g61
(dp3543
g88
g89
ssg70
g3532
sg63
(lp3544
S':'
asbag56
(g77
g58
NtRp3545
(dp3546
g61
(dp3547
sg70
g3532
sg63
(lp3548
g56
(g57
g58
NtRp3549
(dp3550
g61
(dp3551
g69
I4
ssg70
g3545
sg63
(lp3552
S''
asbasbasbasbasbasbasbag56
(g72
g58
NtRp3553
(dp3554
g61
(dp3555
sg70
g2928
sg63
(lp3556
g56
(g77
g58
NtRp3557
(dp3558
g61
(dp3559
g81
g82
ssg70
g3553
sg63
(lp3560
S'postprocessing'
p3561
asbag56
(g77
g58
NtRp3562
(dp3563
g61
(dp3564
g88
g89
ssg70
g3553
sg63
(lp3565
S':'
asbag56
(g77
g58
NtRp3566
(dp3567
g61
(dp3568
sg70
g3553
sg63
(lp3569
g56
(g57
g58
NtRp3570
(dp3571
g61
(dp3572
g69
I5
ssg70
g3566
sg63
(lp3573
g56
(g65
g58
NtRp3574
(dp3575
g61
(dp3576
g69
I4
ssg70
Nsg63
(lp3577
sbasbasbasbag56
(g72
g58
NtRp3578
(dp3579
g61
(dp3580
sg70
g2928
sg63
(lp3581
g56
(g77
g58
NtRp3582
(dp3583
g61
(dp3584
g81
g82
ssg70
g3578
sg63
(lp3585
S'session_file'
p3586
asbag56
(g77
g58
NtRp3587
(dp3588
g61
(dp3589
g88
g89
ssg70
g3578
sg63
(lp3590
S':'
asbag56
(g77
g58
NtRp3591
(dp3592
g61
(dp3593
sg70
g3578
sg63
(lp3594
g56
(g57
g58
NtRp3595
(dp3596
g61
(dp3597
g69
I5
ssg70
g3591
sg63
(lp3598
S"<open file '/Users/hellais/Documents/code/mygit/globaleaks/webapp/applications/init/sessions/127.0.0.1-a8551263-bc3c-430c-abb2-8711fac671c1', mode 'rb+' at 0x10217b6f0>"
p3599
asbasbasbag56
(g72
g58
NtRp3600
(dp3601
g61
(dp3602
sg70
g2928
sg63
(lp3603
g56
(g77
g58
NtRp3604
(dp3605
g61
(dp3606
g81
g82
ssg70
g3600
sg63
(lp3607
S'session_filename'
p3608
asbag56
(g77
g58
NtRp3609
(dp3610
g61
(dp3611
g88
g89
ssg70
g3600
sg63
(lp3612
S':'
asbag56
(g77
g58
NtRp3613
(dp3614
g61
(dp3615
sg70
g3600
sg63
(lp3616
g56
(g57
g58
NtRp3617
(dp3618
g61
(dp3619
g69
I5
ssg70
g3613
sg63
(lp3620
S'/Users/hellais/Documents/code/mygit/globaleaks/webapp/applications/init/sessions/127.0.0.1-a8551263-bc3c-430c-abb2-8711fac671c1'
p3621
asbasbasbag56
(g72
g58
NtRp3622
(dp3623
g61
(dp3624
sg70
g2928
sg63
(lp3625
g56
(g77
g58
NtRp3626
(dp3627
g61
(dp3628
g81
g82
ssg70
g3622
sg63
(lp3629
S'session_id'
p3630
asbag56
(g77
g58
NtRp3631
(dp3632
g61
(dp3633
g88
g89
ssg70
g3622
sg63
(lp3634
S':'
asbag56
(g77
g58
NtRp3635
(dp3636
g61
(dp3637
sg70
g3622
sg63
(lp3638
g56
(g57
g58
NtRp3639
(dp3640
g61
(dp3641
g69
I5
ssg70
g3635
sg63
(lp3642
S'127.0.0.1-a8551263-bc3c-430c-abb2-8711fac671c1'
p3643
asbasbasbag56
(g72
g58
NtRp3644
(dp3645
g61
(dp3646
sg70
g2928
sg63
(lp3647
g56
(g77
g58
NtRp3648
(dp3649
g61
(dp3650
g81
g82
ssg70
g3644
sg63
(lp3651
S'session_id_name'
p3652
asbag56
(g77
g58
NtRp3653
(dp3654
g61
(dp3655
g88
g89
ssg70
g3644
sg63
(lp3656
S':'
asbag56
(g77
g58
NtRp3657
(dp3658
g61
(dp3659
sg70
g3644
sg63
(lp3660
g56
(g57
g58
NtRp3661
(dp3662
g61
(dp3663
g69
I5
ssg70
g3657
sg63
(lp3664
g2985
asbasbasbag56
(g72
g58
NtRp3665
(dp3666
g61
(dp3667
sg70
g2928
sg63
(lp3668
g56
(g77
g58
NtRp3669
(dp3670
g61
(dp3671
g81
g82
ssg70
g3665
sg63
(lp3672
S'session_locked'
p3673
asbag56
(g77
g58
NtRp3674
(dp3675
g61
(dp3676
g88
g89
ssg70
g3665
sg63
(lp3677
S':'
asbag56
(g77
g58
NtRp3678
(dp3679
g61
(dp3680
sg70
g3665
sg63
(lp3681
g56
(g57
g58
NtRp3682
(dp3683
g61
(dp3684
g69
I5
ssg70
g3678
sg63
(lp3685
g1788
asbasbasbag56
(g72
g58
NtRp3686
(dp3687
g61
(dp3688
sg70
g2928
sg63
(lp3689
g56
(g77
g58
NtRp3690
(dp3691
g61
(dp3692
g81
g82
ssg70
g3686
sg63
(lp3693
S'session_new'
p3694
asbag56
(g77
g58
NtRp3695
(dp3696
g61
(dp3697
g88
g89
ssg70
g3686
sg63
(lp3698
S':'
asbag56
(g77
g58
NtRp3699
(dp3700
g61
(dp3701
sg70
g3686
sg63
(lp3702
g56
(g57
g58
NtRp3703
(dp3704
g61
(dp3705
g69
I5
ssg70
g3699
sg63
(lp3706
g99
asbasbasbag56
(g72
g58
NtRp3707
(dp3708
g61
(dp3709
sg70
g2928
sg63
(lp3710
g56
(g77
g58
NtRp3711
(dp3712
g61
(dp3713
g81
g82
ssg70
g3707
sg63
(lp3714
S'status'
p3715
asbag56
(g77
g58
NtRp3716
(dp3717
g61
(dp3718
g88
g89
ssg70
g3707
sg63
(lp3719
S':'
asbag56
(g77
g58
NtRp3720
(dp3721
g61
(dp3722
sg70
g3707
sg63
(lp3723
g56
(g57
g58
NtRp3724
(dp3725
g61
(dp3726
g69
I5
ssg70
g3720
sg63
(lp3727
S'200'
p3728
asbasbasbag56
(g72
g58
NtRp3729
(dp3730
g61
(dp3731
sg70
g2928
sg63
(lp3732
g56
(g77
g58
NtRp3733
(dp3734
g61
(dp3735
g81
g82
ssg70
g3729
sg63
(lp3736
S'subtitle'
p3737
asbag56
(g77
g58
NtRp3738
(dp3739
g61
(dp3740
g88
g89
ssg70
g3729
sg63
(lp3741
S':'
asbag56
(g77
g58
NtRp3742
(dp3743
g61
(dp3744
sg70
g3729
sg63
(lp3745
g56
(g57
g58
NtRp3746
(dp3747
g61
(dp3748
g69
I5
ssg70
g3742
sg63
(lp3749
S'Open Source Whistleblowing Platform'
p3750
asbasbasbag56
(g72
g58
NtRp3751
(dp3752
g61
(dp3753
sg70
g2928
sg63
(lp3754
g56
(g77
g58
NtRp3755
(dp3756
g61
(dp3757
g81
g82
ssg70
g3751
sg63
(lp3758
S'title'
p3759
asbag56
(g77
g58
NtRp3760
(dp3761
g61
(dp3762
g88
g89
ssg70
g3751
sg63
(lp3763
S':'
asbag56
(g77
g58
NtRp3764
(dp3765
g61
(dp3766
sg70
g3751
sg63
(lp3767
g56
(g57
g58
NtRp3768
(dp3769
g61
(dp3770
g69
I5
ssg70
g3764
sg63
(lp3771
S'GlobaLeaks'
p3772
asbasbasbag56
(g72
g58
NtRp3773
(dp3774
g61
(dp3775
sg70
g2928
sg63
(lp3776
g56
(g77
g58
NtRp3777
(dp3778
g61
(dp3779
g81
g82
ssg70
g3773
sg63
(lp3780
g2133
asbag56
(g77
g58
NtRp3781
(dp3782
g61
(dp3783
g88
g89
ssg70
g3773
sg63
(lp3784
S':'
asbag56
(g77
g58
NtRp3785
(dp3786
g61
(dp3787
sg70
g3773
sg63
(lp3788
g56
(g57
g58
NtRp3789
(dp3790
g61
(dp3791
g69
I5
ssg70
g3785
sg63
(lp3792
g2146
asbasbasbag56
(g72
g58
NtRp3793
(dp3794
g61
(dp3795
sg70
g2928
sg63
(lp3796
g56
(g77
g58
NtRp3797
(dp3798
g61
(dp3799
g81
g82
ssg70
g3793
sg63
(lp3800
S'view'
p3801
asbag56
(g77
g58
NtRp3802
(dp3803
g61
(dp3804
g88
g89
ssg70
g3793
sg63
(lp3805
S':'
asbag56
(g77
g58
NtRp3806
(dp3807
g61
(dp3808
sg70
g3793
sg63
(lp3809
g56
(g57
g58
NtRp3810
(dp3811
g61
(dp3812
g69
I5
ssg70
g3806
sg63
(lp3813
S'default/tulip.html'
p3814
asbasbasbasbasbsS'locals'
p3815
(dp3816
S'i'
S'1'
sS'self'
p3817
S'<gluon.dal.Rows object>'
p3818
sssS'traceback'
p3819
S'Traceback (most recent call last):\n  File "/opt/local/Library/Frameworks/Python.framework/Versions/2.7/lib/python2.7/gluon/restricted.py", line 192, in restricted\n    exec ccode in environment\n  File "/Users/hellais/Documents/code/mygit/globaleaks/webapp/applications/init/controllers/default.py", line 50, in <module>\n  File "/opt/local/Library/Frameworks/Python.framework/Versions/2.7/lib/python2.7/gluon/globals.py", line 145, in <lambda>\n    self._caller = lambda f: f()\n  File "/Users/hellais/Documents/code/mygit/globaleaks/webapp/applications/init/controllers/default.py", line 44, in tulip\n    t = Tulip(url=tulip_url)\n  File "/Users/hellais/Documents/code/mygit/globaleaks/webapp/applications/init/models/datamodel.py", line 82, in __init__\n    print db(db.tulip.uri==url).select()[1]\n  File "/opt/local/Library/Frameworks/Python.framework/Versions/2.7/lib/python2.7/gluon/dal.py", line 5619, in __getitem__\n    row = self.records[i]\nIndexError: list index out of range\n'
p3820
s.