(dp1
S'output'
p2
S''
sS'layer'
p3
S'/Users/hellais/Documents/code/sorci/web2py/applications/globaleaks/controllers/default.py'
p4
sS'code'
p5
S'# -*- coding: utf-8 -*-\n### required - do no delete\ndef user(): return dict(form=auth())\ndef download(): return response.download(request,db)\ndef call():\n    session.forget()\n    return service()\n### end requires\ndef index():\n    return dict(T:"diocane")\n\ndef error():\n    return dict()\n\nresponse._vars=response._caller(index)\n'
p6
sS'snapshot'
p7
(dp8
S'exception'
p9
(dp10
S'__getslice__'
p11
S"<method-wrapper '__getslice__' of exceptions.SyntaxError object>"
p12
sS'text'
p13
S'\'    return dict(T:"diocane")\\n\''
p14
sS'__str__'
p15
S"<method-wrapper '__str__' of exceptions.SyntaxError object>"
p16
sS'__reduce__'
p17
S'<built-in method __reduce__ of exceptions.SyntaxError object>'
p18
sS'__dict__'
p19
S'{}'
p20
sS'__sizeof__'
p21
S'<built-in method __sizeof__ of exceptions.SyntaxError object>'
p22
sS'__init__'
p23
S"<method-wrapper '__init__' of exceptions.SyntaxError object>"
p24
sS'__setattr__'
p25
S"<method-wrapper '__setattr__' of exceptions.SyntaxError object>"
p26
sS'__reduce_ex__'
p27
S'<built-in method __reduce_ex__ of exceptions.SyntaxError object>'
p28
sS'__new__'
p29
S'<built-in method __new__ of type object>'
p30
sS'__format__'
p31
S'<built-in method __format__ of exceptions.SyntaxError object>'
p32
sS'__class__'
p33
S"<type 'exceptions.SyntaxError'>"
p34
sS'filename'
p35
S"'/Users/hellais/Documents/code/sorci/web2py/applications/globaleaks/controllers/default.py'"
p36
sS'lineno'
p37
S'10'
p38
sS'msg'
p39
S"'invalid syntax'"
p40
sS'__doc__'
p41
S"'Invalid syntax.'"
p42
sS'__getitem__'
p43
S"<method-wrapper '__getitem__' of exceptions.SyntaxError object>"
p44
sS'__setstate__'
p45
S'<built-in method __setstate__ of exceptions.SyntaxError object>'
p46
sS'__getattribute__'
p47
S"<method-wrapper '__getattribute__' of exceptions.SyntaxError object>"
p48
sS'print_file_and_line'
p49
S'None'
p50
sS'args'
p51
S'(\'invalid syntax\', (\'/Users/hellais/Documents/code/sorci/web2py/applications/globaleaks/controllers/default.py\', 10, 18, \'    return dict(T:"diocane")\\n\'))'
p52
sS'__subclasshook__'
p53
S'<built-in method __subclasshook__ of type object>'
p54
sS'offset'
p55
S'18'
p56
sS'__unicode__'
p57
S'<built-in method __unicode__ of exceptions.SyntaxError object>'
p58
sS'__delattr__'
p59
S"<method-wrapper '__delattr__' of exceptions.SyntaxError object>"
p60
sS'__repr__'
p61
S"<method-wrapper '__repr__' of exceptions.SyntaxError object>"
p62
sS'__hash__'
p63
S"<method-wrapper '__hash__' of exceptions.SyntaxError object>"
p64
ssS'evalue'
p65
S'invalid syntax (default.py, line 10)'
p66
sS'request'
p67
ccopy_reg
_reconstructor
p68
(cgluon.html
BEAUTIFY
p69
c__builtin__
object
p70
NtRp71
(dp72
S'attributes'
p73
(dp74
sS'components'
p75
(lp76
g68
(cgluon.html
TABLE
p77
g70
NtRp78
(dp79
g73
(dp80
S'level'
p81
I5
ssS'parent'
p82
Nsg75
(lp83
g68
(cgluon.html
TR
p84
g70
NtRp85
(dp86
g73
(dp87
sg82
g78
sg75
(lp88
g68
(cgluon.html
TD
p89
g70
NtRp90
(dp91
g73
(dp92
S'_style'
p93
S'font-weight:bold;'
p94
ssg82
g85
sg75
(lp95
S'ajax'
p96
asbag68
(g89
g70
NtRp97
(dp98
g73
(dp99
S'_valign'
p100
S'top'
p101
ssg82
g85
sg75
(lp102
S':'
asbag68
(g89
g70
NtRp103
(dp104
g73
(dp105
sg82
g85
sg75
(lp106
g68
(g69
g70
NtRp107
(dp108
g73
(dp109
g81
I5
ssg82
g103
sg75
(lp110
S'False'
p111
asbasbasbag68
(g84
g70
NtRp112
(dp113
g73
(dp114
sg82
g78
sg75
(lp115
g68
(g89
g70
NtRp116
(dp117
g73
(dp118
g93
g94
ssg82
g112
sg75
(lp119
S'application'
p120
asbag68
(g89
g70
NtRp121
(dp122
g73
(dp123
g100
g101
ssg82
g112
sg75
(lp124
S':'
asbag68
(g89
g70
NtRp125
(dp126
g73
(dp127
sg82
g112
sg75
(lp128
g68
(g69
g70
NtRp129
(dp130
g73
(dp131
g81
I5
ssg82
g125
sg75
(lp132
S'globaleaks'
p133
asbasbasbag68
(g84
g70
NtRp134
(dp135
g73
(dp136
sg82
g78
sg75
(lp137
g68
(g89
g70
NtRp138
(dp139
g73
(dp140
g93
g94
ssg82
g134
sg75
(lp141
g51
asbag68
(g89
g70
NtRp142
(dp143
g73
(dp144
g100
g101
ssg82
g134
sg75
(lp145
S':'
asbag68
(g89
g70
NtRp146
(dp147
g73
(dp148
sg82
g134
sg75
(lp149
g68
(g69
g70
NtRp150
(dp151
g73
(dp152
g81
I5
ssg82
g146
sg75
(lp153
g68
(g77
g70
NtRp154
(dp155
g73
(dp156
g81
I4
ssg82
Nsg75
(lp157
sbasbasbasbag68
(g84
g70
NtRp158
(dp159
g73
(dp160
sg82
g78
sg75
(lp161
g68
(g89
g70
NtRp162
(dp163
g73
(dp164
g93
g94
ssg82
g158
sg75
(lp165
S'body'
p166
asbag68
(g89
g70
NtRp167
(dp168
g73
(dp169
g100
g101
ssg82
g158
sg75
(lp170
S':'
asbag68
(g89
g70
NtRp171
(dp172
g73
(dp173
sg82
g158
sg75
(lp174
g68
(g69
g70
NtRp175
(dp176
g73
(dp177
g81
I5
ssg82
g171
sg75
(lp178
S'<cStringIO.StringO object at 0x103dbbd50>'
p179
asbasbasbag68
(g84
g70
NtRp180
(dp181
g73
(dp182
sg82
g78
sg75
(lp183
g68
(g89
g70
NtRp184
(dp185
g73
(dp186
g93
g94
ssg82
g180
sg75
(lp187
S'client'
p188
asbag68
(g89
g70
NtRp189
(dp190
g73
(dp191
g100
g101
ssg82
g180
sg75
(lp192
S':'
asbag68
(g89
g70
NtRp193
(dp194
g73
(dp195
sg82
g180
sg75
(lp196
g68
(g69
g70
NtRp197
(dp198
g73
(dp199
g81
I5
ssg82
g193
sg75
(lp200
S'127.0.0.1'
p201
asbasbasbag68
(g84
g70
NtRp202
(dp203
g73
(dp204
sg82
g78
sg75
(lp205
g68
(g89
g70
NtRp206
(dp207
g73
(dp208
g93
g94
ssg82
g202
sg75
(lp209
S'controller'
p210
asbag68
(g89
g70
NtRp211
(dp212
g73
(dp213
g100
g101
ssg82
g202
sg75
(lp214
S':'
asbag68
(g89
g70
NtRp215
(dp216
g73
(dp217
sg82
g202
sg75
(lp218
g68
(g69
g70
NtRp219
(dp220
g73
(dp221
g81
I5
ssg82
g215
sg75
(lp222
S'default'
p223
asbasbasbag68
(g84
g70
NtRp224
(dp225
g73
(dp226
sg82
g78
sg75
(lp227
g68
(g89
g70
NtRp228
(dp229
g73
(dp230
g93
g94
ssg82
g224
sg75
(lp231
S'cookies'
p232
asbag68
(g89
g70
NtRp233
(dp234
g73
(dp235
g100
g101
ssg82
g224
sg75
(lp236
S':'
asbag68
(g89
g70
NtRp237
(dp238
g73
(dp239
sg82
g224
sg75
(lp240
g68
(g69
g70
NtRp241
(dp242
g73
(dp243
g81
I5
ssg82
g237
sg75
(lp244
g68
(g77
g70
NtRp245
(dp246
g73
(dp247
g81
I4
ssg82
Nsg75
(lp248
g68
(g84
g70
NtRp249
(dp250
g73
(dp251
sg82
g245
sg75
(lp252
g68
(g89
g70
NtRp253
(dp254
g73
(dp255
g93
g94
ssg82
g249
sg75
(lp256
S'session_id_admin'
p257
asbag68
(g89
g70
NtRp258
(dp259
g73
(dp260
g100
g101
ssg82
g249
sg75
(lp261
S':'
asbag68
(g89
g70
NtRp262
(dp263
g73
(dp264
sg82
g249
sg75
(lp265
g68
(g69
g70
NtRp266
(dp267
g73
(dp268
g81
I4
ssg82
g262
sg75
(lp269
g68
(g77
g70
NtRp270
(dp271
g73
(dp272
g81
I3
ssg82
Nsg75
(lp273
g68
(g84
g70
NtRp274
(dp275
g73
(dp276
sg82
g270
sg75
(lp277
g68
(g89
g70
NtRp278
(dp279
g73
(dp280
g93
g94
ssg82
g274
sg75
(lp281
S'comment'
p282
asbag68
(g89
g70
NtRp283
(dp284
g73
(dp285
g100
g101
ssg82
g274
sg75
(lp286
S':'
asbag68
(g89
g70
NtRp287
(dp288
g73
(dp289
sg82
g274
sg75
(lp290
g68
(g69
g70
NtRp291
(dp292
g73
(dp293
g81
I3
ssg82
g287
sg75
(lp294
S''
asbasbasbag68
(g84
g70
NtRp295
(dp296
g73
(dp297
sg82
g270
sg75
(lp298
g68
(g89
g70
NtRp299
(dp300
g73
(dp301
g93
g94
ssg82
g295
sg75
(lp302
S'domain'
p303
asbag68
(g89
g70
NtRp304
(dp305
g73
(dp306
g100
g101
ssg82
g295
sg75
(lp307
S':'
asbag68
(g89
g70
NtRp308
(dp309
g73
(dp310
sg82
g295
sg75
(lp311
g68
(g69
g70
NtRp312
(dp313
g73
(dp314
g81
I3
ssg82
g308
sg75
(lp315
S''
asbasbasbag68
(g84
g70
NtRp316
(dp317
g73
(dp318
sg82
g270
sg75
(lp319
g68
(g89
g70
NtRp320
(dp321
g73
(dp322
g93
g94
ssg82
g316
sg75
(lp323
S'expires'
p324
asbag68
(g89
g70
NtRp325
(dp326
g73
(dp327
g100
g101
ssg82
g316
sg75
(lp328
S':'
asbag68
(g89
g70
NtRp329
(dp330
g73
(dp331
sg82
g316
sg75
(lp332
g68
(g69
g70
NtRp333
(dp334
g73
(dp335
g81
I3
ssg82
g329
sg75
(lp336
S''
asbasbasbag68
(g84
g70
NtRp337
(dp338
g73
(dp339
sg82
g270
sg75
(lp340
g68
(g89
g70
NtRp341
(dp342
g73
(dp343
g93
g94
ssg82
g337
sg75
(lp344
S'httponly'
p345
asbag68
(g89
g70
NtRp346
(dp347
g73
(dp348
g100
g101
ssg82
g337
sg75
(lp349
S':'
asbag68
(g89
g70
NtRp350
(dp351
g73
(dp352
sg82
g337
sg75
(lp353
g68
(g69
g70
NtRp354
(dp355
g73
(dp356
g81
I3
ssg82
g350
sg75
(lp357
S''
asbasbasbag68
(g84
g70
NtRp358
(dp359
g73
(dp360
sg82
g270
sg75
(lp361
g68
(g89
g70
NtRp362
(dp363
g73
(dp364
g93
g94
ssg82
g358
sg75
(lp365
S'max-age'
p366
asbag68
(g89
g70
NtRp367
(dp368
g73
(dp369
g100
g101
ssg82
g358
sg75
(lp370
S':'
asbag68
(g89
g70
NtRp371
(dp372
g73
(dp373
sg82
g358
sg75
(lp374
g68
(g69
g70
NtRp375
(dp376
g73
(dp377
g81
I3
ssg82
g371
sg75
(lp378
S''
asbasbasbag68
(g84
g70
NtRp379
(dp380
g73
(dp381
sg82
g270
sg75
(lp382
g68
(g89
g70
NtRp383
(dp384
g73
(dp385
g93
g94
ssg82
g379
sg75
(lp386
S'path'
p387
asbag68
(g89
g70
NtRp388
(dp389
g73
(dp390
g100
g101
ssg82
g379
sg75
(lp391
S':'
asbag68
(g89
g70
NtRp392
(dp393
g73
(dp394
sg82
g379
sg75
(lp395
g68
(g69
g70
NtRp396
(dp397
g73
(dp398
g81
I3
ssg82
g392
sg75
(lp399
S''
asbasbasbag68
(g84
g70
NtRp400
(dp401
g73
(dp402
sg82
g270
sg75
(lp403
g68
(g89
g70
NtRp404
(dp405
g73
(dp406
g93
g94
ssg82
g400
sg75
(lp407
S'secure'
p408
asbag68
(g89
g70
NtRp409
(dp410
g73
(dp411
g100
g101
ssg82
g400
sg75
(lp412
S':'
asbag68
(g89
g70
NtRp413
(dp414
g73
(dp415
sg82
g400
sg75
(lp416
g68
(g69
g70
NtRp417
(dp418
g73
(dp419
g81
I3
ssg82
g413
sg75
(lp420
S''
asbasbasbag68
(g84
g70
NtRp421
(dp422
g73
(dp423
sg82
g270
sg75
(lp424
g68
(g89
g70
NtRp425
(dp426
g73
(dp427
g93
g94
ssg82
g421
sg75
(lp428
S'version'
p429
asbag68
(g89
g70
NtRp430
(dp431
g73
(dp432
g100
g101
ssg82
g421
sg75
(lp433
S':'
asbag68
(g89
g70
NtRp434
(dp435
g73
(dp436
sg82
g421
sg75
(lp437
g68
(g69
g70
NtRp438
(dp439
g73
(dp440
g81
I3
ssg82
g434
sg75
(lp441
S''
asbasbasbasbasbasbasbag68
(g84
g70
NtRp442
(dp443
g73
(dp444
sg82
g245
sg75
(lp445
g68
(g89
g70
NtRp446
(dp447
g73
(dp448
g93
g94
ssg82
g442
sg75
(lp449
S'session_id_blabla'
p450
asbag68
(g89
g70
NtRp451
(dp452
g73
(dp453
g100
g101
ssg82
g442
sg75
(lp454
S':'
asbag68
(g89
g70
NtRp455
(dp456
g73
(dp457
sg82
g442
sg75
(lp458
g68
(g69
g70
NtRp459
(dp460
g73
(dp461
g81
I4
ssg82
g455
sg75
(lp462
g68
(g77
g70
NtRp463
(dp464
g73
(dp465
g81
I3
ssg82
Nsg75
(lp466
g68
(g84
g70
NtRp467
(dp468
g73
(dp469
sg82
g463
sg75
(lp470
g68
(g89
g70
NtRp471
(dp472
g73
(dp473
g93
g94
ssg82
g467
sg75
(lp474
g282
asbag68
(g89
g70
NtRp475
(dp476
g73
(dp477
g100
g101
ssg82
g467
sg75
(lp478
S':'
asbag68
(g89
g70
NtRp479
(dp480
g73
(dp481
sg82
g467
sg75
(lp482
g68
(g69
g70
NtRp483
(dp484
g73
(dp485
g81
I3
ssg82
g479
sg75
(lp486
S''
asbasbasbag68
(g84
g70
NtRp487
(dp488
g73
(dp489
sg82
g463
sg75
(lp490
g68
(g89
g70
NtRp491
(dp492
g73
(dp493
g93
g94
ssg82
g487
sg75
(lp494
g303
asbag68
(g89
g70
NtRp495
(dp496
g73
(dp497
g100
g101
ssg82
g487
sg75
(lp498
S':'
asbag68
(g89
g70
NtRp499
(dp500
g73
(dp501
sg82
g487
sg75
(lp502
g68
(g69
g70
NtRp503
(dp504
g73
(dp505
g81
I3
ssg82
g499
sg75
(lp506
S''
asbasbasbag68
(g84
g70
NtRp507
(dp508
g73
(dp509
sg82
g463
sg75
(lp510
g68
(g89
g70
NtRp511
(dp512
g73
(dp513
g93
g94
ssg82
g507
sg75
(lp514
g324
asbag68
(g89
g70
NtRp515
(dp516
g73
(dp517
g100
g101
ssg82
g507
sg75
(lp518
S':'
asbag68
(g89
g70
NtRp519
(dp520
g73
(dp521
sg82
g507
sg75
(lp522
g68
(g69
g70
NtRp523
(dp524
g73
(dp525
g81
I3
ssg82
g519
sg75
(lp526
S''
asbasbasbag68
(g84
g70
NtRp527
(dp528
g73
(dp529
sg82
g463
sg75
(lp530
g68
(g89
g70
NtRp531
(dp532
g73
(dp533
g93
g94
ssg82
g527
sg75
(lp534
g345
asbag68
(g89
g70
NtRp535
(dp536
g73
(dp537
g100
g101
ssg82
g527
sg75
(lp538
S':'
asbag68
(g89
g70
NtRp539
(dp540
g73
(dp541
sg82
g527
sg75
(lp542
g68
(g69
g70
NtRp543
(dp544
g73
(dp545
g81
I3
ssg82
g539
sg75
(lp546
S''
asbasbasbag68
(g84
g70
NtRp547
(dp548
g73
(dp549
sg82
g463
sg75
(lp550
g68
(g89
g70
NtRp551
(dp552
g73
(dp553
g93
g94
ssg82
g547
sg75
(lp554
g366
asbag68
(g89
g70
NtRp555
(dp556
g73
(dp557
g100
g101
ssg82
g547
sg75
(lp558
S':'
asbag68
(g89
g70
NtRp559
(dp560
g73
(dp561
sg82
g547
sg75
(lp562
g68
(g69
g70
NtRp563
(dp564
g73
(dp565
g81
I3
ssg82
g559
sg75
(lp566
S''
asbasbasbag68
(g84
g70
NtRp567
(dp568
g73
(dp569
sg82
g463
sg75
(lp570
g68
(g89
g70
NtRp571
(dp572
g73
(dp573
g93
g94
ssg82
g567
sg75
(lp574
g387
asbag68
(g89
g70
NtRp575
(dp576
g73
(dp577
g100
g101
ssg82
g567
sg75
(lp578
S':'
asbag68
(g89
g70
NtRp579
(dp580
g73
(dp581
sg82
g567
sg75
(lp582
g68
(g69
g70
NtRp583
(dp584
g73
(dp585
g81
I3
ssg82
g579
sg75
(lp586
S''
asbasbasbag68
(g84
g70
NtRp587
(dp588
g73
(dp589
sg82
g463
sg75
(lp590
g68
(g89
g70
NtRp591
(dp592
g73
(dp593
g93
g94
ssg82
g587
sg75
(lp594
g408
asbag68
(g89
g70
NtRp595
(dp596
g73
(dp597
g100
g101
ssg82
g587
sg75
(lp598
S':'
asbag68
(g89
g70
NtRp599
(dp600
g73
(dp601
sg82
g587
sg75
(lp602
g68
(g69
g70
NtRp603
(dp604
g73
(dp605
g81
I3
ssg82
g599
sg75
(lp606
S''
asbasbasbag68
(g84
g70
NtRp607
(dp608
g73
(dp609
sg82
g463
sg75
(lp610
g68
(g89
g70
NtRp611
(dp612
g73
(dp613
g93
g94
ssg82
g607
sg75
(lp614
g429
asbag68
(g89
g70
NtRp615
(dp616
g73
(dp617
g100
g101
ssg82
g607
sg75
(lp618
S':'
asbag68
(g89
g70
NtRp619
(dp620
g73
(dp621
sg82
g607
sg75
(lp622
g68
(g69
g70
NtRp623
(dp624
g73
(dp625
g81
I3
ssg82
g619
sg75
(lp626
S''
asbasbasbasbasbasbasbag68
(g84
g70
NtRp627
(dp628
g73
(dp629
sg82
g245
sg75
(lp630
g68
(g89
g70
NtRp631
(dp632
g73
(dp633
g93
g94
ssg82
g627
sg75
(lp634
S'session_id_globaleaks'
p635
asbag68
(g89
g70
NtRp636
(dp637
g73
(dp638
g100
g101
ssg82
g627
sg75
(lp639
S':'
asbag68
(g89
g70
NtRp640
(dp641
g73
(dp642
sg82
g627
sg75
(lp643
g68
(g69
g70
NtRp644
(dp645
g73
(dp646
g81
I4
ssg82
g640
sg75
(lp647
g68
(g77
g70
NtRp648
(dp649
g73
(dp650
g81
I3
ssg82
Nsg75
(lp651
g68
(g84
g70
NtRp652
(dp653
g73
(dp654
sg82
g648
sg75
(lp655
g68
(g89
g70
NtRp656
(dp657
g73
(dp658
g93
g94
ssg82
g652
sg75
(lp659
g282
asbag68
(g89
g70
NtRp660
(dp661
g73
(dp662
g100
g101
ssg82
g652
sg75
(lp663
S':'
asbag68
(g89
g70
NtRp664
(dp665
g73
(dp666
sg82
g652
sg75
(lp667
g68
(g69
g70
NtRp668
(dp669
g73
(dp670
g81
I3
ssg82
g664
sg75
(lp671
S''
asbasbasbag68
(g84
g70
NtRp672
(dp673
g73
(dp674
sg82
g648
sg75
(lp675
g68
(g89
g70
NtRp676
(dp677
g73
(dp678
g93
g94
ssg82
g672
sg75
(lp679
g303
asbag68
(g89
g70
NtRp680
(dp681
g73
(dp682
g100
g101
ssg82
g672
sg75
(lp683
S':'
asbag68
(g89
g70
NtRp684
(dp685
g73
(dp686
sg82
g672
sg75
(lp687
g68
(g69
g70
NtRp688
(dp689
g73
(dp690
g81
I3
ssg82
g684
sg75
(lp691
S''
asbasbasbag68
(g84
g70
NtRp692
(dp693
g73
(dp694
sg82
g648
sg75
(lp695
g68
(g89
g70
NtRp696
(dp697
g73
(dp698
g93
g94
ssg82
g692
sg75
(lp699
g324
asbag68
(g89
g70
NtRp700
(dp701
g73
(dp702
g100
g101
ssg82
g692
sg75
(lp703
S':'
asbag68
(g89
g70
NtRp704
(dp705
g73
(dp706
sg82
g692
sg75
(lp707
g68
(g69
g70
NtRp708
(dp709
g73
(dp710
g81
I3
ssg82
g704
sg75
(lp711
S''
asbasbasbag68
(g84
g70
NtRp712
(dp713
g73
(dp714
sg82
g648
sg75
(lp715
g68
(g89
g70
NtRp716
(dp717
g73
(dp718
g93
g94
ssg82
g712
sg75
(lp719
g345
asbag68
(g89
g70
NtRp720
(dp721
g73
(dp722
g100
g101
ssg82
g712
sg75
(lp723
S':'
asbag68
(g89
g70
NtRp724
(dp725
g73
(dp726
sg82
g712
sg75
(lp727
g68
(g69
g70
NtRp728
(dp729
g73
(dp730
g81
I3
ssg82
g724
sg75
(lp731
S''
asbasbasbag68
(g84
g70
NtRp732
(dp733
g73
(dp734
sg82
g648
sg75
(lp735
g68
(g89
g70
NtRp736
(dp737
g73
(dp738
g93
g94
ssg82
g732
sg75
(lp739
g366
asbag68
(g89
g70
NtRp740
(dp741
g73
(dp742
g100
g101
ssg82
g732
sg75
(lp743
S':'
asbag68
(g89
g70
NtRp744
(dp745
g73
(dp746
sg82
g732
sg75
(lp747
g68
(g69
g70
NtRp748
(dp749
g73
(dp750
g81
I3
ssg82
g744
sg75
(lp751
S''
asbasbasbag68
(g84
g70
NtRp752
(dp753
g73
(dp754
sg82
g648
sg75
(lp755
g68
(g89
g70
NtRp756
(dp757
g73
(dp758
g93
g94
ssg82
g752
sg75
(lp759
g387
asbag68
(g89
g70
NtRp760
(dp761
g73
(dp762
g100
g101
ssg82
g752
sg75
(lp763
S':'
asbag68
(g89
g70
NtRp764
(dp765
g73
(dp766
sg82
g752
sg75
(lp767
g68
(g69
g70
NtRp768
(dp769
g73
(dp770
g81
I3
ssg82
g764
sg75
(lp771
S''
asbasbasbag68
(g84
g70
NtRp772
(dp773
g73
(dp774
sg82
g648
sg75
(lp775
g68
(g89
g70
NtRp776
(dp777
g73
(dp778
g93
g94
ssg82
g772
sg75
(lp779
g408
asbag68
(g89
g70
NtRp780
(dp781
g73
(dp782
g100
g101
ssg82
g772
sg75
(lp783
S':'
asbag68
(g89
g70
NtRp784
(dp785
g73
(dp786
sg82
g772
sg75
(lp787
g68
(g69
g70
NtRp788
(dp789
g73
(dp790
g81
I3
ssg82
g784
sg75
(lp791
S''
asbasbasbag68
(g84
g70
NtRp792
(dp793
g73
(dp794
sg82
g648
sg75
(lp795
g68
(g89
g70
NtRp796
(dp797
g73
(dp798
g93
g94
ssg82
g792
sg75
(lp799
g429
asbag68
(g89
g70
NtRp800
(dp801
g73
(dp802
g100
g101
ssg82
g792
sg75
(lp803
S':'
asbag68
(g89
g70
NtRp804
(dp805
g73
(dp806
sg82
g792
sg75
(lp807
g68
(g69
g70
NtRp808
(dp809
g73
(dp810
g81
I3
ssg82
g804
sg75
(lp811
S''
asbasbasbasbasbasbasbasbasbasbasbag68
(g84
g70
NtRp812
(dp813
g73
(dp814
sg82
g78
sg75
(lp815
g68
(g89
g70
NtRp816
(dp817
g73
(dp818
g93
g94
ssg82
g812
sg75
(lp819
S'env'
p820
asbag68
(g89
g70
NtRp821
(dp822
g73
(dp823
g100
g101
ssg82
g812
sg75
(lp824
S':'
asbag68
(g89
g70
NtRp825
(dp826
g73
(dp827
sg82
g812
sg75
(lp828
g68
(g69
g70
NtRp829
(dp830
g73
(dp831
g81
I5
ssg82
g825
sg75
(lp832
g68
(g77
g70
NtRp833
(dp834
g73
(dp835
g81
I4
ssg82
Nsg75
(lp836
g68
(g84
g70
NtRp837
(dp838
g73
(dp839
sg82
g833
sg75
(lp840
g68
(g89
g70
NtRp841
(dp842
g73
(dp843
g93
g94
ssg82
g837
sg75
(lp844
S'app_folders'
p845
asbag68
(g89
g70
NtRp846
(dp847
g73
(dp848
g100
g101
ssg82
g837
sg75
(lp849
S':'
asbag68
(g89
g70
NtRp850
(dp851
g73
(dp852
sg82
g837
sg75
(lp853
g68
(g69
g70
NtRp854
(dp855
g73
(dp856
g81
I4
ssg82
g850
sg75
(lp857
S"set(['/Users/hellais/Documents/code/sorci/web2py/applications/solofluff/', '/Users/hellais/Documents/code/sorci/web2py/applications/GlobaLeaks/', '/Users/hellais/Documents/code/sorci/web2py/applications/welcome/', '/Users/hellais/Documents/code/sorci/web2py/applications/admin/', '/Users/hellais/Documents/code/sorci/web2py/applications/globaleaks/', '/Users/hellais/Documents/code/sorci/web2py/applications/examples/', '/Users/hellais/Documents/code/sorci/web2py/applications/blabla/'])"
p858
asbasbasbag68
(g84
g70
NtRp859
(dp860
g73
(dp861
sg82
g833
sg75
(lp862
g68
(g89
g70
NtRp863
(dp864
g73
(dp865
g93
g94
ssg82
g859
sg75
(lp866
S'applications_parent'
p867
asbag68
(g89
g70
NtRp868
(dp869
g73
(dp870
g100
g101
ssg82
g859
sg75
(lp871
S':'
asbag68
(g89
g70
NtRp872
(dp873
g73
(dp874
sg82
g859
sg75
(lp875
g68
(g69
g70
NtRp876
(dp877
g73
(dp878
g81
I4
ssg82
g872
sg75
(lp879
S'/Users/hellais/Documents/code/sorci/web2py'
p880
asbasbasbag68
(g84
g70
NtRp881
(dp882
g73
(dp883
sg82
g833
sg75
(lp884
g68
(g89
g70
NtRp885
(dp886
g73
(dp887
g93
g94
ssg82
g881
sg75
(lp888
S'cmd_args'
p889
asbag68
(g89
g70
NtRp890
(dp891
g73
(dp892
g100
g101
ssg82
g881
sg75
(lp893
S':'
asbag68
(g89
g70
NtRp894
(dp895
g73
(dp896
sg82
g881
sg75
(lp897
g68
(g69
g70
NtRp898
(dp899
g73
(dp900
g81
I4
ssg82
g894
sg75
(lp901
g68
(g77
g70
NtRp902
(dp903
g73
(dp904
g81
I3
ssg82
Nsg75
(lp905
sbasbasbasbag68
(g84
g70
NtRp906
(dp907
g73
(dp908
sg82
g833
sg75
(lp909
g68
(g89
g70
NtRp910
(dp911
g73
(dp912
g93
g94
ssg82
g906
sg75
(lp913
S'cmd_options'
p914
asbag68
(g89
g70
NtRp915
(dp916
g73
(dp917
g100
g101
ssg82
g906
sg75
(lp918
S':'
asbag68
(g89
g70
NtRp919
(dp920
g73
(dp921
sg82
g906
sg75
(lp922
g68
(g69
g70
NtRp923
(dp924
g73
(dp925
g81
I4
ssg82
g919
sg75
(lp926
S"<Values at 0x1021aa098: {'verbose': False, 'ip': '127.0.0.1', 'shutdown_timeout': 5, 'taskbar': False, 'port': 8000, 'maxthreads': None, 'softcron': False, 'server_name': 'Jeanne.local', 'bpython': False, 'nogui': False, 'nocron': False, 'extcron': False, 'debuglevel': 30, 'test': None, 'folder': '/Users/hellais/Documents/code/sorci/web2py', 'config': '', 'import_models': False, 'winservice': '', 'shell': None, 'run': '', 'log_filename': 'httpserver.log', 'args': [''], 'profiler_filename': None, 'ssl_private_key': '', 'password': '<ask>', 'request_queue_size': 5, 'ssl_certificate': '', 'cronjob': False, 'plain': False, 'quiet': False, 'interfaces': None, 'minthreads': None, 'timeout': 10, 'numthreads': None, 'nobanner': False, 'pid_filename': 'httpserver.pid'}>"
p927
asbasbasbag68
(g84
g70
NtRp928
(dp929
g73
(dp930
sg82
g833
sg75
(lp931
g68
(g89
g70
NtRp932
(dp933
g73
(dp934
g93
g94
ssg82
g928
sg75
(lp935
S'db_sessions'
p936
asbag68
(g89
g70
NtRp937
(dp938
g73
(dp939
g100
g101
ssg82
g928
sg75
(lp940
S':'
asbag68
(g89
g70
NtRp941
(dp942
g73
(dp943
sg82
g928
sg75
(lp944
g68
(g69
g70
NtRp945
(dp946
g73
(dp947
g81
I4
ssg82
g941
sg75
(lp948
S'set([])'
p949
asbasbasbag68
(g84
g70
NtRp950
(dp951
g73
(dp952
sg82
g833
sg75
(lp953
g68
(g89
g70
NtRp954
(dp955
g73
(dp956
g93
g94
ssg82
g950
sg75
(lp957
S'debugging'
p958
asbag68
(g89
g70
NtRp959
(dp960
g73
(dp961
g100
g101
ssg82
g950
sg75
(lp962
S':'
asbag68
(g89
g70
NtRp963
(dp964
g73
(dp965
sg82
g950
sg75
(lp966
g68
(g69
g70
NtRp967
(dp968
g73
(dp969
g81
I4
ssg82
g963
sg75
(lp970
g111
asbasbasbag68
(g84
g70
NtRp971
(dp972
g73
(dp973
sg82
g833
sg75
(lp974
g68
(g89
g70
NtRp975
(dp976
g73
(dp977
g93
g94
ssg82
g971
sg75
(lp978
S'gluon_parent'
p979
asbag68
(g89
g70
NtRp980
(dp981
g73
(dp982
g100
g101
ssg82
g971
sg75
(lp983
S':'
asbag68
(g89
g70
NtRp984
(dp985
g73
(dp986
sg82
g971
sg75
(lp987
g68
(g69
g70
NtRp988
(dp989
g73
(dp990
g81
I4
ssg82
g984
sg75
(lp991
S'/Users/hellais/Documents/code/sorci/web2py'
p992
asbasbasbag68
(g84
g70
NtRp993
(dp994
g73
(dp995
sg82
g833
sg75
(lp996
g68
(g89
g70
NtRp997
(dp998
g73
(dp999
g93
g94
ssg82
g993
sg75
(lp1000
S'http_accept'
p1001
asbag68
(g89
g70
NtRp1002
(dp1003
g73
(dp1004
g100
g101
ssg82
g993
sg75
(lp1005
S':'
asbag68
(g89
g70
NtRp1006
(dp1007
g73
(dp1008
sg82
g993
sg75
(lp1009
g68
(g69
g70
NtRp1010
(dp1011
g73
(dp1012
g81
I4
ssg82
g1006
sg75
(lp1013
S'text/html,application/xhtml+xml,application/xml;q=0.9,*/*;q=0.8'
p1014
asbasbasbag68
(g84
g70
NtRp1015
(dp1016
g73
(dp1017
sg82
g833
sg75
(lp1018
g68
(g89
g70
NtRp1019
(dp1020
g73
(dp1021
g93
g94
ssg82
g1015
sg75
(lp1022
S'http_accept_charset'
p1023
asbag68
(g89
g70
NtRp1024
(dp1025
g73
(dp1026
g100
g101
ssg82
g1015
sg75
(lp1027
S':'
asbag68
(g89
g70
NtRp1028
(dp1029
g73
(dp1030
sg82
g1015
sg75
(lp1031
g68
(g69
g70
NtRp1032
(dp1033
g73
(dp1034
g81
I4
ssg82
g1028
sg75
(lp1035
S'ISO-8859-1,utf-8;q=0.7,*;q=0.7'
p1036
asbasbasbag68
(g84
g70
NtRp1037
(dp1038
g73
(dp1039
sg82
g833
sg75
(lp1040
g68
(g89
g70
NtRp1041
(dp1042
g73
(dp1043
g93
g94
ssg82
g1037
sg75
(lp1044
S'http_accept_encoding'
p1045
asbag68
(g89
g70
NtRp1046
(dp1047
g73
(dp1048
g100
g101
ssg82
g1037
sg75
(lp1049
S':'
asbag68
(g89
g70
NtRp1050
(dp1051
g73
(dp1052
sg82
g1037
sg75
(lp1053
g68
(g69
g70
NtRp1054
(dp1055
g73
(dp1056
g81
I4
ssg82
g1050
sg75
(lp1057
S'gzip, deflate'
p1058
asbasbasbag68
(g84
g70
NtRp1059
(dp1060
g73
(dp1061
sg82
g833
sg75
(lp1062
g68
(g89
g70
NtRp1063
(dp1064
g73
(dp1065
g93
g94
ssg82
g1059
sg75
(lp1066
S'http_accept_language'
p1067
asbag68
(g89
g70
NtRp1068
(dp1069
g73
(dp1070
g100
g101
ssg82
g1059
sg75
(lp1071
S':'
asbag68
(g89
g70
NtRp1072
(dp1073
g73
(dp1074
sg82
g1059
sg75
(lp1075
g68
(g69
g70
NtRp1076
(dp1077
g73
(dp1078
g81
I4
ssg82
g1072
sg75
(lp1079
S'en-us,en;q=0.5'
p1080
asbasbasbag68
(g84
g70
NtRp1081
(dp1082
g73
(dp1083
sg82
g833
sg75
(lp1084
g68
(g89
g70
NtRp1085
(dp1086
g73
(dp1087
g93
g94
ssg82
g1081
sg75
(lp1088
S'http_cache_control'
p1089
asbag68
(g89
g70
NtRp1090
(dp1091
g73
(dp1092
g100
g101
ssg82
g1081
sg75
(lp1093
S':'
asbag68
(g89
g70
NtRp1094
(dp1095
g73
(dp1096
sg82
g1081
sg75
(lp1097
g68
(g69
g70
NtRp1098
(dp1099
g73
(dp1100
g81
I4
ssg82
g1094
sg75
(lp1101
S'max-age=0'
p1102
asbasbasbag68
(g84
g70
NtRp1103
(dp1104
g73
(dp1105
sg82
g833
sg75
(lp1106
g68
(g89
g70
NtRp1107
(dp1108
g73
(dp1109
g93
g94
ssg82
g1103
sg75
(lp1110
S'http_connection'
p1111
asbag68
(g89
g70
NtRp1112
(dp1113
g73
(dp1114
g100
g101
ssg82
g1103
sg75
(lp1115
S':'
asbag68
(g89
g70
NtRp1116
(dp1117
g73
(dp1118
sg82
g1103
sg75
(lp1119
g68
(g69
g70
NtRp1120
(dp1121
g73
(dp1122
g81
I4
ssg82
g1116
sg75
(lp1123
S'keep-alive'
p1124
asbasbasbag68
(g84
g70
NtRp1125
(dp1126
g73
(dp1127
sg82
g833
sg75
(lp1128
g68
(g89
g70
NtRp1129
(dp1130
g73
(dp1131
g93
g94
ssg82
g1125
sg75
(lp1132
S'http_cookie'
p1133
asbag68
(g89
g70
NtRp1134
(dp1135
g73
(dp1136
g100
g101
ssg82
g1125
sg75
(lp1137
S':'
asbag68
(g89
g70
NtRp1138
(dp1139
g73
(dp1140
sg82
g1125
sg75
(lp1141
g68
(g69
g70
NtRp1142
(dp1143
g73
(dp1144
g81
I4
ssg82
g1138
sg75
(lp1145
S'session_id_admin=127.0.0.1-77e5db63-03b8-4585-a9ef-f2500b132b75; session_id_globaleaks=127.0.0.1-c6d5b9b3-1ec7-41c1-8d72-04c21b7a6b11; session_id_blabla=127.0.0.1-c445384e-a3ea-4484-8fe2-52f3295bbb7c'
p1146
asbasbasbag68
(g84
g70
NtRp1147
(dp1148
g73
(dp1149
sg82
g833
sg75
(lp1150
g68
(g89
g70
NtRp1151
(dp1152
g73
(dp1153
g93
g94
ssg82
g1147
sg75
(lp1154
S'http_host'
p1155
asbag68
(g89
g70
NtRp1156
(dp1157
g73
(dp1158
g100
g101
ssg82
g1147
sg75
(lp1159
S':'
asbag68
(g89
g70
NtRp1160
(dp1161
g73
(dp1162
sg82
g1147
sg75
(lp1163
g68
(g69
g70
NtRp1164
(dp1165
g73
(dp1166
g81
I4
ssg82
g1160
sg75
(lp1167
S'127.0.0.1:8000'
p1168
asbasbasbag68
(g84
g70
NtRp1169
(dp1170
g73
(dp1171
sg82
g833
sg75
(lp1172
g68
(g89
g70
NtRp1173
(dp1174
g73
(dp1175
g93
g94
ssg82
g1169
sg75
(lp1176
S'http_user_agent'
p1177
asbag68
(g89
g70
NtRp1178
(dp1179
g73
(dp1180
g100
g101
ssg82
g1169
sg75
(lp1181
S':'
asbag68
(g89
g70
NtRp1182
(dp1183
g73
(dp1184
sg82
g1169
sg75
(lp1185
g68
(g69
g70
NtRp1186
(dp1187
g73
(dp1188
g81
I4
ssg82
g1182
sg75
(lp1189
S'Mozilla/5.0 (Macintosh; Intel Mac OS X 10.6; rv:5.0.1) Gecko/20100101 Firefox/5.0.1'
p1190
asbasbasbag68
(g84
g70
NtRp1191
(dp1192
g73
(dp1193
sg82
g833
sg75
(lp1194
g68
(g89
g70
NtRp1195
(dp1196
g73
(dp1197
g93
g94
ssg82
g1191
sg75
(lp1198
S'is_jython'
p1199
asbag68
(g89
g70
NtRp1200
(dp1201
g73
(dp1202
g100
g101
ssg82
g1191
sg75
(lp1203
S':'
asbag68
(g89
g70
NtRp1204
(dp1205
g73
(dp1206
sg82
g1191
sg75
(lp1207
g68
(g69
g70
NtRp1208
(dp1209
g73
(dp1210
g81
I4
ssg82
g1204
sg75
(lp1211
g111
asbasbasbag68
(g84
g70
NtRp1212
(dp1213
g73
(dp1214
sg82
g833
sg75
(lp1215
g68
(g89
g70
NtRp1216
(dp1217
g73
(dp1218
g93
g94
ssg82
g1212
sg75
(lp1219
S'path_info'
p1220
asbag68
(g89
g70
NtRp1221
(dp1222
g73
(dp1223
g100
g101
ssg82
g1212
sg75
(lp1224
S':'
asbag68
(g89
g70
NtRp1225
(dp1226
g73
(dp1227
sg82
g1212
sg75
(lp1228
g68
(g69
g70
NtRp1229
(dp1230
g73
(dp1231
g81
I4
ssg82
g1225
sg75
(lp1232
S'/globaleaks'
p1233
asbasbasbag68
(g84
g70
NtRp1234
(dp1235
g73
(dp1236
sg82
g833
sg75
(lp1237
g68
(g89
g70
NtRp1238
(dp1239
g73
(dp1240
g93
g94
ssg82
g1234
sg75
(lp1241
S'query_string'
p1242
asbag68
(g89
g70
NtRp1243
(dp1244
g73
(dp1245
g100
g101
ssg82
g1234
sg75
(lp1246
S':'
asbag68
(g89
g70
NtRp1247
(dp1248
g73
(dp1249
sg82
g1234
sg75
(lp1250
g68
(g69
g70
NtRp1251
(dp1252
g73
(dp1253
g81
I4
ssg82
g1247
sg75
(lp1254
S''
asbasbasbag68
(g84
g70
NtRp1255
(dp1256
g73
(dp1257
sg82
g833
sg75
(lp1258
g68
(g89
g70
NtRp1259
(dp1260
g73
(dp1261
g93
g94
ssg82
g1255
sg75
(lp1262
S'remote_addr'
p1263
asbag68
(g89
g70
NtRp1264
(dp1265
g73
(dp1266
g100
g101
ssg82
g1255
sg75
(lp1267
S':'
asbag68
(g89
g70
NtRp1268
(dp1269
g73
(dp1270
sg82
g1255
sg75
(lp1271
g68
(g69
g70
NtRp1272
(dp1273
g73
(dp1274
g81
I4
ssg82
g1268
sg75
(lp1275
g201
asbasbasbag68
(g84
g70
NtRp1276
(dp1277
g73
(dp1278
sg82
g833
sg75
(lp1279
g68
(g89
g70
NtRp1280
(dp1281
g73
(dp1282
g93
g94
ssg82
g1276
sg75
(lp1283
S'remote_port'
p1284
asbag68
(g89
g70
NtRp1285
(dp1286
g73
(dp1287
g100
g101
ssg82
g1276
sg75
(lp1288
S':'
asbag68
(g89
g70
NtRp1289
(dp1290
g73
(dp1291
sg82
g1276
sg75
(lp1292
g68
(g69
g70
NtRp1293
(dp1294
g73
(dp1295
g81
I4
ssg82
g1289
sg75
(lp1296
S'50424'
p1297
asbasbasbag68
(g84
g70
NtRp1298
(dp1299
g73
(dp1300
sg82
g833
sg75
(lp1301
g68
(g89
g70
NtRp1302
(dp1303
g73
(dp1304
g93
g94
ssg82
g1298
sg75
(lp1305
S'request_method'
p1306
asbag68
(g89
g70
NtRp1307
(dp1308
g73
(dp1309
g100
g101
ssg82
g1298
sg75
(lp1310
S':'
asbag68
(g89
g70
NtRp1311
(dp1312
g73
(dp1313
sg82
g1298
sg75
(lp1314
g68
(g69
g70
NtRp1315
(dp1316
g73
(dp1317
g81
I4
ssg82
g1311
sg75
(lp1318
S'GET'
p1319
asbasbasbag68
(g84
g70
NtRp1320
(dp1321
g73
(dp1322
sg82
g833
sg75
(lp1323
g68
(g89
g70
NtRp1324
(dp1325
g73
(dp1326
g93
g94
ssg82
g1320
sg75
(lp1327
S'script_name'
p1328
asbag68
(g89
g70
NtRp1329
(dp1330
g73
(dp1331
g100
g101
ssg82
g1320
sg75
(lp1332
S':'
asbag68
(g89
g70
NtRp1333
(dp1334
g73
(dp1335
sg82
g1320
sg75
(lp1336
g68
(g69
g70
NtRp1337
(dp1338
g73
(dp1339
g81
I4
ssg82
g1333
sg75
(lp1340
S''
asbasbasbag68
(g84
g70
NtRp1341
(dp1342
g73
(dp1343
sg82
g833
sg75
(lp1344
g68
(g89
g70
NtRp1345
(dp1346
g73
(dp1347
g93
g94
ssg82
g1341
sg75
(lp1348
S'server_name'
p1349
asbag68
(g89
g70
NtRp1350
(dp1351
g73
(dp1352
g100
g101
ssg82
g1341
sg75
(lp1353
S':'
asbag68
(g89
g70
NtRp1354
(dp1355
g73
(dp1356
sg82
g1341
sg75
(lp1357
g68
(g69
g70
NtRp1358
(dp1359
g73
(dp1360
g81
I4
ssg82
g1354
sg75
(lp1361
S'Jeanne.local'
p1362
asbasbasbag68
(g84
g70
NtRp1363
(dp1364
g73
(dp1365
sg82
g833
sg75
(lp1366
g68
(g89
g70
NtRp1367
(dp1368
g73
(dp1369
g93
g94
ssg82
g1363
sg75
(lp1370
S'server_port'
p1371
asbag68
(g89
g70
NtRp1372
(dp1373
g73
(dp1374
g100
g101
ssg82
g1363
sg75
(lp1375
S':'
asbag68
(g89
g70
NtRp1376
(dp1377
g73
(dp1378
sg82
g1363
sg75
(lp1379
g68
(g69
g70
NtRp1380
(dp1381
g73
(dp1382
g81
I4
ssg82
g1376
sg75
(lp1383
S'8000'
p1384
asbasbasbag68
(g84
g70
NtRp1385
(dp1386
g73
(dp1387
sg82
g833
sg75
(lp1388
g68
(g89
g70
NtRp1389
(dp1390
g73
(dp1391
g93
g94
ssg82
g1385
sg75
(lp1392
S'server_protocol'
p1393
asbag68
(g89
g70
NtRp1394
(dp1395
g73
(dp1396
g100
g101
ssg82
g1385
sg75
(lp1397
S':'
asbag68
(g89
g70
NtRp1398
(dp1399
g73
(dp1400
sg82
g1385
sg75
(lp1401
g68
(g69
g70
NtRp1402
(dp1403
g73
(dp1404
g81
I4
ssg82
g1398
sg75
(lp1405
S'HTTP/1.1'
p1406
asbasbasbag68
(g84
g70
NtRp1407
(dp1408
g73
(dp1409
sg82
g833
sg75
(lp1410
g68
(g89
g70
NtRp1411
(dp1412
g73
(dp1413
g93
g94
ssg82
g1407
sg75
(lp1414
S'server_software'
p1415
asbag68
(g89
g70
NtRp1416
(dp1417
g73
(dp1418
g100
g101
ssg82
g1407
sg75
(lp1419
S':'
asbag68
(g89
g70
NtRp1420
(dp1421
g73
(dp1422
sg82
g1407
sg75
(lp1423
g68
(g69
g70
NtRp1424
(dp1425
g73
(dp1426
g81
I4
ssg82
g1420
sg75
(lp1427
S'Rocket 1.2.2'
p1428
asbasbasbag68
(g84
g70
NtRp1429
(dp1430
g73
(dp1431
sg82
g833
sg75
(lp1432
g68
(g89
g70
NtRp1433
(dp1434
g73
(dp1435
g93
g94
ssg82
g1429
sg75
(lp1436
S'web2py_crontype'
p1437
asbag68
(g89
g70
NtRp1438
(dp1439
g73
(dp1440
g100
g101
ssg82
g1429
sg75
(lp1441
S':'
asbag68
(g89
g70
NtRp1442
(dp1443
g73
(dp1444
sg82
g1429
sg75
(lp1445
g68
(g69
g70
NtRp1446
(dp1447
g73
(dp1448
g81
I4
ssg82
g1442
sg75
(lp1449
S'hard'
p1450
asbasbasbag68
(g84
g70
NtRp1451
(dp1452
g73
(dp1453
sg82
g833
sg75
(lp1454
g68
(g89
g70
NtRp1455
(dp1456
g73
(dp1457
g93
g94
ssg82
g1451
sg75
(lp1458
S'web2py_path'
p1459
asbag68
(g89
g70
NtRp1460
(dp1461
g73
(dp1462
g100
g101
ssg82
g1451
sg75
(lp1463
S':'
asbag68
(g89
g70
NtRp1464
(dp1465
g73
(dp1466
sg82
g1451
sg75
(lp1467
g68
(g69
g70
NtRp1468
(dp1469
g73
(dp1470
g81
I4
ssg82
g1464
sg75
(lp1471
g880
asbasbasbag68
(g84
g70
NtRp1472
(dp1473
g73
(dp1474
sg82
g833
sg75
(lp1475
g68
(g89
g70
NtRp1476
(dp1477
g73
(dp1478
g93
g94
ssg82
g1472
sg75
(lp1479
S'web2py_version'
p1480
asbag68
(g89
g70
NtRp1481
(dp1482
g73
(dp1483
g100
g101
ssg82
g1472
sg75
(lp1484
S':'
asbag68
(g89
g70
NtRp1485
(dp1486
g73
(dp1487
sg82
g1472
sg75
(lp1488
g68
(g69
g70
NtRp1489
(dp1490
g73
(dp1491
g81
I4
ssg82
g1485
sg75
(lp1492
S'Version 1.98.2 (2011-08-04 00:47:09)\n'
p1493
asbasbasbag68
(g84
g70
NtRp1494
(dp1495
g73
(dp1496
sg82
g833
sg75
(lp1497
g68
(g89
g70
NtRp1498
(dp1499
g73
(dp1500
g93
g94
ssg82
g1494
sg75
(lp1501
S'wsgi_errors'
p1502
asbag68
(g89
g70
NtRp1503
(dp1504
g73
(dp1505
g100
g101
ssg82
g1494
sg75
(lp1506
S':'
asbag68
(g89
g70
NtRp1507
(dp1508
g73
(dp1509
sg82
g1494
sg75
(lp1510
g68
(g69
g70
NtRp1511
(dp1512
g73
(dp1513
g81
I4
ssg82
g1507
sg75
(lp1514
S"<open file '<stderr>', mode 'w' at 0x100287270>"
p1515
asbasbasbag68
(g84
g70
NtRp1516
(dp1517
g73
(dp1518
sg82
g833
sg75
(lp1519
g68
(g89
g70
NtRp1520
(dp1521
g73
(dp1522
g93
g94
ssg82
g1516
sg75
(lp1523
S'wsgi_file_wrapper'
p1524
asbag68
(g89
g70
NtRp1525
(dp1526
g73
(dp1527
g100
g101
ssg82
g1516
sg75
(lp1528
S':'
asbag68
(g89
g70
NtRp1529
(dp1530
g73
(dp1531
sg82
g1516
sg75
(lp1532
g68
(g69
g70
NtRp1533
(dp1534
g73
(dp1535
g81
I4
ssg82
g1529
sg75
(lp1536
S'<class gluon.rocket.FileWrapper at 0x101c01668>'
p1537
asbasbasbag68
(g84
g70
NtRp1538
(dp1539
g73
(dp1540
sg82
g833
sg75
(lp1541
g68
(g89
g70
NtRp1542
(dp1543
g73
(dp1544
g93
g94
ssg82
g1538
sg75
(lp1545
S'wsgi_input'
p1546
asbag68
(g89
g70
NtRp1547
(dp1548
g73
(dp1549
g100
g101
ssg82
g1538
sg75
(lp1550
S':'
asbag68
(g89
g70
NtRp1551
(dp1552
g73
(dp1553
sg82
g1538
sg75
(lp1554
g68
(g69
g70
NtRp1555
(dp1556
g73
(dp1557
g81
I4
ssg82
g1551
sg75
(lp1558
S'<socket._fileobject object at 0x103d4cc50>'
p1559
asbasbasbag68
(g84
g70
NtRp1560
(dp1561
g73
(dp1562
sg82
g833
sg75
(lp1563
g68
(g89
g70
NtRp1564
(dp1565
g73
(dp1566
g93
g94
ssg82
g1560
sg75
(lp1567
S'wsgi_multiprocess'
p1568
asbag68
(g89
g70
NtRp1569
(dp1570
g73
(dp1571
g100
g101
ssg82
g1560
sg75
(lp1572
S':'
asbag68
(g89
g70
NtRp1573
(dp1574
g73
(dp1575
sg82
g1560
sg75
(lp1576
g68
(g69
g70
NtRp1577
(dp1578
g73
(dp1579
g81
I4
ssg82
g1573
sg75
(lp1580
g111
asbasbasbag68
(g84
g70
NtRp1581
(dp1582
g73
(dp1583
sg82
g833
sg75
(lp1584
g68
(g89
g70
NtRp1585
(dp1586
g73
(dp1587
g93
g94
ssg82
g1581
sg75
(lp1588
S'wsgi_multithread'
p1589
asbag68
(g89
g70
NtRp1590
(dp1591
g73
(dp1592
g100
g101
ssg82
g1581
sg75
(lp1593
S':'
asbag68
(g89
g70
NtRp1594
(dp1595
g73
(dp1596
sg82
g1581
sg75
(lp1597
g68
(g69
g70
NtRp1598
(dp1599
g73
(dp1600
g81
I4
ssg82
g1594
sg75
(lp1601
S'True'
p1602
asbasbasbag68
(g84
g70
NtRp1603
(dp1604
g73
(dp1605
sg82
g833
sg75
(lp1606
g68
(g89
g70
NtRp1607
(dp1608
g73
(dp1609
g93
g94
ssg82
g1603
sg75
(lp1610
S'wsgi_run_once'
p1611
asbag68
(g89
g70
NtRp1612
(dp1613
g73
(dp1614
g100
g101
ssg82
g1603
sg75
(lp1615
S':'
asbag68
(g89
g70
NtRp1616
(dp1617
g73
(dp1618
sg82
g1603
sg75
(lp1619
g68
(g69
g70
NtRp1620
(dp1621
g73
(dp1622
g81
I4
ssg82
g1616
sg75
(lp1623
g111
asbasbasbag68
(g84
g70
NtRp1624
(dp1625
g73
(dp1626
sg82
g833
sg75
(lp1627
g68
(g89
g70
NtRp1628
(dp1629
g73
(dp1630
g93
g94
ssg82
g1624
sg75
(lp1631
S'wsgi_url_scheme'
p1632
asbag68
(g89
g70
NtRp1633
(dp1634
g73
(dp1635
g100
g101
ssg82
g1624
sg75
(lp1636
S':'
asbag68
(g89
g70
NtRp1637
(dp1638
g73
(dp1639
sg82
g1624
sg75
(lp1640
g68
(g69
g70
NtRp1641
(dp1642
g73
(dp1643
g81
I4
ssg82
g1637
sg75
(lp1644
S'http'
p1645
asbasbasbag68
(g84
g70
NtRp1646
(dp1647
g73
(dp1648
sg82
g833
sg75
(lp1649
g68
(g89
g70
NtRp1650
(dp1651
g73
(dp1652
g93
g94
ssg82
g1646
sg75
(lp1653
S'wsgi_version'
p1654
asbag68
(g89
g70
NtRp1655
(dp1656
g73
(dp1657
g100
g101
ssg82
g1646
sg75
(lp1658
S':'
asbag68
(g89
g70
NtRp1659
(dp1660
g73
(dp1661
sg82
g1646
sg75
(lp1662
g68
(g69
g70
NtRp1663
(dp1664
g73
(dp1665
g81
I4
ssg82
g1659
sg75
(lp1666
g68
(g77
g70
NtRp1667
(dp1668
g73
(dp1669
g81
I3
ssg82
Nsg75
(lp1670
g68
(g84
g70
NtRp1671
(dp1672
g73
(dp1673
sg82
g1667
sg75
(lp1674
g68
(g89
g70
NtRp1675
(dp1676
g73
(dp1677
sg82
g1671
sg75
(lp1678
g68
(g69
g70
NtRp1679
(dp1680
g73
(dp1681
g81
I3
ssg82
g1675
sg75
(lp1682
S'1'
asbasbasbag68
(g84
g70
NtRp1683
(dp1684
g73
(dp1685
sg82
g1667
sg75
(lp1686
g68
(g89
g70
NtRp1687
(dp1688
g73
(dp1689
sg82
g1683
sg75
(lp1690
g68
(g69
g70
NtRp1691
(dp1692
g73
(dp1693
g81
I3
ssg82
g1687
sg75
(lp1694
S'0'
asbasbasbasbasbasbasbasbasbasbasbag68
(g84
g70
NtRp1695
(dp1696
g73
(dp1697
sg82
g78
sg75
(lp1698
g68
(g89
g70
NtRp1699
(dp1700
g73
(dp1701
g93
g94
ssg82
g1695
sg75
(lp1702
S'extension'
p1703
asbag68
(g89
g70
NtRp1704
(dp1705
g73
(dp1706
g100
g101
ssg82
g1695
sg75
(lp1707
S':'
asbag68
(g89
g70
NtRp1708
(dp1709
g73
(dp1710
sg82
g1695
sg75
(lp1711
g68
(g69
g70
NtRp1712
(dp1713
g73
(dp1714
g81
I5
ssg82
g1708
sg75
(lp1715
S'html'
p1716
asbasbasbag68
(g84
g70
NtRp1717
(dp1718
g73
(dp1719
sg82
g78
sg75
(lp1720
g68
(g89
g70
NtRp1721
(dp1722
g73
(dp1723
g93
g94
ssg82
g1717
sg75
(lp1724
S'folder'
p1725
asbag68
(g89
g70
NtRp1726
(dp1727
g73
(dp1728
g100
g101
ssg82
g1717
sg75
(lp1729
S':'
asbag68
(g89
g70
NtRp1730
(dp1731
g73
(dp1732
sg82
g1717
sg75
(lp1733
g68
(g69
g70
NtRp1734
(dp1735
g73
(dp1736
g81
I5
ssg82
g1730
sg75
(lp1737
S'/Users/hellais/Documents/code/sorci/web2py/applications/globaleaks/'
p1738
asbasbasbag68
(g84
g70
NtRp1739
(dp1740
g73
(dp1741
sg82
g78
sg75
(lp1742
g68
(g89
g70
NtRp1743
(dp1744
g73
(dp1745
g93
g94
ssg82
g1739
sg75
(lp1746
S'function'
p1747
asbag68
(g89
g70
NtRp1748
(dp1749
g73
(dp1750
g100
g101
ssg82
g1739
sg75
(lp1751
S':'
asbag68
(g89
g70
NtRp1752
(dp1753
g73
(dp1754
sg82
g1739
sg75
(lp1755
g68
(g69
g70
NtRp1756
(dp1757
g73
(dp1758
g81
I5
ssg82
g1752
sg75
(lp1759
S'index'
p1760
asbasbasbag68
(g84
g70
NtRp1761
(dp1762
g73
(dp1763
sg82
g78
sg75
(lp1764
g68
(g89
g70
NtRp1765
(dp1766
g73
(dp1767
g93
g94
ssg82
g1761
sg75
(lp1768
S'get_vars'
p1769
asbag68
(g89
g70
NtRp1770
(dp1771
g73
(dp1772
g100
g101
ssg82
g1761
sg75
(lp1773
S':'
asbag68
(g89
g70
NtRp1774
(dp1775
g73
(dp1776
sg82
g1761
sg75
(lp1777
g68
(g69
g70
NtRp1778
(dp1779
g73
(dp1780
g81
I5
ssg82
g1774
sg75
(lp1781
g68
(g77
g70
NtRp1782
(dp1783
g73
(dp1784
g81
I4
ssg82
Nsg75
(lp1785
sbasbasbasbag68
(g84
g70
NtRp1786
(dp1787
g73
(dp1788
sg82
g78
sg75
(lp1789
g68
(g89
g70
NtRp1790
(dp1791
g73
(dp1792
g93
g94
ssg82
g1786
sg75
(lp1793
S'is_https'
p1794
asbag68
(g89
g70
NtRp1795
(dp1796
g73
(dp1797
g100
g101
ssg82
g1786
sg75
(lp1798
S':'
asbag68
(g89
g70
NtRp1799
(dp1800
g73
(dp1801
sg82
g1786
sg75
(lp1802
g68
(g69
g70
NtRp1803
(dp1804
g73
(dp1805
g81
I5
ssg82
g1799
sg75
(lp1806
g111
asbasbasbag68
(g84
g70
NtRp1807
(dp1808
g73
(dp1809
sg82
g78
sg75
(lp1810
g68
(g89
g70
NtRp1811
(dp1812
g73
(dp1813
g93
g94
ssg82
g1807
sg75
(lp1814
S'is_local'
p1815
asbag68
(g89
g70
NtRp1816
(dp1817
g73
(dp1818
g100
g101
ssg82
g1807
sg75
(lp1819
S':'
asbag68
(g89
g70
NtRp1820
(dp1821
g73
(dp1822
sg82
g1807
sg75
(lp1823
g68
(g69
g70
NtRp1824
(dp1825
g73
(dp1826
g81
I5
ssg82
g1820
sg75
(lp1827
g1602
asbasbasbag68
(g84
g70
NtRp1828
(dp1829
g73
(dp1830
sg82
g78
sg75
(lp1831
g68
(g89
g70
NtRp1832
(dp1833
g73
(dp1834
g93
g94
ssg82
g1828
sg75
(lp1835
S'is_restful'
p1836
asbag68
(g89
g70
NtRp1837
(dp1838
g73
(dp1839
g100
g101
ssg82
g1828
sg75
(lp1840
S':'
asbag68
(g89
g70
NtRp1841
(dp1842
g73
(dp1843
sg82
g1828
sg75
(lp1844
g68
(g69
g70
NtRp1845
(dp1846
g73
(dp1847
g81
I5
ssg82
g1841
sg75
(lp1848
g111
asbasbasbag68
(g84
g70
NtRp1849
(dp1850
g73
(dp1851
sg82
g78
sg75
(lp1852
g68
(g89
g70
NtRp1853
(dp1854
g73
(dp1855
g93
g94
ssg82
g1849
sg75
(lp1856
S'now'
p1857
asbag68
(g89
g70
NtRp1858
(dp1859
g73
(dp1860
g100
g101
ssg82
g1849
sg75
(lp1861
S':'
asbag68
(g89
g70
NtRp1862
(dp1863
g73
(dp1864
sg82
g1849
sg75
(lp1865
g68
(g69
g70
NtRp1866
(dp1867
g73
(dp1868
g81
I5
ssg82
g1862
sg75
(lp1869
S'datetime.datetime(2011, 8, 27, 0, 29, 8, 61020)'
p1870
asbasbasbag68
(g84
g70
NtRp1871
(dp1872
g73
(dp1873
sg82
g78
sg75
(lp1874
g68
(g89
g70
NtRp1875
(dp1876
g73
(dp1877
g93
g94
ssg82
g1871
sg75
(lp1878
S'post_vars'
p1879
asbag68
(g89
g70
NtRp1880
(dp1881
g73
(dp1882
g100
g101
ssg82
g1871
sg75
(lp1883
S':'
asbag68
(g89
g70
NtRp1884
(dp1885
g73
(dp1886
sg82
g1871
sg75
(lp1887
g68
(g69
g70
NtRp1888
(dp1889
g73
(dp1890
g81
I5
ssg82
g1884
sg75
(lp1891
g68
(g77
g70
NtRp1892
(dp1893
g73
(dp1894
g81
I4
ssg82
Nsg75
(lp1895
sbasbasbasbag68
(g84
g70
NtRp1896
(dp1897
g73
(dp1898
sg82
g78
sg75
(lp1899
g68
(g89
g70
NtRp1900
(dp1901
g73
(dp1902
g93
g94
ssg82
g1896
sg75
(lp1903
S'url'
p1904
asbag68
(g89
g70
NtRp1905
(dp1906
g73
(dp1907
g100
g101
ssg82
g1896
sg75
(lp1908
S':'
asbag68
(g89
g70
NtRp1909
(dp1910
g73
(dp1911
sg82
g1896
sg75
(lp1912
g68
(g69
g70
NtRp1913
(dp1914
g73
(dp1915
g81
I5
ssg82
g1909
sg75
(lp1916
S'/globaleaks/default/index'
p1917
asbasbasbag68
(g84
g70
NtRp1918
(dp1919
g73
(dp1920
sg82
g78
sg75
(lp1921
g68
(g89
g70
NtRp1922
(dp1923
g73
(dp1924
g93
g94
ssg82
g1918
sg75
(lp1925
S'uuid'
p1926
asbag68
(g89
g70
NtRp1927
(dp1928
g73
(dp1929
g100
g101
ssg82
g1918
sg75
(lp1930
S':'
asbag68
(g89
g70
NtRp1931
(dp1932
g73
(dp1933
sg82
g1918
sg75
(lp1934
g68
(g69
g70
NtRp1935
(dp1936
g73
(dp1937
g81
I5
ssg82
g1931
sg75
(lp1938
S'globaleaks/127.0.0.1.2011-08-27.00-29-08.1f3d8a59-53ed-452e-ba64-96cba6e35edc'
p1939
asbasbasbag68
(g84
g70
NtRp1940
(dp1941
g73
(dp1942
sg82
g78
sg75
(lp1943
g68
(g89
g70
NtRp1944
(dp1945
g73
(dp1946
g93
g94
ssg82
g1940
sg75
(lp1947
S'vars'
p1948
asbag68
(g89
g70
NtRp1949
(dp1950
g73
(dp1951
g100
g101
ssg82
g1940
sg75
(lp1952
S':'
asbag68
(g89
g70
NtRp1953
(dp1954
g73
(dp1955
sg82
g1940
sg75
(lp1956
g68
(g69
g70
NtRp1957
(dp1958
g73
(dp1959
g81
I5
ssg82
g1953
sg75
(lp1960
g68
(g77
g70
NtRp1961
(dp1962
g73
(dp1963
g81
I4
ssg82
Nsg75
(lp1964
sbasbasbasbag68
(g84
g70
NtRp1965
(dp1966
g73
(dp1967
sg82
g78
sg75
(lp1968
g68
(g89
g70
NtRp1969
(dp1970
g73
(dp1971
g93
g94
ssg82
g1965
sg75
(lp1972
S'wsgi'
p1973
asbag68
(g89
g70
NtRp1974
(dp1975
g73
(dp1976
g100
g101
ssg82
g1965
sg75
(lp1977
S':'
asbag68
(g89
g70
NtRp1978
(dp1979
g73
(dp1980
sg82
g1965
sg75
(lp1981
g68
(g69
g70
NtRp1982
(dp1983
g73
(dp1984
g81
I5
ssg82
g1978
sg75
(lp1985
g68
(g77
g70
NtRp1986
(dp1987
g73
(dp1988
g81
I4
ssg82
Nsg75
(lp1989
g68
(g84
g70
NtRp1990
(dp1991
g73
(dp1992
sg82
g1986
sg75
(lp1993
g68
(g89
g70
NtRp1994
(dp1995
g73
(dp1996
g93
g94
ssg82
g1990
sg75
(lp1997
S'environ'
p1998
asbag68
(g89
g70
NtRp1999
(dp2000
g73
(dp2001
g100
g101
ssg82
g1990
sg75
(lp2002
S':'
asbag68
(g89
g70
NtRp2003
(dp2004
g73
(dp2005
sg82
g1990
sg75
(lp2006
g68
(g69
g70
NtRp2007
(dp2008
g73
(dp2009
g81
I4
ssg82
g2003
sg75
(lp2010
g68
(g77
g70
NtRp2011
(dp2012
g73
(dp2013
g81
I3
ssg82
Nsg75
(lp2014
g68
(g84
g70
NtRp2015
(dp2016
g73
(dp2017
sg82
g2011
sg75
(lp2018
g68
(g89
g70
NtRp2019
(dp2020
g73
(dp2021
g93
g94
ssg82
g2015
sg75
(lp2022
S'HTTP_ACCEPT'
p2023
asbag68
(g89
g70
NtRp2024
(dp2025
g73
(dp2026
g100
g101
ssg82
g2015
sg75
(lp2027
S':'
asbag68
(g89
g70
NtRp2028
(dp2029
g73
(dp2030
sg82
g2015
sg75
(lp2031
g68
(g69
g70
NtRp2032
(dp2033
g73
(dp2034
g81
I3
ssg82
g2028
sg75
(lp2035
g1014
asbasbasbag68
(g84
g70
NtRp2036
(dp2037
g73
(dp2038
sg82
g2011
sg75
(lp2039
g68
(g89
g70
NtRp2040
(dp2041
g73
(dp2042
g93
g94
ssg82
g2036
sg75
(lp2043
S'HTTP_ACCEPT_CHARSET'
p2044
asbag68
(g89
g70
NtRp2045
(dp2046
g73
(dp2047
g100
g101
ssg82
g2036
sg75
(lp2048
S':'
asbag68
(g89
g70
NtRp2049
(dp2050
g73
(dp2051
sg82
g2036
sg75
(lp2052
g68
(g69
g70
NtRp2053
(dp2054
g73
(dp2055
g81
I3
ssg82
g2049
sg75
(lp2056
g1036
asbasbasbag68
(g84
g70
NtRp2057
(dp2058
g73
(dp2059
sg82
g2011
sg75
(lp2060
g68
(g89
g70
NtRp2061
(dp2062
g73
(dp2063
g93
g94
ssg82
g2057
sg75
(lp2064
S'HTTP_ACCEPT_ENCODING'
p2065
asbag68
(g89
g70
NtRp2066
(dp2067
g73
(dp2068
g100
g101
ssg82
g2057
sg75
(lp2069
S':'
asbag68
(g89
g70
NtRp2070
(dp2071
g73
(dp2072
sg82
g2057
sg75
(lp2073
g68
(g69
g70
NtRp2074
(dp2075
g73
(dp2076
g81
I3
ssg82
g2070
sg75
(lp2077
g1058
asbasbasbag68
(g84
g70
NtRp2078
(dp2079
g73
(dp2080
sg82
g2011
sg75
(lp2081
g68
(g89
g70
NtRp2082
(dp2083
g73
(dp2084
g93
g94
ssg82
g2078
sg75
(lp2085
S'HTTP_ACCEPT_LANGUAGE'
p2086
asbag68
(g89
g70
NtRp2087
(dp2088
g73
(dp2089
g100
g101
ssg82
g2078
sg75
(lp2090
S':'
asbag68
(g89
g70
NtRp2091
(dp2092
g73
(dp2093
sg82
g2078
sg75
(lp2094
g68
(g69
g70
NtRp2095
(dp2096
g73
(dp2097
g81
I3
ssg82
g2091
sg75
(lp2098
g1080
asbasbasbag68
(g84
g70
NtRp2099
(dp2100
g73
(dp2101
sg82
g2011
sg75
(lp2102
g68
(g89
g70
NtRp2103
(dp2104
g73
(dp2105
g93
g94
ssg82
g2099
sg75
(lp2106
S'HTTP_CACHE_CONTROL'
p2107
asbag68
(g89
g70
NtRp2108
(dp2109
g73
(dp2110
g100
g101
ssg82
g2099
sg75
(lp2111
S':'
asbag68
(g89
g70
NtRp2112
(dp2113
g73
(dp2114
sg82
g2099
sg75
(lp2115
g68
(g69
g70
NtRp2116
(dp2117
g73
(dp2118
g81
I3
ssg82
g2112
sg75
(lp2119
g1102
asbasbasbag68
(g84
g70
NtRp2120
(dp2121
g73
(dp2122
sg82
g2011
sg75
(lp2123
g68
(g89
g70
NtRp2124
(dp2125
g73
(dp2126
g93
g94
ssg82
g2120
sg75
(lp2127
S'HTTP_CONNECTION'
p2128
asbag68
(g89
g70
NtRp2129
(dp2130
g73
(dp2131
g100
g101
ssg82
g2120
sg75
(lp2132
S':'
asbag68
(g89
g70
NtRp2133
(dp2134
g73
(dp2135
sg82
g2120
sg75
(lp2136
g68
(g69
g70
NtRp2137
(dp2138
g73
(dp2139
g81
I3
ssg82
g2133
sg75
(lp2140
g1124
asbasbasbag68
(g84
g70
NtRp2141
(dp2142
g73
(dp2143
sg82
g2011
sg75
(lp2144
g68
(g89
g70
NtRp2145
(dp2146
g73
(dp2147
g93
g94
ssg82
g2141
sg75
(lp2148
S'HTTP_COOKIE'
p2149
asbag68
(g89
g70
NtRp2150
(dp2151
g73
(dp2152
g100
g101
ssg82
g2141
sg75
(lp2153
S':'
asbag68
(g89
g70
NtRp2154
(dp2155
g73
(dp2156
sg82
g2141
sg75
(lp2157
g68
(g69
g70
NtRp2158
(dp2159
g73
(dp2160
g81
I3
ssg82
g2154
sg75
(lp2161
g1146
asbasbasbag68
(g84
g70
NtRp2162
(dp2163
g73
(dp2164
sg82
g2011
sg75
(lp2165
g68
(g89
g70
NtRp2166
(dp2167
g73
(dp2168
g93
g94
ssg82
g2162
sg75
(lp2169
S'HTTP_HOST'
p2170
asbag68
(g89
g70
NtRp2171
(dp2172
g73
(dp2173
g100
g101
ssg82
g2162
sg75
(lp2174
S':'
asbag68
(g89
g70
NtRp2175
(dp2176
g73
(dp2177
sg82
g2162
sg75
(lp2178
g68
(g69
g70
NtRp2179
(dp2180
g73
(dp2181
g81
I3
ssg82
g2175
sg75
(lp2182
g1168
asbasbasbag68
(g84
g70
NtRp2183
(dp2184
g73
(dp2185
sg82
g2011
sg75
(lp2186
g68
(g89
g70
NtRp2187
(dp2188
g73
(dp2189
g93
g94
ssg82
g2183
sg75
(lp2190
S'HTTP_USER_AGENT'
p2191
asbag68
(g89
g70
NtRp2192
(dp2193
g73
(dp2194
g100
g101
ssg82
g2183
sg75
(lp2195
S':'
asbag68
(g89
g70
NtRp2196
(dp2197
g73
(dp2198
sg82
g2183
sg75
(lp2199
g68
(g69
g70
NtRp2200
(dp2201
g73
(dp2202
g81
I3
ssg82
g2196
sg75
(lp2203
g1190
asbasbasbag68
(g84
g70
NtRp2204
(dp2205
g73
(dp2206
sg82
g2011
sg75
(lp2207
g68
(g89
g70
NtRp2208
(dp2209
g73
(dp2210
g93
g94
ssg82
g2204
sg75
(lp2211
S'PATH_INFO'
p2212
asbag68
(g89
g70
NtRp2213
(dp2214
g73
(dp2215
g100
g101
ssg82
g2204
sg75
(lp2216
S':'
asbag68
(g89
g70
NtRp2217
(dp2218
g73
(dp2219
sg82
g2204
sg75
(lp2220
g68
(g69
g70
NtRp2221
(dp2222
g73
(dp2223
g81
I3
ssg82
g2217
sg75
(lp2224
g1233
asbasbasbag68
(g84
g70
NtRp2225
(dp2226
g73
(dp2227
sg82
g2011
sg75
(lp2228
g68
(g89
g70
NtRp2229
(dp2230
g73
(dp2231
g93
g94
ssg82
g2225
sg75
(lp2232
S'QUERY_STRING'
p2233
asbag68
(g89
g70
NtRp2234
(dp2235
g73
(dp2236
g100
g101
ssg82
g2225
sg75
(lp2237
S':'
asbag68
(g89
g70
NtRp2238
(dp2239
g73
(dp2240
sg82
g2225
sg75
(lp2241
g68
(g69
g70
NtRp2242
(dp2243
g73
(dp2244
g81
I3
ssg82
g2238
sg75
(lp2245
S''
asbasbasbag68
(g84
g70
NtRp2246
(dp2247
g73
(dp2248
sg82
g2011
sg75
(lp2249
g68
(g89
g70
NtRp2250
(dp2251
g73
(dp2252
g93
g94
ssg82
g2246
sg75
(lp2253
S'REMOTE_ADDR'
p2254
asbag68
(g89
g70
NtRp2255
(dp2256
g73
(dp2257
g100
g101
ssg82
g2246
sg75
(lp2258
S':'
asbag68
(g89
g70
NtRp2259
(dp2260
g73
(dp2261
sg82
g2246
sg75
(lp2262
g68
(g69
g70
NtRp2263
(dp2264
g73
(dp2265
g81
I3
ssg82
g2259
sg75
(lp2266
g201
asbasbasbag68
(g84
g70
NtRp2267
(dp2268
g73
(dp2269
sg82
g2011
sg75
(lp2270
g68
(g89
g70
NtRp2271
(dp2272
g73
(dp2273
g93
g94
ssg82
g2267
sg75
(lp2274
S'REMOTE_PORT'
p2275
asbag68
(g89
g70
NtRp2276
(dp2277
g73
(dp2278
g100
g101
ssg82
g2267
sg75
(lp2279
S':'
asbag68
(g89
g70
NtRp2280
(dp2281
g73
(dp2282
sg82
g2267
sg75
(lp2283
g68
(g69
g70
NtRp2284
(dp2285
g73
(dp2286
g81
I3
ssg82
g2280
sg75
(lp2287
g1297
asbasbasbag68
(g84
g70
NtRp2288
(dp2289
g73
(dp2290
sg82
g2011
sg75
(lp2291
g68
(g89
g70
NtRp2292
(dp2293
g73
(dp2294
g93
g94
ssg82
g2288
sg75
(lp2295
S'REQUEST_METHOD'
p2296
asbag68
(g89
g70
NtRp2297
(dp2298
g73
(dp2299
g100
g101
ssg82
g2288
sg75
(lp2300
S':'
asbag68
(g89
g70
NtRp2301
(dp2302
g73
(dp2303
sg82
g2288
sg75
(lp2304
g68
(g69
g70
NtRp2305
(dp2306
g73
(dp2307
g81
I3
ssg82
g2301
sg75
(lp2308
g1319
asbasbasbag68
(g84
g70
NtRp2309
(dp2310
g73
(dp2311
sg82
g2011
sg75
(lp2312
g68
(g89
g70
NtRp2313
(dp2314
g73
(dp2315
g93
g94
ssg82
g2309
sg75
(lp2316
S'SCRIPT_NAME'
p2317
asbag68
(g89
g70
NtRp2318
(dp2319
g73
(dp2320
g100
g101
ssg82
g2309
sg75
(lp2321
S':'
asbag68
(g89
g70
NtRp2322
(dp2323
g73
(dp2324
sg82
g2309
sg75
(lp2325
g68
(g69
g70
NtRp2326
(dp2327
g73
(dp2328
g81
I3
ssg82
g2322
sg75
(lp2329
S''
asbasbasbag68
(g84
g70
NtRp2330
(dp2331
g73
(dp2332
sg82
g2011
sg75
(lp2333
g68
(g89
g70
NtRp2334
(dp2335
g73
(dp2336
g93
g94
ssg82
g2330
sg75
(lp2337
S'SERVER_NAME'
p2338
asbag68
(g89
g70
NtRp2339
(dp2340
g73
(dp2341
g100
g101
ssg82
g2330
sg75
(lp2342
S':'
asbag68
(g89
g70
NtRp2343
(dp2344
g73
(dp2345
sg82
g2330
sg75
(lp2346
g68
(g69
g70
NtRp2347
(dp2348
g73
(dp2349
g81
I3
ssg82
g2343
sg75
(lp2350
g1362
asbasbasbag68
(g84
g70
NtRp2351
(dp2352
g73
(dp2353
sg82
g2011
sg75
(lp2354
g68
(g89
g70
NtRp2355
(dp2356
g73
(dp2357
g93
g94
ssg82
g2351
sg75
(lp2358
S'SERVER_PORT'
p2359
asbag68
(g89
g70
NtRp2360
(dp2361
g73
(dp2362
g100
g101
ssg82
g2351
sg75
(lp2363
S':'
asbag68
(g89
g70
NtRp2364
(dp2365
g73
(dp2366
sg82
g2351
sg75
(lp2367
g68
(g69
g70
NtRp2368
(dp2369
g73
(dp2370
g81
I3
ssg82
g2364
sg75
(lp2371
g1384
asbasbasbag68
(g84
g70
NtRp2372
(dp2373
g73
(dp2374
sg82
g2011
sg75
(lp2375
g68
(g89
g70
NtRp2376
(dp2377
g73
(dp2378
g93
g94
ssg82
g2372
sg75
(lp2379
S'SERVER_PROTOCOL'
p2380
asbag68
(g89
g70
NtRp2381
(dp2382
g73
(dp2383
g100
g101
ssg82
g2372
sg75
(lp2384
S':'
asbag68
(g89
g70
NtRp2385
(dp2386
g73
(dp2387
sg82
g2372
sg75
(lp2388
g68
(g69
g70
NtRp2389
(dp2390
g73
(dp2391
g81
I3
ssg82
g2385
sg75
(lp2392
g1406
asbasbasbag68
(g84
g70
NtRp2393
(dp2394
g73
(dp2395
sg82
g2011
sg75
(lp2396
g68
(g89
g70
NtRp2397
(dp2398
g73
(dp2399
g93
g94
ssg82
g2393
sg75
(lp2400
S'SERVER_SOFTWARE'
p2401
asbag68
(g89
g70
NtRp2402
(dp2403
g73
(dp2404
g100
g101
ssg82
g2393
sg75
(lp2405
S':'
asbag68
(g89
g70
NtRp2406
(dp2407
g73
(dp2408
sg82
g2393
sg75
(lp2409
g68
(g69
g70
NtRp2410
(dp2411
g73
(dp2412
g81
I3
ssg82
g2406
sg75
(lp2413
g1428
asbasbasbag68
(g84
g70
NtRp2414
(dp2415
g73
(dp2416
sg82
g2011
sg75
(lp2417
g68
(g89
g70
NtRp2418
(dp2419
g73
(dp2420
g93
g94
ssg82
g2414
sg75
(lp2421
S'wsgi.errors'
p2422
asbag68
(g89
g70
NtRp2423
(dp2424
g73
(dp2425
g100
g101
ssg82
g2414
sg75
(lp2426
S':'
asbag68
(g89
g70
NtRp2427
(dp2428
g73
(dp2429
sg82
g2414
sg75
(lp2430
g68
(g69
g70
NtRp2431
(dp2432
g73
(dp2433
g81
I3
ssg82
g2427
sg75
(lp2434
S"<open file '<stderr>', mode 'w' at 0x100287270>"
p2435
asbasbasbag68
(g84
g70
NtRp2436
(dp2437
g73
(dp2438
sg82
g2011
sg75
(lp2439
g68
(g89
g70
NtRp2440
(dp2441
g73
(dp2442
g93
g94
ssg82
g2436
sg75
(lp2443
S'wsgi.file_wrapper'
p2444
asbag68
(g89
g70
NtRp2445
(dp2446
g73
(dp2447
g100
g101
ssg82
g2436
sg75
(lp2448
S':'
asbag68
(g89
g70
NtRp2449
(dp2450
g73
(dp2451
sg82
g2436
sg75
(lp2452
g68
(g69
g70
NtRp2453
(dp2454
g73
(dp2455
g81
I3
ssg82
g2449
sg75
(lp2456
S'<class gluon.rocket.FileWrapper at 0x101c01668>'
p2457
asbasbasbag68
(g84
g70
NtRp2458
(dp2459
g73
(dp2460
sg82
g2011
sg75
(lp2461
g68
(g89
g70
NtRp2462
(dp2463
g73
(dp2464
g93
g94
ssg82
g2458
sg75
(lp2465
S'wsgi.input'
p2466
asbag68
(g89
g70
NtRp2467
(dp2468
g73
(dp2469
g100
g101
ssg82
g2458
sg75
(lp2470
S':'
asbag68
(g89
g70
NtRp2471
(dp2472
g73
(dp2473
sg82
g2458
sg75
(lp2474
g68
(g69
g70
NtRp2475
(dp2476
g73
(dp2477
g81
I3
ssg82
g2471
sg75
(lp2478
S'<cStringIO.StringO object at 0x103dbbd50>'
p2479
asbasbasbag68
(g84
g70
NtRp2480
(dp2481
g73
(dp2482
sg82
g2011
sg75
(lp2483
g68
(g89
g70
NtRp2484
(dp2485
g73
(dp2486
g93
g94
ssg82
g2480
sg75
(lp2487
S'wsgi.multiprocess'
p2488
asbag68
(g89
g70
NtRp2489
(dp2490
g73
(dp2491
g100
g101
ssg82
g2480
sg75
(lp2492
S':'
asbag68
(g89
g70
NtRp2493
(dp2494
g73
(dp2495
sg82
g2480
sg75
(lp2496
g68
(g69
g70
NtRp2497
(dp2498
g73
(dp2499
g81
I3
ssg82
g2493
sg75
(lp2500
g111
asbasbasbag68
(g84
g70
NtRp2501
(dp2502
g73
(dp2503
sg82
g2011
sg75
(lp2504
g68
(g89
g70
NtRp2505
(dp2506
g73
(dp2507
g93
g94
ssg82
g2501
sg75
(lp2508
S'wsgi.multithread'
p2509
asbag68
(g89
g70
NtRp2510
(dp2511
g73
(dp2512
g100
g101
ssg82
g2501
sg75
(lp2513
S':'
asbag68
(g89
g70
NtRp2514
(dp2515
g73
(dp2516
sg82
g2501
sg75
(lp2517
g68
(g69
g70
NtRp2518
(dp2519
g73
(dp2520
g81
I3
ssg82
g2514
sg75
(lp2521
g1602
asbasbasbag68
(g84
g70
NtRp2522
(dp2523
g73
(dp2524
sg82
g2011
sg75
(lp2525
g68
(g89
g70
NtRp2526
(dp2527
g73
(dp2528
g93
g94
ssg82
g2522
sg75
(lp2529
S'wsgi.run_once'
p2530
asbag68
(g89
g70
NtRp2531
(dp2532
g73
(dp2533
g100
g101
ssg82
g2522
sg75
(lp2534
S':'
asbag68
(g89
g70
NtRp2535
(dp2536
g73
(dp2537
sg82
g2522
sg75
(lp2538
g68
(g69
g70
NtRp2539
(dp2540
g73
(dp2541
g81
I3
ssg82
g2535
sg75
(lp2542
g111
asbasbasbag68
(g84
g70
NtRp2543
(dp2544
g73
(dp2545
sg82
g2011
sg75
(lp2546
g68
(g89
g70
NtRp2547
(dp2548
g73
(dp2549
g93
g94
ssg82
g2543
sg75
(lp2550
S'wsgi.url_scheme'
p2551
asbag68
(g89
g70
NtRp2552
(dp2553
g73
(dp2554
g100
g101
ssg82
g2543
sg75
(lp2555
S':'
asbag68
(g89
g70
NtRp2556
(dp2557
g73
(dp2558
sg82
g2543
sg75
(lp2559
g68
(g69
g70
NtRp2560
(dp2561
g73
(dp2562
g81
I3
ssg82
g2556
sg75
(lp2563
g1645
asbasbasbag68
(g84
g70
NtRp2564
(dp2565
g73
(dp2566
sg82
g2011
sg75
(lp2567
g68
(g89
g70
NtRp2568
(dp2569
g73
(dp2570
g93
g94
ssg82
g2564
sg75
(lp2571
S'wsgi.version'
p2572
asbag68
(g89
g70
NtRp2573
(dp2574
g73
(dp2575
g100
g101
ssg82
g2564
sg75
(lp2576
S':'
asbag68
(g89
g70
NtRp2577
(dp2578
g73
(dp2579
sg82
g2564
sg75
(lp2580
g68
(g69
g70
NtRp2581
(dp2582
g73
(dp2583
g81
I3
ssg82
g2577
sg75
(lp2584
S'1'
asbasbasbasbasbasbasbasbasbasbasbasbasbsS'frames'
p2585
(lp2586
(dp2587
S'file'
p2588
S'/Users/hellais/Documents/code/sorci/web2py/gluon/restricted.py'
p2589
sS'dump'
p2590
(dp2591
S'code'
p2592
S"'# -*- coding: utf-8 -*-\\n### required - do no del...n dict()\\n\\nresponse._vars=response._caller(index)\\n'"
p2593
sS'layer'
p2594
S"'/Users/hellais/Documents/code/sorci/web2py/applications/globaleaks/controllers/default.py'"
p2595
sS'global compile2'
p2596
S'<function compile2>'
p2597
sS'ccode'
p2598
S'undefined'
p2599
ssS'lnum'
p2600
I191
sS'lines'
p2601
(dp2602
I192
S'        exec ccode in environment'
p2603
sI193
S'    except HTTP:'
p2604
sI194
S'        raise'
p2605
sI195
S'    except Exception, error:'
p2606
sI186
S"    environment['__file__'] = layer"
p2607
sI187
S'    try:'
p2608
sI188
S'        if type(code) == types.CodeType:'
p2609
sI189
S'            ccode = code'
p2610
sI190
S'        else:'
p2611
sI191
S'            ccode = compile2(code,layer)'
p2612
ssS'call'
p2613
S"(code='# -*- coding: utf-8 -*-\\n### required - do no del...n dict()\\n\\nresponse._vars=response._caller(index)\\n', environment={'A': <class 'gluon.html.A'>, 'Auth': <class 'gluon.tools.Auth'>, 'B': <class 'gluon.html.B'>, 'BEAUTIFY': <class 'gluon.html.BEAUTIFY'>, 'BODY': <class 'gluon.html.BODY'>, 'BR': <class 'gluon.html.BR'>, 'BUTTON': <class 'gluon.html.BUTTON'>, 'CAT': <class 'gluon.html.CAT'>, 'CENTER': <class 'gluon.html.CENTER'>, 'CLEANUP': <class 'gluon.validators.CLEANUP'>, ...}, layer='/Users/hellais/Documents/code/sorci/web2py/applications/globaleaks/controllers/default.py')"
p2614
sS'func'
p2615
S'restricted'
p2616
sa(dp2617
g2588
S'/Users/hellais/Documents/code/sorci/web2py/gluon/restricted.py'
p2618
sg2590
(dp2619
S'builtincompile'
p2620
S'<built-in function compile>'
p2621
sS'code'
p2622
S"'# -*- coding: utf-8 -*-\\n### required - do no del...n dict()\\n\\nresponse._vars=response._caller(index)\\n'"
p2623
sS'code.rstrip'
p2624
S'<built-in method rstrip of str object>'
p2625
sS').replace'
p2626
g2599
sS'layer'
p2627
S"'/Users/hellais/Documents/code/sorci/web2py/applications/globaleaks/controllers/default.py'"
p2628
ssg2600
I178
sg2601
(dp2629
I173
S''
sI174
S'def compile2(code,layer):'
p2630
sI175
S'    """'
p2631
sI176
S"    The +'\\n' is necessary else compile fails when code ends in a comment."
p2632
sI177
S'    """'
p2633
sI178
S"    return compile(code.rstrip().replace('\\r\\n','\\n')+'\\n', layer, 'exec')"
p2634
sI179
S''
sI180
S"def restricted(code, environment={}, layer='Unknown'):"
p2635
sI181
S'    """'
p2636
sI182
S'    runs code in environment and returns the output. if an exception occurs'
p2637
ssg2613
S"(code='# -*- coding: utf-8 -*-\\n### required - do no del...n dict()\\n\\nresponse._vars=response._caller(index)\\n', layer='/Users/hellais/Documents/code/sorci/web2py/applications/globaleaks/controllers/default.py')"
p2638
sg2615
S'compile2'
p2639
sasS'pyver'
p2640
S'Python 2.7.1: /opt/local/Library/Frameworks/Python.framework/Versions/2.7/Resources/Python.app/Contents/MacOS/Python'
p2641
sS'session'
p2642
g68
(g69
g70
NtRp2643
(dp2644
g73
(dp2645
sg75
(lp2646
g68
(g77
g70
NtRp2647
(dp2648
g73
(dp2649
g81
I5
ssg82
Nsg75
(lp2650
g68
(g84
g70
NtRp2651
(dp2652
g73
(dp2653
sg82
g2647
sg75
(lp2654
g68
(g89
g70
NtRp2655
(dp2656
g73
(dp2657
g93
g94
ssg82
g2651
sg75
(lp2658
S'auth'
p2659
asbag68
(g89
g70
NtRp2660
(dp2661
g73
(dp2662
g100
g101
ssg82
g2651
sg75
(lp2663
S':'
asbag68
(g89
g70
NtRp2664
(dp2665
g73
(dp2666
sg82
g2651
sg75
(lp2667
g68
(g69
g70
NtRp2668
(dp2669
g73
(dp2670
g81
I5
ssg82
g2664
sg75
(lp2671
g68
(g77
g70
NtRp2672
(dp2673
g73
(dp2674
g81
I4
ssg82
Nsg75
(lp2675
g68
(g84
g70
NtRp2676
(dp2677
g73
(dp2678
sg82
g2672
sg75
(lp2679
g68
(g89
g70
NtRp2680
(dp2681
g73
(dp2682
g93
g94
ssg82
g2676
sg75
(lp2683
S'expiration'
p2684
asbag68
(g89
g70
NtRp2685
(dp2686
g73
(dp2687
g100
g101
ssg82
g2676
sg75
(lp2688
S':'
asbag68
(g89
g70
NtRp2689
(dp2690
g73
(dp2691
sg82
g2676
sg75
(lp2692
g68
(g69
g70
NtRp2693
(dp2694
g73
(dp2695
g81
I4
ssg82
g2689
sg75
(lp2696
S'3600'
p2697
asbasbasbag68
(g84
g70
NtRp2698
(dp2699
g73
(dp2700
sg82
g2672
sg75
(lp2701
g68
(g89
g70
NtRp2702
(dp2703
g73
(dp2704
g93
g94
ssg82
g2698
sg75
(lp2705
S'hmac_key'
p2706
asbag68
(g89
g70
NtRp2707
(dp2708
g73
(dp2709
g100
g101
ssg82
g2698
sg75
(lp2710
S':'
asbag68
(g89
g70
NtRp2711
(dp2712
g73
(dp2713
sg82
g2698
sg75
(lp2714
g68
(g69
g70
NtRp2715
(dp2716
g73
(dp2717
g81
I4
ssg82
g2711
sg75
(lp2718
S'17bd0b18-c824-46f7-b01f-ce9e75a218c6'
p2719
asbasbasbag68
(g84
g70
NtRp2720
(dp2721
g73
(dp2722
sg82
g2672
sg75
(lp2723
g68
(g89
g70
NtRp2724
(dp2725
g73
(dp2726
g93
g94
ssg82
g2720
sg75
(lp2727
S'last_visit'
p2728
asbag68
(g89
g70
NtRp2729
(dp2730
g73
(dp2731
g100
g101
ssg82
g2720
sg75
(lp2732
S':'
asbag68
(g89
g70
NtRp2733
(dp2734
g73
(dp2735
sg82
g2720
sg75
(lp2736
g68
(g69
g70
NtRp2737
(dp2738
g73
(dp2739
g81
I4
ssg82
g2733
sg75
(lp2740
S'datetime.datetime(2011, 8, 27, 0, 28, 31, 935873)'
p2741
asbasbasbag68
(g84
g70
NtRp2742
(dp2743
g73
(dp2744
sg82
g2672
sg75
(lp2745
g68
(g89
g70
NtRp2746
(dp2747
g73
(dp2748
g93
g94
ssg82
g2742
sg75
(lp2749
S'user'
p2750
asbag68
(g89
g70
NtRp2751
(dp2752
g73
(dp2753
g100
g101
ssg82
g2742
sg75
(lp2754
S':'
asbag68
(g89
g70
NtRp2755
(dp2756
g73
(dp2757
sg82
g2742
sg75
(lp2758
g68
(g69
g70
NtRp2759
(dp2760
g73
(dp2761
g81
I4
ssg82
g2755
sg75
(lp2762
g68
(g77
g70
NtRp2763
(dp2764
g73
(dp2765
g81
I3
ssg82
Nsg75
(lp2766
g68
(g84
g70
NtRp2767
(dp2768
g73
(dp2769
sg82
g2763
sg75
(lp2770
g68
(g89
g70
NtRp2771
(dp2772
g73
(dp2773
g93
g94
ssg82
g2767
sg75
(lp2774
S'email'
p2775
asbag68
(g89
g70
NtRp2776
(dp2777
g73
(dp2778
g100
g101
ssg82
g2767
sg75
(lp2779
S':'
asbag68
(g89
g70
NtRp2780
(dp2781
g73
(dp2782
sg82
g2767
sg75
(lp2783
g68
(g69
g70
NtRp2784
(dp2785
g73
(dp2786
g81
I3
ssg82
g2780
sg75
(lp2787
S'bla@bla.com'
p2788
asbasbasbag68
(g84
g70
NtRp2789
(dp2790
g73
(dp2791
sg82
g2763
sg75
(lp2792
g68
(g89
g70
NtRp2793
(dp2794
g73
(dp2795
g93
g94
ssg82
g2789
sg75
(lp2796
S'first_name'
p2797
asbag68
(g89
g70
NtRp2798
(dp2799
g73
(dp2800
g100
g101
ssg82
g2789
sg75
(lp2801
S':'
asbag68
(g89
g70
NtRp2802
(dp2803
g73
(dp2804
sg82
g2789
sg75
(lp2805
g68
(g69
g70
NtRp2806
(dp2807
g73
(dp2808
g81
I3
ssg82
g2802
sg75
(lp2809
S'Bla'
p2810
asbasbasbag68
(g84
g70
NtRp2811
(dp2812
g73
(dp2813
sg82
g2763
sg75
(lp2814
g68
(g89
g70
NtRp2815
(dp2816
g73
(dp2817
g93
g94
ssg82
g2811
sg75
(lp2818
S'id'
p2819
asbag68
(g89
g70
NtRp2820
(dp2821
g73
(dp2822
g100
g101
ssg82
g2811
sg75
(lp2823
S':'
asbag68
(g89
g70
NtRp2824
(dp2825
g73
(dp2826
sg82
g2811
sg75
(lp2827
g68
(g69
g70
NtRp2828
(dp2829
g73
(dp2830
g81
I3
ssg82
g2824
sg75
(lp2831
S'1'
asbasbasbag68
(g84
g70
NtRp2832
(dp2833
g73
(dp2834
sg82
g2763
sg75
(lp2835
g68
(g89
g70
NtRp2836
(dp2837
g73
(dp2838
g93
g94
ssg82
g2832
sg75
(lp2839
S'last_name'
p2840
asbag68
(g89
g70
NtRp2841
(dp2842
g73
(dp2843
g100
g101
ssg82
g2832
sg75
(lp2844
S':'
asbag68
(g89
g70
NtRp2845
(dp2846
g73
(dp2847
sg82
g2832
sg75
(lp2848
g68
(g69
g70
NtRp2849
(dp2850
g73
(dp2851
g81
I3
ssg82
g2845
sg75
(lp2852
S'Bla'
p2853
asbasbasbag68
(g84
g70
NtRp2854
(dp2855
g73
(dp2856
sg82
g2763
sg75
(lp2857
g68
(g89
g70
NtRp2858
(dp2859
g73
(dp2860
g93
g94
ssg82
g2854
sg75
(lp2861
S'password'
p2862
asbag68
(g89
g70
NtRp2863
(dp2864
g73
(dp2865
g100
g101
ssg82
g2854
sg75
(lp2866
S':'
asbag68
(g89
g70
NtRp2867
(dp2868
g73
(dp2869
sg82
g2854
sg75
(lp2870
g68
(g69
g70
NtRp2871
(dp2872
g73
(dp2873
g81
I3
ssg82
g2867
sg75
(lp2874
S'81cb0d6eb9f85dc7d15cec1380051d6de8504729011fb042761f3cc746c6029ba6a58fd5a8f805135c19285005f22ea24c81286fe8be4e1d209389f09fd5d819'
p2875
asbasbasbag68
(g84
g70
NtRp2876
(dp2877
g73
(dp2878
sg82
g2763
sg75
(lp2879
g68
(g89
g70
NtRp2880
(dp2881
g73
(dp2882
g93
g94
ssg82
g2876
sg75
(lp2883
S'registration_key'
p2884
asbag68
(g89
g70
NtRp2885
(dp2886
g73
(dp2887
g100
g101
ssg82
g2876
sg75
(lp2888
S':'
asbag68
(g89
g70
NtRp2889
(dp2890
g73
(dp2891
sg82
g2876
sg75
(lp2892
g68
(g69
g70
NtRp2893
(dp2894
g73
(dp2895
g81
I3
ssg82
g2889
sg75
(lp2896
S''
asbasbasbag68
(g84
g70
NtRp2897
(dp2898
g73
(dp2899
sg82
g2763
sg75
(lp2900
g68
(g89
g70
NtRp2901
(dp2902
g73
(dp2903
g93
g94
ssg82
g2897
sg75
(lp2904
S'reset_password_key'
p2905
asbag68
(g89
g70
NtRp2906
(dp2907
g73
(dp2908
g100
g101
ssg82
g2897
sg75
(lp2909
S':'
asbag68
(g89
g70
NtRp2910
(dp2911
g73
(dp2912
sg82
g2897
sg75
(lp2913
g68
(g69
g70
NtRp2914
(dp2915
g73
(dp2916
g81
I3
ssg82
g2910
sg75
(lp2917
S''
asbasbasbasbasbasbasbasbasbasbasbasbasbsS'etype'
p2918
S"<type 'exceptions.SyntaxError'>"
p2919
sS'date'
p2920
S'Sat Aug 27 00:29:08 2011'
p2921
sS'response'
p2922
g68
(g69
g70
NtRp2923
(dp2924
g73
(dp2925
sg75
(lp2926
g68
(g77
g70
NtRp2927
(dp2928
g73
(dp2929
g81
I5
ssg82
Nsg75
(lp2930
g68
(g84
g70
NtRp2931
(dp2932
g73
(dp2933
sg82
g2927
sg75
(lp2934
g68
(g89
g70
NtRp2935
(dp2936
g73
(dp2937
g93
g94
ssg82
g2931
sg75
(lp2938
g166
asbag68
(g89
g70
NtRp2939
(dp2940
g73
(dp2941
g100
g101
ssg82
g2931
sg75
(lp2942
S':'
asbag68
(g89
g70
NtRp2943
(dp2944
g73
(dp2945
sg82
g2931
sg75
(lp2946
g68
(g69
g70
NtRp2947
(dp2948
g73
(dp2949
g81
I5
ssg82
g2943
sg75
(lp2950
S'<cStringIO.StringO object at 0x10538f4c8>'
p2951
asbasbasbag68
(g84
g70
NtRp2952
(dp2953
g73
(dp2954
sg82
g2927
sg75
(lp2955
g68
(g89
g70
NtRp2956
(dp2957
g73
(dp2958
g93
g94
ssg82
g2952
sg75
(lp2959
g232
asbag68
(g89
g70
NtRp2960
(dp2961
g73
(dp2962
g100
g101
ssg82
g2952
sg75
(lp2963
S':'
asbag68
(g89
g70
NtRp2964
(dp2965
g73
(dp2966
sg82
g2952
sg75
(lp2967
g68
(g69
g70
NtRp2968
(dp2969
g73
(dp2970
g81
I5
ssg82
g2964
sg75
(lp2971
g68
(g77
g70
NtRp2972
(dp2973
g73
(dp2974
g81
I4
ssg82
Nsg75
(lp2975
g68
(g84
g70
NtRp2976
(dp2977
g73
(dp2978
sg82
g2972
sg75
(lp2979
g68
(g89
g70
NtRp2980
(dp2981
g73
(dp2982
g93
g94
ssg82
g2976
sg75
(lp2983
S'session_id_globaleaks'
p2984
asbag68
(g89
g70
NtRp2985
(dp2986
g73
(dp2987
g100
g101
ssg82
g2976
sg75
(lp2988
S':'
asbag68
(g89
g70
NtRp2989
(dp2990
g73
(dp2991
sg82
g2976
sg75
(lp2992
g68
(g69
g70
NtRp2993
(dp2994
g73
(dp2995
g81
I4
ssg82
g2989
sg75
(lp2996
g68
(g77
g70
NtRp2997
(dp2998
g73
(dp2999
g81
I3
ssg82
Nsg75
(lp3000
g68
(g84
g70
NtRp3001
(dp3002
g73
(dp3003
sg82
g2997
sg75
(lp3004
g68
(g89
g70
NtRp3005
(dp3006
g73
(dp3007
g93
g94
ssg82
g3001
sg75
(lp3008
g282
asbag68
(g89
g70
NtRp3009
(dp3010
g73
(dp3011
g100
g101
ssg82
g3001
sg75
(lp3012
S':'
asbag68
(g89
g70
NtRp3013
(dp3014
g73
(dp3015
sg82
g3001
sg75
(lp3016
g68
(g69
g70
NtRp3017
(dp3018
g73
(dp3019
g81
I3
ssg82
g3013
sg75
(lp3020
S''
asbasbasbag68
(g84
g70
NtRp3021
(dp3022
g73
(dp3023
sg82
g2997
sg75
(lp3024
g68
(g89
g70
NtRp3025
(dp3026
g73
(dp3027
g93
g94
ssg82
g3021
sg75
(lp3028
g303
asbag68
(g89
g70
NtRp3029
(dp3030
g73
(dp3031
g100
g101
ssg82
g3021
sg75
(lp3032
S':'
asbag68
(g89
g70
NtRp3033
(dp3034
g73
(dp3035
sg82
g3021
sg75
(lp3036
g68
(g69
g70
NtRp3037
(dp3038
g73
(dp3039
g81
I3
ssg82
g3033
sg75
(lp3040
S''
asbasbasbag68
(g84
g70
NtRp3041
(dp3042
g73
(dp3043
sg82
g2997
sg75
(lp3044
g68
(g89
g70
NtRp3045
(dp3046
g73
(dp3047
g93
g94
ssg82
g3041
sg75
(lp3048
g324
asbag68
(g89
g70
NtRp3049
(dp3050
g73
(dp3051
g100
g101
ssg82
g3041
sg75
(lp3052
S':'
asbag68
(g89
g70
NtRp3053
(dp3054
g73
(dp3055
sg82
g3041
sg75
(lp3056
g68
(g69
g70
NtRp3057
(dp3058
g73
(dp3059
g81
I3
ssg82
g3053
sg75
(lp3060
S''
asbasbasbag68
(g84
g70
NtRp3061
(dp3062
g73
(dp3063
sg82
g2997
sg75
(lp3064
g68
(g89
g70
NtRp3065
(dp3066
g73
(dp3067
g93
g94
ssg82
g3061
sg75
(lp3068
g345
asbag68
(g89
g70
NtRp3069
(dp3070
g73
(dp3071
g100
g101
ssg82
g3061
sg75
(lp3072
S':'
asbag68
(g89
g70
NtRp3073
(dp3074
g73
(dp3075
sg82
g3061
sg75
(lp3076
g68
(g69
g70
NtRp3077
(dp3078
g73
(dp3079
g81
I3
ssg82
g3073
sg75
(lp3080
S''
asbasbasbag68
(g84
g70
NtRp3081
(dp3082
g73
(dp3083
sg82
g2997
sg75
(lp3084
g68
(g89
g70
NtRp3085
(dp3086
g73
(dp3087
g93
g94
ssg82
g3081
sg75
(lp3088
g366
asbag68
(g89
g70
NtRp3089
(dp3090
g73
(dp3091
g100
g101
ssg82
g3081
sg75
(lp3092
S':'
asbag68
(g89
g70
NtRp3093
(dp3094
g73
(dp3095
sg82
g3081
sg75
(lp3096
g68
(g69
g70
NtRp3097
(dp3098
g73
(dp3099
g81
I3
ssg82
g3093
sg75
(lp3100
S''
asbasbasbag68
(g84
g70
NtRp3101
(dp3102
g73
(dp3103
sg82
g2997
sg75
(lp3104
g68
(g89
g70
NtRp3105
(dp3106
g73
(dp3107
g93
g94
ssg82
g3101
sg75
(lp3108
g387
asbag68
(g89
g70
NtRp3109
(dp3110
g73
(dp3111
g100
g101
ssg82
g3101
sg75
(lp3112
S':'
asbag68
(g89
g70
NtRp3113
(dp3114
g73
(dp3115
sg82
g3101
sg75
(lp3116
g68
(g69
g70
NtRp3117
(dp3118
g73
(dp3119
g81
I3
ssg82
g3113
sg75
(lp3120
S'/'
asbasbasbag68
(g84
g70
NtRp3121
(dp3122
g73
(dp3123
sg82
g2997
sg75
(lp3124
g68
(g89
g70
NtRp3125
(dp3126
g73
(dp3127
g93
g94
ssg82
g3121
sg75
(lp3128
g408
asbag68
(g89
g70
NtRp3129
(dp3130
g73
(dp3131
g100
g101
ssg82
g3121
sg75
(lp3132
S':'
asbag68
(g89
g70
NtRp3133
(dp3134
g73
(dp3135
sg82
g3121
sg75
(lp3136
g68
(g69
g70
NtRp3137
(dp3138
g73
(dp3139
g81
I3
ssg82
g3133
sg75
(lp3140
S''
asbasbasbag68
(g84
g70
NtRp3141
(dp3142
g73
(dp3143
sg82
g2997
sg75
(lp3144
g68
(g89
g70
NtRp3145
(dp3146
g73
(dp3147
g93
g94
ssg82
g3141
sg75
(lp3148
g429
asbag68
(g89
g70
NtRp3149
(dp3150
g73
(dp3151
g100
g101
ssg82
g3141
sg75
(lp3152
S':'
asbag68
(g89
g70
NtRp3153
(dp3154
g73
(dp3155
sg82
g3141
sg75
(lp3156
g68
(g69
g70
NtRp3157
(dp3158
g73
(dp3159
g81
I3
ssg82
g3153
sg75
(lp3160
S''
asbasbasbasbasbasbasbasbasbasbasbag68
(g84
g70
NtRp3161
(dp3162
g73
(dp3163
sg82
g2927
sg75
(lp3164
g68
(g89
g70
NtRp3165
(dp3166
g73
(dp3167
g93
g94
ssg82
g3161
sg75
(lp3168
S'files'
p3169
asbag68
(g89
g70
NtRp3170
(dp3171
g73
(dp3172
g100
g101
ssg82
g3161
sg75
(lp3173
S':'
asbag68
(g89
g70
NtRp3174
(dp3175
g73
(dp3176
sg82
g3161
sg75
(lp3177
g68
(g69
g70
NtRp3178
(dp3179
g73
(dp3180
g81
I5
ssg82
g3174
sg75
(lp3181
g68
(g77
g70
NtRp3182
(dp3183
g73
(dp3184
g81
I4
ssg82
Nsg75
(lp3185
sbasbasbasbag68
(g84
g70
NtRp3186
(dp3187
g73
(dp3188
sg82
g2927
sg75
(lp3189
g68
(g89
g70
NtRp3190
(dp3191
g73
(dp3192
g93
g94
ssg82
g3186
sg75
(lp3193
S'flash'
p3194
asbag68
(g89
g70
NtRp3195
(dp3196
g73
(dp3197
g100
g101
ssg82
g3186
sg75
(lp3198
S':'
asbag68
(g89
g70
NtRp3199
(dp3200
g73
(dp3201
sg82
g3186
sg75
(lp3202
g68
(g69
g70
NtRp3203
(dp3204
g73
(dp3205
g81
I5
ssg82
g3199
sg75
(lp3206
S''
asbasbasbag68
(g84
g70
NtRp3207
(dp3208
g73
(dp3209
sg82
g2927
sg75
(lp3210
g68
(g89
g70
NtRp3211
(dp3212
g73
(dp3213
g93
g94
ssg82
g3207
sg75
(lp3214
S'generic_patterns'
p3215
asbag68
(g89
g70
NtRp3216
(dp3217
g73
(dp3218
g100
g101
ssg82
g3207
sg75
(lp3219
S':'
asbag68
(g89
g70
NtRp3220
(dp3221
g73
(dp3222
sg82
g3207
sg75
(lp3223
g68
(g69
g70
NtRp3224
(dp3225
g73
(dp3226
g81
I5
ssg82
g3220
sg75
(lp3227
g68
(g77
g70
NtRp3228
(dp3229
g73
(dp3230
g81
I4
ssg82
Nsg75
(lp3231
sbasbasbasbag68
(g84
g70
NtRp3232
(dp3233
g73
(dp3234
sg82
g2927
sg75
(lp3235
g68
(g89
g70
NtRp3236
(dp3237
g73
(dp3238
g93
g94
ssg82
g3232
sg75
(lp3239
S'headers'
p3240
asbag68
(g89
g70
NtRp3241
(dp3242
g73
(dp3243
g100
g101
ssg82
g3232
sg75
(lp3244
S':'
asbag68
(g89
g70
NtRp3245
(dp3246
g73
(dp3247
sg82
g3232
sg75
(lp3248
g68
(g69
g70
NtRp3249
(dp3250
g73
(dp3251
g81
I5
ssg82
g3245
sg75
(lp3252
g68
(g77
g70
NtRp3253
(dp3254
g73
(dp3255
g81
I4
ssg82
Nsg75
(lp3256
g68
(g84
g70
NtRp3257
(dp3258
g73
(dp3259
sg82
g3253
sg75
(lp3260
g68
(g89
g70
NtRp3261
(dp3262
g73
(dp3263
g93
g94
ssg82
g3257
sg75
(lp3264
S'Cache-Control'
p3265
asbag68
(g89
g70
NtRp3266
(dp3267
g73
(dp3268
g100
g101
ssg82
g3257
sg75
(lp3269
S':'
asbag68
(g89
g70
NtRp3270
(dp3271
g73
(dp3272
sg82
g3257
sg75
(lp3273
g68
(g69
g70
NtRp3274
(dp3275
g73
(dp3276
g81
I4
ssg82
g3270
sg75
(lp3277
S'no-store, no-cache, must-revalidate, post-check=0, pre-check=0'
p3278
asbasbasbag68
(g84
g70
NtRp3279
(dp3280
g73
(dp3281
sg82
g3253
sg75
(lp3282
g68
(g89
g70
NtRp3283
(dp3284
g73
(dp3285
g93
g94
ssg82
g3279
sg75
(lp3286
S'Content-Type'
p3287
asbag68
(g89
g70
NtRp3288
(dp3289
g73
(dp3290
g100
g101
ssg82
g3279
sg75
(lp3291
S':'
asbag68
(g89
g70
NtRp3292
(dp3293
g73
(dp3294
sg82
g3279
sg75
(lp3295
g68
(g69
g70
NtRp3296
(dp3297
g73
(dp3298
g81
I4
ssg82
g3292
sg75
(lp3299
S'text/html; charset=utf-8'
p3300
asbasbasbag68
(g84
g70
NtRp3301
(dp3302
g73
(dp3303
sg82
g3253
sg75
(lp3304
g68
(g89
g70
NtRp3305
(dp3306
g73
(dp3307
g93
g94
ssg82
g3301
sg75
(lp3308
S'Expires'
p3309
asbag68
(g89
g70
NtRp3310
(dp3311
g73
(dp3312
g100
g101
ssg82
g3301
sg75
(lp3313
S':'
asbag68
(g89
g70
NtRp3314
(dp3315
g73
(dp3316
sg82
g3301
sg75
(lp3317
g68
(g69
g70
NtRp3318
(dp3319
g73
(dp3320
g81
I4
ssg82
g3314
sg75
(lp3321
S'Fri, 26 Aug 2011 22:29:08 GMT'
p3322
asbasbasbag68
(g84
g70
NtRp3323
(dp3324
g73
(dp3325
sg82
g3253
sg75
(lp3326
g68
(g89
g70
NtRp3327
(dp3328
g73
(dp3329
g93
g94
ssg82
g3323
sg75
(lp3330
S'Pragma'
p3331
asbag68
(g89
g70
NtRp3332
(dp3333
g73
(dp3334
g100
g101
ssg82
g3323
sg75
(lp3335
S':'
asbag68
(g89
g70
NtRp3336
(dp3337
g73
(dp3338
sg82
g3323
sg75
(lp3339
g68
(g69
g70
NtRp3340
(dp3341
g73
(dp3342
g81
I4
ssg82
g3336
sg75
(lp3343
S'no-cache'
p3344
asbasbasbag68
(g84
g70
NtRp3345
(dp3346
g73
(dp3347
sg82
g3253
sg75
(lp3348
g68
(g89
g70
NtRp3349
(dp3350
g73
(dp3351
g93
g94
ssg82
g3345
sg75
(lp3352
S'X-Powered-By'
p3353
asbag68
(g89
g70
NtRp3354
(dp3355
g73
(dp3356
g100
g101
ssg82
g3345
sg75
(lp3357
S':'
asbag68
(g89
g70
NtRp3358
(dp3359
g73
(dp3360
sg82
g3345
sg75
(lp3361
g68
(g69
g70
NtRp3362
(dp3363
g73
(dp3364
g81
I4
ssg82
g3358
sg75
(lp3365
S'web2py'
p3366
asbasbasbasbasbasbasbag68
(g84
g70
NtRp3367
(dp3368
g73
(dp3369
sg82
g2927
sg75
(lp3370
g68
(g89
g70
NtRp3371
(dp3372
g73
(dp3373
g93
g94
ssg82
g3367
sg75
(lp3374
S'menu'
p3375
asbag68
(g89
g70
NtRp3376
(dp3377
g73
(dp3378
g100
g101
ssg82
g3367
sg75
(lp3379
S':'
asbag68
(g89
g70
NtRp3380
(dp3381
g73
(dp3382
sg82
g3367
sg75
(lp3383
g68
(g69
g70
NtRp3384
(dp3385
g73
(dp3386
g81
I5
ssg82
g3380
sg75
(lp3387
g68
(g77
g70
NtRp3388
(dp3389
g73
(dp3390
g81
I4
ssg82
Nsg75
(lp3391
g68
(g84
g70
NtRp3392
(dp3393
g73
(dp3394
sg82
g3388
sg75
(lp3395
g68
(g89
g70
NtRp3396
(dp3397
g73
(dp3398
sg82
g3392
sg75
(lp3399
g68
(g69
g70
NtRp3400
(dp3401
g73
(dp3402
g81
I4
ssg82
g3396
sg75
(lp3403
g68
(g77
g70
NtRp3404
(dp3405
g73
(dp3406
g81
I3
ssg82
Nsg75
(lp3407
g68
(g84
g70
NtRp3408
(dp3409
g73
(dp3410
sg82
g3404
sg75
(lp3411
g68
(g89
g70
NtRp3412
(dp3413
g73
(dp3414
sg82
g3408
sg75
(lp3415
g68
(g69
g70
NtRp3416
(dp3417
g73
(dp3418
g81
I3
ssg82
g3412
sg75
(lp3419
cgluon.languages
lazyT_unpickle
p3420
(S't\x05\x00\x00\x00Index'
tRp3421
asbasbasbag68
(g84
g70
NtRp3422
(dp3423
g73
(dp3424
sg82
g3404
sg75
(lp3425
g68
(g89
g70
NtRp3426
(dp3427
g73
(dp3428
sg82
g3422
sg75
(lp3429
g68
(g69
g70
NtRp3430
(dp3431
g73
(dp3432
g81
I3
ssg82
g3426
sg75
(lp3433
g1602
asbasbasbag68
(g84
g70
NtRp3434
(dp3435
g73
(dp3436
sg82
g3404
sg75
(lp3437
g68
(g89
g70
NtRp3438
(dp3439
g73
(dp3440
sg82
g3434
sg75
(lp3441
g68
(g69
g70
NtRp3442
(dp3443
g73
(dp3444
g81
I3
ssg82
g3438
sg75
(lp3445
S'/globaleaks/default/index'
p3446
asbasbasbag68
(g84
g70
NtRp3447
(dp3448
g73
(dp3449
sg82
g3404
sg75
(lp3450
g68
(g89
g70
NtRp3451
(dp3452
g73
(dp3453
sg82
g3447
sg75
(lp3454
g68
(g69
g70
NtRp3455
(dp3456
g73
(dp3457
g81
I3
ssg82
g3451
sg75
(lp3458
g68
(g77
g70
NtRp3459
(dp3460
g73
(dp3461
g81
I2
ssg82
Nsg75
(lp3462
sbasbasbasbasbasbasbasbasbasbasbasbag68
(g84
g70
NtRp3463
(dp3464
g73
(dp3465
sg82
g2927
sg75
(lp3466
g68
(g89
g70
NtRp3467
(dp3468
g73
(dp3469
g93
g94
ssg82
g3463
sg75
(lp3470
S'meta'
p3471
asbag68
(g89
g70
NtRp3472
(dp3473
g73
(dp3474
g100
g101
ssg82
g3463
sg75
(lp3475
S':'
asbag68
(g89
g70
NtRp3476
(dp3477
g73
(dp3478
sg82
g3463
sg75
(lp3479
g68
(g69
g70
NtRp3480
(dp3481
g73
(dp3482
g81
I5
ssg82
g3476
sg75
(lp3483
g68
(g77
g70
NtRp3484
(dp3485
g73
(dp3486
g81
I4
ssg82
Nsg75
(lp3487
g68
(g84
g70
NtRp3488
(dp3489
g73
(dp3490
sg82
g3484
sg75
(lp3491
g68
(g89
g70
NtRp3492
(dp3493
g73
(dp3494
g93
g94
ssg82
g3488
sg75
(lp3495
S'author'
p3496
asbag68
(g89
g70
NtRp3497
(dp3498
g73
(dp3499
g100
g101
ssg82
g3488
sg75
(lp3500
S':'
asbag68
(g89
g70
NtRp3501
(dp3502
g73
(dp3503
sg82
g3488
sg75
(lp3504
g68
(g69
g70
NtRp3505
(dp3506
g73
(dp3507
g81
I4
ssg82
g3501
sg75
(lp3508
S'RGC <info@globaleaks.org>'
p3509
asbasbasbag68
(g84
g70
NtRp3510
(dp3511
g73
(dp3512
sg82
g3484
sg75
(lp3513
g68
(g89
g70
NtRp3514
(dp3515
g73
(dp3516
g93
g94
ssg82
g3510
sg75
(lp3517
S'description'
p3518
asbag68
(g89
g70
NtRp3519
(dp3520
g73
(dp3521
g100
g101
ssg82
g3510
sg75
(lp3522
S':'
asbag68
(g89
g70
NtRp3523
(dp3524
g73
(dp3525
sg82
g3510
sg75
(lp3526
g68
(g69
g70
NtRp3527
(dp3528
g73
(dp3529
g81
I4
ssg82
g3523
sg75
(lp3530
S''
asbasbasbag68
(g84
g70
NtRp3531
(dp3532
g73
(dp3533
sg82
g3484
sg75
(lp3534
g68
(g89
g70
NtRp3535
(dp3536
g73
(dp3537
g93
g94
ssg82
g3531
sg75
(lp3538
S'keywords'
p3539
asbag68
(g89
g70
NtRp3540
(dp3541
g73
(dp3542
g100
g101
ssg82
g3531
sg75
(lp3543
S':'
asbag68
(g89
g70
NtRp3544
(dp3545
g73
(dp3546
sg82
g3531
sg75
(lp3547
g68
(g69
g70
NtRp3548
(dp3549
g73
(dp3550
g81
I4
ssg82
g3544
sg75
(lp3551
S''
asbasbasbasbasbasbasbag68
(g84
g70
NtRp3552
(dp3553
g73
(dp3554
sg82
g2927
sg75
(lp3555
g68
(g89
g70
NtRp3556
(dp3557
g73
(dp3558
g93
g94
ssg82
g3552
sg75
(lp3559
S'postprocessing'
p3560
asbag68
(g89
g70
NtRp3561
(dp3562
g73
(dp3563
g100
g101
ssg82
g3552
sg75
(lp3564
S':'
asbag68
(g89
g70
NtRp3565
(dp3566
g73
(dp3567
sg82
g3552
sg75
(lp3568
g68
(g69
g70
NtRp3569
(dp3570
g73
(dp3571
g81
I5
ssg82
g3565
sg75
(lp3572
g68
(g77
g70
NtRp3573
(dp3574
g73
(dp3575
g81
I4
ssg82
Nsg75
(lp3576
sbasbasbasbag68
(g84
g70
NtRp3577
(dp3578
g73
(dp3579
sg82
g2927
sg75
(lp3580
g68
(g89
g70
NtRp3581
(dp3582
g73
(dp3583
g93
g94
ssg82
g3577
sg75
(lp3584
S'session_file'
p3585
asbag68
(g89
g70
NtRp3586
(dp3587
g73
(dp3588
g100
g101
ssg82
g3577
sg75
(lp3589
S':'
asbag68
(g89
g70
NtRp3590
(dp3591
g73
(dp3592
sg82
g3577
sg75
(lp3593
g68
(g69
g70
NtRp3594
(dp3595
g73
(dp3596
g81
I5
ssg82
g3590
sg75
(lp3597
S"<open file '/Users/hellais/Documents/code/sorci/web2py/applications/globaleaks/sessions/127.0.0.1-c6d5b9b3-1ec7-41c1-8d72-04c21b7a6b11', mode 'rb+' at 0x103ef0d20>"
p3598
asbasbasbag68
(g84
g70
NtRp3599
(dp3600
g73
(dp3601
sg82
g2927
sg75
(lp3602
g68
(g89
g70
NtRp3603
(dp3604
g73
(dp3605
g93
g94
ssg82
g3599
sg75
(lp3606
S'session_filename'
p3607
asbag68
(g89
g70
NtRp3608
(dp3609
g73
(dp3610
g100
g101
ssg82
g3599
sg75
(lp3611
S':'
asbag68
(g89
g70
NtRp3612
(dp3613
g73
(dp3614
sg82
g3599
sg75
(lp3615
g68
(g69
g70
NtRp3616
(dp3617
g73
(dp3618
g81
I5
ssg82
g3612
sg75
(lp3619
S'/Users/hellais/Documents/code/sorci/web2py/applications/globaleaks/sessions/127.0.0.1-c6d5b9b3-1ec7-41c1-8d72-04c21b7a6b11'
p3620
asbasbasbag68
(g84
g70
NtRp3621
(dp3622
g73
(dp3623
sg82
g2927
sg75
(lp3624
g68
(g89
g70
NtRp3625
(dp3626
g73
(dp3627
g93
g94
ssg82
g3621
sg75
(lp3628
S'session_id'
p3629
asbag68
(g89
g70
NtRp3630
(dp3631
g73
(dp3632
g100
g101
ssg82
g3621
sg75
(lp3633
S':'
asbag68
(g89
g70
NtRp3634
(dp3635
g73
(dp3636
sg82
g3621
sg75
(lp3637
g68
(g69
g70
NtRp3638
(dp3639
g73
(dp3640
g81
I5
ssg82
g3634
sg75
(lp3641
S'127.0.0.1-c6d5b9b3-1ec7-41c1-8d72-04c21b7a6b11'
p3642
asbasbasbag68
(g84
g70
NtRp3643
(dp3644
g73
(dp3645
sg82
g2927
sg75
(lp3646
g68
(g89
g70
NtRp3647
(dp3648
g73
(dp3649
g93
g94
ssg82
g3643
sg75
(lp3650
S'session_id_name'
p3651
asbag68
(g89
g70
NtRp3652
(dp3653
g73
(dp3654
g100
g101
ssg82
g3643
sg75
(lp3655
S':'
asbag68
(g89
g70
NtRp3656
(dp3657
g73
(dp3658
sg82
g3643
sg75
(lp3659
g68
(g69
g70
NtRp3660
(dp3661
g73
(dp3662
g81
I5
ssg82
g3656
sg75
(lp3663
g2984
asbasbasbag68
(g84
g70
NtRp3664
(dp3665
g73
(dp3666
sg82
g2927
sg75
(lp3667
g68
(g89
g70
NtRp3668
(dp3669
g73
(dp3670
g93
g94
ssg82
g3664
sg75
(lp3671
S'session_locked'
p3672
asbag68
(g89
g70
NtRp3673
(dp3674
g73
(dp3675
g100
g101
ssg82
g3664
sg75
(lp3676
S':'
asbag68
(g89
g70
NtRp3677
(dp3678
g73
(dp3679
sg82
g3664
sg75
(lp3680
g68
(g69
g70
NtRp3681
(dp3682
g73
(dp3683
g81
I5
ssg82
g3677
sg75
(lp3684
g1602
asbasbasbag68
(g84
g70
NtRp3685
(dp3686
g73
(dp3687
sg82
g2927
sg75
(lp3688
g68
(g89
g70
NtRp3689
(dp3690
g73
(dp3691
g93
g94
ssg82
g3685
sg75
(lp3692
S'session_new'
p3693
asbag68
(g89
g70
NtRp3694
(dp3695
g73
(dp3696
g100
g101
ssg82
g3685
sg75
(lp3697
S':'
asbag68
(g89
g70
NtRp3698
(dp3699
g73
(dp3700
sg82
g3685
sg75
(lp3701
g68
(g69
g70
NtRp3702
(dp3703
g73
(dp3704
g81
I5
ssg82
g3698
sg75
(lp3705
g111
asbasbasbag68
(g84
g70
NtRp3706
(dp3707
g73
(dp3708
sg82
g2927
sg75
(lp3709
g68
(g89
g70
NtRp3710
(dp3711
g73
(dp3712
g93
g94
ssg82
g3706
sg75
(lp3713
S'status'
p3714
asbag68
(g89
g70
NtRp3715
(dp3716
g73
(dp3717
g100
g101
ssg82
g3706
sg75
(lp3718
S':'
asbag68
(g89
g70
NtRp3719
(dp3720
g73
(dp3721
sg82
g3706
sg75
(lp3722
g68
(g69
g70
NtRp3723
(dp3724
g73
(dp3725
g81
I5
ssg82
g3719
sg75
(lp3726
S'200'
p3727
asbasbasbag68
(g84
g70
NtRp3728
(dp3729
g73
(dp3730
sg82
g2927
sg75
(lp3731
g68
(g89
g70
NtRp3732
(dp3733
g73
(dp3734
g93
g94
ssg82
g3728
sg75
(lp3735
S'subtitle'
p3736
asbag68
(g89
g70
NtRp3737
(dp3738
g73
(dp3739
g100
g101
ssg82
g3728
sg75
(lp3740
S':'
asbag68
(g89
g70
NtRp3741
(dp3742
g73
(dp3743
sg82
g3728
sg75
(lp3744
g68
(g69
g70
NtRp3745
(dp3746
g73
(dp3747
g81
I5
ssg82
g3741
sg75
(lp3748
S'Open Source Whistleblowing Platform'
p3749
asbasbasbag68
(g84
g70
NtRp3750
(dp3751
g73
(dp3752
sg82
g2927
sg75
(lp3753
g68
(g89
g70
NtRp3754
(dp3755
g73
(dp3756
g93
g94
ssg82
g3750
sg75
(lp3757
S'title'
p3758
asbag68
(g89
g70
NtRp3759
(dp3760
g73
(dp3761
g100
g101
ssg82
g3750
sg75
(lp3762
S':'
asbag68
(g89
g70
NtRp3763
(dp3764
g73
(dp3765
sg82
g3750
sg75
(lp3766
g68
(g69
g70
NtRp3767
(dp3768
g73
(dp3769
g81
I5
ssg82
g3763
sg75
(lp3770
S'GlobaLeaks'
p3771
asbasbasbag68
(g84
g70
NtRp3772
(dp3773
g73
(dp3774
sg82
g2927
sg75
(lp3775
g68
(g89
g70
NtRp3776
(dp3777
g73
(dp3778
g93
g94
ssg82
g3772
sg75
(lp3779
g1926
asbag68
(g89
g70
NtRp3780
(dp3781
g73
(dp3782
g100
g101
ssg82
g3772
sg75
(lp3783
S':'
asbag68
(g89
g70
NtRp3784
(dp3785
g73
(dp3786
sg82
g3772
sg75
(lp3787
g68
(g69
g70
NtRp3788
(dp3789
g73
(dp3790
g81
I5
ssg82
g3784
sg75
(lp3791
g1939
asbasbasbag68
(g84
g70
NtRp3792
(dp3793
g73
(dp3794
sg82
g2927
sg75
(lp3795
g68
(g89
g70
NtRp3796
(dp3797
g73
(dp3798
g93
g94
ssg82
g3792
sg75
(lp3799
S'view'
p3800
asbag68
(g89
g70
NtRp3801
(dp3802
g73
(dp3803
g100
g101
ssg82
g3792
sg75
(lp3804
S':'
asbag68
(g89
g70
NtRp3805
(dp3806
g73
(dp3807
sg82
g3792
sg75
(lp3808
g68
(g69
g70
NtRp3809
(dp3810
g73
(dp3811
g81
I5
ssg82
g3805
sg75
(lp3812
S'default/index.html'
p3813
asbasbasbasbasbsS'locals'
p3814
(dp3815
g3
S"'/Users/hellais/Documents/code/sorci/web2py/applications/globaleaks/controllers/default.py'"
p3816
sg5
S"'# -*- coding: utf-8 -*-\\n### required - do no del...n dict()\\n\\nresponse._vars=response._caller(index)\\n'"
p3817
sssS'traceback'
p3818
S'Traceback (most recent call last):\n  File "/Users/hellais/Documents/code/sorci/web2py/gluon/restricted.py", line 191, in restricted\n    ccode = compile2(code,layer)\n  File "/Users/hellais/Documents/code/sorci/web2py/gluon/restricted.py", line 178, in compile2\n    return compile(code.rstrip().replace(\'\\r\\n\',\'\\n\')+\'\\n\', layer, \'exec\')\n  File "/Users/hellais/Documents/code/sorci/web2py/applications/globaleaks/controllers/default.py", line 10\n    return dict(T:"diocane")\n                 ^\nSyntaxError: invalid syntax\n'
p3819
s.