(dp1
S'output'
p2
S''
sS'layer'
p3
S'/Users/hellais/Documents/code/globaleaks/ddb/apps/applications/init/controllers/default.py'
p4
sS'code'
p5
S'# -*- coding: utf-8 -*-\n### required - do no delete\ndef user(): return dict(form=auth())\ndef download(): return response.download(request,db)\ndef call():\n    session.forget()\n    return service()\n### end requires\ndef index():\n    return dict(message=T("Diocane"))\n\ndef submission():\n    """form = FORM(\'Your name:\', INPUT(_name=\'Title\',requires=IS_NOT_EMPTY()),\n            \'Tags:\', INPUT(_name=\'Tags\',requires=IS_NOT_EMPTY()),\n            \'Description:\', INPUT(_name=\'Description\',requires=IS_NOT_EMPTY()),\n            \'Files:\', INPUT(_name=\'Files\'), \n            INPUT(_type=\'submit\')\n            )\n    \n    if form.accepts(request.vars, session):\n        response.flash = \'form accepted\'\n    elif form.errors:\n        response.flash = \'form has errors\'\n    else:\n        response.flash = \'please fill the form\'\n    """\n    \n    form = SQLFORM.factory(\n        Field(\'Title\', requires=IS_NOT_EMPTY()),\n        Field(\'Description\', \'text\', requires=IS_NOT_EMPTY()),\n        Field(\'Tags\'),\n        Field(\'material\', \'upload\'),\n        Field(\'dislaimer\', \'boolean\', requires=IS_EQUAL_TO("on", error_message="Please read the disclaimer"))\n        )\n        \n    if form.accepts(request.vars, session):\n        response.flash = \'form accepted\'\n    elif form.errors:\n        response.flash = \'form has errors\'\n    else:\n        response.flash = \'please fill the form\'        \n    \n    return dict(form=form)\n\ndef error():\n    return dict()\n\nresponse._vars=response._caller(submission)\n'
p6
sS'snapshot'
p7
(dp8
S'exception'
p9
(dp10
S'__hash__'
p11
S"<method-wrapper '__hash__' of exceptions.RuntimeError object>"
p12
sS'__setattr__'
p13
S"<method-wrapper '__setattr__' of exceptions.RuntimeError object>"
p14
sS'__reduce_ex__'
p15
S'<built-in method __reduce_ex__ of exceptions.RuntimeError object>'
p16
sS'__getslice__'
p17
S"<method-wrapper '__getslice__' of exceptions.RuntimeError object>"
p18
sS'__getitem__'
p19
S"<method-wrapper '__getitem__' of exceptions.RuntimeError object>"
p20
sS'__setstate__'
p21
S'<built-in method __setstate__ of exceptions.RuntimeError object>'
p22
sS'args'
p23
S"('you must specify a Field(...,uploadfolder=...)',)"
p24
sS'__reduce__'
p25
S'<built-in method __reduce__ of exceptions.RuntimeError object>'
p26
sS'__str__'
p27
S"<method-wrapper '__str__' of exceptions.RuntimeError object>"
p28
sS'__format__'
p29
S'<built-in method __format__ of exceptions.RuntimeError object>'
p30
sS'__getattribute__'
p31
S"<method-wrapper '__getattribute__' of exceptions.RuntimeError object>"
p32
sS'__class__'
p33
S"<type 'exceptions.RuntimeError'>"
p34
sS'__unicode__'
p35
S'<built-in method __unicode__ of exceptions.RuntimeError object>'
p36
sS'__delattr__'
p37
S"<method-wrapper '__delattr__' of exceptions.RuntimeError object>"
p38
sS'__subclasshook__'
p39
S'<built-in method __subclasshook__ of type object>'
p40
sS'__repr__'
p41
S"<method-wrapper '__repr__' of exceptions.RuntimeError object>"
p42
sS'__dict__'
p43
S'{}'
p44
sS'__sizeof__'
p45
S'<built-in method __sizeof__ of exceptions.RuntimeError object>'
p46
sS'__doc__'
p47
S"'Unspecified run-time error.'"
p48
sS'__init__'
p49
S"<method-wrapper '__init__' of exceptions.RuntimeError object>"
p50
sS'__new__'
p51
S'<built-in method __new__ of type object>'
p52
ssS'evalue'
p53
S'you must specify a Field(...,uploadfolder=...)'
p54
sS'request'
p55
ccopy_reg
_reconstructor
p56
(cgluon.html
BEAUTIFY
p57
c__builtin__
object
p58
NtRp59
(dp60
S'attributes'
p61
(dp62
sS'components'
p63
(lp64
g56
(cgluon.html
TABLE
p65
g58
NtRp66
(dp67
g61
(dp68
S'level'
p69
I5
ssS'parent'
p70
Nsg63
(lp71
g56
(cgluon.html
TR
p72
g58
NtRp73
(dp74
g61
(dp75
sg70
g66
sg63
(lp76
g56
(cgluon.html
TD
p77
g58
NtRp78
(dp79
g61
(dp80
S'_style'
p81
S'font-weight:bold;'
p82
ssg70
g73
sg63
(lp83
S'ajax'
p84
asbag56
(g77
g58
NtRp85
(dp86
g61
(dp87
S'_valign'
p88
S'top'
p89
ssg70
g73
sg63
(lp90
S':'
asbag56
(g77
g58
NtRp91
(dp92
g61
(dp93
sg70
g73
sg63
(lp94
g56
(g57
g58
NtRp95
(dp96
g61
(dp97
g69
I5
ssg70
g91
sg63
(lp98
S'False'
p99
asbasbasbag56
(g72
g58
NtRp100
(dp101
g61
(dp102
sg70
g66
sg63
(lp103
g56
(g77
g58
NtRp104
(dp105
g61
(dp106
g81
g82
ssg70
g100
sg63
(lp107
S'application'
p108
asbag56
(g77
g58
NtRp109
(dp110
g61
(dp111
g88
g89
ssg70
g100
sg63
(lp112
S':'
asbag56
(g77
g58
NtRp113
(dp114
g61
(dp115
sg70
g100
sg63
(lp116
g56
(g57
g58
NtRp117
(dp118
g61
(dp119
g69
I5
ssg70
g113
sg63
(lp120
S'init'
p121
asbasbasbag56
(g72
g58
NtRp122
(dp123
g61
(dp124
sg70
g66
sg63
(lp125
g56
(g77
g58
NtRp126
(dp127
g61
(dp128
g81
g82
ssg70
g122
sg63
(lp129
g23
asbag56
(g77
g58
NtRp130
(dp131
g61
(dp132
g88
g89
ssg70
g122
sg63
(lp133
S':'
asbag56
(g77
g58
NtRp134
(dp135
g61
(dp136
sg70
g122
sg63
(lp137
g56
(g57
g58
NtRp138
(dp139
g61
(dp140
g69
I5
ssg70
g134
sg63
(lp141
g56
(g65
g58
NtRp142
(dp143
g61
(dp144
g69
I4
ssg70
Nsg63
(lp145
sbasbasbasbag56
(g72
g58
NtRp146
(dp147
g61
(dp148
sg70
g66
sg63
(lp149
g56
(g77
g58
NtRp150
(dp151
g61
(dp152
g81
g82
ssg70
g146
sg63
(lp153
S'body'
p154
asbag56
(g77
g58
NtRp155
(dp156
g61
(dp157
g88
g89
ssg70
g146
sg63
(lp158
S':'
asbag56
(g77
g58
NtRp159
(dp160
g61
(dp161
sg70
g146
sg63
(lp162
g56
(g57
g58
NtRp163
(dp164
g61
(dp165
g69
I5
ssg70
g159
sg63
(lp166
S"<open file '<fdopen>', mode 'w+b' at 0x10413e0c0>"
p167
asbasbasbag56
(g72
g58
NtRp168
(dp169
g61
(dp170
sg70
g66
sg63
(lp171
g56
(g77
g58
NtRp172
(dp173
g61
(dp174
g81
g82
ssg70
g168
sg63
(lp175
S'client'
p176
asbag56
(g77
g58
NtRp177
(dp178
g61
(dp179
g88
g89
ssg70
g168
sg63
(lp180
S':'
asbag56
(g77
g58
NtRp181
(dp182
g61
(dp183
sg70
g168
sg63
(lp184
g56
(g57
g58
NtRp185
(dp186
g61
(dp187
g69
I5
ssg70
g181
sg63
(lp188
S'127.0.0.1'
p189
asbasbasbag56
(g72
g58
NtRp190
(dp191
g61
(dp192
sg70
g66
sg63
(lp193
g56
(g77
g58
NtRp194
(dp195
g61
(dp196
g81
g82
ssg70
g190
sg63
(lp197
S'controller'
p198
asbag56
(g77
g58
NtRp199
(dp200
g61
(dp201
g88
g89
ssg70
g190
sg63
(lp202
S':'
asbag56
(g77
g58
NtRp203
(dp204
g61
(dp205
sg70
g190
sg63
(lp206
g56
(g57
g58
NtRp207
(dp208
g61
(dp209
g69
I5
ssg70
g203
sg63
(lp210
S'default'
p211
asbasbasbag56
(g72
g58
NtRp212
(dp213
g61
(dp214
sg70
g66
sg63
(lp215
g56
(g77
g58
NtRp216
(dp217
g61
(dp218
g81
g82
ssg70
g212
sg63
(lp219
S'cookies'
p220
asbag56
(g77
g58
NtRp221
(dp222
g61
(dp223
g88
g89
ssg70
g212
sg63
(lp224
S':'
asbag56
(g77
g58
NtRp225
(dp226
g61
(dp227
sg70
g212
sg63
(lp228
g56
(g57
g58
NtRp229
(dp230
g61
(dp231
g69
I5
ssg70
g225
sg63
(lp232
g56
(g65
g58
NtRp233
(dp234
g61
(dp235
g69
I4
ssg70
Nsg63
(lp236
g56
(g72
g58
NtRp237
(dp238
g61
(dp239
sg70
g233
sg63
(lp240
g56
(g77
g58
NtRp241
(dp242
g61
(dp243
g81
g82
ssg70
g237
sg63
(lp244
S'session_id_admin'
p245
asbag56
(g77
g58
NtRp246
(dp247
g61
(dp248
g88
g89
ssg70
g237
sg63
(lp249
S':'
asbag56
(g77
g58
NtRp250
(dp251
g61
(dp252
sg70
g237
sg63
(lp253
g56
(g57
g58
NtRp254
(dp255
g61
(dp256
g69
I4
ssg70
g250
sg63
(lp257
g56
(g65
g58
NtRp258
(dp259
g61
(dp260
g69
I3
ssg70
Nsg63
(lp261
g56
(g72
g58
NtRp262
(dp263
g61
(dp264
sg70
g258
sg63
(lp265
g56
(g77
g58
NtRp266
(dp267
g61
(dp268
g81
g82
ssg70
g262
sg63
(lp269
S'comment'
p270
asbag56
(g77
g58
NtRp271
(dp272
g61
(dp273
g88
g89
ssg70
g262
sg63
(lp274
S':'
asbag56
(g77
g58
NtRp275
(dp276
g61
(dp277
sg70
g262
sg63
(lp278
g56
(g57
g58
NtRp279
(dp280
g61
(dp281
g69
I3
ssg70
g275
sg63
(lp282
S''
asbasbasbag56
(g72
g58
NtRp283
(dp284
g61
(dp285
sg70
g258
sg63
(lp286
g56
(g77
g58
NtRp287
(dp288
g61
(dp289
g81
g82
ssg70
g283
sg63
(lp290
S'domain'
p291
asbag56
(g77
g58
NtRp292
(dp293
g61
(dp294
g88
g89
ssg70
g283
sg63
(lp295
S':'
asbag56
(g77
g58
NtRp296
(dp297
g61
(dp298
sg70
g283
sg63
(lp299
g56
(g57
g58
NtRp300
(dp301
g61
(dp302
g69
I3
ssg70
g296
sg63
(lp303
S''
asbasbasbag56
(g72
g58
NtRp304
(dp305
g61
(dp306
sg70
g258
sg63
(lp307
g56
(g77
g58
NtRp308
(dp309
g61
(dp310
g81
g82
ssg70
g304
sg63
(lp311
S'expires'
p312
asbag56
(g77
g58
NtRp313
(dp314
g61
(dp315
g88
g89
ssg70
g304
sg63
(lp316
S':'
asbag56
(g77
g58
NtRp317
(dp318
g61
(dp319
sg70
g304
sg63
(lp320
g56
(g57
g58
NtRp321
(dp322
g61
(dp323
g69
I3
ssg70
g317
sg63
(lp324
S''
asbasbasbag56
(g72
g58
NtRp325
(dp326
g61
(dp327
sg70
g258
sg63
(lp328
g56
(g77
g58
NtRp329
(dp330
g61
(dp331
g81
g82
ssg70
g325
sg63
(lp332
S'httponly'
p333
asbag56
(g77
g58
NtRp334
(dp335
g61
(dp336
g88
g89
ssg70
g325
sg63
(lp337
S':'
asbag56
(g77
g58
NtRp338
(dp339
g61
(dp340
sg70
g325
sg63
(lp341
g56
(g57
g58
NtRp342
(dp343
g61
(dp344
g69
I3
ssg70
g338
sg63
(lp345
S''
asbasbasbag56
(g72
g58
NtRp346
(dp347
g61
(dp348
sg70
g258
sg63
(lp349
g56
(g77
g58
NtRp350
(dp351
g61
(dp352
g81
g82
ssg70
g346
sg63
(lp353
S'max-age'
p354
asbag56
(g77
g58
NtRp355
(dp356
g61
(dp357
g88
g89
ssg70
g346
sg63
(lp358
S':'
asbag56
(g77
g58
NtRp359
(dp360
g61
(dp361
sg70
g346
sg63
(lp362
g56
(g57
g58
NtRp363
(dp364
g61
(dp365
g69
I3
ssg70
g359
sg63
(lp366
S''
asbasbasbag56
(g72
g58
NtRp367
(dp368
g61
(dp369
sg70
g258
sg63
(lp370
g56
(g77
g58
NtRp371
(dp372
g61
(dp373
g81
g82
ssg70
g367
sg63
(lp374
S'path'
p375
asbag56
(g77
g58
NtRp376
(dp377
g61
(dp378
g88
g89
ssg70
g367
sg63
(lp379
S':'
asbag56
(g77
g58
NtRp380
(dp381
g61
(dp382
sg70
g367
sg63
(lp383
g56
(g57
g58
NtRp384
(dp385
g61
(dp386
g69
I3
ssg70
g380
sg63
(lp387
S''
asbasbasbag56
(g72
g58
NtRp388
(dp389
g61
(dp390
sg70
g258
sg63
(lp391
g56
(g77
g58
NtRp392
(dp393
g61
(dp394
g81
g82
ssg70
g388
sg63
(lp395
S'secure'
p396
asbag56
(g77
g58
NtRp397
(dp398
g61
(dp399
g88
g89
ssg70
g388
sg63
(lp400
S':'
asbag56
(g77
g58
NtRp401
(dp402
g61
(dp403
sg70
g388
sg63
(lp404
g56
(g57
g58
NtRp405
(dp406
g61
(dp407
g69
I3
ssg70
g401
sg63
(lp408
S''
asbasbasbag56
(g72
g58
NtRp409
(dp410
g61
(dp411
sg70
g258
sg63
(lp412
g56
(g77
g58
NtRp413
(dp414
g61
(dp415
g81
g82
ssg70
g409
sg63
(lp416
S'version'
p417
asbag56
(g77
g58
NtRp418
(dp419
g61
(dp420
g88
g89
ssg70
g409
sg63
(lp421
S':'
asbag56
(g77
g58
NtRp422
(dp423
g61
(dp424
sg70
g409
sg63
(lp425
g56
(g57
g58
NtRp426
(dp427
g61
(dp428
g69
I3
ssg70
g422
sg63
(lp429
S''
asbasbasbasbasbasbasbag56
(g72
g58
NtRp430
(dp431
g61
(dp432
sg70
g233
sg63
(lp433
g56
(g77
g58
NtRp434
(dp435
g61
(dp436
g81
g82
ssg70
g430
sg63
(lp437
S'session_id_blabla'
p438
asbag56
(g77
g58
NtRp439
(dp440
g61
(dp441
g88
g89
ssg70
g430
sg63
(lp442
S':'
asbag56
(g77
g58
NtRp443
(dp444
g61
(dp445
sg70
g430
sg63
(lp446
g56
(g57
g58
NtRp447
(dp448
g61
(dp449
g69
I4
ssg70
g443
sg63
(lp450
g56
(g65
g58
NtRp451
(dp452
g61
(dp453
g69
I3
ssg70
Nsg63
(lp454
g56
(g72
g58
NtRp455
(dp456
g61
(dp457
sg70
g451
sg63
(lp458
g56
(g77
g58
NtRp459
(dp460
g61
(dp461
g81
g82
ssg70
g455
sg63
(lp462
g270
asbag56
(g77
g58
NtRp463
(dp464
g61
(dp465
g88
g89
ssg70
g455
sg63
(lp466
S':'
asbag56
(g77
g58
NtRp467
(dp468
g61
(dp469
sg70
g455
sg63
(lp470
g56
(g57
g58
NtRp471
(dp472
g61
(dp473
g69
I3
ssg70
g467
sg63
(lp474
S''
asbasbasbag56
(g72
g58
NtRp475
(dp476
g61
(dp477
sg70
g451
sg63
(lp478
g56
(g77
g58
NtRp479
(dp480
g61
(dp481
g81
g82
ssg70
g475
sg63
(lp482
g291
asbag56
(g77
g58
NtRp483
(dp484
g61
(dp485
g88
g89
ssg70
g475
sg63
(lp486
S':'
asbag56
(g77
g58
NtRp487
(dp488
g61
(dp489
sg70
g475
sg63
(lp490
g56
(g57
g58
NtRp491
(dp492
g61
(dp493
g69
I3
ssg70
g487
sg63
(lp494
S''
asbasbasbag56
(g72
g58
NtRp495
(dp496
g61
(dp497
sg70
g451
sg63
(lp498
g56
(g77
g58
NtRp499
(dp500
g61
(dp501
g81
g82
ssg70
g495
sg63
(lp502
g312
asbag56
(g77
g58
NtRp503
(dp504
g61
(dp505
g88
g89
ssg70
g495
sg63
(lp506
S':'
asbag56
(g77
g58
NtRp507
(dp508
g61
(dp509
sg70
g495
sg63
(lp510
g56
(g57
g58
NtRp511
(dp512
g61
(dp513
g69
I3
ssg70
g507
sg63
(lp514
S''
asbasbasbag56
(g72
g58
NtRp515
(dp516
g61
(dp517
sg70
g451
sg63
(lp518
g56
(g77
g58
NtRp519
(dp520
g61
(dp521
g81
g82
ssg70
g515
sg63
(lp522
g333
asbag56
(g77
g58
NtRp523
(dp524
g61
(dp525
g88
g89
ssg70
g515
sg63
(lp526
S':'
asbag56
(g77
g58
NtRp527
(dp528
g61
(dp529
sg70
g515
sg63
(lp530
g56
(g57
g58
NtRp531
(dp532
g61
(dp533
g69
I3
ssg70
g527
sg63
(lp534
S''
asbasbasbag56
(g72
g58
NtRp535
(dp536
g61
(dp537
sg70
g451
sg63
(lp538
g56
(g77
g58
NtRp539
(dp540
g61
(dp541
g81
g82
ssg70
g535
sg63
(lp542
g354
asbag56
(g77
g58
NtRp543
(dp544
g61
(dp545
g88
g89
ssg70
g535
sg63
(lp546
S':'
asbag56
(g77
g58
NtRp547
(dp548
g61
(dp549
sg70
g535
sg63
(lp550
g56
(g57
g58
NtRp551
(dp552
g61
(dp553
g69
I3
ssg70
g547
sg63
(lp554
S''
asbasbasbag56
(g72
g58
NtRp555
(dp556
g61
(dp557
sg70
g451
sg63
(lp558
g56
(g77
g58
NtRp559
(dp560
g61
(dp561
g81
g82
ssg70
g555
sg63
(lp562
g375
asbag56
(g77
g58
NtRp563
(dp564
g61
(dp565
g88
g89
ssg70
g555
sg63
(lp566
S':'
asbag56
(g77
g58
NtRp567
(dp568
g61
(dp569
sg70
g555
sg63
(lp570
g56
(g57
g58
NtRp571
(dp572
g61
(dp573
g69
I3
ssg70
g567
sg63
(lp574
S''
asbasbasbag56
(g72
g58
NtRp575
(dp576
g61
(dp577
sg70
g451
sg63
(lp578
g56
(g77
g58
NtRp579
(dp580
g61
(dp581
g81
g82
ssg70
g575
sg63
(lp582
g396
asbag56
(g77
g58
NtRp583
(dp584
g61
(dp585
g88
g89
ssg70
g575
sg63
(lp586
S':'
asbag56
(g77
g58
NtRp587
(dp588
g61
(dp589
sg70
g575
sg63
(lp590
g56
(g57
g58
NtRp591
(dp592
g61
(dp593
g69
I3
ssg70
g587
sg63
(lp594
S''
asbasbasbag56
(g72
g58
NtRp595
(dp596
g61
(dp597
sg70
g451
sg63
(lp598
g56
(g77
g58
NtRp599
(dp600
g61
(dp601
g81
g82
ssg70
g595
sg63
(lp602
g417
asbag56
(g77
g58
NtRp603
(dp604
g61
(dp605
g88
g89
ssg70
g595
sg63
(lp606
S':'
asbag56
(g77
g58
NtRp607
(dp608
g61
(dp609
sg70
g595
sg63
(lp610
g56
(g57
g58
NtRp611
(dp612
g61
(dp613
g69
I3
ssg70
g607
sg63
(lp614
S''
asbasbasbasbasbasbasbag56
(g72
g58
NtRp615
(dp616
g61
(dp617
sg70
g233
sg63
(lp618
g56
(g77
g58
NtRp619
(dp620
g61
(dp621
g81
g82
ssg70
g615
sg63
(lp622
S'session_id_globaleaks'
p623
asbag56
(g77
g58
NtRp624
(dp625
g61
(dp626
g88
g89
ssg70
g615
sg63
(lp627
S':'
asbag56
(g77
g58
NtRp628
(dp629
g61
(dp630
sg70
g615
sg63
(lp631
g56
(g57
g58
NtRp632
(dp633
g61
(dp634
g69
I4
ssg70
g628
sg63
(lp635
g56
(g65
g58
NtRp636
(dp637
g61
(dp638
g69
I3
ssg70
Nsg63
(lp639
g56
(g72
g58
NtRp640
(dp641
g61
(dp642
sg70
g636
sg63
(lp643
g56
(g77
g58
NtRp644
(dp645
g61
(dp646
g81
g82
ssg70
g640
sg63
(lp647
g270
asbag56
(g77
g58
NtRp648
(dp649
g61
(dp650
g88
g89
ssg70
g640
sg63
(lp651
S':'
asbag56
(g77
g58
NtRp652
(dp653
g61
(dp654
sg70
g640
sg63
(lp655
g56
(g57
g58
NtRp656
(dp657
g61
(dp658
g69
I3
ssg70
g652
sg63
(lp659
S''
asbasbasbag56
(g72
g58
NtRp660
(dp661
g61
(dp662
sg70
g636
sg63
(lp663
g56
(g77
g58
NtRp664
(dp665
g61
(dp666
g81
g82
ssg70
g660
sg63
(lp667
g291
asbag56
(g77
g58
NtRp668
(dp669
g61
(dp670
g88
g89
ssg70
g660
sg63
(lp671
S':'
asbag56
(g77
g58
NtRp672
(dp673
g61
(dp674
sg70
g660
sg63
(lp675
g56
(g57
g58
NtRp676
(dp677
g61
(dp678
g69
I3
ssg70
g672
sg63
(lp679
S''
asbasbasbag56
(g72
g58
NtRp680
(dp681
g61
(dp682
sg70
g636
sg63
(lp683
g56
(g77
g58
NtRp684
(dp685
g61
(dp686
g81
g82
ssg70
g680
sg63
(lp687
g312
asbag56
(g77
g58
NtRp688
(dp689
g61
(dp690
g88
g89
ssg70
g680
sg63
(lp691
S':'
asbag56
(g77
g58
NtRp692
(dp693
g61
(dp694
sg70
g680
sg63
(lp695
g56
(g57
g58
NtRp696
(dp697
g61
(dp698
g69
I3
ssg70
g692
sg63
(lp699
S''
asbasbasbag56
(g72
g58
NtRp700
(dp701
g61
(dp702
sg70
g636
sg63
(lp703
g56
(g77
g58
NtRp704
(dp705
g61
(dp706
g81
g82
ssg70
g700
sg63
(lp707
g333
asbag56
(g77
g58
NtRp708
(dp709
g61
(dp710
g88
g89
ssg70
g700
sg63
(lp711
S':'
asbag56
(g77
g58
NtRp712
(dp713
g61
(dp714
sg70
g700
sg63
(lp715
g56
(g57
g58
NtRp716
(dp717
g61
(dp718
g69
I3
ssg70
g712
sg63
(lp719
S''
asbasbasbag56
(g72
g58
NtRp720
(dp721
g61
(dp722
sg70
g636
sg63
(lp723
g56
(g77
g58
NtRp724
(dp725
g61
(dp726
g81
g82
ssg70
g720
sg63
(lp727
g354
asbag56
(g77
g58
NtRp728
(dp729
g61
(dp730
g88
g89
ssg70
g720
sg63
(lp731
S':'
asbag56
(g77
g58
NtRp732
(dp733
g61
(dp734
sg70
g720
sg63
(lp735
g56
(g57
g58
NtRp736
(dp737
g61
(dp738
g69
I3
ssg70
g732
sg63
(lp739
S''
asbasbasbag56
(g72
g58
NtRp740
(dp741
g61
(dp742
sg70
g636
sg63
(lp743
g56
(g77
g58
NtRp744
(dp745
g61
(dp746
g81
g82
ssg70
g740
sg63
(lp747
g375
asbag56
(g77
g58
NtRp748
(dp749
g61
(dp750
g88
g89
ssg70
g740
sg63
(lp751
S':'
asbag56
(g77
g58
NtRp752
(dp753
g61
(dp754
sg70
g740
sg63
(lp755
g56
(g57
g58
NtRp756
(dp757
g61
(dp758
g69
I3
ssg70
g752
sg63
(lp759
S''
asbasbasbag56
(g72
g58
NtRp760
(dp761
g61
(dp762
sg70
g636
sg63
(lp763
g56
(g77
g58
NtRp764
(dp765
g61
(dp766
g81
g82
ssg70
g760
sg63
(lp767
g396
asbag56
(g77
g58
NtRp768
(dp769
g61
(dp770
g88
g89
ssg70
g760
sg63
(lp771
S':'
asbag56
(g77
g58
NtRp772
(dp773
g61
(dp774
sg70
g760
sg63
(lp775
g56
(g57
g58
NtRp776
(dp777
g61
(dp778
g69
I3
ssg70
g772
sg63
(lp779
S''
asbasbasbag56
(g72
g58
NtRp780
(dp781
g61
(dp782
sg70
g636
sg63
(lp783
g56
(g77
g58
NtRp784
(dp785
g61
(dp786
g81
g82
ssg70
g780
sg63
(lp787
g417
asbag56
(g77
g58
NtRp788
(dp789
g61
(dp790
g88
g89
ssg70
g780
sg63
(lp791
S':'
asbag56
(g77
g58
NtRp792
(dp793
g61
(dp794
sg70
g780
sg63
(lp795
g56
(g57
g58
NtRp796
(dp797
g61
(dp798
g69
I3
ssg70
g792
sg63
(lp799
S''
asbasbasbasbasbasbasbag56
(g72
g58
NtRp800
(dp801
g61
(dp802
sg70
g233
sg63
(lp803
g56
(g77
g58
NtRp804
(dp805
g61
(dp806
g81
g82
ssg70
g800
sg63
(lp807
S'session_id_init'
p808
asbag56
(g77
g58
NtRp809
(dp810
g61
(dp811
g88
g89
ssg70
g800
sg63
(lp812
S':'
asbag56
(g77
g58
NtRp813
(dp814
g61
(dp815
sg70
g800
sg63
(lp816
g56
(g57
g58
NtRp817
(dp818
g61
(dp819
g69
I4
ssg70
g813
sg63
(lp820
g56
(g65
g58
NtRp821
(dp822
g61
(dp823
g69
I3
ssg70
Nsg63
(lp824
g56
(g72
g58
NtRp825
(dp826
g61
(dp827
sg70
g821
sg63
(lp828
g56
(g77
g58
NtRp829
(dp830
g61
(dp831
g81
g82
ssg70
g825
sg63
(lp832
g270
asbag56
(g77
g58
NtRp833
(dp834
g61
(dp835
g88
g89
ssg70
g825
sg63
(lp836
S':'
asbag56
(g77
g58
NtRp837
(dp838
g61
(dp839
sg70
g825
sg63
(lp840
g56
(g57
g58
NtRp841
(dp842
g61
(dp843
g69
I3
ssg70
g837
sg63
(lp844
S''
asbasbasbag56
(g72
g58
NtRp845
(dp846
g61
(dp847
sg70
g821
sg63
(lp848
g56
(g77
g58
NtRp849
(dp850
g61
(dp851
g81
g82
ssg70
g845
sg63
(lp852
g291
asbag56
(g77
g58
NtRp853
(dp854
g61
(dp855
g88
g89
ssg70
g845
sg63
(lp856
S':'
asbag56
(g77
g58
NtRp857
(dp858
g61
(dp859
sg70
g845
sg63
(lp860
g56
(g57
g58
NtRp861
(dp862
g61
(dp863
g69
I3
ssg70
g857
sg63
(lp864
S''
asbasbasbag56
(g72
g58
NtRp865
(dp866
g61
(dp867
sg70
g821
sg63
(lp868
g56
(g77
g58
NtRp869
(dp870
g61
(dp871
g81
g82
ssg70
g865
sg63
(lp872
g312
asbag56
(g77
g58
NtRp873
(dp874
g61
(dp875
g88
g89
ssg70
g865
sg63
(lp876
S':'
asbag56
(g77
g58
NtRp877
(dp878
g61
(dp879
sg70
g865
sg63
(lp880
g56
(g57
g58
NtRp881
(dp882
g61
(dp883
g69
I3
ssg70
g877
sg63
(lp884
S''
asbasbasbag56
(g72
g58
NtRp885
(dp886
g61
(dp887
sg70
g821
sg63
(lp888
g56
(g77
g58
NtRp889
(dp890
g61
(dp891
g81
g82
ssg70
g885
sg63
(lp892
g333
asbag56
(g77
g58
NtRp893
(dp894
g61
(dp895
g88
g89
ssg70
g885
sg63
(lp896
S':'
asbag56
(g77
g58
NtRp897
(dp898
g61
(dp899
sg70
g885
sg63
(lp900
g56
(g57
g58
NtRp901
(dp902
g61
(dp903
g69
I3
ssg70
g897
sg63
(lp904
S''
asbasbasbag56
(g72
g58
NtRp905
(dp906
g61
(dp907
sg70
g821
sg63
(lp908
g56
(g77
g58
NtRp909
(dp910
g61
(dp911
g81
g82
ssg70
g905
sg63
(lp912
g354
asbag56
(g77
g58
NtRp913
(dp914
g61
(dp915
g88
g89
ssg70
g905
sg63
(lp916
S':'
asbag56
(g77
g58
NtRp917
(dp918
g61
(dp919
sg70
g905
sg63
(lp920
g56
(g57
g58
NtRp921
(dp922
g61
(dp923
g69
I3
ssg70
g917
sg63
(lp924
S''
asbasbasbag56
(g72
g58
NtRp925
(dp926
g61
(dp927
sg70
g821
sg63
(lp928
g56
(g77
g58
NtRp929
(dp930
g61
(dp931
g81
g82
ssg70
g925
sg63
(lp932
g375
asbag56
(g77
g58
NtRp933
(dp934
g61
(dp935
g88
g89
ssg70
g925
sg63
(lp936
S':'
asbag56
(g77
g58
NtRp937
(dp938
g61
(dp939
sg70
g925
sg63
(lp940
g56
(g57
g58
NtRp941
(dp942
g61
(dp943
g69
I3
ssg70
g937
sg63
(lp944
S''
asbasbasbag56
(g72
g58
NtRp945
(dp946
g61
(dp947
sg70
g821
sg63
(lp948
g56
(g77
g58
NtRp949
(dp950
g61
(dp951
g81
g82
ssg70
g945
sg63
(lp952
g396
asbag56
(g77
g58
NtRp953
(dp954
g61
(dp955
g88
g89
ssg70
g945
sg63
(lp956
S':'
asbag56
(g77
g58
NtRp957
(dp958
g61
(dp959
sg70
g945
sg63
(lp960
g56
(g57
g58
NtRp961
(dp962
g61
(dp963
g69
I3
ssg70
g957
sg63
(lp964
S''
asbasbasbag56
(g72
g58
NtRp965
(dp966
g61
(dp967
sg70
g821
sg63
(lp968
g56
(g77
g58
NtRp969
(dp970
g61
(dp971
g81
g82
ssg70
g965
sg63
(lp972
g417
asbag56
(g77
g58
NtRp973
(dp974
g61
(dp975
g88
g89
ssg70
g965
sg63
(lp976
S':'
asbag56
(g77
g58
NtRp977
(dp978
g61
(dp979
sg70
g965
sg63
(lp980
g56
(g57
g58
NtRp981
(dp982
g61
(dp983
g69
I3
ssg70
g977
sg63
(lp984
S''
asbasbasbasbasbasbasbasbasbasbasbag56
(g72
g58
NtRp985
(dp986
g61
(dp987
sg70
g66
sg63
(lp988
g56
(g77
g58
NtRp989
(dp990
g61
(dp991
g81
g82
ssg70
g985
sg63
(lp992
S'env'
p993
asbag56
(g77
g58
NtRp994
(dp995
g61
(dp996
g88
g89
ssg70
g985
sg63
(lp997
S':'
asbag56
(g77
g58
NtRp998
(dp999
g61
(dp1000
sg70
g985
sg63
(lp1001
g56
(g57
g58
NtRp1002
(dp1003
g61
(dp1004
g69
I5
ssg70
g998
sg63
(lp1005
g56
(g65
g58
NtRp1006
(dp1007
g61
(dp1008
g69
I4
ssg70
Nsg63
(lp1009
g56
(g72
g58
NtRp1010
(dp1011
g61
(dp1012
sg70
g1006
sg63
(lp1013
g56
(g77
g58
NtRp1014
(dp1015
g61
(dp1016
g81
g82
ssg70
g1010
sg63
(lp1017
S'app_folders'
p1018
asbag56
(g77
g58
NtRp1019
(dp1020
g61
(dp1021
g88
g89
ssg70
g1010
sg63
(lp1022
S':'
asbag56
(g77
g58
NtRp1023
(dp1024
g61
(dp1025
sg70
g1010
sg63
(lp1026
g56
(g57
g58
NtRp1027
(dp1028
g61
(dp1029
g69
I4
ssg70
g1023
sg63
(lp1030
S"set(['/Users/hellais/Documents/code/globaleaks/ddb/apps/applications/admin/', '/Users/hellais/Documents/code/globaleaks/ddb/apps/applications/init/'])"
p1031
asbasbasbag56
(g72
g58
NtRp1032
(dp1033
g61
(dp1034
sg70
g1006
sg63
(lp1035
g56
(g77
g58
NtRp1036
(dp1037
g61
(dp1038
g81
g82
ssg70
g1032
sg63
(lp1039
S'applications_parent'
p1040
asbag56
(g77
g58
NtRp1041
(dp1042
g61
(dp1043
g88
g89
ssg70
g1032
sg63
(lp1044
S':'
asbag56
(g77
g58
NtRp1045
(dp1046
g61
(dp1047
sg70
g1032
sg63
(lp1048
g56
(g57
g58
NtRp1049
(dp1050
g61
(dp1051
g69
I4
ssg70
g1045
sg63
(lp1052
S'/Users/hellais/Documents/code/globaleaks/ddb/apps'
p1053
asbasbasbag56
(g72
g58
NtRp1054
(dp1055
g61
(dp1056
sg70
g1006
sg63
(lp1057
g56
(g77
g58
NtRp1058
(dp1059
g61
(dp1060
g81
g82
ssg70
g1054
sg63
(lp1061
S'cmd_args'
p1062
asbag56
(g77
g58
NtRp1063
(dp1064
g61
(dp1065
g88
g89
ssg70
g1054
sg63
(lp1066
S':'
asbag56
(g77
g58
NtRp1067
(dp1068
g61
(dp1069
sg70
g1054
sg63
(lp1070
g56
(g57
g58
NtRp1071
(dp1072
g61
(dp1073
g69
I4
ssg70
g1067
sg63
(lp1074
g56
(g65
g58
NtRp1075
(dp1076
g61
(dp1077
g69
I3
ssg70
Nsg63
(lp1078
sbasbasbasbag56
(g72
g58
NtRp1079
(dp1080
g61
(dp1081
sg70
g1006
sg63
(lp1082
g56
(g77
g58
NtRp1083
(dp1084
g61
(dp1085
g81
g82
ssg70
g1079
sg63
(lp1086
S'cmd_options'
p1087
asbag56
(g77
g58
NtRp1088
(dp1089
g61
(dp1090
g88
g89
ssg70
g1079
sg63
(lp1091
S':'
asbag56
(g77
g58
NtRp1092
(dp1093
g61
(dp1094
sg70
g1079
sg63
(lp1095
g56
(g57
g58
NtRp1096
(dp1097
g61
(dp1098
g69
I4
ssg70
g1092
sg63
(lp1099
S"<Values at 0x1015f5320: {'verbose': False, 'ip': '127.0.0.1', 'shutdown_timeout': 5, 'taskbar': False, 'port': 8000, 'maxthreads': None, 'softcron': False, 'server_name': 'Jeanne.local', 'bpython': False, 'nogui': False, 'nocron': False, 'extcron': False, 'debuglevel': 30, 'test': None, 'folder': '/Users/hellais/Documents/code/globaleaks/ddb/apps', 'config': '', 'import_models': False, 'winservice': '', 'shell': None, 'run': '', 'log_filename': 'httpserver.log', 'args': [''], 'profiler_filename': None, 'ssl_private_key': '', 'password': '<ask>', 'request_queue_size': 5, 'ssl_certificate': '', 'cronjob': False, 'plain': False, 'quiet': False, 'interfaces': None, 'minthreads': None, 'timeout': 10, 'numthreads': None, 'nobanner': False, 'pid_filename': 'httpserver.pid'}>"
p1100
asbasbasbag56
(g72
g58
NtRp1101
(dp1102
g61
(dp1103
sg70
g1006
sg63
(lp1104
g56
(g77
g58
NtRp1105
(dp1106
g61
(dp1107
g81
g82
ssg70
g1101
sg63
(lp1108
S'content_length'
p1109
asbag56
(g77
g58
NtRp1110
(dp1111
g61
(dp1112
g88
g89
ssg70
g1101
sg63
(lp1113
S':'
asbag56
(g77
g58
NtRp1114
(dp1115
g61
(dp1116
sg70
g1101
sg63
(lp1117
g56
(g57
g58
NtRp1118
(dp1119
g61
(dp1120
g69
I4
ssg70
g1114
sg63
(lp1121
S'90191'
p1122
asbasbasbag56
(g72
g58
NtRp1123
(dp1124
g61
(dp1125
sg70
g1006
sg63
(lp1126
g56
(g77
g58
NtRp1127
(dp1128
g61
(dp1129
g81
g82
ssg70
g1123
sg63
(lp1130
S'content_type'
p1131
asbag56
(g77
g58
NtRp1132
(dp1133
g61
(dp1134
g88
g89
ssg70
g1123
sg63
(lp1135
S':'
asbag56
(g77
g58
NtRp1136
(dp1137
g61
(dp1138
sg70
g1123
sg63
(lp1139
g56
(g57
g58
NtRp1140
(dp1141
g61
(dp1142
g69
I4
ssg70
g1136
sg63
(lp1143
S'multipart/form-data; boundary=---------------------------172570536315899559935915885'
p1144
asbasbasbag56
(g72
g58
NtRp1145
(dp1146
g61
(dp1147
sg70
g1006
sg63
(lp1148
g56
(g77
g58
NtRp1149
(dp1150
g61
(dp1151
g81
g82
ssg70
g1145
sg63
(lp1152
S'db_sessions'
p1153
asbag56
(g77
g58
NtRp1154
(dp1155
g61
(dp1156
g88
g89
ssg70
g1145
sg63
(lp1157
S':'
asbag56
(g77
g58
NtRp1158
(dp1159
g61
(dp1160
sg70
g1145
sg63
(lp1161
g56
(g57
g58
NtRp1162
(dp1163
g61
(dp1164
g69
I4
ssg70
g1158
sg63
(lp1165
S'set([])'
p1166
asbasbasbag56
(g72
g58
NtRp1167
(dp1168
g61
(dp1169
sg70
g1006
sg63
(lp1170
g56
(g77
g58
NtRp1171
(dp1172
g61
(dp1173
g81
g82
ssg70
g1167
sg63
(lp1174
S'debugging'
p1175
asbag56
(g77
g58
NtRp1176
(dp1177
g61
(dp1178
g88
g89
ssg70
g1167
sg63
(lp1179
S':'
asbag56
(g77
g58
NtRp1180
(dp1181
g61
(dp1182
sg70
g1167
sg63
(lp1183
g56
(g57
g58
NtRp1184
(dp1185
g61
(dp1186
g69
I4
ssg70
g1180
sg63
(lp1187
g99
asbasbasbag56
(g72
g58
NtRp1188
(dp1189
g61
(dp1190
sg70
g1006
sg63
(lp1191
g56
(g77
g58
NtRp1192
(dp1193
g61
(dp1194
g81
g82
ssg70
g1188
sg63
(lp1195
S'gluon_parent'
p1196
asbag56
(g77
g58
NtRp1197
(dp1198
g61
(dp1199
g88
g89
ssg70
g1188
sg63
(lp1200
S':'
asbag56
(g77
g58
NtRp1201
(dp1202
g61
(dp1203
sg70
g1188
sg63
(lp1204
g56
(g57
g58
NtRp1205
(dp1206
g61
(dp1207
g69
I4
ssg70
g1201
sg63
(lp1208
S'/Users/hellais/Documents/code/globaleaks/ddb/apps'
p1209
asbasbasbag56
(g72
g58
NtRp1210
(dp1211
g61
(dp1212
sg70
g1006
sg63
(lp1213
g56
(g77
g58
NtRp1214
(dp1215
g61
(dp1216
g81
g82
ssg70
g1210
sg63
(lp1217
S'http_accept'
p1218
asbag56
(g77
g58
NtRp1219
(dp1220
g61
(dp1221
g88
g89
ssg70
g1210
sg63
(lp1222
S':'
asbag56
(g77
g58
NtRp1223
(dp1224
g61
(dp1225
sg70
g1210
sg63
(lp1226
g56
(g57
g58
NtRp1227
(dp1228
g61
(dp1229
g69
I4
ssg70
g1223
sg63
(lp1230
S'text/html,application/xhtml+xml,application/xml;q=0.9,*/*;q=0.8'
p1231
asbasbasbag56
(g72
g58
NtRp1232
(dp1233
g61
(dp1234
sg70
g1006
sg63
(lp1235
g56
(g77
g58
NtRp1236
(dp1237
g61
(dp1238
g81
g82
ssg70
g1232
sg63
(lp1239
S'http_accept_charset'
p1240
asbag56
(g77
g58
NtRp1241
(dp1242
g61
(dp1243
g88
g89
ssg70
g1232
sg63
(lp1244
S':'
asbag56
(g77
g58
NtRp1245
(dp1246
g61
(dp1247
sg70
g1232
sg63
(lp1248
g56
(g57
g58
NtRp1249
(dp1250
g61
(dp1251
g69
I4
ssg70
g1245
sg63
(lp1252
S'ISO-8859-1,utf-8;q=0.7,*;q=0.7'
p1253
asbasbasbag56
(g72
g58
NtRp1254
(dp1255
g61
(dp1256
sg70
g1006
sg63
(lp1257
g56
(g77
g58
NtRp1258
(dp1259
g61
(dp1260
g81
g82
ssg70
g1254
sg63
(lp1261
S'http_accept_encoding'
p1262
asbag56
(g77
g58
NtRp1263
(dp1264
g61
(dp1265
g88
g89
ssg70
g1254
sg63
(lp1266
S':'
asbag56
(g77
g58
NtRp1267
(dp1268
g61
(dp1269
sg70
g1254
sg63
(lp1270
g56
(g57
g58
NtRp1271
(dp1272
g61
(dp1273
g69
I4
ssg70
g1267
sg63
(lp1274
S'gzip, deflate'
p1275
asbasbasbag56
(g72
g58
NtRp1276
(dp1277
g61
(dp1278
sg70
g1006
sg63
(lp1279
g56
(g77
g58
NtRp1280
(dp1281
g61
(dp1282
g81
g82
ssg70
g1276
sg63
(lp1283
S'http_accept_language'
p1284
asbag56
(g77
g58
NtRp1285
(dp1286
g61
(dp1287
g88
g89
ssg70
g1276
sg63
(lp1288
S':'
asbag56
(g77
g58
NtRp1289
(dp1290
g61
(dp1291
sg70
g1276
sg63
(lp1292
g56
(g57
g58
NtRp1293
(dp1294
g61
(dp1295
g69
I4
ssg70
g1289
sg63
(lp1296
S'en-us,en;q=0.5'
p1297
asbasbasbag56
(g72
g58
NtRp1298
(dp1299
g61
(dp1300
sg70
g1006
sg63
(lp1301
g56
(g77
g58
NtRp1302
(dp1303
g61
(dp1304
g81
g82
ssg70
g1298
sg63
(lp1305
S'http_connection'
p1306
asbag56
(g77
g58
NtRp1307
(dp1308
g61
(dp1309
g88
g89
ssg70
g1298
sg63
(lp1310
S':'
asbag56
(g77
g58
NtRp1311
(dp1312
g61
(dp1313
sg70
g1298
sg63
(lp1314
g56
(g57
g58
NtRp1315
(dp1316
g61
(dp1317
g69
I4
ssg70
g1311
sg63
(lp1318
S'keep-alive'
p1319
asbasbasbag56
(g72
g58
NtRp1320
(dp1321
g61
(dp1322
sg70
g1006
sg63
(lp1323
g56
(g77
g58
NtRp1324
(dp1325
g61
(dp1326
g81
g82
ssg70
g1320
sg63
(lp1327
S'http_content_length'
p1328
asbag56
(g77
g58
NtRp1329
(dp1330
g61
(dp1331
g88
g89
ssg70
g1320
sg63
(lp1332
S':'
asbag56
(g77
g58
NtRp1333
(dp1334
g61
(dp1335
sg70
g1320
sg63
(lp1336
g56
(g57
g58
NtRp1337
(dp1338
g61
(dp1339
g69
I4
ssg70
g1333
sg63
(lp1340
g1122
asbasbasbag56
(g72
g58
NtRp1341
(dp1342
g61
(dp1343
sg70
g1006
sg63
(lp1344
g56
(g77
g58
NtRp1345
(dp1346
g61
(dp1347
g81
g82
ssg70
g1341
sg63
(lp1348
S'http_content_type'
p1349
asbag56
(g77
g58
NtRp1350
(dp1351
g61
(dp1352
g88
g89
ssg70
g1341
sg63
(lp1353
S':'
asbag56
(g77
g58
NtRp1354
(dp1355
g61
(dp1356
sg70
g1341
sg63
(lp1357
g56
(g57
g58
NtRp1358
(dp1359
g61
(dp1360
g69
I4
ssg70
g1354
sg63
(lp1361
g1144
asbasbasbag56
(g72
g58
NtRp1362
(dp1363
g61
(dp1364
sg70
g1006
sg63
(lp1365
g56
(g77
g58
NtRp1366
(dp1367
g61
(dp1368
g81
g82
ssg70
g1362
sg63
(lp1369
S'http_cookie'
p1370
asbag56
(g77
g58
NtRp1371
(dp1372
g61
(dp1373
g88
g89
ssg70
g1362
sg63
(lp1374
S':'
asbag56
(g77
g58
NtRp1375
(dp1376
g61
(dp1377
sg70
g1362
sg63
(lp1378
g56
(g57
g58
NtRp1379
(dp1380
g61
(dp1381
g69
I4
ssg70
g1375
sg63
(lp1382
S'session_id_admin=127.0.0.1-67122ce4-50b2-4acf-b28e-7a14feeff4d9; session_id_globaleaks=127.0.0.1-c6d5b9b3-1ec7-41c1-8d72-04c21b7a6b11; session_id_blabla=127.0.0.1-c445384e-a3ea-4484-8fe2-52f3295bbb7c; session_id_init=127.0.0.1-a8551263-bc3c-430c-abb2-8711fac671c1'
p1383
asbasbasbag56
(g72
g58
NtRp1384
(dp1385
g61
(dp1386
sg70
g1006
sg63
(lp1387
g56
(g77
g58
NtRp1388
(dp1389
g61
(dp1390
g81
g82
ssg70
g1384
sg63
(lp1391
S'http_host'
p1392
asbag56
(g77
g58
NtRp1393
(dp1394
g61
(dp1395
g88
g89
ssg70
g1384
sg63
(lp1396
S':'
asbag56
(g77
g58
NtRp1397
(dp1398
g61
(dp1399
sg70
g1384
sg63
(lp1400
g56
(g57
g58
NtRp1401
(dp1402
g61
(dp1403
g69
I4
ssg70
g1397
sg63
(lp1404
S'127.0.0.1:8000'
p1405
asbasbasbag56
(g72
g58
NtRp1406
(dp1407
g61
(dp1408
sg70
g1006
sg63
(lp1409
g56
(g77
g58
NtRp1410
(dp1411
g61
(dp1412
g81
g82
ssg70
g1406
sg63
(lp1413
S'http_referer'
p1414
asbag56
(g77
g58
NtRp1415
(dp1416
g61
(dp1417
g88
g89
ssg70
g1406
sg63
(lp1418
S':'
asbag56
(g77
g58
NtRp1419
(dp1420
g61
(dp1421
sg70
g1406
sg63
(lp1422
g56
(g57
g58
NtRp1423
(dp1424
g61
(dp1425
g69
I4
ssg70
g1419
sg63
(lp1426
S'http://127.0.0.1:8000/init/default/submission'
p1427
asbasbasbag56
(g72
g58
NtRp1428
(dp1429
g61
(dp1430
sg70
g1006
sg63
(lp1431
g56
(g77
g58
NtRp1432
(dp1433
g61
(dp1434
g81
g82
ssg70
g1428
sg63
(lp1435
S'http_user_agent'
p1436
asbag56
(g77
g58
NtRp1437
(dp1438
g61
(dp1439
g88
g89
ssg70
g1428
sg63
(lp1440
S':'
asbag56
(g77
g58
NtRp1441
(dp1442
g61
(dp1443
sg70
g1428
sg63
(lp1444
g56
(g57
g58
NtRp1445
(dp1446
g61
(dp1447
g69
I4
ssg70
g1441
sg63
(lp1448
S'Mozilla/5.0 (Macintosh; Intel Mac OS X 10.6; rv:5.0.1) Gecko/20100101 Firefox/5.0.1'
p1449
asbasbasbag56
(g72
g58
NtRp1450
(dp1451
g61
(dp1452
sg70
g1006
sg63
(lp1453
g56
(g77
g58
NtRp1454
(dp1455
g61
(dp1456
g81
g82
ssg70
g1450
sg63
(lp1457
S'is_jython'
p1458
asbag56
(g77
g58
NtRp1459
(dp1460
g61
(dp1461
g88
g89
ssg70
g1450
sg63
(lp1462
S':'
asbag56
(g77
g58
NtRp1463
(dp1464
g61
(dp1465
sg70
g1450
sg63
(lp1466
g56
(g57
g58
NtRp1467
(dp1468
g61
(dp1469
g69
I4
ssg70
g1463
sg63
(lp1470
g99
asbasbasbag56
(g72
g58
NtRp1471
(dp1472
g61
(dp1473
sg70
g1006
sg63
(lp1474
g56
(g77
g58
NtRp1475
(dp1476
g61
(dp1477
g81
g82
ssg70
g1471
sg63
(lp1478
S'path_info'
p1479
asbag56
(g77
g58
NtRp1480
(dp1481
g61
(dp1482
g88
g89
ssg70
g1471
sg63
(lp1483
S':'
asbag56
(g77
g58
NtRp1484
(dp1485
g61
(dp1486
sg70
g1471
sg63
(lp1487
g56
(g57
g58
NtRp1488
(dp1489
g61
(dp1490
g69
I4
ssg70
g1484
sg63
(lp1491
S'/init/default/submission'
p1492
asbasbasbag56
(g72
g58
NtRp1493
(dp1494
g61
(dp1495
sg70
g1006
sg63
(lp1496
g56
(g77
g58
NtRp1497
(dp1498
g61
(dp1499
g81
g82
ssg70
g1493
sg63
(lp1500
S'query_string'
p1501
asbag56
(g77
g58
NtRp1502
(dp1503
g61
(dp1504
g88
g89
ssg70
g1493
sg63
(lp1505
S':'
asbag56
(g77
g58
NtRp1506
(dp1507
g61
(dp1508
sg70
g1493
sg63
(lp1509
g56
(g57
g58
NtRp1510
(dp1511
g61
(dp1512
g69
I4
ssg70
g1506
sg63
(lp1513
S''
asbasbasbag56
(g72
g58
NtRp1514
(dp1515
g61
(dp1516
sg70
g1006
sg63
(lp1517
g56
(g77
g58
NtRp1518
(dp1519
g61
(dp1520
g81
g82
ssg70
g1514
sg63
(lp1521
S'remote_addr'
p1522
asbag56
(g77
g58
NtRp1523
(dp1524
g61
(dp1525
g88
g89
ssg70
g1514
sg63
(lp1526
S':'
asbag56
(g77
g58
NtRp1527
(dp1528
g61
(dp1529
sg70
g1514
sg63
(lp1530
g56
(g57
g58
NtRp1531
(dp1532
g61
(dp1533
g69
I4
ssg70
g1527
sg63
(lp1534
g189
asbasbasbag56
(g72
g58
NtRp1535
(dp1536
g61
(dp1537
sg70
g1006
sg63
(lp1538
g56
(g77
g58
NtRp1539
(dp1540
g61
(dp1541
g81
g82
ssg70
g1535
sg63
(lp1542
S'remote_port'
p1543
asbag56
(g77
g58
NtRp1544
(dp1545
g61
(dp1546
g88
g89
ssg70
g1535
sg63
(lp1547
S':'
asbag56
(g77
g58
NtRp1548
(dp1549
g61
(dp1550
sg70
g1535
sg63
(lp1551
g56
(g57
g58
NtRp1552
(dp1553
g61
(dp1554
g69
I4
ssg70
g1548
sg63
(lp1555
S'53491'
p1556
asbasbasbag56
(g72
g58
NtRp1557
(dp1558
g61
(dp1559
sg70
g1006
sg63
(lp1560
g56
(g77
g58
NtRp1561
(dp1562
g61
(dp1563
g81
g82
ssg70
g1557
sg63
(lp1564
S'request_method'
p1565
asbag56
(g77
g58
NtRp1566
(dp1567
g61
(dp1568
g88
g89
ssg70
g1557
sg63
(lp1569
S':'
asbag56
(g77
g58
NtRp1570
(dp1571
g61
(dp1572
sg70
g1557
sg63
(lp1573
g56
(g57
g58
NtRp1574
(dp1575
g61
(dp1576
g69
I4
ssg70
g1570
sg63
(lp1577
S'POST'
p1578
asbasbasbag56
(g72
g58
NtRp1579
(dp1580
g61
(dp1581
sg70
g1006
sg63
(lp1582
g56
(g77
g58
NtRp1583
(dp1584
g61
(dp1585
g81
g82
ssg70
g1579
sg63
(lp1586
S'script_name'
p1587
asbag56
(g77
g58
NtRp1588
(dp1589
g61
(dp1590
g88
g89
ssg70
g1579
sg63
(lp1591
S':'
asbag56
(g77
g58
NtRp1592
(dp1593
g61
(dp1594
sg70
g1579
sg63
(lp1595
g56
(g57
g58
NtRp1596
(dp1597
g61
(dp1598
g69
I4
ssg70
g1592
sg63
(lp1599
S''
asbasbasbag56
(g72
g58
NtRp1600
(dp1601
g61
(dp1602
sg70
g1006
sg63
(lp1603
g56
(g77
g58
NtRp1604
(dp1605
g61
(dp1606
g81
g82
ssg70
g1600
sg63
(lp1607
S'server_name'
p1608
asbag56
(g77
g58
NtRp1609
(dp1610
g61
(dp1611
g88
g89
ssg70
g1600
sg63
(lp1612
S':'
asbag56
(g77
g58
NtRp1613
(dp1614
g61
(dp1615
sg70
g1600
sg63
(lp1616
g56
(g57
g58
NtRp1617
(dp1618
g61
(dp1619
g69
I4
ssg70
g1613
sg63
(lp1620
S'Jeanne.local'
p1621
asbasbasbag56
(g72
g58
NtRp1622
(dp1623
g61
(dp1624
sg70
g1006
sg63
(lp1625
g56
(g77
g58
NtRp1626
(dp1627
g61
(dp1628
g81
g82
ssg70
g1622
sg63
(lp1629
S'server_port'
p1630
asbag56
(g77
g58
NtRp1631
(dp1632
g61
(dp1633
g88
g89
ssg70
g1622
sg63
(lp1634
S':'
asbag56
(g77
g58
NtRp1635
(dp1636
g61
(dp1637
sg70
g1622
sg63
(lp1638
g56
(g57
g58
NtRp1639
(dp1640
g61
(dp1641
g69
I4
ssg70
g1635
sg63
(lp1642
S'8000'
p1643
asbasbasbag56
(g72
g58
NtRp1644
(dp1645
g61
(dp1646
sg70
g1006
sg63
(lp1647
g56
(g77
g58
NtRp1648
(dp1649
g61
(dp1650
g81
g82
ssg70
g1644
sg63
(lp1651
S'server_protocol'
p1652
asbag56
(g77
g58
NtRp1653
(dp1654
g61
(dp1655
g88
g89
ssg70
g1644
sg63
(lp1656
S':'
asbag56
(g77
g58
NtRp1657
(dp1658
g61
(dp1659
sg70
g1644
sg63
(lp1660
g56
(g57
g58
NtRp1661
(dp1662
g61
(dp1663
g69
I4
ssg70
g1657
sg63
(lp1664
S'HTTP/1.1'
p1665
asbasbasbag56
(g72
g58
NtRp1666
(dp1667
g61
(dp1668
sg70
g1006
sg63
(lp1669
g56
(g77
g58
NtRp1670
(dp1671
g61
(dp1672
g81
g82
ssg70
g1666
sg63
(lp1673
S'server_software'
p1674
asbag56
(g77
g58
NtRp1675
(dp1676
g61
(dp1677
g88
g89
ssg70
g1666
sg63
(lp1678
S':'
asbag56
(g77
g58
NtRp1679
(dp1680
g61
(dp1681
sg70
g1666
sg63
(lp1682
g56
(g57
g58
NtRp1683
(dp1684
g61
(dp1685
g69
I4
ssg70
g1679
sg63
(lp1686
S'Rocket 1.2.2'
p1687
asbasbasbag56
(g72
g58
NtRp1688
(dp1689
g61
(dp1690
sg70
g1006
sg63
(lp1691
g56
(g77
g58
NtRp1692
(dp1693
g61
(dp1694
g81
g82
ssg70
g1688
sg63
(lp1695
S'web2py_crontype'
p1696
asbag56
(g77
g58
NtRp1697
(dp1698
g61
(dp1699
g88
g89
ssg70
g1688
sg63
(lp1700
S':'
asbag56
(g77
g58
NtRp1701
(dp1702
g61
(dp1703
sg70
g1688
sg63
(lp1704
g56
(g57
g58
NtRp1705
(dp1706
g61
(dp1707
g69
I4
ssg70
g1701
sg63
(lp1708
S'hard'
p1709
asbasbasbag56
(g72
g58
NtRp1710
(dp1711
g61
(dp1712
sg70
g1006
sg63
(lp1713
g56
(g77
g58
NtRp1714
(dp1715
g61
(dp1716
g81
g82
ssg70
g1710
sg63
(lp1717
S'web2py_path'
p1718
asbag56
(g77
g58
NtRp1719
(dp1720
g61
(dp1721
g88
g89
ssg70
g1710
sg63
(lp1722
S':'
asbag56
(g77
g58
NtRp1723
(dp1724
g61
(dp1725
sg70
g1710
sg63
(lp1726
g56
(g57
g58
NtRp1727
(dp1728
g61
(dp1729
g69
I4
ssg70
g1723
sg63
(lp1730
g1053
asbasbasbag56
(g72
g58
NtRp1731
(dp1732
g61
(dp1733
sg70
g1006
sg63
(lp1734
g56
(g77
g58
NtRp1735
(dp1736
g61
(dp1737
g81
g82
ssg70
g1731
sg63
(lp1738
S'web2py_version'
p1739
asbag56
(g77
g58
NtRp1740
(dp1741
g61
(dp1742
g88
g89
ssg70
g1731
sg63
(lp1743
S':'
asbag56
(g77
g58
NtRp1744
(dp1745
g61
(dp1746
sg70
g1731
sg63
(lp1747
g56
(g57
g58
NtRp1748
(dp1749
g61
(dp1750
g69
I4
ssg70
g1744
sg63
(lp1751
S'Version 1.98.2 (2011-08-04 00:47:09)\n'
p1752
asbasbasbag56
(g72
g58
NtRp1753
(dp1754
g61
(dp1755
sg70
g1006
sg63
(lp1756
g56
(g77
g58
NtRp1757
(dp1758
g61
(dp1759
g81
g82
ssg70
g1753
sg63
(lp1760
S'wsgi_errors'
p1761
asbag56
(g77
g58
NtRp1762
(dp1763
g61
(dp1764
g88
g89
ssg70
g1753
sg63
(lp1765
S':'
asbag56
(g77
g58
NtRp1766
(dp1767
g61
(dp1768
sg70
g1753
sg63
(lp1769
g56
(g57
g58
NtRp1770
(dp1771
g61
(dp1772
g69
I4
ssg70
g1766
sg63
(lp1773
S"<open file '<stderr>', mode 'w' at 0x100287270>"
p1774
asbasbasbag56
(g72
g58
NtRp1775
(dp1776
g61
(dp1777
sg70
g1006
sg63
(lp1778
g56
(g77
g58
NtRp1779
(dp1780
g61
(dp1781
g81
g82
ssg70
g1775
sg63
(lp1782
S'wsgi_file_wrapper'
p1783
asbag56
(g77
g58
NtRp1784
(dp1785
g61
(dp1786
g88
g89
ssg70
g1775
sg63
(lp1787
S':'
asbag56
(g77
g58
NtRp1788
(dp1789
g61
(dp1790
sg70
g1775
sg63
(lp1791
g56
(g57
g58
NtRp1792
(dp1793
g61
(dp1794
g69
I4
ssg70
g1788
sg63
(lp1795
S'<class gluon.rocket.FileWrapper at 0x101665db8>'
p1796
asbasbasbag56
(g72
g58
NtRp1797
(dp1798
g61
(dp1799
sg70
g1006
sg63
(lp1800
g56
(g77
g58
NtRp1801
(dp1802
g61
(dp1803
g81
g82
ssg70
g1797
sg63
(lp1804
S'wsgi_input'
p1805
asbag56
(g77
g58
NtRp1806
(dp1807
g61
(dp1808
g88
g89
ssg70
g1797
sg63
(lp1809
S':'
asbag56
(g77
g58
NtRp1810
(dp1811
g61
(dp1812
sg70
g1797
sg63
(lp1813
g56
(g57
g58
NtRp1814
(dp1815
g61
(dp1816
g69
I4
ssg70
g1810
sg63
(lp1817
S'<socket._fileobject object at 0x1023240d0>'
p1818
asbasbasbag56
(g72
g58
NtRp1819
(dp1820
g61
(dp1821
sg70
g1006
sg63
(lp1822
g56
(g77
g58
NtRp1823
(dp1824
g61
(dp1825
g81
g82
ssg70
g1819
sg63
(lp1826
S'wsgi_multiprocess'
p1827
asbag56
(g77
g58
NtRp1828
(dp1829
g61
(dp1830
g88
g89
ssg70
g1819
sg63
(lp1831
S':'
asbag56
(g77
g58
NtRp1832
(dp1833
g61
(dp1834
sg70
g1819
sg63
(lp1835
g56
(g57
g58
NtRp1836
(dp1837
g61
(dp1838
g69
I4
ssg70
g1832
sg63
(lp1839
g99
asbasbasbag56
(g72
g58
NtRp1840
(dp1841
g61
(dp1842
sg70
g1006
sg63
(lp1843
g56
(g77
g58
NtRp1844
(dp1845
g61
(dp1846
g81
g82
ssg70
g1840
sg63
(lp1847
S'wsgi_multithread'
p1848
asbag56
(g77
g58
NtRp1849
(dp1850
g61
(dp1851
g88
g89
ssg70
g1840
sg63
(lp1852
S':'
asbag56
(g77
g58
NtRp1853
(dp1854
g61
(dp1855
sg70
g1840
sg63
(lp1856
g56
(g57
g58
NtRp1857
(dp1858
g61
(dp1859
g69
I4
ssg70
g1853
sg63
(lp1860
S'True'
p1861
asbasbasbag56
(g72
g58
NtRp1862
(dp1863
g61
(dp1864
sg70
g1006
sg63
(lp1865
g56
(g77
g58
NtRp1866
(dp1867
g61
(dp1868
g81
g82
ssg70
g1862
sg63
(lp1869
S'wsgi_run_once'
p1870
asbag56
(g77
g58
NtRp1871
(dp1872
g61
(dp1873
g88
g89
ssg70
g1862
sg63
(lp1874
S':'
asbag56
(g77
g58
NtRp1875
(dp1876
g61
(dp1877
sg70
g1862
sg63
(lp1878
g56
(g57
g58
NtRp1879
(dp1880
g61
(dp1881
g69
I4
ssg70
g1875
sg63
(lp1882
g99
asbasbasbag56
(g72
g58
NtRp1883
(dp1884
g61
(dp1885
sg70
g1006
sg63
(lp1886
g56
(g77
g58
NtRp1887
(dp1888
g61
(dp1889
g81
g82
ssg70
g1883
sg63
(lp1890
S'wsgi_url_scheme'
p1891
asbag56
(g77
g58
NtRp1892
(dp1893
g61
(dp1894
g88
g89
ssg70
g1883
sg63
(lp1895
S':'
asbag56
(g77
g58
NtRp1896
(dp1897
g61
(dp1898
sg70
g1883
sg63
(lp1899
g56
(g57
g58
NtRp1900
(dp1901
g61
(dp1902
g69
I4
ssg70
g1896
sg63
(lp1903
S'http'
p1904
asbasbasbag56
(g72
g58
NtRp1905
(dp1906
g61
(dp1907
sg70
g1006
sg63
(lp1908
g56
(g77
g58
NtRp1909
(dp1910
g61
(dp1911
g81
g82
ssg70
g1905
sg63
(lp1912
S'wsgi_version'
p1913
asbag56
(g77
g58
NtRp1914
(dp1915
g61
(dp1916
g88
g89
ssg70
g1905
sg63
(lp1917
S':'
asbag56
(g77
g58
NtRp1918
(dp1919
g61
(dp1920
sg70
g1905
sg63
(lp1921
g56
(g57
g58
NtRp1922
(dp1923
g61
(dp1924
g69
I4
ssg70
g1918
sg63
(lp1925
g56
(g65
g58
NtRp1926
(dp1927
g61
(dp1928
g69
I3
ssg70
Nsg63
(lp1929
g56
(g72
g58
NtRp1930
(dp1931
g61
(dp1932
sg70
g1926
sg63
(lp1933
g56
(g77
g58
NtRp1934
(dp1935
g61
(dp1936
sg70
g1930
sg63
(lp1937
g56
(g57
g58
NtRp1938
(dp1939
g61
(dp1940
g69
I3
ssg70
g1934
sg63
(lp1941
S'1'
asbasbasbag56
(g72
g58
NtRp1942
(dp1943
g61
(dp1944
sg70
g1926
sg63
(lp1945
g56
(g77
g58
NtRp1946
(dp1947
g61
(dp1948
sg70
g1942
sg63
(lp1949
g56
(g57
g58
NtRp1950
(dp1951
g61
(dp1952
g69
I3
ssg70
g1946
sg63
(lp1953
S'0'
asbasbasbasbasbasbasbasbasbasbasbag56
(g72
g58
NtRp1954
(dp1955
g61
(dp1956
sg70
g66
sg63
(lp1957
g56
(g77
g58
NtRp1958
(dp1959
g61
(dp1960
g81
g82
ssg70
g1954
sg63
(lp1961
S'extension'
p1962
asbag56
(g77
g58
NtRp1963
(dp1964
g61
(dp1965
g88
g89
ssg70
g1954
sg63
(lp1966
S':'
asbag56
(g77
g58
NtRp1967
(dp1968
g61
(dp1969
sg70
g1954
sg63
(lp1970
g56
(g57
g58
NtRp1971
(dp1972
g61
(dp1973
g69
I5
ssg70
g1967
sg63
(lp1974
S'html'
p1975
asbasbasbag56
(g72
g58
NtRp1976
(dp1977
g61
(dp1978
sg70
g66
sg63
(lp1979
g56
(g77
g58
NtRp1980
(dp1981
g61
(dp1982
g81
g82
ssg70
g1976
sg63
(lp1983
S'folder'
p1984
asbag56
(g77
g58
NtRp1985
(dp1986
g61
(dp1987
g88
g89
ssg70
g1976
sg63
(lp1988
S':'
asbag56
(g77
g58
NtRp1989
(dp1990
g61
(dp1991
sg70
g1976
sg63
(lp1992
g56
(g57
g58
NtRp1993
(dp1994
g61
(dp1995
g69
I5
ssg70
g1989
sg63
(lp1996
S'/Users/hellais/Documents/code/globaleaks/ddb/apps/applications/init/'
p1997
asbasbasbag56
(g72
g58
NtRp1998
(dp1999
g61
(dp2000
sg70
g66
sg63
(lp2001
g56
(g77
g58
NtRp2002
(dp2003
g61
(dp2004
g81
g82
ssg70
g1998
sg63
(lp2005
S'function'
p2006
asbag56
(g77
g58
NtRp2007
(dp2008
g61
(dp2009
g88
g89
ssg70
g1998
sg63
(lp2010
S':'
asbag56
(g77
g58
NtRp2011
(dp2012
g61
(dp2013
sg70
g1998
sg63
(lp2014
g56
(g57
g58
NtRp2015
(dp2016
g61
(dp2017
g69
I5
ssg70
g2011
sg63
(lp2018
S'submission'
p2019
asbasbasbag56
(g72
g58
NtRp2020
(dp2021
g61
(dp2022
sg70
g66
sg63
(lp2023
g56
(g77
g58
NtRp2024
(dp2025
g61
(dp2026
g81
g82
ssg70
g2020
sg63
(lp2027
S'get_vars'
p2028
asbag56
(g77
g58
NtRp2029
(dp2030
g61
(dp2031
g88
g89
ssg70
g2020
sg63
(lp2032
S':'
asbag56
(g77
g58
NtRp2033
(dp2034
g61
(dp2035
sg70
g2020
sg63
(lp2036
g56
(g57
g58
NtRp2037
(dp2038
g61
(dp2039
g69
I5
ssg70
g2033
sg63
(lp2040
g56
(g65
g58
NtRp2041
(dp2042
g61
(dp2043
g69
I4
ssg70
Nsg63
(lp2044
sbasbasbasbag56
(g72
g58
NtRp2045
(dp2046
g61
(dp2047
sg70
g66
sg63
(lp2048
g56
(g77
g58
NtRp2049
(dp2050
g61
(dp2051
g81
g82
ssg70
g2045
sg63
(lp2052
S'is_https'
p2053
asbag56
(g77
g58
NtRp2054
(dp2055
g61
(dp2056
g88
g89
ssg70
g2045
sg63
(lp2057
S':'
asbag56
(g77
g58
NtRp2058
(dp2059
g61
(dp2060
sg70
g2045
sg63
(lp2061
g56
(g57
g58
NtRp2062
(dp2063
g61
(dp2064
g69
I5
ssg70
g2058
sg63
(lp2065
g99
asbasbasbag56
(g72
g58
NtRp2066
(dp2067
g61
(dp2068
sg70
g66
sg63
(lp2069
g56
(g77
g58
NtRp2070
(dp2071
g61
(dp2072
g81
g82
ssg70
g2066
sg63
(lp2073
S'is_local'
p2074
asbag56
(g77
g58
NtRp2075
(dp2076
g61
(dp2077
g88
g89
ssg70
g2066
sg63
(lp2078
S':'
asbag56
(g77
g58
NtRp2079
(dp2080
g61
(dp2081
sg70
g2066
sg63
(lp2082
g56
(g57
g58
NtRp2083
(dp2084
g61
(dp2085
g69
I5
ssg70
g2079
sg63
(lp2086
g1861
asbasbasbag56
(g72
g58
NtRp2087
(dp2088
g61
(dp2089
sg70
g66
sg63
(lp2090
g56
(g77
g58
NtRp2091
(dp2092
g61
(dp2093
g81
g82
ssg70
g2087
sg63
(lp2094
S'is_restful'
p2095
asbag56
(g77
g58
NtRp2096
(dp2097
g61
(dp2098
g88
g89
ssg70
g2087
sg63
(lp2099
S':'
asbag56
(g77
g58
NtRp2100
(dp2101
g61
(dp2102
sg70
g2087
sg63
(lp2103
g56
(g57
g58
NtRp2104
(dp2105
g61
(dp2106
g69
I5
ssg70
g2100
sg63
(lp2107
g99
asbasbasbag56
(g72
g58
NtRp2108
(dp2109
g61
(dp2110
sg70
g66
sg63
(lp2111
g56
(g77
g58
NtRp2112
(dp2113
g61
(dp2114
g81
g82
ssg70
g2108
sg63
(lp2115
S'now'
p2116
asbag56
(g77
g58
NtRp2117
(dp2118
g61
(dp2119
g88
g89
ssg70
g2108
sg63
(lp2120
S':'
asbag56
(g77
g58
NtRp2121
(dp2122
g61
(dp2123
sg70
g2108
sg63
(lp2124
g56
(g57
g58
NtRp2125
(dp2126
g61
(dp2127
g69
I5
ssg70
g2121
sg63
(lp2128
S'datetime.datetime(2011, 8, 27, 18, 29, 32, 247851)'
p2129
asbasbasbag56
(g72
g58
NtRp2130
(dp2131
g61
(dp2132
sg70
g66
sg63
(lp2133
g56
(g77
g58
NtRp2134
(dp2135
g61
(dp2136
g81
g82
ssg70
g2130
sg63
(lp2137
S'post_vars'
p2138
asbag56
(g77
g58
NtRp2139
(dp2140
g61
(dp2141
g88
g89
ssg70
g2130
sg63
(lp2142
S':'
asbag56
(g77
g58
NtRp2143
(dp2144
g61
(dp2145
sg70
g2130
sg63
(lp2146
g56
(g57
g58
NtRp2147
(dp2148
g61
(dp2149
g69
I5
ssg70
g2143
sg63
(lp2150
g56
(g65
g58
NtRp2151
(dp2152
g61
(dp2153
g69
I4
ssg70
Nsg63
(lp2154
g56
(g72
g58
NtRp2155
(dp2156
g61
(dp2157
sg70
g2151
sg63
(lp2158
g56
(g77
g58
NtRp2159
(dp2160
g61
(dp2161
g81
g82
ssg70
g2155
sg63
(lp2162
S'Description'
p2163
asbag56
(g77
g58
NtRp2164
(dp2165
g61
(dp2166
g88
g89
ssg70
g2155
sg63
(lp2167
S':'
asbag56
(g77
g58
NtRp2168
(dp2169
g61
(dp2170
sg70
g2155
sg63
(lp2171
g56
(g57
g58
NtRp2172
(dp2173
g61
(dp2174
g69
I4
ssg70
g2168
sg63
(lp2175
S'DHjhjhjhads'
p2176
asbasbasbag56
(g72
g58
NtRp2177
(dp2178
g61
(dp2179
sg70
g2151
sg63
(lp2180
g56
(g77
g58
NtRp2181
(dp2182
g61
(dp2183
g81
g82
ssg70
g2177
sg63
(lp2184
S'Tags'
p2185
asbag56
(g77
g58
NtRp2186
(dp2187
g61
(dp2188
g88
g89
ssg70
g2177
sg63
(lp2189
S':'
asbag56
(g77
g58
NtRp2190
(dp2191
g61
(dp2192
sg70
g2177
sg63
(lp2193
g56
(g57
g58
NtRp2194
(dp2195
g61
(dp2196
g69
I4
ssg70
g2190
sg63
(lp2197
S'dshjdsa, dasd, '
p2198
asbasbasbag56
(g72
g58
NtRp2199
(dp2200
g61
(dp2201
sg70
g2151
sg63
(lp2202
g56
(g77
g58
NtRp2203
(dp2204
g61
(dp2205
g81
g82
ssg70
g2199
sg63
(lp2206
S'Title'
p2207
asbag56
(g77
g58
NtRp2208
(dp2209
g61
(dp2210
g88
g89
ssg70
g2199
sg63
(lp2211
S':'
asbag56
(g77
g58
NtRp2212
(dp2213
g61
(dp2214
sg70
g2199
sg63
(lp2215
g56
(g57
g58
NtRp2216
(dp2217
g61
(dp2218
g69
I4
ssg70
g2212
sg63
(lp2219
S'The Title of the leak'
p2220
asbasbasbag56
(g72
g58
NtRp2221
(dp2222
g61
(dp2223
sg70
g2151
sg63
(lp2224
g56
(g77
g58
NtRp2225
(dp2226
g61
(dp2227
g81
g82
ssg70
g2221
sg63
(lp2228
S'dislaimer'
p2229
asbag56
(g77
g58
NtRp2230
(dp2231
g61
(dp2232
g88
g89
ssg70
g2221
sg63
(lp2233
S':'
asbag56
(g77
g58
NtRp2234
(dp2235
g61
(dp2236
sg70
g2221
sg63
(lp2237
g56
(g57
g58
NtRp2238
(dp2239
g61
(dp2240
g69
I4
ssg70
g2234
sg63
(lp2241
S'on'
p2242
asbasbasbag56
(g72
g58
NtRp2243
(dp2244
g61
(dp2245
sg70
g2151
sg63
(lp2246
g56
(g77
g58
NtRp2247
(dp2248
g61
(dp2249
g81
g82
ssg70
g2243
sg63
(lp2250
S'material'
p2251
asbag56
(g77
g58
NtRp2252
(dp2253
g61
(dp2254
g88
g89
ssg70
g2243
sg63
(lp2255
S':'
asbag56
(g77
g58
NtRp2256
(dp2257
g61
(dp2258
sg70
g2243
sg63
(lp2259
g56
(g57
g58
NtRp2260
(dp2261
g61
(dp2262
g69
I4
ssg70
g2256
sg63
(lp2263
S'FieldStorage object'
p2264
asbasbasbasbasbasbasbag56
(g72
g58
NtRp2265
(dp2266
g61
(dp2267
sg70
g66
sg63
(lp2268
g56
(g77
g58
NtRp2269
(dp2270
g61
(dp2271
g81
g82
ssg70
g2265
sg63
(lp2272
S'url'
p2273
asbag56
(g77
g58
NtRp2274
(dp2275
g61
(dp2276
g88
g89
ssg70
g2265
sg63
(lp2277
S':'
asbag56
(g77
g58
NtRp2278
(dp2279
g61
(dp2280
sg70
g2265
sg63
(lp2281
g56
(g57
g58
NtRp2282
(dp2283
g61
(dp2284
g69
I5
ssg70
g2278
sg63
(lp2285
S'/init/default/submission'
p2286
asbasbasbag56
(g72
g58
NtRp2287
(dp2288
g61
(dp2289
sg70
g66
sg63
(lp2290
g56
(g77
g58
NtRp2291
(dp2292
g61
(dp2293
g81
g82
ssg70
g2287
sg63
(lp2294
S'uuid'
p2295
asbag56
(g77
g58
NtRp2296
(dp2297
g61
(dp2298
g88
g89
ssg70
g2287
sg63
(lp2299
S':'
asbag56
(g77
g58
NtRp2300
(dp2301
g61
(dp2302
sg70
g2287
sg63
(lp2303
g56
(g57
g58
NtRp2304
(dp2305
g61
(dp2306
g69
I5
ssg70
g2300
sg63
(lp2307
S'init/127.0.0.1.2011-08-27.18-29-32.c97e1686-bcc2-4226-acca-411a8d3421e8'
p2308
asbasbasbag56
(g72
g58
NtRp2309
(dp2310
g61
(dp2311
sg70
g66
sg63
(lp2312
g56
(g77
g58
NtRp2313
(dp2314
g61
(dp2315
g81
g82
ssg70
g2309
sg63
(lp2316
S'vars'
p2317
asbag56
(g77
g58
NtRp2318
(dp2319
g61
(dp2320
g88
g89
ssg70
g2309
sg63
(lp2321
S':'
asbag56
(g77
g58
NtRp2322
(dp2323
g61
(dp2324
sg70
g2309
sg63
(lp2325
g56
(g57
g58
NtRp2326
(dp2327
g61
(dp2328
g69
I5
ssg70
g2322
sg63
(lp2329
g56
(g65
g58
NtRp2330
(dp2331
g61
(dp2332
g69
I4
ssg70
Nsg63
(lp2333
g56
(g72
g58
NtRp2334
(dp2335
g61
(dp2336
sg70
g2330
sg63
(lp2337
g56
(g77
g58
NtRp2338
(dp2339
g61
(dp2340
g81
g82
ssg70
g2334
sg63
(lp2341
g2163
asbag56
(g77
g58
NtRp2342
(dp2343
g61
(dp2344
g88
g89
ssg70
g2334
sg63
(lp2345
S':'
asbag56
(g77
g58
NtRp2346
(dp2347
g61
(dp2348
sg70
g2334
sg63
(lp2349
g56
(g57
g58
NtRp2350
(dp2351
g61
(dp2352
g69
I4
ssg70
g2346
sg63
(lp2353
g2176
asbasbasbag56
(g72
g58
NtRp2354
(dp2355
g61
(dp2356
sg70
g2330
sg63
(lp2357
g56
(g77
g58
NtRp2358
(dp2359
g61
(dp2360
g81
g82
ssg70
g2354
sg63
(lp2361
g2185
asbag56
(g77
g58
NtRp2362
(dp2363
g61
(dp2364
g88
g89
ssg70
g2354
sg63
(lp2365
S':'
asbag56
(g77
g58
NtRp2366
(dp2367
g61
(dp2368
sg70
g2354
sg63
(lp2369
g56
(g57
g58
NtRp2370
(dp2371
g61
(dp2372
g69
I4
ssg70
g2366
sg63
(lp2373
g2198
asbasbasbag56
(g72
g58
NtRp2374
(dp2375
g61
(dp2376
sg70
g2330
sg63
(lp2377
g56
(g77
g58
NtRp2378
(dp2379
g61
(dp2380
g81
g82
ssg70
g2374
sg63
(lp2381
g2207
asbag56
(g77
g58
NtRp2382
(dp2383
g61
(dp2384
g88
g89
ssg70
g2374
sg63
(lp2385
S':'
asbag56
(g77
g58
NtRp2386
(dp2387
g61
(dp2388
sg70
g2374
sg63
(lp2389
g56
(g57
g58
NtRp2390
(dp2391
g61
(dp2392
g69
I4
ssg70
g2386
sg63
(lp2393
g2220
asbasbasbag56
(g72
g58
NtRp2394
(dp2395
g61
(dp2396
sg70
g2330
sg63
(lp2397
g56
(g77
g58
NtRp2398
(dp2399
g61
(dp2400
g81
g82
ssg70
g2394
sg63
(lp2401
g2229
asbag56
(g77
g58
NtRp2402
(dp2403
g61
(dp2404
g88
g89
ssg70
g2394
sg63
(lp2405
S':'
asbag56
(g77
g58
NtRp2406
(dp2407
g61
(dp2408
sg70
g2394
sg63
(lp2409
g56
(g57
g58
NtRp2410
(dp2411
g61
(dp2412
g69
I4
ssg70
g2406
sg63
(lp2413
g2242
asbasbasbag56
(g72
g58
NtRp2414
(dp2415
g61
(dp2416
sg70
g2330
sg63
(lp2417
g56
(g77
g58
NtRp2418
(dp2419
g61
(dp2420
g81
g82
ssg70
g2414
sg63
(lp2421
g2251
asbag56
(g77
g58
NtRp2422
(dp2423
g61
(dp2424
g88
g89
ssg70
g2414
sg63
(lp2425
S':'
asbag56
(g77
g58
NtRp2426
(dp2427
g61
(dp2428
sg70
g2414
sg63
(lp2429
g56
(g57
g58
NtRp2430
(dp2431
g61
(dp2432
g69
I4
ssg70
g2426
sg63
(lp2433
g2264
asbasbasbasbasbasbasbag56
(g72
g58
NtRp2434
(dp2435
g61
(dp2436
sg70
g66
sg63
(lp2437
g56
(g77
g58
NtRp2438
(dp2439
g61
(dp2440
g81
g82
ssg70
g2434
sg63
(lp2441
S'wsgi'
p2442
asbag56
(g77
g58
NtRp2443
(dp2444
g61
(dp2445
g88
g89
ssg70
g2434
sg63
(lp2446
S':'
asbag56
(g77
g58
NtRp2447
(dp2448
g61
(dp2449
sg70
g2434
sg63
(lp2450
g56
(g57
g58
NtRp2451
(dp2452
g61
(dp2453
g69
I5
ssg70
g2447
sg63
(lp2454
g56
(g65
g58
NtRp2455
(dp2456
g61
(dp2457
g69
I4
ssg70
Nsg63
(lp2458
g56
(g72
g58
NtRp2459
(dp2460
g61
(dp2461
sg70
g2455
sg63
(lp2462
g56
(g77
g58
NtRp2463
(dp2464
g61
(dp2465
g81
g82
ssg70
g2459
sg63
(lp2466
S'environ'
p2467
asbag56
(g77
g58
NtRp2468
(dp2469
g61
(dp2470
g88
g89
ssg70
g2459
sg63
(lp2471
S':'
asbag56
(g77
g58
NtRp2472
(dp2473
g61
(dp2474
sg70
g2459
sg63
(lp2475
g56
(g57
g58
NtRp2476
(dp2477
g61
(dp2478
g69
I4
ssg70
g2472
sg63
(lp2479
g56
(g65
g58
NtRp2480
(dp2481
g61
(dp2482
g69
I3
ssg70
Nsg63
(lp2483
g56
(g72
g58
NtRp2484
(dp2485
g61
(dp2486
sg70
g2480
sg63
(lp2487
g56
(g77
g58
NtRp2488
(dp2489
g61
(dp2490
g81
g82
ssg70
g2484
sg63
(lp2491
S'CONTENT_LENGTH'
p2492
asbag56
(g77
g58
NtRp2493
(dp2494
g61
(dp2495
g88
g89
ssg70
g2484
sg63
(lp2496
S':'
asbag56
(g77
g58
NtRp2497
(dp2498
g61
(dp2499
sg70
g2484
sg63
(lp2500
g56
(g57
g58
NtRp2501
(dp2502
g61
(dp2503
g69
I3
ssg70
g2497
sg63
(lp2504
g1122
asbasbasbag56
(g72
g58
NtRp2505
(dp2506
g61
(dp2507
sg70
g2480
sg63
(lp2508
g56
(g77
g58
NtRp2509
(dp2510
g61
(dp2511
g81
g82
ssg70
g2505
sg63
(lp2512
S'CONTENT_TYPE'
p2513
asbag56
(g77
g58
NtRp2514
(dp2515
g61
(dp2516
g88
g89
ssg70
g2505
sg63
(lp2517
S':'
asbag56
(g77
g58
NtRp2518
(dp2519
g61
(dp2520
sg70
g2505
sg63
(lp2521
g56
(g57
g58
NtRp2522
(dp2523
g61
(dp2524
g69
I3
ssg70
g2518
sg63
(lp2525
g1144
asbasbasbag56
(g72
g58
NtRp2526
(dp2527
g61
(dp2528
sg70
g2480
sg63
(lp2529
g56
(g77
g58
NtRp2530
(dp2531
g61
(dp2532
g81
g82
ssg70
g2526
sg63
(lp2533
S'HTTP_ACCEPT'
p2534
asbag56
(g77
g58
NtRp2535
(dp2536
g61
(dp2537
g88
g89
ssg70
g2526
sg63
(lp2538
S':'
asbag56
(g77
g58
NtRp2539
(dp2540
g61
(dp2541
sg70
g2526
sg63
(lp2542
g56
(g57
g58
NtRp2543
(dp2544
g61
(dp2545
g69
I3
ssg70
g2539
sg63
(lp2546
g1231
asbasbasbag56
(g72
g58
NtRp2547
(dp2548
g61
(dp2549
sg70
g2480
sg63
(lp2550
g56
(g77
g58
NtRp2551
(dp2552
g61
(dp2553
g81
g82
ssg70
g2547
sg63
(lp2554
S'HTTP_ACCEPT_CHARSET'
p2555
asbag56
(g77
g58
NtRp2556
(dp2557
g61
(dp2558
g88
g89
ssg70
g2547
sg63
(lp2559
S':'
asbag56
(g77
g58
NtRp2560
(dp2561
g61
(dp2562
sg70
g2547
sg63
(lp2563
g56
(g57
g58
NtRp2564
(dp2565
g61
(dp2566
g69
I3
ssg70
g2560
sg63
(lp2567
g1253
asbasbasbag56
(g72
g58
NtRp2568
(dp2569
g61
(dp2570
sg70
g2480
sg63
(lp2571
g56
(g77
g58
NtRp2572
(dp2573
g61
(dp2574
g81
g82
ssg70
g2568
sg63
(lp2575
S'HTTP_ACCEPT_ENCODING'
p2576
asbag56
(g77
g58
NtRp2577
(dp2578
g61
(dp2579
g88
g89
ssg70
g2568
sg63
(lp2580
S':'
asbag56
(g77
g58
NtRp2581
(dp2582
g61
(dp2583
sg70
g2568
sg63
(lp2584
g56
(g57
g58
NtRp2585
(dp2586
g61
(dp2587
g69
I3
ssg70
g2581
sg63
(lp2588
g1275
asbasbasbag56
(g72
g58
NtRp2589
(dp2590
g61
(dp2591
sg70
g2480
sg63
(lp2592
g56
(g77
g58
NtRp2593
(dp2594
g61
(dp2595
g81
g82
ssg70
g2589
sg63
(lp2596
S'HTTP_ACCEPT_LANGUAGE'
p2597
asbag56
(g77
g58
NtRp2598
(dp2599
g61
(dp2600
g88
g89
ssg70
g2589
sg63
(lp2601
S':'
asbag56
(g77
g58
NtRp2602
(dp2603
g61
(dp2604
sg70
g2589
sg63
(lp2605
g56
(g57
g58
NtRp2606
(dp2607
g61
(dp2608
g69
I3
ssg70
g2602
sg63
(lp2609
g1297
asbasbasbag56
(g72
g58
NtRp2610
(dp2611
g61
(dp2612
sg70
g2480
sg63
(lp2613
g56
(g77
g58
NtRp2614
(dp2615
g61
(dp2616
g81
g82
ssg70
g2610
sg63
(lp2617
S'HTTP_CONNECTION'
p2618
asbag56
(g77
g58
NtRp2619
(dp2620
g61
(dp2621
g88
g89
ssg70
g2610
sg63
(lp2622
S':'
asbag56
(g77
g58
NtRp2623
(dp2624
g61
(dp2625
sg70
g2610
sg63
(lp2626
g56
(g57
g58
NtRp2627
(dp2628
g61
(dp2629
g69
I3
ssg70
g2623
sg63
(lp2630
g1319
asbasbasbag56
(g72
g58
NtRp2631
(dp2632
g61
(dp2633
sg70
g2480
sg63
(lp2634
g56
(g77
g58
NtRp2635
(dp2636
g61
(dp2637
g81
g82
ssg70
g2631
sg63
(lp2638
S'HTTP_CONTENT_LENGTH'
p2639
asbag56
(g77
g58
NtRp2640
(dp2641
g61
(dp2642
g88
g89
ssg70
g2631
sg63
(lp2643
S':'
asbag56
(g77
g58
NtRp2644
(dp2645
g61
(dp2646
sg70
g2631
sg63
(lp2647
g56
(g57
g58
NtRp2648
(dp2649
g61
(dp2650
g69
I3
ssg70
g2644
sg63
(lp2651
g1122
asbasbasbag56
(g72
g58
NtRp2652
(dp2653
g61
(dp2654
sg70
g2480
sg63
(lp2655
g56
(g77
g58
NtRp2656
(dp2657
g61
(dp2658
g81
g82
ssg70
g2652
sg63
(lp2659
S'HTTP_CONTENT_TYPE'
p2660
asbag56
(g77
g58
NtRp2661
(dp2662
g61
(dp2663
g88
g89
ssg70
g2652
sg63
(lp2664
S':'
asbag56
(g77
g58
NtRp2665
(dp2666
g61
(dp2667
sg70
g2652
sg63
(lp2668
g56
(g57
g58
NtRp2669
(dp2670
g61
(dp2671
g69
I3
ssg70
g2665
sg63
(lp2672
g1144
asbasbasbag56
(g72
g58
NtRp2673
(dp2674
g61
(dp2675
sg70
g2480
sg63
(lp2676
g56
(g77
g58
NtRp2677
(dp2678
g61
(dp2679
g81
g82
ssg70
g2673
sg63
(lp2680
S'HTTP_COOKIE'
p2681
asbag56
(g77
g58
NtRp2682
(dp2683
g61
(dp2684
g88
g89
ssg70
g2673
sg63
(lp2685
S':'
asbag56
(g77
g58
NtRp2686
(dp2687
g61
(dp2688
sg70
g2673
sg63
(lp2689
g56
(g57
g58
NtRp2690
(dp2691
g61
(dp2692
g69
I3
ssg70
g2686
sg63
(lp2693
g1383
asbasbasbag56
(g72
g58
NtRp2694
(dp2695
g61
(dp2696
sg70
g2480
sg63
(lp2697
g56
(g77
g58
NtRp2698
(dp2699
g61
(dp2700
g81
g82
ssg70
g2694
sg63
(lp2701
S'HTTP_HOST'
p2702
asbag56
(g77
g58
NtRp2703
(dp2704
g61
(dp2705
g88
g89
ssg70
g2694
sg63
(lp2706
S':'
asbag56
(g77
g58
NtRp2707
(dp2708
g61
(dp2709
sg70
g2694
sg63
(lp2710
g56
(g57
g58
NtRp2711
(dp2712
g61
(dp2713
g69
I3
ssg70
g2707
sg63
(lp2714
g1405
asbasbasbag56
(g72
g58
NtRp2715
(dp2716
g61
(dp2717
sg70
g2480
sg63
(lp2718
g56
(g77
g58
NtRp2719
(dp2720
g61
(dp2721
g81
g82
ssg70
g2715
sg63
(lp2722
S'HTTP_REFERER'
p2723
asbag56
(g77
g58
NtRp2724
(dp2725
g61
(dp2726
g88
g89
ssg70
g2715
sg63
(lp2727
S':'
asbag56
(g77
g58
NtRp2728
(dp2729
g61
(dp2730
sg70
g2715
sg63
(lp2731
g56
(g57
g58
NtRp2732
(dp2733
g61
(dp2734
g69
I3
ssg70
g2728
sg63
(lp2735
g1427
asbasbasbag56
(g72
g58
NtRp2736
(dp2737
g61
(dp2738
sg70
g2480
sg63
(lp2739
g56
(g77
g58
NtRp2740
(dp2741
g61
(dp2742
g81
g82
ssg70
g2736
sg63
(lp2743
S'HTTP_USER_AGENT'
p2744
asbag56
(g77
g58
NtRp2745
(dp2746
g61
(dp2747
g88
g89
ssg70
g2736
sg63
(lp2748
S':'
asbag56
(g77
g58
NtRp2749
(dp2750
g61
(dp2751
sg70
g2736
sg63
(lp2752
g56
(g57
g58
NtRp2753
(dp2754
g61
(dp2755
g69
I3
ssg70
g2749
sg63
(lp2756
g1449
asbasbasbag56
(g72
g58
NtRp2757
(dp2758
g61
(dp2759
sg70
g2480
sg63
(lp2760
g56
(g77
g58
NtRp2761
(dp2762
g61
(dp2763
g81
g82
ssg70
g2757
sg63
(lp2764
S'PATH_INFO'
p2765
asbag56
(g77
g58
NtRp2766
(dp2767
g61
(dp2768
g88
g89
ssg70
g2757
sg63
(lp2769
S':'
asbag56
(g77
g58
NtRp2770
(dp2771
g61
(dp2772
sg70
g2757
sg63
(lp2773
g56
(g57
g58
NtRp2774
(dp2775
g61
(dp2776
g69
I3
ssg70
g2770
sg63
(lp2777
g1492
asbasbasbag56
(g72
g58
NtRp2778
(dp2779
g61
(dp2780
sg70
g2480
sg63
(lp2781
g56
(g77
g58
NtRp2782
(dp2783
g61
(dp2784
g81
g82
ssg70
g2778
sg63
(lp2785
S'QUERY_STRING'
p2786
asbag56
(g77
g58
NtRp2787
(dp2788
g61
(dp2789
g88
g89
ssg70
g2778
sg63
(lp2790
S':'
asbag56
(g77
g58
NtRp2791
(dp2792
g61
(dp2793
sg70
g2778
sg63
(lp2794
g56
(g57
g58
NtRp2795
(dp2796
g61
(dp2797
g69
I3
ssg70
g2791
sg63
(lp2798
S''
asbasbasbag56
(g72
g58
NtRp2799
(dp2800
g61
(dp2801
sg70
g2480
sg63
(lp2802
g56
(g77
g58
NtRp2803
(dp2804
g61
(dp2805
g81
g82
ssg70
g2799
sg63
(lp2806
S'REMOTE_ADDR'
p2807
asbag56
(g77
g58
NtRp2808
(dp2809
g61
(dp2810
g88
g89
ssg70
g2799
sg63
(lp2811
S':'
asbag56
(g77
g58
NtRp2812
(dp2813
g61
(dp2814
sg70
g2799
sg63
(lp2815
g56
(g57
g58
NtRp2816
(dp2817
g61
(dp2818
g69
I3
ssg70
g2812
sg63
(lp2819
g189
asbasbasbag56
(g72
g58
NtRp2820
(dp2821
g61
(dp2822
sg70
g2480
sg63
(lp2823
g56
(g77
g58
NtRp2824
(dp2825
g61
(dp2826
g81
g82
ssg70
g2820
sg63
(lp2827
S'REMOTE_PORT'
p2828
asbag56
(g77
g58
NtRp2829
(dp2830
g61
(dp2831
g88
g89
ssg70
g2820
sg63
(lp2832
S':'
asbag56
(g77
g58
NtRp2833
(dp2834
g61
(dp2835
sg70
g2820
sg63
(lp2836
g56
(g57
g58
NtRp2837
(dp2838
g61
(dp2839
g69
I3
ssg70
g2833
sg63
(lp2840
g1556
asbasbasbag56
(g72
g58
NtRp2841
(dp2842
g61
(dp2843
sg70
g2480
sg63
(lp2844
g56
(g77
g58
NtRp2845
(dp2846
g61
(dp2847
g81
g82
ssg70
g2841
sg63
(lp2848
S'REQUEST_METHOD'
p2849
asbag56
(g77
g58
NtRp2850
(dp2851
g61
(dp2852
g88
g89
ssg70
g2841
sg63
(lp2853
S':'
asbag56
(g77
g58
NtRp2854
(dp2855
g61
(dp2856
sg70
g2841
sg63
(lp2857
g56
(g57
g58
NtRp2858
(dp2859
g61
(dp2860
g69
I3
ssg70
g2854
sg63
(lp2861
g1578
asbasbasbag56
(g72
g58
NtRp2862
(dp2863
g61
(dp2864
sg70
g2480
sg63
(lp2865
g56
(g77
g58
NtRp2866
(dp2867
g61
(dp2868
g81
g82
ssg70
g2862
sg63
(lp2869
S'SCRIPT_NAME'
p2870
asbag56
(g77
g58
NtRp2871
(dp2872
g61
(dp2873
g88
g89
ssg70
g2862
sg63
(lp2874
S':'
asbag56
(g77
g58
NtRp2875
(dp2876
g61
(dp2877
sg70
g2862
sg63
(lp2878
g56
(g57
g58
NtRp2879
(dp2880
g61
(dp2881
g69
I3
ssg70
g2875
sg63
(lp2882
S''
asbasbasbag56
(g72
g58
NtRp2883
(dp2884
g61
(dp2885
sg70
g2480
sg63
(lp2886
g56
(g77
g58
NtRp2887
(dp2888
g61
(dp2889
g81
g82
ssg70
g2883
sg63
(lp2890
S'SERVER_NAME'
p2891
asbag56
(g77
g58
NtRp2892
(dp2893
g61
(dp2894
g88
g89
ssg70
g2883
sg63
(lp2895
S':'
asbag56
(g77
g58
NtRp2896
(dp2897
g61
(dp2898
sg70
g2883
sg63
(lp2899
g56
(g57
g58
NtRp2900
(dp2901
g61
(dp2902
g69
I3
ssg70
g2896
sg63
(lp2903
g1621
asbasbasbag56
(g72
g58
NtRp2904
(dp2905
g61
(dp2906
sg70
g2480
sg63
(lp2907
g56
(g77
g58
NtRp2908
(dp2909
g61
(dp2910
g81
g82
ssg70
g2904
sg63
(lp2911
S'SERVER_PORT'
p2912
asbag56
(g77
g58
NtRp2913
(dp2914
g61
(dp2915
g88
g89
ssg70
g2904
sg63
(lp2916
S':'
asbag56
(g77
g58
NtRp2917
(dp2918
g61
(dp2919
sg70
g2904
sg63
(lp2920
g56
(g57
g58
NtRp2921
(dp2922
g61
(dp2923
g69
I3
ssg70
g2917
sg63
(lp2924
g1643
asbasbasbag56
(g72
g58
NtRp2925
(dp2926
g61
(dp2927
sg70
g2480
sg63
(lp2928
g56
(g77
g58
NtRp2929
(dp2930
g61
(dp2931
g81
g82
ssg70
g2925
sg63
(lp2932
S'SERVER_PROTOCOL'
p2933
asbag56
(g77
g58
NtRp2934
(dp2935
g61
(dp2936
g88
g89
ssg70
g2925
sg63
(lp2937
S':'
asbag56
(g77
g58
NtRp2938
(dp2939
g61
(dp2940
sg70
g2925
sg63
(lp2941
g56
(g57
g58
NtRp2942
(dp2943
g61
(dp2944
g69
I3
ssg70
g2938
sg63
(lp2945
g1665
asbasbasbag56
(g72
g58
NtRp2946
(dp2947
g61
(dp2948
sg70
g2480
sg63
(lp2949
g56
(g77
g58
NtRp2950
(dp2951
g61
(dp2952
g81
g82
ssg70
g2946
sg63
(lp2953
S'SERVER_SOFTWARE'
p2954
asbag56
(g77
g58
NtRp2955
(dp2956
g61
(dp2957
g88
g89
ssg70
g2946
sg63
(lp2958
S':'
asbag56
(g77
g58
NtRp2959
(dp2960
g61
(dp2961
sg70
g2946
sg63
(lp2962
g56
(g57
g58
NtRp2963
(dp2964
g61
(dp2965
g69
I3
ssg70
g2959
sg63
(lp2966
g1687
asbasbasbag56
(g72
g58
NtRp2967
(dp2968
g61
(dp2969
sg70
g2480
sg63
(lp2970
g56
(g77
g58
NtRp2971
(dp2972
g61
(dp2973
g81
g82
ssg70
g2967
sg63
(lp2974
S'wsgi.errors'
p2975
asbag56
(g77
g58
NtRp2976
(dp2977
g61
(dp2978
g88
g89
ssg70
g2967
sg63
(lp2979
S':'
asbag56
(g77
g58
NtRp2980
(dp2981
g61
(dp2982
sg70
g2967
sg63
(lp2983
g56
(g57
g58
NtRp2984
(dp2985
g61
(dp2986
g69
I3
ssg70
g2980
sg63
(lp2987
S"<open file '<stderr>', mode 'w' at 0x100287270>"
p2988
asbasbasbag56
(g72
g58
NtRp2989
(dp2990
g61
(dp2991
sg70
g2480
sg63
(lp2992
g56
(g77
g58
NtRp2993
(dp2994
g61
(dp2995
g81
g82
ssg70
g2989
sg63
(lp2996
S'wsgi.file_wrapper'
p2997
asbag56
(g77
g58
NtRp2998
(dp2999
g61
(dp3000
g88
g89
ssg70
g2989
sg63
(lp3001
S':'
asbag56
(g77
g58
NtRp3002
(dp3003
g61
(dp3004
sg70
g2989
sg63
(lp3005
g56
(g57
g58
NtRp3006
(dp3007
g61
(dp3008
g69
I3
ssg70
g3002
sg63
(lp3009
S'<class gluon.rocket.FileWrapper at 0x101665db8>'
p3010
asbasbasbag56
(g72
g58
NtRp3011
(dp3012
g61
(dp3013
sg70
g2480
sg63
(lp3014
g56
(g77
g58
NtRp3015
(dp3016
g61
(dp3017
g81
g82
ssg70
g3011
sg63
(lp3018
S'wsgi.input'
p3019
asbag56
(g77
g58
NtRp3020
(dp3021
g61
(dp3022
g88
g89
ssg70
g3011
sg63
(lp3023
S':'
asbag56
(g77
g58
NtRp3024
(dp3025
g61
(dp3026
sg70
g3011
sg63
(lp3027
g56
(g57
g58
NtRp3028
(dp3029
g61
(dp3030
g69
I3
ssg70
g3024
sg63
(lp3031
S"<open file '<fdopen>', mode 'w+b' at 0x10413e0c0>"
p3032
asbasbasbag56
(g72
g58
NtRp3033
(dp3034
g61
(dp3035
sg70
g2480
sg63
(lp3036
g56
(g77
g58
NtRp3037
(dp3038
g61
(dp3039
g81
g82
ssg70
g3033
sg63
(lp3040
S'wsgi.multiprocess'
p3041
asbag56
(g77
g58
NtRp3042
(dp3043
g61
(dp3044
g88
g89
ssg70
g3033
sg63
(lp3045
S':'
asbag56
(g77
g58
NtRp3046
(dp3047
g61
(dp3048
sg70
g3033
sg63
(lp3049
g56
(g57
g58
NtRp3050
(dp3051
g61
(dp3052
g69
I3
ssg70
g3046
sg63
(lp3053
g99
asbasbasbag56
(g72
g58
NtRp3054
(dp3055
g61
(dp3056
sg70
g2480
sg63
(lp3057
g56
(g77
g58
NtRp3058
(dp3059
g61
(dp3060
g81
g82
ssg70
g3054
sg63
(lp3061
S'wsgi.multithread'
p3062
asbag56
(g77
g58
NtRp3063
(dp3064
g61
(dp3065
g88
g89
ssg70
g3054
sg63
(lp3066
S':'
asbag56
(g77
g58
NtRp3067
(dp3068
g61
(dp3069
sg70
g3054
sg63
(lp3070
g56
(g57
g58
NtRp3071
(dp3072
g61
(dp3073
g69
I3
ssg70
g3067
sg63
(lp3074
g1861
asbasbasbag56
(g72
g58
NtRp3075
(dp3076
g61
(dp3077
sg70
g2480
sg63
(lp3078
g56
(g77
g58
NtRp3079
(dp3080
g61
(dp3081
g81
g82
ssg70
g3075
sg63
(lp3082
S'wsgi.run_once'
p3083
asbag56
(g77
g58
NtRp3084
(dp3085
g61
(dp3086
g88
g89
ssg70
g3075
sg63
(lp3087
S':'
asbag56
(g77
g58
NtRp3088
(dp3089
g61
(dp3090
sg70
g3075
sg63
(lp3091
g56
(g57
g58
NtRp3092
(dp3093
g61
(dp3094
g69
I3
ssg70
g3088
sg63
(lp3095
g99
asbasbasbag56
(g72
g58
NtRp3096
(dp3097
g61
(dp3098
sg70
g2480
sg63
(lp3099
g56
(g77
g58
NtRp3100
(dp3101
g61
(dp3102
g81
g82
ssg70
g3096
sg63
(lp3103
S'wsgi.url_scheme'
p3104
asbag56
(g77
g58
NtRp3105
(dp3106
g61
(dp3107
g88
g89
ssg70
g3096
sg63
(lp3108
S':'
asbag56
(g77
g58
NtRp3109
(dp3110
g61
(dp3111
sg70
g3096
sg63
(lp3112
g56
(g57
g58
NtRp3113
(dp3114
g61
(dp3115
g69
I3
ssg70
g3109
sg63
(lp3116
g1904
asbasbasbag56
(g72
g58
NtRp3117
(dp3118
g61
(dp3119
sg70
g2480
sg63
(lp3120
g56
(g77
g58
NtRp3121
(dp3122
g61
(dp3123
g81
g82
ssg70
g3117
sg63
(lp3124
S'wsgi.version'
p3125
asbag56
(g77
g58
NtRp3126
(dp3127
g61
(dp3128
g88
g89
ssg70
g3117
sg63
(lp3129
S':'
asbag56
(g77
g58
NtRp3130
(dp3131
g61
(dp3132
sg70
g3117
sg63
(lp3133
g56
(g57
g58
NtRp3134
(dp3135
g61
(dp3136
g69
I3
ssg70
g3130
sg63
(lp3137
S'1'
asbasbasbasbasbasbasbasbasbasbasbasbasbsS'frames'
p3138
(lp3139
(dp3140
S'file'
p3141
S'/opt/local/Library/Frameworks/Python.framework/Versions/2.7/lib/python2.7/gluon/restricted.py'
p3142
sS'dump'
p3143
(dp3144
S'environment'
p3145
S"{'A': <class 'gluon.html.A'>, 'Auth': <class 'gluon.tools.Auth'>, 'B': <class 'gluon.html.B'>, 'BEAUTIFY': <class 'gluon.html.BEAUTIFY'>, 'BODY': <class 'gluon.html.BODY'>, 'BR': <class 'gluon.html.BR'>, 'BUTTON': <class 'gluon.html.BUTTON'>, 'CAT': <class 'gluon.html.CAT'>, 'CENTER': <class 'gluon.html.CENTER'>, 'CLEANUP': <class 'gluon.validators.CLEANUP'>, ...}"
p3146
sS'ccode'
p3147
S'<code object <module> at 0x101da81b0, file "/Use...pplications/init/controllers/default.py", line 3>'
p3148
ssS'lnum'
p3149
I192
sS'lines'
p3150
(dp3151
I192
S'        exec ccode in environment'
p3152
sI193
S'    except HTTP:'
p3153
sI194
S'        raise'
p3154
sI195
S'    except Exception, error:'
p3155
sI196
S'        # XXX Show exception in Wing IDE if running in debugger'
p3156
sI187
S'    try:'
p3157
sI188
S'        if type(code) == types.CodeType:'
p3158
sI189
S'            ccode = code'
p3159
sI190
S'        else:'
p3160
sI191
S'            ccode = compile2(code,layer)'
p3161
ssS'call'
p3162
S"(code='# -*- coding: utf-8 -*-\\n### required - do no del...t()\\n\\nresponse._vars=response._caller(submission)\\n', environment={'A': <class 'gluon.html.A'>, 'Auth': <class 'gluon.tools.Auth'>, 'B': <class 'gluon.html.B'>, 'BEAUTIFY': <class 'gluon.html.BEAUTIFY'>, 'BODY': <class 'gluon.html.BODY'>, 'BR': <class 'gluon.html.BR'>, 'BUTTON': <class 'gluon.html.BUTTON'>, 'CAT': <class 'gluon.html.CAT'>, 'CENTER': <class 'gluon.html.CENTER'>, 'CLEANUP': <class 'gluon.validators.CLEANUP'>, ...}, layer='/Users/hellais/Documents/code/globaleaks/ddb/apps/applications/init/controllers/default.py')"
p3163
sS'func'
p3164
S'restricted'
p3165
sa(dp3166
g3141
S'/Users/hellais/Documents/code/globaleaks/ddb/apps/applications/init/controllers/default.py'
p3167
sg3143
(dp3168
sg3149
I48
sg3150
(dp3169
I37
S"        response.flash = 'form accepted'"
p3170
sI38
S'    elif form.errors:'
p3171
sI39
S"        response.flash = 'form has errors'"
p3172
sI40
S'    else:'
p3173
sI41
S"        response.flash = 'please fill the form'"
p3174
sI42
S''
sI43
S'    return dict(form=form)'
p3175
sI44
S''
sI45
S'def error():'
p3176
sI46
S'    return dict()'
p3177
ssg3162
S'()'
p3178
sg3164
S'<module>'
p3179
sa(dp3180
g3141
S'/opt/local/Library/Frameworks/Python.framework/Versions/2.7/lib/python2.7/gluon/globals.py'
p3181
sg3143
(dp3182
S'self'
p3183
S'undefined'
p3184
sS'f'
S'<function submission>'
p3185
ssg3149
I145
sg3150
(dp3186
I140
S'        self.meta = Storage()      # used by web2py_ajax.html'
p3187
sI141
S'        self.menu = []             # used by the default view layout'
p3188
sI142
S'        self.files = []            # used by web2py_ajax.html'
p3189
sI143
S'        self.generic_patterns = [] # patterns to allow generic views'
p3190
sI144
S'        self._vars = None'
p3191
sI145
S'        self._caller = lambda f: f()'
p3192
sI146
S'        self._view_environment = None'
p3193
sI147
S'        self._custom_commit = None'
p3194
sI148
S'        self._custom_rollback = None'
p3195
sI149
S''
ssg3162
S'(f=<function submission>)'
p3196
sg3164
S'<lambda>'
p3197
sa(dp3198
g3141
S'/Users/hellais/Documents/code/globaleaks/ddb/apps/applications/init/controllers/default.py'
p3199
sg3143
(dp3200
S'global request'
p3201
S"<Storage {'is_local': True, 'function': 'submiss....18-29-32.c97e1686-bcc2-4226-acca-411a8d3421e8'}>"
p3202
sS'request.vars'
p3203
S"<Storage {'Tags': 'dshjdsa, dasd, ', 'material':...a-3a7bfcb050c8', '_formname': 'no_table/create'}>"
p3204
sS'global session'
p3205
S'<Storage {\'_formkey[default]\': \'626296a5-4997-42...hash\': \'|@\\xb5\\xf9@\\x16\\xea"m{+\\xa6\\xb6 \\n\\x8a\'}>'
p3206
sS'form'
p3207
S'<gluon.sqlhtml.SQLFORM object>'
p3208
sS'form.accepts'
p3209
S'<bound method SQLFORM.accepts of <gluon.sqlhtml.SQLFORM object>>'
p3210
ssg3149
I36
sg3150
(dp3211
I32
S"        Field('material', 'upload'),"
p3212
sI33
S'        Field(\'dislaimer\', \'boolean\', requires=IS_EQUAL_TO("on", error_message="Please read the disclaimer"))'
p3213
sI34
S'        )'
p3214
sI35
S''
sI36
S'    if form.accepts(request.vars, session):'
p3215
sI37
S"        response.flash = 'form accepted'"
p3216
sI38
S'    elif form.errors:'
p3217
sI39
S"        response.flash = 'form has errors'"
p3218
sI40
S'    else:'
p3219
sI31
S"        Field('Tags'),"
p3220
ssg3162
S'()'
p3221
sg3164
S'submission'
p3222
sa(dp3223
g3141
S'/opt/local/Library/Frameworks/Python.framework/Versions/2.7/lib/python2.7/gluon/sqlhtml.py'
p3224
sg3143
(dp3225
S'field'
p3226
S'<gluon.dal.Field object>'
p3227
sS'newfilename'
p3228
g3184
sS'source_file'
p3229
S"<open file '<fdopen>', mode 'w+b'>"
p3230
sS'original_filename'
p3231
S"'bing_ssl_error.png'"
p3232
sS'field.store'
p3233
S'<bound method Field.store of <gluon.dal.Field object>>'
p3234
ssg3149
I1158
sg3150
(dp3235
I1153
S'                    (source_file, original_filename) = (f.file, f.filename)'
p3236
sI1154
S'                elif isinstance(f, (str, unicode)):'
p3237
sI1155
S'                    ### do not know why this happens, it should not'
p3238
sI1156
S'                    (source_file, original_filename) = \\'
p3239
sI1157
S"                        (cStringIO.StringIO(f), 'file.txt')"
p3240
sI1158
S'                newfilename = field.store(source_file, original_filename)'
p3241
sI1159
S'                # this line is for backward compatibility only'
p3242
sI1160
S"                self.vars['%s_newfilename' % fieldname] = newfilename"
p3243
sI1161
S'                fields[fieldname] = newfilename'
p3244
sI1162
S'                if isinstance(field.uploadfield, str):'
p3245
ssg3162
S'(self=<gluon.sqlhtml.SQLFORM object>, request_vars=<Storage {\'Tags\': \'dshjdsa, dasd, \', \'material\':...a-3a7bfcb050c8\', \'_formname\': \'no_table/create\'}>, session=<Storage {\'_formkey[default]\': \'626296a5-4997-42...hash\': \'|@\\xb5\\xf9@\\x16\\xea"m{+\\xa6\\xb6 \\n\\x8a\'}>, formname=\'no_table/create\', keepvalues=False, onvalidation=None, dbio=True, hideerror=False, detect_record_change=False)'
p3246
sg3164
S'accepts'
p3247
sa(dp3248
g3141
S'/opt/local/Library/Frameworks/Python.framework/Versions/2.7/lib/python2.7/gluon/dal.py'
p3249
sg3143
(dp3250
S'builtinRuntimeError'
p3251
S"<type 'exceptions.RuntimeError'>"
p3252
ssg3149
I5281
sg3150
(dp3253
I5280
S'            else:'
p3254
sI5281
S'                raise RuntimeError, "you must specify a Field(...,uploadfolder=...)"'
p3255
sI5282
S'            if self.uploadseparate:'
p3256
sI5283
S'                path = os.path.join(path,"%s.%s" % (self._tablename, self.name),uuid_key[:2])'
p3257
sI5284
S'            if not os.path.exists(path):'
p3258
sI5285
S'                os.makedirs(path)'
p3259
sI5276
S'            elif self.uploadfolder:'
p3260
sI5277
S'                path = self.uploadfolder'
p3261
sI5278
S'            elif self.db._adapter.folder:'
p3262
sI5279
S"                path = os.path.join(self.db._adapter.folder, '..', 'uploads')"
p3263
ssg3162
S"(self=<gluon.dal.Field object>, file=<open file '<fdopen>', mode 'w+b'>, filename='bing_ssl_error.png', path=None)"
p3264
sg3164
S'store'
p3265
sasS'pyver'
p3266
S'Python 2.7.1: /opt/local/Library/Frameworks/Python.framework/Versions/2.7/Resources/Python.app/Contents/MacOS/Python'
p3267
sS'session'
p3268
g56
(g57
g58
NtRp3269
(dp3270
g61
(dp3271
sg63
(lp3272
g56
(g65
g58
NtRp3273
(dp3274
g61
(dp3275
g69
I5
ssg70
Nsg63
(lp3276
sbasbsS'etype'
p3277
S"<type 'exceptions.RuntimeError'>"
p3278
sS'date'
p3279
S'Sat Aug 27 18:29:32 2011'
p3280
sS'response'
p3281
g56
(g57
g58
NtRp3282
(dp3283
g61
(dp3284
sg63
(lp3285
g56
(g65
g58
NtRp3286
(dp3287
g61
(dp3288
g69
I5
ssg70
Nsg63
(lp3289
g56
(g72
g58
NtRp3290
(dp3291
g61
(dp3292
sg70
g3286
sg63
(lp3293
g56
(g77
g58
NtRp3294
(dp3295
g61
(dp3296
g81
g82
ssg70
g3290
sg63
(lp3297
g154
asbag56
(g77
g58
NtRp3298
(dp3299
g61
(dp3300
g88
g89
ssg70
g3290
sg63
(lp3301
S':'
asbag56
(g77
g58
NtRp3302
(dp3303
g61
(dp3304
sg70
g3290
sg63
(lp3305
g56
(g57
g58
NtRp3306
(dp3307
g61
(dp3308
g69
I5
ssg70
g3302
sg63
(lp3309
S'<cStringIO.StringO object at 0x101d52998>'
p3310
asbasbasbag56
(g72
g58
NtRp3311
(dp3312
g61
(dp3313
sg70
g3286
sg63
(lp3314
g56
(g77
g58
NtRp3315
(dp3316
g61
(dp3317
g81
g82
ssg70
g3311
sg63
(lp3318
g220
asbag56
(g77
g58
NtRp3319
(dp3320
g61
(dp3321
g88
g89
ssg70
g3311
sg63
(lp3322
S':'
asbag56
(g77
g58
NtRp3323
(dp3324
g61
(dp3325
sg70
g3311
sg63
(lp3326
g56
(g57
g58
NtRp3327
(dp3328
g61
(dp3329
g69
I5
ssg70
g3323
sg63
(lp3330
g56
(g65
g58
NtRp3331
(dp3332
g61
(dp3333
g69
I4
ssg70
Nsg63
(lp3334
g56
(g72
g58
NtRp3335
(dp3336
g61
(dp3337
sg70
g3331
sg63
(lp3338
g56
(g77
g58
NtRp3339
(dp3340
g61
(dp3341
g81
g82
ssg70
g3335
sg63
(lp3342
S'session_id_init'
p3343
asbag56
(g77
g58
NtRp3344
(dp3345
g61
(dp3346
g88
g89
ssg70
g3335
sg63
(lp3347
S':'
asbag56
(g77
g58
NtRp3348
(dp3349
g61
(dp3350
sg70
g3335
sg63
(lp3351
g56
(g57
g58
NtRp3352
(dp3353
g61
(dp3354
g69
I4
ssg70
g3348
sg63
(lp3355
g56
(g65
g58
NtRp3356
(dp3357
g61
(dp3358
g69
I3
ssg70
Nsg63
(lp3359
g56
(g72
g58
NtRp3360
(dp3361
g61
(dp3362
sg70
g3356
sg63
(lp3363
g56
(g77
g58
NtRp3364
(dp3365
g61
(dp3366
g81
g82
ssg70
g3360
sg63
(lp3367
g270
asbag56
(g77
g58
NtRp3368
(dp3369
g61
(dp3370
g88
g89
ssg70
g3360
sg63
(lp3371
S':'
asbag56
(g77
g58
NtRp3372
(dp3373
g61
(dp3374
sg70
g3360
sg63
(lp3375
g56
(g57
g58
NtRp3376
(dp3377
g61
(dp3378
g69
I3
ssg70
g3372
sg63
(lp3379
S''
asbasbasbag56
(g72
g58
NtRp3380
(dp3381
g61
(dp3382
sg70
g3356
sg63
(lp3383
g56
(g77
g58
NtRp3384
(dp3385
g61
(dp3386
g81
g82
ssg70
g3380
sg63
(lp3387
g291
asbag56
(g77
g58
NtRp3388
(dp3389
g61
(dp3390
g88
g89
ssg70
g3380
sg63
(lp3391
S':'
asbag56
(g77
g58
NtRp3392
(dp3393
g61
(dp3394
sg70
g3380
sg63
(lp3395
g56
(g57
g58
NtRp3396
(dp3397
g61
(dp3398
g69
I3
ssg70
g3392
sg63
(lp3399
S''
asbasbasbag56
(g72
g58
NtRp3400
(dp3401
g61
(dp3402
sg70
g3356
sg63
(lp3403
g56
(g77
g58
NtRp3404
(dp3405
g61
(dp3406
g81
g82
ssg70
g3400
sg63
(lp3407
g312
asbag56
(g77
g58
NtRp3408
(dp3409
g61
(dp3410
g88
g89
ssg70
g3400
sg63
(lp3411
S':'
asbag56
(g77
g58
NtRp3412
(dp3413
g61
(dp3414
sg70
g3400
sg63
(lp3415
g56
(g57
g58
NtRp3416
(dp3417
g61
(dp3418
g69
I3
ssg70
g3412
sg63
(lp3419
S''
asbasbasbag56
(g72
g58
NtRp3420
(dp3421
g61
(dp3422
sg70
g3356
sg63
(lp3423
g56
(g77
g58
NtRp3424
(dp3425
g61
(dp3426
g81
g82
ssg70
g3420
sg63
(lp3427
g333
asbag56
(g77
g58
NtRp3428
(dp3429
g61
(dp3430
g88
g89
ssg70
g3420
sg63
(lp3431
S':'
asbag56
(g77
g58
NtRp3432
(dp3433
g61
(dp3434
sg70
g3420
sg63
(lp3435
g56
(g57
g58
NtRp3436
(dp3437
g61
(dp3438
g69
I3
ssg70
g3432
sg63
(lp3439
S''
asbasbasbag56
(g72
g58
NtRp3440
(dp3441
g61
(dp3442
sg70
g3356
sg63
(lp3443
g56
(g77
g58
NtRp3444
(dp3445
g61
(dp3446
g81
g82
ssg70
g3440
sg63
(lp3447
g354
asbag56
(g77
g58
NtRp3448
(dp3449
g61
(dp3450
g88
g89
ssg70
g3440
sg63
(lp3451
S':'
asbag56
(g77
g58
NtRp3452
(dp3453
g61
(dp3454
sg70
g3440
sg63
(lp3455
g56
(g57
g58
NtRp3456
(dp3457
g61
(dp3458
g69
I3
ssg70
g3452
sg63
(lp3459
S''
asbasbasbag56
(g72
g58
NtRp3460
(dp3461
g61
(dp3462
sg70
g3356
sg63
(lp3463
g56
(g77
g58
NtRp3464
(dp3465
g61
(dp3466
g81
g82
ssg70
g3460
sg63
(lp3467
g375
asbag56
(g77
g58
NtRp3468
(dp3469
g61
(dp3470
g88
g89
ssg70
g3460
sg63
(lp3471
S':'
asbag56
(g77
g58
NtRp3472
(dp3473
g61
(dp3474
sg70
g3460
sg63
(lp3475
g56
(g57
g58
NtRp3476
(dp3477
g61
(dp3478
g69
I3
ssg70
g3472
sg63
(lp3479
S'/'
asbasbasbag56
(g72
g58
NtRp3480
(dp3481
g61
(dp3482
sg70
g3356
sg63
(lp3483
g56
(g77
g58
NtRp3484
(dp3485
g61
(dp3486
g81
g82
ssg70
g3480
sg63
(lp3487
g396
asbag56
(g77
g58
NtRp3488
(dp3489
g61
(dp3490
g88
g89
ssg70
g3480
sg63
(lp3491
S':'
asbag56
(g77
g58
NtRp3492
(dp3493
g61
(dp3494
sg70
g3480
sg63
(lp3495
g56
(g57
g58
NtRp3496
(dp3497
g61
(dp3498
g69
I3
ssg70
g3492
sg63
(lp3499
S''
asbasbasbag56
(g72
g58
NtRp3500
(dp3501
g61
(dp3502
sg70
g3356
sg63
(lp3503
g56
(g77
g58
NtRp3504
(dp3505
g61
(dp3506
g81
g82
ssg70
g3500
sg63
(lp3507
g417
asbag56
(g77
g58
NtRp3508
(dp3509
g61
(dp3510
g88
g89
ssg70
g3500
sg63
(lp3511
S':'
asbag56
(g77
g58
NtRp3512
(dp3513
g61
(dp3514
sg70
g3500
sg63
(lp3515
g56
(g57
g58
NtRp3516
(dp3517
g61
(dp3518
g69
I3
ssg70
g3512
sg63
(lp3519
S''
asbasbasbasbasbasbasbasbasbasbasbag56
(g72
g58
NtRp3520
(dp3521
g61
(dp3522
sg70
g3286
sg63
(lp3523
g56
(g77
g58
NtRp3524
(dp3525
g61
(dp3526
g81
g82
ssg70
g3520
sg63
(lp3527
S'files'
p3528
asbag56
(g77
g58
NtRp3529
(dp3530
g61
(dp3531
g88
g89
ssg70
g3520
sg63
(lp3532
S':'
asbag56
(g77
g58
NtRp3533
(dp3534
g61
(dp3535
sg70
g3520
sg63
(lp3536
g56
(g57
g58
NtRp3537
(dp3538
g61
(dp3539
g69
I5
ssg70
g3533
sg63
(lp3540
g56
(g65
g58
NtRp3541
(dp3542
g61
(dp3543
g69
I4
ssg70
Nsg63
(lp3544
sbasbasbasbag56
(g72
g58
NtRp3545
(dp3546
g61
(dp3547
sg70
g3286
sg63
(lp3548
g56
(g77
g58
NtRp3549
(dp3550
g61
(dp3551
g81
g82
ssg70
g3545
sg63
(lp3552
S'flash'
p3553
asbag56
(g77
g58
NtRp3554
(dp3555
g61
(dp3556
g88
g89
ssg70
g3545
sg63
(lp3557
S':'
asbag56
(g77
g58
NtRp3558
(dp3559
g61
(dp3560
sg70
g3545
sg63
(lp3561
g56
(g57
g58
NtRp3562
(dp3563
g61
(dp3564
g69
I5
ssg70
g3558
sg63
(lp3565
S''
asbasbasbag56
(g72
g58
NtRp3566
(dp3567
g61
(dp3568
sg70
g3286
sg63
(lp3569
g56
(g77
g58
NtRp3570
(dp3571
g61
(dp3572
g81
g82
ssg70
g3566
sg63
(lp3573
S'generic_patterns'
p3574
asbag56
(g77
g58
NtRp3575
(dp3576
g61
(dp3577
g88
g89
ssg70
g3566
sg63
(lp3578
S':'
asbag56
(g77
g58
NtRp3579
(dp3580
g61
(dp3581
sg70
g3566
sg63
(lp3582
g56
(g57
g58
NtRp3583
(dp3584
g61
(dp3585
g69
I5
ssg70
g3579
sg63
(lp3586
g56
(g65
g58
NtRp3587
(dp3588
g61
(dp3589
g69
I4
ssg70
Nsg63
(lp3590
sbasbasbasbag56
(g72
g58
NtRp3591
(dp3592
g61
(dp3593
sg70
g3286
sg63
(lp3594
g56
(g77
g58
NtRp3595
(dp3596
g61
(dp3597
g81
g82
ssg70
g3591
sg63
(lp3598
S'headers'
p3599
asbag56
(g77
g58
NtRp3600
(dp3601
g61
(dp3602
g88
g89
ssg70
g3591
sg63
(lp3603
S':'
asbag56
(g77
g58
NtRp3604
(dp3605
g61
(dp3606
sg70
g3591
sg63
(lp3607
g56
(g57
g58
NtRp3608
(dp3609
g61
(dp3610
g69
I5
ssg70
g3604
sg63
(lp3611
g56
(g65
g58
NtRp3612
(dp3613
g61
(dp3614
g69
I4
ssg70
Nsg63
(lp3615
g56
(g72
g58
NtRp3616
(dp3617
g61
(dp3618
sg70
g3612
sg63
(lp3619
g56
(g77
g58
NtRp3620
(dp3621
g61
(dp3622
g81
g82
ssg70
g3616
sg63
(lp3623
S'Cache-Control'
p3624
asbag56
(g77
g58
NtRp3625
(dp3626
g61
(dp3627
g88
g89
ssg70
g3616
sg63
(lp3628
S':'
asbag56
(g77
g58
NtRp3629
(dp3630
g61
(dp3631
sg70
g3616
sg63
(lp3632
g56
(g57
g58
NtRp3633
(dp3634
g61
(dp3635
g69
I4
ssg70
g3629
sg63
(lp3636
S'no-store, no-cache, must-revalidate, post-check=0, pre-check=0'
p3637
asbasbasbag56
(g72
g58
NtRp3638
(dp3639
g61
(dp3640
sg70
g3612
sg63
(lp3641
g56
(g77
g58
NtRp3642
(dp3643
g61
(dp3644
g81
g82
ssg70
g3638
sg63
(lp3645
S'Content-Type'
p3646
asbag56
(g77
g58
NtRp3647
(dp3648
g61
(dp3649
g88
g89
ssg70
g3638
sg63
(lp3650
S':'
asbag56
(g77
g58
NtRp3651
(dp3652
g61
(dp3653
sg70
g3638
sg63
(lp3654
g56
(g57
g58
NtRp3655
(dp3656
g61
(dp3657
g69
I4
ssg70
g3651
sg63
(lp3658
S'text/html; charset=utf-8'
p3659
asbasbasbag56
(g72
g58
NtRp3660
(dp3661
g61
(dp3662
sg70
g3612
sg63
(lp3663
g56
(g77
g58
NtRp3664
(dp3665
g61
(dp3666
g81
g82
ssg70
g3660
sg63
(lp3667
S'Expires'
p3668
asbag56
(g77
g58
NtRp3669
(dp3670
g61
(dp3671
g88
g89
ssg70
g3660
sg63
(lp3672
S':'
asbag56
(g77
g58
NtRp3673
(dp3674
g61
(dp3675
sg70
g3660
sg63
(lp3676
g56
(g57
g58
NtRp3677
(dp3678
g61
(dp3679
g69
I4
ssg70
g3673
sg63
(lp3680
S'Sat, 27 Aug 2011 16:29:32 GMT'
p3681
asbasbasbag56
(g72
g58
NtRp3682
(dp3683
g61
(dp3684
sg70
g3612
sg63
(lp3685
g56
(g77
g58
NtRp3686
(dp3687
g61
(dp3688
g81
g82
ssg70
g3682
sg63
(lp3689
S'Pragma'
p3690
asbag56
(g77
g58
NtRp3691
(dp3692
g61
(dp3693
g88
g89
ssg70
g3682
sg63
(lp3694
S':'
asbag56
(g77
g58
NtRp3695
(dp3696
g61
(dp3697
sg70
g3682
sg63
(lp3698
g56
(g57
g58
NtRp3699
(dp3700
g61
(dp3701
g69
I4
ssg70
g3695
sg63
(lp3702
S'no-cache'
p3703
asbasbasbag56
(g72
g58
NtRp3704
(dp3705
g61
(dp3706
sg70
g3612
sg63
(lp3707
g56
(g77
g58
NtRp3708
(dp3709
g61
(dp3710
g81
g82
ssg70
g3704
sg63
(lp3711
S'X-Powered-By'
p3712
asbag56
(g77
g58
NtRp3713
(dp3714
g61
(dp3715
g88
g89
ssg70
g3704
sg63
(lp3716
S':'
asbag56
(g77
g58
NtRp3717
(dp3718
g61
(dp3719
sg70
g3704
sg63
(lp3720
g56
(g57
g58
NtRp3721
(dp3722
g61
(dp3723
g69
I4
ssg70
g3717
sg63
(lp3724
S'web2py'
p3725
asbasbasbasbasbasbasbag56
(g72
g58
NtRp3726
(dp3727
g61
(dp3728
sg70
g3286
sg63
(lp3729
g56
(g77
g58
NtRp3730
(dp3731
g61
(dp3732
g81
g82
ssg70
g3726
sg63
(lp3733
S'menu'
p3734
asbag56
(g77
g58
NtRp3735
(dp3736
g61
(dp3737
g88
g89
ssg70
g3726
sg63
(lp3738
S':'
asbag56
(g77
g58
NtRp3739
(dp3740
g61
(dp3741
sg70
g3726
sg63
(lp3742
g56
(g57
g58
NtRp3743
(dp3744
g61
(dp3745
g69
I5
ssg70
g3739
sg63
(lp3746
g56
(g65
g58
NtRp3747
(dp3748
g61
(dp3749
g69
I4
ssg70
Nsg63
(lp3750
g56
(g72
g58
NtRp3751
(dp3752
g61
(dp3753
sg70
g3747
sg63
(lp3754
g56
(g77
g58
NtRp3755
(dp3756
g61
(dp3757
sg70
g3751
sg63
(lp3758
g56
(g57
g58
NtRp3759
(dp3760
g61
(dp3761
g69
I4
ssg70
g3755
sg63
(lp3762
g56
(g65
g58
NtRp3763
(dp3764
g61
(dp3765
g69
I3
ssg70
Nsg63
(lp3766
g56
(g72
g58
NtRp3767
(dp3768
g61
(dp3769
sg70
g3763
sg63
(lp3770
g56
(g77
g58
NtRp3771
(dp3772
g61
(dp3773
sg70
g3767
sg63
(lp3774
g56
(g57
g58
NtRp3775
(dp3776
g61
(dp3777
g69
I3
ssg70
g3771
sg63
(lp3778
cgluon.languages
lazyT_unpickle
p3779
(S't\x05\x00\x00\x00Index'
tRp3780
asbasbasbag56
(g72
g58
NtRp3781
(dp3782
g61
(dp3783
sg70
g3763
sg63
(lp3784
g56
(g77
g58
NtRp3785
(dp3786
g61
(dp3787
sg70
g3781
sg63
(lp3788
g56
(g57
g58
NtRp3789
(dp3790
g61
(dp3791
g69
I3
ssg70
g3785
sg63
(lp3792
g99
asbasbasbag56
(g72
g58
NtRp3793
(dp3794
g61
(dp3795
sg70
g3763
sg63
(lp3796
g56
(g77
g58
NtRp3797
(dp3798
g61
(dp3799
sg70
g3793
sg63
(lp3800
g56
(g57
g58
NtRp3801
(dp3802
g61
(dp3803
g69
I3
ssg70
g3797
sg63
(lp3804
S'/init/default/index'
p3805
asbasbasbag56
(g72
g58
NtRp3806
(dp3807
g61
(dp3808
sg70
g3763
sg63
(lp3809
g56
(g77
g58
NtRp3810
(dp3811
g61
(dp3812
sg70
g3806
sg63
(lp3813
g56
(g57
g58
NtRp3814
(dp3815
g61
(dp3816
g69
I3
ssg70
g3810
sg63
(lp3817
g56
(g65
g58
NtRp3818
(dp3819
g61
(dp3820
g69
I2
ssg70
Nsg63
(lp3821
sbasbasbasbasbasbasbasbasbasbasbasbag56
(g72
g58
NtRp3822
(dp3823
g61
(dp3824
sg70
g3286
sg63
(lp3825
g56
(g77
g58
NtRp3826
(dp3827
g61
(dp3828
g81
g82
ssg70
g3822
sg63
(lp3829
S'meta'
p3830
asbag56
(g77
g58
NtRp3831
(dp3832
g61
(dp3833
g88
g89
ssg70
g3822
sg63
(lp3834
S':'
asbag56
(g77
g58
NtRp3835
(dp3836
g61
(dp3837
sg70
g3822
sg63
(lp3838
g56
(g57
g58
NtRp3839
(dp3840
g61
(dp3841
g69
I5
ssg70
g3835
sg63
(lp3842
g56
(g65
g58
NtRp3843
(dp3844
g61
(dp3845
g69
I4
ssg70
Nsg63
(lp3846
g56
(g72
g58
NtRp3847
(dp3848
g61
(dp3849
sg70
g3843
sg63
(lp3850
g56
(g77
g58
NtRp3851
(dp3852
g61
(dp3853
g81
g82
ssg70
g3847
sg63
(lp3854
S'author'
p3855
asbag56
(g77
g58
NtRp3856
(dp3857
g61
(dp3858
g88
g89
ssg70
g3847
sg63
(lp3859
S':'
asbag56
(g77
g58
NtRp3860
(dp3861
g61
(dp3862
sg70
g3847
sg63
(lp3863
g56
(g57
g58
NtRp3864
(dp3865
g61
(dp3866
g69
I4
ssg70
g3860
sg63
(lp3867
S'RGC <info@globaleaks.org>'
p3868
asbasbasbag56
(g72
g58
NtRp3869
(dp3870
g61
(dp3871
sg70
g3843
sg63
(lp3872
g56
(g77
g58
NtRp3873
(dp3874
g61
(dp3875
g81
g82
ssg70
g3869
sg63
(lp3876
S'description'
p3877
asbag56
(g77
g58
NtRp3878
(dp3879
g61
(dp3880
g88
g89
ssg70
g3869
sg63
(lp3881
S':'
asbag56
(g77
g58
NtRp3882
(dp3883
g61
(dp3884
sg70
g3869
sg63
(lp3885
g56
(g57
g58
NtRp3886
(dp3887
g61
(dp3888
g69
I4
ssg70
g3882
sg63
(lp3889
S''
asbasbasbag56
(g72
g58
NtRp3890
(dp3891
g61
(dp3892
sg70
g3843
sg63
(lp3893
g56
(g77
g58
NtRp3894
(dp3895
g61
(dp3896
g81
g82
ssg70
g3890
sg63
(lp3897
S'keywords'
p3898
asbag56
(g77
g58
NtRp3899
(dp3900
g61
(dp3901
g88
g89
ssg70
g3890
sg63
(lp3902
S':'
asbag56
(g77
g58
NtRp3903
(dp3904
g61
(dp3905
sg70
g3890
sg63
(lp3906
g56
(g57
g58
NtRp3907
(dp3908
g61
(dp3909
g69
I4
ssg70
g3903
sg63
(lp3910
S''
asbasbasbasbasbasbasbag56
(g72
g58
NtRp3911
(dp3912
g61
(dp3913
sg70
g3286
sg63
(lp3914
g56
(g77
g58
NtRp3915
(dp3916
g61
(dp3917
g81
g82
ssg70
g3911
sg63
(lp3918
S'postprocessing'
p3919
asbag56
(g77
g58
NtRp3920
(dp3921
g61
(dp3922
g88
g89
ssg70
g3911
sg63
(lp3923
S':'
asbag56
(g77
g58
NtRp3924
(dp3925
g61
(dp3926
sg70
g3911
sg63
(lp3927
g56
(g57
g58
NtRp3928
(dp3929
g61
(dp3930
g69
I5
ssg70
g3924
sg63
(lp3931
g56
(g65
g58
NtRp3932
(dp3933
g61
(dp3934
g69
I4
ssg70
Nsg63
(lp3935
sbasbasbasbag56
(g72
g58
NtRp3936
(dp3937
g61
(dp3938
sg70
g3286
sg63
(lp3939
g56
(g77
g58
NtRp3940
(dp3941
g61
(dp3942
g81
g82
ssg70
g3936
sg63
(lp3943
S'session_file'
p3944
asbag56
(g77
g58
NtRp3945
(dp3946
g61
(dp3947
g88
g89
ssg70
g3936
sg63
(lp3948
S':'
asbag56
(g77
g58
NtRp3949
(dp3950
g61
(dp3951
sg70
g3936
sg63
(lp3952
g56
(g57
g58
NtRp3953
(dp3954
g61
(dp3955
g69
I5
ssg70
g3949
sg63
(lp3956
S"<open file '/Users/hellais/Documents/code/globaleaks/ddb/apps/applications/init/sessions/127.0.0.1-a8551263-bc3c-430c-abb2-8711fac671c1', mode 'rb+' at 0x10413e270>"
p3957
asbasbasbag56
(g72
g58
NtRp3958
(dp3959
g61
(dp3960
sg70
g3286
sg63
(lp3961
g56
(g77
g58
NtRp3962
(dp3963
g61
(dp3964
g81
g82
ssg70
g3958
sg63
(lp3965
S'session_filename'
p3966
asbag56
(g77
g58
NtRp3967
(dp3968
g61
(dp3969
g88
g89
ssg70
g3958
sg63
(lp3970
S':'
asbag56
(g77
g58
NtRp3971
(dp3972
g61
(dp3973
sg70
g3958
sg63
(lp3974
g56
(g57
g58
NtRp3975
(dp3976
g61
(dp3977
g69
I5
ssg70
g3971
sg63
(lp3978
S'/Users/hellais/Documents/code/globaleaks/ddb/apps/applications/init/sessions/127.0.0.1-a8551263-bc3c-430c-abb2-8711fac671c1'
p3979
asbasbasbag56
(g72
g58
NtRp3980
(dp3981
g61
(dp3982
sg70
g3286
sg63
(lp3983
g56
(g77
g58
NtRp3984
(dp3985
g61
(dp3986
g81
g82
ssg70
g3980
sg63
(lp3987
S'session_id'
p3988
asbag56
(g77
g58
NtRp3989
(dp3990
g61
(dp3991
g88
g89
ssg70
g3980
sg63
(lp3992
S':'
asbag56
(g77
g58
NtRp3993
(dp3994
g61
(dp3995
sg70
g3980
sg63
(lp3996
g56
(g57
g58
NtRp3997
(dp3998
g61
(dp3999
g69
I5
ssg70
g3993
sg63
(lp4000
S'127.0.0.1-a8551263-bc3c-430c-abb2-8711fac671c1'
p4001
asbasbasbag56
(g72
g58
NtRp4002
(dp4003
g61
(dp4004
sg70
g3286
sg63
(lp4005
g56
(g77
g58
NtRp4006
(dp4007
g61
(dp4008
g81
g82
ssg70
g4002
sg63
(lp4009
S'session_id_name'
p4010
asbag56
(g77
g58
NtRp4011
(dp4012
g61
(dp4013
g88
g89
ssg70
g4002
sg63
(lp4014
S':'
asbag56
(g77
g58
NtRp4015
(dp4016
g61
(dp4017
sg70
g4002
sg63
(lp4018
g56
(g57
g58
NtRp4019
(dp4020
g61
(dp4021
g69
I5
ssg70
g4015
sg63
(lp4022
g3343
asbasbasbag56
(g72
g58
NtRp4023
(dp4024
g61
(dp4025
sg70
g3286
sg63
(lp4026
g56
(g77
g58
NtRp4027
(dp4028
g61
(dp4029
g81
g82
ssg70
g4023
sg63
(lp4030
S'session_locked'
p4031
asbag56
(g77
g58
NtRp4032
(dp4033
g61
(dp4034
g88
g89
ssg70
g4023
sg63
(lp4035
S':'
asbag56
(g77
g58
NtRp4036
(dp4037
g61
(dp4038
sg70
g4023
sg63
(lp4039
g56
(g57
g58
NtRp4040
(dp4041
g61
(dp4042
g69
I5
ssg70
g4036
sg63
(lp4043
g1861
asbasbasbag56
(g72
g58
NtRp4044
(dp4045
g61
(dp4046
sg70
g3286
sg63
(lp4047
g56
(g77
g58
NtRp4048
(dp4049
g61
(dp4050
g81
g82
ssg70
g4044
sg63
(lp4051
S'session_new'
p4052
asbag56
(g77
g58
NtRp4053
(dp4054
g61
(dp4055
g88
g89
ssg70
g4044
sg63
(lp4056
S':'
asbag56
(g77
g58
NtRp4057
(dp4058
g61
(dp4059
sg70
g4044
sg63
(lp4060
g56
(g57
g58
NtRp4061
(dp4062
g61
(dp4063
g69
I5
ssg70
g4057
sg63
(lp4064
g99
asbasbasbag56
(g72
g58
NtRp4065
(dp4066
g61
(dp4067
sg70
g3286
sg63
(lp4068
g56
(g77
g58
NtRp4069
(dp4070
g61
(dp4071
g81
g82
ssg70
g4065
sg63
(lp4072
S'status'
p4073
asbag56
(g77
g58
NtRp4074
(dp4075
g61
(dp4076
g88
g89
ssg70
g4065
sg63
(lp4077
S':'
asbag56
(g77
g58
NtRp4078
(dp4079
g61
(dp4080
sg70
g4065
sg63
(lp4081
g56
(g57
g58
NtRp4082
(dp4083
g61
(dp4084
g69
I5
ssg70
g4078
sg63
(lp4085
S'200'
p4086
asbasbasbag56
(g72
g58
NtRp4087
(dp4088
g61
(dp4089
sg70
g3286
sg63
(lp4090
g56
(g77
g58
NtRp4091
(dp4092
g61
(dp4093
g81
g82
ssg70
g4087
sg63
(lp4094
S'subtitle'
p4095
asbag56
(g77
g58
NtRp4096
(dp4097
g61
(dp4098
g88
g89
ssg70
g4087
sg63
(lp4099
S':'
asbag56
(g77
g58
NtRp4100
(dp4101
g61
(dp4102
sg70
g4087
sg63
(lp4103
g56
(g57
g58
NtRp4104
(dp4105
g61
(dp4106
g69
I5
ssg70
g4100
sg63
(lp4107
S'Open Source Whistleblowing Platform'
p4108
asbasbasbag56
(g72
g58
NtRp4109
(dp4110
g61
(dp4111
sg70
g3286
sg63
(lp4112
g56
(g77
g58
NtRp4113
(dp4114
g61
(dp4115
g81
g82
ssg70
g4109
sg63
(lp4116
S'title'
p4117
asbag56
(g77
g58
NtRp4118
(dp4119
g61
(dp4120
g88
g89
ssg70
g4109
sg63
(lp4121
S':'
asbag56
(g77
g58
NtRp4122
(dp4123
g61
(dp4124
sg70
g4109
sg63
(lp4125
g56
(g57
g58
NtRp4126
(dp4127
g61
(dp4128
g69
I5
ssg70
g4122
sg63
(lp4129
S'GlobaLeaks'
p4130
asbasbasbag56
(g72
g58
NtRp4131
(dp4132
g61
(dp4133
sg70
g3286
sg63
(lp4134
g56
(g77
g58
NtRp4135
(dp4136
g61
(dp4137
g81
g82
ssg70
g4131
sg63
(lp4138
g2295
asbag56
(g77
g58
NtRp4139
(dp4140
g61
(dp4141
g88
g89
ssg70
g4131
sg63
(lp4142
S':'
asbag56
(g77
g58
NtRp4143
(dp4144
g61
(dp4145
sg70
g4131
sg63
(lp4146
g56
(g57
g58
NtRp4147
(dp4148
g61
(dp4149
g69
I5
ssg70
g4143
sg63
(lp4150
g2308
asbasbasbag56
(g72
g58
NtRp4151
(dp4152
g61
(dp4153
sg70
g3286
sg63
(lp4154
g56
(g77
g58
NtRp4155
(dp4156
g61
(dp4157
g81
g82
ssg70
g4151
sg63
(lp4158
S'view'
p4159
asbag56
(g77
g58
NtRp4160
(dp4161
g61
(dp4162
g88
g89
ssg70
g4151
sg63
(lp4163
S':'
asbag56
(g77
g58
NtRp4164
(dp4165
g61
(dp4166
sg70
g4151
sg63
(lp4167
g56
(g57
g58
NtRp4168
(dp4169
g61
(dp4170
g69
I5
ssg70
g4164
sg63
(lp4171
S'default/submission.html'
p4172
asbasbasbasbasbsS'locals'
p4173
(dp4174
g1962
S"'png'"
p4175
sS'self'
p4176
S'<gluon.dal.Field object>'
p4177
sS'm'
S'<_sre.SRE_Match object>'
p4178
sS'encoded_filename'
p4179
S"'62696e675f73736c5f6572726f722e706e67'"
p4180
sS'filename'
p4181
S"'bing_ssl_error.png'"
p4182
sS'newfilename'
p4183
S"'no_table.material.86355520c69389bd.62696e675f73736c5f6572726f722e706e67.png'"
p4184
sg3141
S"<open file '<fdopen>', mode 'w+b'>"
p4185
sS'uuid_key'
p4186
S"'86355520c69389bd'"
p4187
sg375
S'None'
p4188
sssS'traceback'
p4189
S'Traceback (most recent call last):\n  File "/opt/local/Library/Frameworks/Python.framework/Versions/2.7/lib/python2.7/gluon/restricted.py", line 192, in restricted\n    exec ccode in environment\n  File "/Users/hellais/Documents/code/globaleaks/ddb/apps/applications/init/controllers/default.py", line 48, in <module>\n  File "/opt/local/Library/Frameworks/Python.framework/Versions/2.7/lib/python2.7/gluon/globals.py", line 145, in <lambda>\n    self._caller = lambda f: f()\n  File "/Users/hellais/Documents/code/globaleaks/ddb/apps/applications/init/controllers/default.py", line 36, in submission\n    if form.accepts(request.vars, session):\n  File "/opt/local/Library/Frameworks/Python.framework/Versions/2.7/lib/python2.7/gluon/sqlhtml.py", line 1158, in accepts\n    newfilename = field.store(source_file, original_filename)\n  File "/opt/local/Library/Frameworks/Python.framework/Versions/2.7/lib/python2.7/gluon/dal.py", line 5281, in store\n    raise RuntimeError, "you must specify a Field(...,uploadfolder=...)"\nRuntimeError: you must specify a Field(...,uploadfolder=...)\n'
p4190
s.