(dp1
S'output'
p2
S''
sS'layer'
p3
S'Framework'
p4
sS'code'
p5
S''
sS'snapshot'
p6
(dp7
S'exception'
p8
(dp9
S'__module__'
p10
S"'socket'"
p11
sS'__getslice__'
p12
S"<method-wrapper '__getslice__' of timeout object>"
p13
sS'__str__'
p14
S"<method-wrapper '__str__' of timeout object>"
p15
sS'__reduce__'
p16
S'<built-in method __reduce__ of timeout object>'
p17
sS'__dict__'
p18
S'{}'
p19
sS'__sizeof__'
p20
S'<built-in method __sizeof__ of timeout object>'
p21
sS'__weakref__'
p22
S'None'
p23
sS'__init__'
p24
S"<method-wrapper '__init__' of timeout object>"
p25
sS'__setattr__'
p26
S"<method-wrapper '__setattr__' of timeout object>"
p27
sS'__reduce_ex__'
p28
S'<built-in method __reduce_ex__ of timeout object>'
p29
sS'__new__'
p30
S'<built-in method __new__ of type object>'
p31
sS'errno'
p32
S'None'
p33
sS'__format__'
p34
S'<built-in method __format__ of timeout object>'
p35
sS'__class__'
p36
S"<class 'socket.timeout'>"
p37
sS'filename'
p38
S'None'
p39
sS'__doc__'
p40
S'None'
p41
sS'__getitem__'
p42
S"<method-wrapper '__getitem__' of timeout object>"
p43
sS'__setstate__'
p44
S'<built-in method __setstate__ of timeout object>'
p45
sS'__getattribute__'
p46
S"<method-wrapper '__getattribute__' of timeout object>"
p47
sS'args'
p48
S"('timed out',)"
p49
sS'__subclasshook__'
p50
S'<built-in method __subclasshook__ of type object>'
p51
sS'__unicode__'
p52
S'<built-in method __unicode__ of timeout object>'
p53
sS'strerror'
p54
S'None'
p55
sS'__delattr__'
p56
S"<method-wrapper '__delattr__' of timeout object>"
p57
sS'__repr__'
p58
S"<method-wrapper '__repr__' of timeout object>"
p59
sS'__hash__'
p60
S"<method-wrapper '__hash__' of timeout object>"
p61
ssS'evalue'
p62
S'timed out'
p63
sS'request'
p64
ccopy_reg
_reconstructor
p65
(cgluon.html
BEAUTIFY
p66
c__builtin__
object
p67
NtRp68
(dp69
S'attributes'
p70
(dp71
sS'components'
p72
(lp73
g65
(cgluon.html
TABLE
p74
g67
NtRp75
(dp76
g70
(dp77
S'level'
p78
I5
ssS'parent'
p79
Nsg72
(lp80
g65
(cgluon.html
TR
p81
g67
NtRp82
(dp83
g70
(dp84
sg79
g75
sg72
(lp85
g65
(cgluon.html
TD
p86
g67
NtRp87
(dp88
g70
(dp89
S'_style'
p90
S'font-weight:bold;'
p91
ssg79
g82
sg72
(lp92
S'ajax'
p93
asbag65
(g86
g67
NtRp94
(dp95
g70
(dp96
S'_valign'
p97
S'top'
p98
ssg79
g82
sg72
(lp99
S':'
asbag65
(g86
g67
NtRp100
(dp101
g70
(dp102
sg79
g82
sg72
(lp103
g65
(g66
g67
NtRp104
(dp105
g70
(dp106
g78
I5
ssg79
g100
sg72
(lp107
S'False'
p108
asbasbasbag65
(g81
g67
NtRp109
(dp110
g70
(dp111
sg79
g75
sg72
(lp112
g65
(g86
g67
NtRp113
(dp114
g70
(dp115
g90
g91
ssg79
g109
sg72
(lp116
S'application'
p117
asbag65
(g86
g67
NtRp118
(dp119
g70
(dp120
g97
g98
ssg79
g109
sg72
(lp121
S':'
asbag65
(g86
g67
NtRp122
(dp123
g70
(dp124
sg79
g109
sg72
(lp125
g65
(g66
g67
NtRp126
(dp127
g70
(dp128
g78
I5
ssg79
g122
sg72
(lp129
S'init'
p130
asbasbasbag65
(g81
g67
NtRp131
(dp132
g70
(dp133
sg79
g75
sg72
(lp134
g65
(g86
g67
NtRp135
(dp136
g70
(dp137
g90
g91
ssg79
g131
sg72
(lp138
g48
asbag65
(g86
g67
NtRp139
(dp140
g70
(dp141
g97
g98
ssg79
g131
sg72
(lp142
S':'
asbag65
(g86
g67
NtRp143
(dp144
g70
(dp145
sg79
g131
sg72
(lp146
g65
(g66
g67
NtRp147
(dp148
g70
(dp149
g78
I5
ssg79
g143
sg72
(lp150
g65
(g74
g67
NtRp151
(dp152
g70
(dp153
g78
I4
ssg79
Nsg72
(lp154
sbasbasbasbag65
(g81
g67
NtRp155
(dp156
g70
(dp157
sg79
g75
sg72
(lp158
g65
(g86
g67
NtRp159
(dp160
g70
(dp161
g90
g91
ssg79
g155
sg72
(lp162
S'client'
p163
asbag65
(g86
g67
NtRp164
(dp165
g70
(dp166
g97
g98
ssg79
g155
sg72
(lp167
S':'
asbag65
(g86
g67
NtRp168
(dp169
g70
(dp170
sg79
g155
sg72
(lp171
g65
(g66
g67
NtRp172
(dp173
g70
(dp174
g78
I5
ssg79
g168
sg72
(lp175
S'127.0.0.1'
p176
asbasbasbag65
(g81
g67
NtRp177
(dp178
g70
(dp179
sg79
g75
sg72
(lp180
g65
(g86
g67
NtRp181
(dp182
g70
(dp183
g90
g91
ssg79
g177
sg72
(lp184
S'controller'
p185
asbag65
(g86
g67
NtRp186
(dp187
g70
(dp188
g97
g98
ssg79
g177
sg72
(lp189
S':'
asbag65
(g86
g67
NtRp190
(dp191
g70
(dp192
sg79
g177
sg72
(lp193
g65
(g66
g67
NtRp194
(dp195
g70
(dp196
g78
I5
ssg79
g190
sg72
(lp197
S'default'
p198
asbasbasbag65
(g81
g67
NtRp199
(dp200
g70
(dp201
sg79
g75
sg72
(lp202
g65
(g86
g67
NtRp203
(dp204
g70
(dp205
g90
g91
ssg79
g199
sg72
(lp206
S'cookies'
p207
asbag65
(g86
g67
NtRp208
(dp209
g70
(dp210
g97
g98
ssg79
g199
sg72
(lp211
S':'
asbag65
(g86
g67
NtRp212
(dp213
g70
(dp214
sg79
g199
sg72
(lp215
g65
(g66
g67
NtRp216
(dp217
g70
(dp218
g78
I5
ssg79
g212
sg72
(lp219
g65
(g74
g67
NtRp220
(dp221
g70
(dp222
g78
I4
ssg79
Nsg72
(lp223
sbasbasbasbag65
(g81
g67
NtRp224
(dp225
g70
(dp226
sg79
g75
sg72
(lp227
g65
(g86
g67
NtRp228
(dp229
g70
(dp230
g90
g91
ssg79
g224
sg72
(lp231
S'env'
p232
asbag65
(g86
g67
NtRp233
(dp234
g70
(dp235
g97
g98
ssg79
g224
sg72
(lp236
S':'
asbag65
(g86
g67
NtRp237
(dp238
g70
(dp239
sg79
g224
sg72
(lp240
g65
(g66
g67
NtRp241
(dp242
g70
(dp243
g78
I5
ssg79
g237
sg72
(lp244
g65
(g74
g67
NtRp245
(dp246
g70
(dp247
g78
I4
ssg79
Nsg72
(lp248
g65
(g81
g67
NtRp249
(dp250
g70
(dp251
sg79
g245
sg72
(lp252
g65
(g86
g67
NtRp253
(dp254
g70
(dp255
g90
g91
ssg79
g249
sg72
(lp256
S'app_folders'
p257
asbag65
(g86
g67
NtRp258
(dp259
g70
(dp260
g97
g98
ssg79
g249
sg72
(lp261
S':'
asbag65
(g86
g67
NtRp262
(dp263
g70
(dp264
sg79
g249
sg72
(lp265
g65
(g66
g67
NtRp266
(dp267
g70
(dp268
g78
I4
ssg79
g262
sg72
(lp269
S"set(['/Users/hellais/Documents/code/globaleaks/ddb/apps/applications/admin/', '/Users/hellais/Documents/code/globaleaks/ddb/apps/applications/init/'])"
p270
asbasbasbag65
(g81
g67
NtRp271
(dp272
g70
(dp273
sg79
g245
sg72
(lp274
g65
(g86
g67
NtRp275
(dp276
g70
(dp277
g90
g91
ssg79
g271
sg72
(lp278
S'applications_parent'
p279
asbag65
(g86
g67
NtRp280
(dp281
g70
(dp282
g97
g98
ssg79
g271
sg72
(lp283
S':'
asbag65
(g86
g67
NtRp284
(dp285
g70
(dp286
sg79
g271
sg72
(lp287
g65
(g66
g67
NtRp288
(dp289
g70
(dp290
g78
I4
ssg79
g284
sg72
(lp291
S'/Users/hellais/Documents/code/globaleaks/ddb/apps'
p292
asbasbasbag65
(g81
g67
NtRp293
(dp294
g70
(dp295
sg79
g245
sg72
(lp296
g65
(g86
g67
NtRp297
(dp298
g70
(dp299
g90
g91
ssg79
g293
sg72
(lp300
S'cmd_args'
p301
asbag65
(g86
g67
NtRp302
(dp303
g70
(dp304
g97
g98
ssg79
g293
sg72
(lp305
S':'
asbag65
(g86
g67
NtRp306
(dp307
g70
(dp308
sg79
g293
sg72
(lp309
g65
(g66
g67
NtRp310
(dp311
g70
(dp312
g78
I4
ssg79
g306
sg72
(lp313
g65
(g74
g67
NtRp314
(dp315
g70
(dp316
g78
I3
ssg79
Nsg72
(lp317
sbasbasbasbag65
(g81
g67
NtRp318
(dp319
g70
(dp320
sg79
g245
sg72
(lp321
g65
(g86
g67
NtRp322
(dp323
g70
(dp324
g90
g91
ssg79
g318
sg72
(lp325
S'cmd_options'
p326
asbag65
(g86
g67
NtRp327
(dp328
g70
(dp329
g97
g98
ssg79
g318
sg72
(lp330
S':'
asbag65
(g86
g67
NtRp331
(dp332
g70
(dp333
sg79
g318
sg72
(lp334
g65
(g66
g67
NtRp335
(dp336
g70
(dp337
g78
I4
ssg79
g331
sg72
(lp338
S"<Values at 0x1015f5320: {'verbose': False, 'ip': '127.0.0.1', 'shutdown_timeout': 5, 'taskbar': False, 'port': 8000, 'maxthreads': None, 'softcron': False, 'server_name': 'Jeanne.local', 'bpython': False, 'nogui': False, 'nocron': False, 'extcron': False, 'debuglevel': 30, 'test': None, 'folder': '/Users/hellais/Documents/code/globaleaks/ddb/apps', 'config': '', 'import_models': False, 'winservice': '', 'shell': None, 'run': '', 'log_filename': 'httpserver.log', 'args': [''], 'profiler_filename': None, 'ssl_private_key': '', 'password': '<ask>', 'request_queue_size': 5, 'ssl_certificate': '', 'cronjob': False, 'plain': False, 'quiet': False, 'interfaces': None, 'minthreads': None, 'timeout': 10, 'numthreads': None, 'nobanner': False, 'pid_filename': 'httpserver.pid'}>"
p339
asbasbasbag65
(g81
g67
NtRp340
(dp341
g70
(dp342
sg79
g245
sg72
(lp343
g65
(g86
g67
NtRp344
(dp345
g70
(dp346
g90
g91
ssg79
g340
sg72
(lp347
S'content_length'
p348
asbag65
(g86
g67
NtRp349
(dp350
g70
(dp351
g97
g98
ssg79
g340
sg72
(lp352
S':'
asbag65
(g86
g67
NtRp353
(dp354
g70
(dp355
sg79
g340
sg72
(lp356
g65
(g66
g67
NtRp357
(dp358
g70
(dp359
g78
I4
ssg79
g353
sg72
(lp360
S'118882256'
p361
asbasbasbag65
(g81
g67
NtRp362
(dp363
g70
(dp364
sg79
g245
sg72
(lp365
g65
(g86
g67
NtRp366
(dp367
g70
(dp368
g90
g91
ssg79
g362
sg72
(lp369
S'content_type'
p370
asbag65
(g86
g67
NtRp371
(dp372
g70
(dp373
g97
g98
ssg79
g362
sg72
(lp374
S':'
asbag65
(g86
g67
NtRp375
(dp376
g70
(dp377
sg79
g362
sg72
(lp378
g65
(g66
g67
NtRp379
(dp380
g70
(dp381
g78
I4
ssg79
g375
sg72
(lp382
S'multipart/form-data; boundary=---------------------------986067328702277797612810267'
p383
asbasbasbag65
(g81
g67
NtRp384
(dp385
g70
(dp386
sg79
g245
sg72
(lp387
g65
(g86
g67
NtRp388
(dp389
g70
(dp390
g90
g91
ssg79
g384
sg72
(lp391
S'db_sessions'
p392
asbag65
(g86
g67
NtRp393
(dp394
g70
(dp395
g97
g98
ssg79
g384
sg72
(lp396
S':'
asbag65
(g86
g67
NtRp397
(dp398
g70
(dp399
sg79
g384
sg72
(lp400
g65
(g66
g67
NtRp401
(dp402
g70
(dp403
g78
I4
ssg79
g397
sg72
(lp404
S'set([])'
p405
asbasbasbag65
(g81
g67
NtRp406
(dp407
g70
(dp408
sg79
g245
sg72
(lp409
g65
(g86
g67
NtRp410
(dp411
g70
(dp412
g90
g91
ssg79
g406
sg72
(lp413
S'debugging'
p414
asbag65
(g86
g67
NtRp415
(dp416
g70
(dp417
g97
g98
ssg79
g406
sg72
(lp418
S':'
asbag65
(g86
g67
NtRp419
(dp420
g70
(dp421
sg79
g406
sg72
(lp422
g65
(g66
g67
NtRp423
(dp424
g70
(dp425
g78
I4
ssg79
g419
sg72
(lp426
g108
asbasbasbag65
(g81
g67
NtRp427
(dp428
g70
(dp429
sg79
g245
sg72
(lp430
g65
(g86
g67
NtRp431
(dp432
g70
(dp433
g90
g91
ssg79
g427
sg72
(lp434
S'gluon_parent'
p435
asbag65
(g86
g67
NtRp436
(dp437
g70
(dp438
g97
g98
ssg79
g427
sg72
(lp439
S':'
asbag65
(g86
g67
NtRp440
(dp441
g70
(dp442
sg79
g427
sg72
(lp443
g65
(g66
g67
NtRp444
(dp445
g70
(dp446
g78
I4
ssg79
g440
sg72
(lp447
S'/Users/hellais/Documents/code/globaleaks/ddb/apps'
p448
asbasbasbag65
(g81
g67
NtRp449
(dp450
g70
(dp451
sg79
g245
sg72
(lp452
g65
(g86
g67
NtRp453
(dp454
g70
(dp455
g90
g91
ssg79
g449
sg72
(lp456
S'http_accept'
p457
asbag65
(g86
g67
NtRp458
(dp459
g70
(dp460
g97
g98
ssg79
g449
sg72
(lp461
S':'
asbag65
(g86
g67
NtRp462
(dp463
g70
(dp464
sg79
g449
sg72
(lp465
g65
(g66
g67
NtRp466
(dp467
g70
(dp468
g78
I4
ssg79
g462
sg72
(lp469
S'text/html,application/xhtml+xml,application/xml;q=0.9,*/*;q=0.8'
p470
asbasbasbag65
(g81
g67
NtRp471
(dp472
g70
(dp473
sg79
g245
sg72
(lp474
g65
(g86
g67
NtRp475
(dp476
g70
(dp477
g90
g91
ssg79
g471
sg72
(lp478
S'http_accept_charset'
p479
asbag65
(g86
g67
NtRp480
(dp481
g70
(dp482
g97
g98
ssg79
g471
sg72
(lp483
S':'
asbag65
(g86
g67
NtRp484
(dp485
g70
(dp486
sg79
g471
sg72
(lp487
g65
(g66
g67
NtRp488
(dp489
g70
(dp490
g78
I4
ssg79
g484
sg72
(lp491
S'ISO-8859-1,utf-8;q=0.7,*;q=0.7'
p492
asbasbasbag65
(g81
g67
NtRp493
(dp494
g70
(dp495
sg79
g245
sg72
(lp496
g65
(g86
g67
NtRp497
(dp498
g70
(dp499
g90
g91
ssg79
g493
sg72
(lp500
S'http_accept_encoding'
p501
asbag65
(g86
g67
NtRp502
(dp503
g70
(dp504
g97
g98
ssg79
g493
sg72
(lp505
S':'
asbag65
(g86
g67
NtRp506
(dp507
g70
(dp508
sg79
g493
sg72
(lp509
g65
(g66
g67
NtRp510
(dp511
g70
(dp512
g78
I4
ssg79
g506
sg72
(lp513
S'gzip, deflate'
p514
asbasbasbag65
(g81
g67
NtRp515
(dp516
g70
(dp517
sg79
g245
sg72
(lp518
g65
(g86
g67
NtRp519
(dp520
g70
(dp521
g90
g91
ssg79
g515
sg72
(lp522
S'http_accept_language'
p523
asbag65
(g86
g67
NtRp524
(dp525
g70
(dp526
g97
g98
ssg79
g515
sg72
(lp527
S':'
asbag65
(g86
g67
NtRp528
(dp529
g70
(dp530
sg79
g515
sg72
(lp531
g65
(g66
g67
NtRp532
(dp533
g70
(dp534
g78
I4
ssg79
g528
sg72
(lp535
S'en-us,en;q=0.5'
p536
asbasbasbag65
(g81
g67
NtRp537
(dp538
g70
(dp539
sg79
g245
sg72
(lp540
g65
(g86
g67
NtRp541
(dp542
g70
(dp543
g90
g91
ssg79
g537
sg72
(lp544
S'http_connection'
p545
asbag65
(g86
g67
NtRp546
(dp547
g70
(dp548
g97
g98
ssg79
g537
sg72
(lp549
S':'
asbag65
(g86
g67
NtRp550
(dp551
g70
(dp552
sg79
g537
sg72
(lp553
g65
(g66
g67
NtRp554
(dp555
g70
(dp556
g78
I4
ssg79
g550
sg72
(lp557
S'keep-alive'
p558
asbasbasbag65
(g81
g67
NtRp559
(dp560
g70
(dp561
sg79
g245
sg72
(lp562
g65
(g86
g67
NtRp563
(dp564
g70
(dp565
g90
g91
ssg79
g559
sg72
(lp566
S'http_content_length'
p567
asbag65
(g86
g67
NtRp568
(dp569
g70
(dp570
g97
g98
ssg79
g559
sg72
(lp571
S':'
asbag65
(g86
g67
NtRp572
(dp573
g70
(dp574
sg79
g559
sg72
(lp575
g65
(g66
g67
NtRp576
(dp577
g70
(dp578
g78
I4
ssg79
g572
sg72
(lp579
g361
asbasbasbag65
(g81
g67
NtRp580
(dp581
g70
(dp582
sg79
g245
sg72
(lp583
g65
(g86
g67
NtRp584
(dp585
g70
(dp586
g90
g91
ssg79
g580
sg72
(lp587
S'http_content_type'
p588
asbag65
(g86
g67
NtRp589
(dp590
g70
(dp591
g97
g98
ssg79
g580
sg72
(lp592
S':'
asbag65
(g86
g67
NtRp593
(dp594
g70
(dp595
sg79
g580
sg72
(lp596
g65
(g66
g67
NtRp597
(dp598
g70
(dp599
g78
I4
ssg79
g593
sg72
(lp600
g383
asbasbasbag65
(g81
g67
NtRp601
(dp602
g70
(dp603
sg79
g245
sg72
(lp604
g65
(g86
g67
NtRp605
(dp606
g70
(dp607
g90
g91
ssg79
g601
sg72
(lp608
S'http_cookie'
p609
asbag65
(g86
g67
NtRp610
(dp611
g70
(dp612
g97
g98
ssg79
g601
sg72
(lp613
S':'
asbag65
(g86
g67
NtRp614
(dp615
g70
(dp616
sg79
g601
sg72
(lp617
g65
(g66
g67
NtRp618
(dp619
g70
(dp620
g78
I4
ssg79
g614
sg72
(lp621
S'session_id_admin=127.0.0.1-67122ce4-50b2-4acf-b28e-7a14feeff4d9; session_id_globaleaks=127.0.0.1-c6d5b9b3-1ec7-41c1-8d72-04c21b7a6b11; session_id_blabla=127.0.0.1-c445384e-a3ea-4484-8fe2-52f3295bbb7c; session_id_init=127.0.0.1-a8551263-bc3c-430c-abb2-8711fac671c1'
p622
asbasbasbag65
(g81
g67
NtRp623
(dp624
g70
(dp625
sg79
g245
sg72
(lp626
g65
(g86
g67
NtRp627
(dp628
g70
(dp629
g90
g91
ssg79
g623
sg72
(lp630
S'http_host'
p631
asbag65
(g86
g67
NtRp632
(dp633
g70
(dp634
g97
g98
ssg79
g623
sg72
(lp635
S':'
asbag65
(g86
g67
NtRp636
(dp637
g70
(dp638
sg79
g623
sg72
(lp639
g65
(g66
g67
NtRp640
(dp641
g70
(dp642
g78
I4
ssg79
g636
sg72
(lp643
S'127.0.0.1:8000'
p644
asbasbasbag65
(g81
g67
NtRp645
(dp646
g70
(dp647
sg79
g245
sg72
(lp648
g65
(g86
g67
NtRp649
(dp650
g70
(dp651
g90
g91
ssg79
g645
sg72
(lp652
S'http_referer'
p653
asbag65
(g86
g67
NtRp654
(dp655
g70
(dp656
g97
g98
ssg79
g645
sg72
(lp657
S':'
asbag65
(g86
g67
NtRp658
(dp659
g70
(dp660
sg79
g645
sg72
(lp661
g65
(g66
g67
NtRp662
(dp663
g70
(dp664
g78
I4
ssg79
g658
sg72
(lp665
S'http://127.0.0.1:8000/init/default/submission'
p666
asbasbasbag65
(g81
g67
NtRp667
(dp668
g70
(dp669
sg79
g245
sg72
(lp670
g65
(g86
g67
NtRp671
(dp672
g70
(dp673
g90
g91
ssg79
g667
sg72
(lp674
S'http_user_agent'
p675
asbag65
(g86
g67
NtRp676
(dp677
g70
(dp678
g97
g98
ssg79
g667
sg72
(lp679
S':'
asbag65
(g86
g67
NtRp680
(dp681
g70
(dp682
sg79
g667
sg72
(lp683
g65
(g66
g67
NtRp684
(dp685
g70
(dp686
g78
I4
ssg79
g680
sg72
(lp687
S'Mozilla/5.0 (Macintosh; Intel Mac OS X 10.6; rv:5.0.1) Gecko/20100101 Firefox/5.0.1'
p688
asbasbasbag65
(g81
g67
NtRp689
(dp690
g70
(dp691
sg79
g245
sg72
(lp692
g65
(g86
g67
NtRp693
(dp694
g70
(dp695
g90
g91
ssg79
g689
sg72
(lp696
S'is_jython'
p697
asbag65
(g86
g67
NtRp698
(dp699
g70
(dp700
g97
g98
ssg79
g689
sg72
(lp701
S':'
asbag65
(g86
g67
NtRp702
(dp703
g70
(dp704
sg79
g689
sg72
(lp705
g65
(g66
g67
NtRp706
(dp707
g70
(dp708
g78
I4
ssg79
g702
sg72
(lp709
g108
asbasbasbag65
(g81
g67
NtRp710
(dp711
g70
(dp712
sg79
g245
sg72
(lp713
g65
(g86
g67
NtRp714
(dp715
g70
(dp716
g90
g91
ssg79
g710
sg72
(lp717
S'path_info'
p718
asbag65
(g86
g67
NtRp719
(dp720
g70
(dp721
g97
g98
ssg79
g710
sg72
(lp722
S':'
asbag65
(g86
g67
NtRp723
(dp724
g70
(dp725
sg79
g710
sg72
(lp726
g65
(g66
g67
NtRp727
(dp728
g70
(dp729
g78
I4
ssg79
g723
sg72
(lp730
S'/init/default/submission'
p731
asbasbasbag65
(g81
g67
NtRp732
(dp733
g70
(dp734
sg79
g245
sg72
(lp735
g65
(g86
g67
NtRp736
(dp737
g70
(dp738
g90
g91
ssg79
g732
sg72
(lp739
S'query_string'
p740
asbag65
(g86
g67
NtRp741
(dp742
g70
(dp743
g97
g98
ssg79
g732
sg72
(lp744
S':'
asbag65
(g86
g67
NtRp745
(dp746
g70
(dp747
sg79
g732
sg72
(lp748
g65
(g66
g67
NtRp749
(dp750
g70
(dp751
g78
I4
ssg79
g745
sg72
(lp752
S''
asbasbasbag65
(g81
g67
NtRp753
(dp754
g70
(dp755
sg79
g245
sg72
(lp756
g65
(g86
g67
NtRp757
(dp758
g70
(dp759
g90
g91
ssg79
g753
sg72
(lp760
S'remote_addr'
p761
asbag65
(g86
g67
NtRp762
(dp763
g70
(dp764
g97
g98
ssg79
g753
sg72
(lp765
S':'
asbag65
(g86
g67
NtRp766
(dp767
g70
(dp768
sg79
g753
sg72
(lp769
g65
(g66
g67
NtRp770
(dp771
g70
(dp772
g78
I4
ssg79
g766
sg72
(lp773
g176
asbasbasbag65
(g81
g67
NtRp774
(dp775
g70
(dp776
sg79
g245
sg72
(lp777
g65
(g86
g67
NtRp778
(dp779
g70
(dp780
g90
g91
ssg79
g774
sg72
(lp781
S'remote_port'
p782
asbag65
(g86
g67
NtRp783
(dp784
g70
(dp785
g97
g98
ssg79
g774
sg72
(lp786
S':'
asbag65
(g86
g67
NtRp787
(dp788
g70
(dp789
sg79
g774
sg72
(lp790
g65
(g66
g67
NtRp791
(dp792
g70
(dp793
g78
I4
ssg79
g787
sg72
(lp794
S'53489'
p795
asbasbasbag65
(g81
g67
NtRp796
(dp797
g70
(dp798
sg79
g245
sg72
(lp799
g65
(g86
g67
NtRp800
(dp801
g70
(dp802
g90
g91
ssg79
g796
sg72
(lp803
S'request_method'
p804
asbag65
(g86
g67
NtRp805
(dp806
g70
(dp807
g97
g98
ssg79
g796
sg72
(lp808
S':'
asbag65
(g86
g67
NtRp809
(dp810
g70
(dp811
sg79
g796
sg72
(lp812
g65
(g66
g67
NtRp813
(dp814
g70
(dp815
g78
I4
ssg79
g809
sg72
(lp816
S'POST'
p817
asbasbasbag65
(g81
g67
NtRp818
(dp819
g70
(dp820
sg79
g245
sg72
(lp821
g65
(g86
g67
NtRp822
(dp823
g70
(dp824
g90
g91
ssg79
g818
sg72
(lp825
S'script_name'
p826
asbag65
(g86
g67
NtRp827
(dp828
g70
(dp829
g97
g98
ssg79
g818
sg72
(lp830
S':'
asbag65
(g86
g67
NtRp831
(dp832
g70
(dp833
sg79
g818
sg72
(lp834
g65
(g66
g67
NtRp835
(dp836
g70
(dp837
g78
I4
ssg79
g831
sg72
(lp838
S''
asbasbasbag65
(g81
g67
NtRp839
(dp840
g70
(dp841
sg79
g245
sg72
(lp842
g65
(g86
g67
NtRp843
(dp844
g70
(dp845
g90
g91
ssg79
g839
sg72
(lp846
S'server_name'
p847
asbag65
(g86
g67
NtRp848
(dp849
g70
(dp850
g97
g98
ssg79
g839
sg72
(lp851
S':'
asbag65
(g86
g67
NtRp852
(dp853
g70
(dp854
sg79
g839
sg72
(lp855
g65
(g66
g67
NtRp856
(dp857
g70
(dp858
g78
I4
ssg79
g852
sg72
(lp859
S'Jeanne.local'
p860
asbasbasbag65
(g81
g67
NtRp861
(dp862
g70
(dp863
sg79
g245
sg72
(lp864
g65
(g86
g67
NtRp865
(dp866
g70
(dp867
g90
g91
ssg79
g861
sg72
(lp868
S'server_port'
p869
asbag65
(g86
g67
NtRp870
(dp871
g70
(dp872
g97
g98
ssg79
g861
sg72
(lp873
S':'
asbag65
(g86
g67
NtRp874
(dp875
g70
(dp876
sg79
g861
sg72
(lp877
g65
(g66
g67
NtRp878
(dp879
g70
(dp880
g78
I4
ssg79
g874
sg72
(lp881
S'8000'
p882
asbasbasbag65
(g81
g67
NtRp883
(dp884
g70
(dp885
sg79
g245
sg72
(lp886
g65
(g86
g67
NtRp887
(dp888
g70
(dp889
g90
g91
ssg79
g883
sg72
(lp890
S'server_protocol'
p891
asbag65
(g86
g67
NtRp892
(dp893
g70
(dp894
g97
g98
ssg79
g883
sg72
(lp895
S':'
asbag65
(g86
g67
NtRp896
(dp897
g70
(dp898
sg79
g883
sg72
(lp899
g65
(g66
g67
NtRp900
(dp901
g70
(dp902
g78
I4
ssg79
g896
sg72
(lp903
S'HTTP/1.1'
p904
asbasbasbag65
(g81
g67
NtRp905
(dp906
g70
(dp907
sg79
g245
sg72
(lp908
g65
(g86
g67
NtRp909
(dp910
g70
(dp911
g90
g91
ssg79
g905
sg72
(lp912
S'server_software'
p913
asbag65
(g86
g67
NtRp914
(dp915
g70
(dp916
g97
g98
ssg79
g905
sg72
(lp917
S':'
asbag65
(g86
g67
NtRp918
(dp919
g70
(dp920
sg79
g905
sg72
(lp921
g65
(g66
g67
NtRp922
(dp923
g70
(dp924
g78
I4
ssg79
g918
sg72
(lp925
S'Rocket 1.2.2'
p926
asbasbasbag65
(g81
g67
NtRp927
(dp928
g70
(dp929
sg79
g245
sg72
(lp930
g65
(g86
g67
NtRp931
(dp932
g70
(dp933
g90
g91
ssg79
g927
sg72
(lp934
S'web2py_crontype'
p935
asbag65
(g86
g67
NtRp936
(dp937
g70
(dp938
g97
g98
ssg79
g927
sg72
(lp939
S':'
asbag65
(g86
g67
NtRp940
(dp941
g70
(dp942
sg79
g927
sg72
(lp943
g65
(g66
g67
NtRp944
(dp945
g70
(dp946
g78
I4
ssg79
g940
sg72
(lp947
S'hard'
p948
asbasbasbag65
(g81
g67
NtRp949
(dp950
g70
(dp951
sg79
g245
sg72
(lp952
g65
(g86
g67
NtRp953
(dp954
g70
(dp955
g90
g91
ssg79
g949
sg72
(lp956
S'web2py_path'
p957
asbag65
(g86
g67
NtRp958
(dp959
g70
(dp960
g97
g98
ssg79
g949
sg72
(lp961
S':'
asbag65
(g86
g67
NtRp962
(dp963
g70
(dp964
sg79
g949
sg72
(lp965
g65
(g66
g67
NtRp966
(dp967
g70
(dp968
g78
I4
ssg79
g962
sg72
(lp969
g292
asbasbasbag65
(g81
g67
NtRp970
(dp971
g70
(dp972
sg79
g245
sg72
(lp973
g65
(g86
g67
NtRp974
(dp975
g70
(dp976
g90
g91
ssg79
g970
sg72
(lp977
S'web2py_version'
p978
asbag65
(g86
g67
NtRp979
(dp980
g70
(dp981
g97
g98
ssg79
g970
sg72
(lp982
S':'
asbag65
(g86
g67
NtRp983
(dp984
g70
(dp985
sg79
g970
sg72
(lp986
g65
(g66
g67
NtRp987
(dp988
g70
(dp989
g78
I4
ssg79
g983
sg72
(lp990
S'Version 1.98.2 (2011-08-04 00:47:09)\n'
p991
asbasbasbag65
(g81
g67
NtRp992
(dp993
g70
(dp994
sg79
g245
sg72
(lp995
g65
(g86
g67
NtRp996
(dp997
g70
(dp998
g90
g91
ssg79
g992
sg72
(lp999
S'wsgi_errors'
p1000
asbag65
(g86
g67
NtRp1001
(dp1002
g70
(dp1003
g97
g98
ssg79
g992
sg72
(lp1004
S':'
asbag65
(g86
g67
NtRp1005
(dp1006
g70
(dp1007
sg79
g992
sg72
(lp1008
g65
(g66
g67
NtRp1009
(dp1010
g70
(dp1011
g78
I4
ssg79
g1005
sg72
(lp1012
S"<open file '<stderr>', mode 'w' at 0x100287270>"
p1013
asbasbasbag65
(g81
g67
NtRp1014
(dp1015
g70
(dp1016
sg79
g245
sg72
(lp1017
g65
(g86
g67
NtRp1018
(dp1019
g70
(dp1020
g90
g91
ssg79
g1014
sg72
(lp1021
S'wsgi_file_wrapper'
p1022
asbag65
(g86
g67
NtRp1023
(dp1024
g70
(dp1025
g97
g98
ssg79
g1014
sg72
(lp1026
S':'
asbag65
(g86
g67
NtRp1027
(dp1028
g70
(dp1029
sg79
g1014
sg72
(lp1030
g65
(g66
g67
NtRp1031
(dp1032
g70
(dp1033
g78
I4
ssg79
g1027
sg72
(lp1034
S'<class gluon.rocket.FileWrapper at 0x101665db8>'
p1035
asbasbasbag65
(g81
g67
NtRp1036
(dp1037
g70
(dp1038
sg79
g245
sg72
(lp1039
g65
(g86
g67
NtRp1040
(dp1041
g70
(dp1042
g90
g91
ssg79
g1036
sg72
(lp1043
S'wsgi_input'
p1044
asbag65
(g86
g67
NtRp1045
(dp1046
g70
(dp1047
g97
g98
ssg79
g1036
sg72
(lp1048
S':'
asbag65
(g86
g67
NtRp1049
(dp1050
g70
(dp1051
sg79
g1036
sg72
(lp1052
g65
(g66
g67
NtRp1053
(dp1054
g70
(dp1055
g78
I4
ssg79
g1049
sg72
(lp1056
S'<socket._fileobject object at 0x102324150>'
p1057
asbasbasbag65
(g81
g67
NtRp1058
(dp1059
g70
(dp1060
sg79
g245
sg72
(lp1061
g65
(g86
g67
NtRp1062
(dp1063
g70
(dp1064
g90
g91
ssg79
g1058
sg72
(lp1065
S'wsgi_multiprocess'
p1066
asbag65
(g86
g67
NtRp1067
(dp1068
g70
(dp1069
g97
g98
ssg79
g1058
sg72
(lp1070
S':'
asbag65
(g86
g67
NtRp1071
(dp1072
g70
(dp1073
sg79
g1058
sg72
(lp1074
g65
(g66
g67
NtRp1075
(dp1076
g70
(dp1077
g78
I4
ssg79
g1071
sg72
(lp1078
g108
asbasbasbag65
(g81
g67
NtRp1079
(dp1080
g70
(dp1081
sg79
g245
sg72
(lp1082
g65
(g86
g67
NtRp1083
(dp1084
g70
(dp1085
g90
g91
ssg79
g1079
sg72
(lp1086
S'wsgi_multithread'
p1087
asbag65
(g86
g67
NtRp1088
(dp1089
g70
(dp1090
g97
g98
ssg79
g1079
sg72
(lp1091
S':'
asbag65
(g86
g67
NtRp1092
(dp1093
g70
(dp1094
sg79
g1079
sg72
(lp1095
g65
(g66
g67
NtRp1096
(dp1097
g70
(dp1098
g78
I4
ssg79
g1092
sg72
(lp1099
S'True'
p1100
asbasbasbag65
(g81
g67
NtRp1101
(dp1102
g70
(dp1103
sg79
g245
sg72
(lp1104
g65
(g86
g67
NtRp1105
(dp1106
g70
(dp1107
g90
g91
ssg79
g1101
sg72
(lp1108
S'wsgi_run_once'
p1109
asbag65
(g86
g67
NtRp1110
(dp1111
g70
(dp1112
g97
g98
ssg79
g1101
sg72
(lp1113
S':'
asbag65
(g86
g67
NtRp1114
(dp1115
g70
(dp1116
sg79
g1101
sg72
(lp1117
g65
(g66
g67
NtRp1118
(dp1119
g70
(dp1120
g78
I4
ssg79
g1114
sg72
(lp1121
g108
asbasbasbag65
(g81
g67
NtRp1122
(dp1123
g70
(dp1124
sg79
g245
sg72
(lp1125
g65
(g86
g67
NtRp1126
(dp1127
g70
(dp1128
g90
g91
ssg79
g1122
sg72
(lp1129
S'wsgi_url_scheme'
p1130
asbag65
(g86
g67
NtRp1131
(dp1132
g70
(dp1133
g97
g98
ssg79
g1122
sg72
(lp1134
S':'
asbag65
(g86
g67
NtRp1135
(dp1136
g70
(dp1137
sg79
g1122
sg72
(lp1138
g65
(g66
g67
NtRp1139
(dp1140
g70
(dp1141
g78
I4
ssg79
g1135
sg72
(lp1142
S'http'
p1143
asbasbasbag65
(g81
g67
NtRp1144
(dp1145
g70
(dp1146
sg79
g245
sg72
(lp1147
g65
(g86
g67
NtRp1148
(dp1149
g70
(dp1150
g90
g91
ssg79
g1144
sg72
(lp1151
S'wsgi_version'
p1152
asbag65
(g86
g67
NtRp1153
(dp1154
g70
(dp1155
g97
g98
ssg79
g1144
sg72
(lp1156
S':'
asbag65
(g86
g67
NtRp1157
(dp1158
g70
(dp1159
sg79
g1144
sg72
(lp1160
g65
(g66
g67
NtRp1161
(dp1162
g70
(dp1163
g78
I4
ssg79
g1157
sg72
(lp1164
g65
(g74
g67
NtRp1165
(dp1166
g70
(dp1167
g78
I3
ssg79
Nsg72
(lp1168
g65
(g81
g67
NtRp1169
(dp1170
g70
(dp1171
sg79
g1165
sg72
(lp1172
g65
(g86
g67
NtRp1173
(dp1174
g70
(dp1175
sg79
g1169
sg72
(lp1176
g65
(g66
g67
NtRp1177
(dp1178
g70
(dp1179
g78
I3
ssg79
g1173
sg72
(lp1180
S'1'
asbasbasbag65
(g81
g67
NtRp1181
(dp1182
g70
(dp1183
sg79
g1165
sg72
(lp1184
g65
(g86
g67
NtRp1185
(dp1186
g70
(dp1187
sg79
g1181
sg72
(lp1188
g65
(g66
g67
NtRp1189
(dp1190
g70
(dp1191
g78
I3
ssg79
g1185
sg72
(lp1192
S'0'
asbasbasbasbasbasbasbasbasbasbasbag65
(g81
g67
NtRp1193
(dp1194
g70
(dp1195
sg79
g75
sg72
(lp1196
g65
(g86
g67
NtRp1197
(dp1198
g70
(dp1199
g90
g91
ssg79
g1193
sg72
(lp1200
S'extension'
p1201
asbag65
(g86
g67
NtRp1202
(dp1203
g70
(dp1204
g97
g98
ssg79
g1193
sg72
(lp1205
S':'
asbag65
(g86
g67
NtRp1206
(dp1207
g70
(dp1208
sg79
g1193
sg72
(lp1209
g65
(g66
g67
NtRp1210
(dp1211
g70
(dp1212
g78
I5
ssg79
g1206
sg72
(lp1213
S'html'
p1214
asbasbasbag65
(g81
g67
NtRp1215
(dp1216
g70
(dp1217
sg79
g75
sg72
(lp1218
g65
(g86
g67
NtRp1219
(dp1220
g70
(dp1221
g90
g91
ssg79
g1215
sg72
(lp1222
S'folder'
p1223
asbag65
(g86
g67
NtRp1224
(dp1225
g70
(dp1226
g97
g98
ssg79
g1215
sg72
(lp1227
S':'
asbag65
(g86
g67
NtRp1228
(dp1229
g70
(dp1230
sg79
g1215
sg72
(lp1231
g65
(g66
g67
NtRp1232
(dp1233
g70
(dp1234
g78
I5
ssg79
g1228
sg72
(lp1235
S'/Users/hellais/Documents/code/globaleaks/ddb/apps/applications/init/'
p1236
asbasbasbag65
(g81
g67
NtRp1237
(dp1238
g70
(dp1239
sg79
g75
sg72
(lp1240
g65
(g86
g67
NtRp1241
(dp1242
g70
(dp1243
g90
g91
ssg79
g1237
sg72
(lp1244
S'function'
p1245
asbag65
(g86
g67
NtRp1246
(dp1247
g70
(dp1248
g97
g98
ssg79
g1237
sg72
(lp1249
S':'
asbag65
(g86
g67
NtRp1250
(dp1251
g70
(dp1252
sg79
g1237
sg72
(lp1253
g65
(g66
g67
NtRp1254
(dp1255
g70
(dp1256
g78
I5
ssg79
g1250
sg72
(lp1257
S'submission'
p1258
asbasbasbag65
(g81
g67
NtRp1259
(dp1260
g70
(dp1261
sg79
g75
sg72
(lp1262
g65
(g86
g67
NtRp1263
(dp1264
g70
(dp1265
g90
g91
ssg79
g1259
sg72
(lp1266
S'get_vars'
p1267
asbag65
(g86
g67
NtRp1268
(dp1269
g70
(dp1270
g97
g98
ssg79
g1259
sg72
(lp1271
S':'
asbag65
(g86
g67
NtRp1272
(dp1273
g70
(dp1274
sg79
g1259
sg72
(lp1275
g65
(g66
g67
NtRp1276
(dp1277
g70
(dp1278
g78
I5
ssg79
g1272
sg72
(lp1279
g65
(g74
g67
NtRp1280
(dp1281
g70
(dp1282
g78
I4
ssg79
Nsg72
(lp1283
sbasbasbasbag65
(g81
g67
NtRp1284
(dp1285
g70
(dp1286
sg79
g75
sg72
(lp1287
g65
(g86
g67
NtRp1288
(dp1289
g70
(dp1290
g90
g91
ssg79
g1284
sg72
(lp1291
S'is_https'
p1292
asbag65
(g86
g67
NtRp1293
(dp1294
g70
(dp1295
g97
g98
ssg79
g1284
sg72
(lp1296
S':'
asbag65
(g86
g67
NtRp1297
(dp1298
g70
(dp1299
sg79
g1284
sg72
(lp1300
g65
(g66
g67
NtRp1301
(dp1302
g70
(dp1303
g78
I5
ssg79
g1297
sg72
(lp1304
g108
asbasbasbag65
(g81
g67
NtRp1305
(dp1306
g70
(dp1307
sg79
g75
sg72
(lp1308
g65
(g86
g67
NtRp1309
(dp1310
g70
(dp1311
g90
g91
ssg79
g1305
sg72
(lp1312
S'is_local'
p1313
asbag65
(g86
g67
NtRp1314
(dp1315
g70
(dp1316
g97
g98
ssg79
g1305
sg72
(lp1317
S':'
asbag65
(g86
g67
NtRp1318
(dp1319
g70
(dp1320
sg79
g1305
sg72
(lp1321
g65
(g66
g67
NtRp1322
(dp1323
g70
(dp1324
g78
I5
ssg79
g1318
sg72
(lp1325
g1100
asbasbasbag65
(g81
g67
NtRp1326
(dp1327
g70
(dp1328
sg79
g75
sg72
(lp1329
g65
(g86
g67
NtRp1330
(dp1331
g70
(dp1332
g90
g91
ssg79
g1326
sg72
(lp1333
S'is_restful'
p1334
asbag65
(g86
g67
NtRp1335
(dp1336
g70
(dp1337
g97
g98
ssg79
g1326
sg72
(lp1338
S':'
asbag65
(g86
g67
NtRp1339
(dp1340
g70
(dp1341
sg79
g1326
sg72
(lp1342
g65
(g66
g67
NtRp1343
(dp1344
g70
(dp1345
g78
I5
ssg79
g1339
sg72
(lp1346
g108
asbasbasbag65
(g81
g67
NtRp1347
(dp1348
g70
(dp1349
sg79
g75
sg72
(lp1350
g65
(g86
g67
NtRp1351
(dp1352
g70
(dp1353
g90
g91
ssg79
g1347
sg72
(lp1354
S'now'
p1355
asbag65
(g86
g67
NtRp1356
(dp1357
g70
(dp1358
g97
g98
ssg79
g1347
sg72
(lp1359
S':'
asbag65
(g86
g67
NtRp1360
(dp1361
g70
(dp1362
sg79
g1347
sg72
(lp1363
g65
(g66
g67
NtRp1364
(dp1365
g70
(dp1366
g78
I5
ssg79
g1360
sg72
(lp1367
S'datetime.datetime(2011, 8, 27, 18, 28, 45, 925223)'
p1368
asbasbasbag65
(g81
g67
NtRp1369
(dp1370
g70
(dp1371
sg79
g75
sg72
(lp1372
g65
(g86
g67
NtRp1373
(dp1374
g70
(dp1375
g90
g91
ssg79
g1369
sg72
(lp1376
S'post_vars'
p1377
asbag65
(g86
g67
NtRp1378
(dp1379
g70
(dp1380
g97
g98
ssg79
g1369
sg72
(lp1381
S':'
asbag65
(g86
g67
NtRp1382
(dp1383
g70
(dp1384
sg79
g1369
sg72
(lp1385
g65
(g66
g67
NtRp1386
(dp1387
g70
(dp1388
g78
I5
ssg79
g1382
sg72
(lp1389
g65
(g74
g67
NtRp1390
(dp1391
g70
(dp1392
g78
I4
ssg79
Nsg72
(lp1393
sbasbasbasbag65
(g81
g67
NtRp1394
(dp1395
g70
(dp1396
sg79
g75
sg72
(lp1397
g65
(g86
g67
NtRp1398
(dp1399
g70
(dp1400
g90
g91
ssg79
g1394
sg72
(lp1401
S'url'
p1402
asbag65
(g86
g67
NtRp1403
(dp1404
g70
(dp1405
g97
g98
ssg79
g1394
sg72
(lp1406
S':'
asbag65
(g86
g67
NtRp1407
(dp1408
g70
(dp1409
sg79
g1394
sg72
(lp1410
g65
(g66
g67
NtRp1411
(dp1412
g70
(dp1413
g78
I5
ssg79
g1407
sg72
(lp1414
S'/init/default/submission'
p1415
asbasbasbag65
(g81
g67
NtRp1416
(dp1417
g70
(dp1418
sg79
g75
sg72
(lp1419
g65
(g86
g67
NtRp1420
(dp1421
g70
(dp1422
g90
g91
ssg79
g1416
sg72
(lp1423
S'uuid'
p1424
asbag65
(g86
g67
NtRp1425
(dp1426
g70
(dp1427
g97
g98
ssg79
g1416
sg72
(lp1428
S':'
asbag65
(g86
g67
NtRp1429
(dp1430
g70
(dp1431
sg79
g1416
sg72
(lp1432
g65
(g66
g67
NtRp1433
(dp1434
g70
(dp1435
g78
I5
ssg79
g1429
sg72
(lp1436
S'init/127.0.0.1.2011-08-27.18-28-45.836477cf-8b30-44f3-86f9-25237d1b9453'
p1437
asbasbasbag65
(g81
g67
NtRp1438
(dp1439
g70
(dp1440
sg79
g75
sg72
(lp1441
g65
(g86
g67
NtRp1442
(dp1443
g70
(dp1444
g90
g91
ssg79
g1438
sg72
(lp1445
S'vars'
p1446
asbag65
(g86
g67
NtRp1447
(dp1448
g70
(dp1449
g97
g98
ssg79
g1438
sg72
(lp1450
S':'
asbag65
(g86
g67
NtRp1451
(dp1452
g70
(dp1453
sg79
g1438
sg72
(lp1454
g65
(g66
g67
NtRp1455
(dp1456
g70
(dp1457
g78
I5
ssg79
g1451
sg72
(lp1458
g65
(g74
g67
NtRp1459
(dp1460
g70
(dp1461
g78
I4
ssg79
Nsg72
(lp1462
sbasbasbasbag65
(g81
g67
NtRp1463
(dp1464
g70
(dp1465
sg79
g75
sg72
(lp1466
g65
(g86
g67
NtRp1467
(dp1468
g70
(dp1469
g90
g91
ssg79
g1463
sg72
(lp1470
S'wsgi'
p1471
asbag65
(g86
g67
NtRp1472
(dp1473
g70
(dp1474
g97
g98
ssg79
g1463
sg72
(lp1475
S':'
asbag65
(g86
g67
NtRp1476
(dp1477
g70
(dp1478
sg79
g1463
sg72
(lp1479
g65
(g66
g67
NtRp1480
(dp1481
g70
(dp1482
g78
I5
ssg79
g1476
sg72
(lp1483
g65
(g74
g67
NtRp1484
(dp1485
g70
(dp1486
g78
I4
ssg79
Nsg72
(lp1487
sbasbasbasbasbasbsS'frames'
p1488
(lp1489
(dp1490
S'file'
p1491
S'/opt/local/Library/Frameworks/Python.framework/Versions/2.7/lib/python2.7/gluon/main.py'
p1492
sS'dump'
p1493
(dp1494
S'global parse_get_post_vars'
p1495
S'<function parse_get_post_vars>'
p1496
sS'request'
p1497
S"<Storage {'is_local': True, 'function': 'submiss....18-28-45.836477cf-8b30-44f3-86f9-25237d1b9453'}>"
p1498
sS'environ'
p1499
S"{'CONTENT_LENGTH': '118882256', 'CONTENT_TYPE': 'multipart/form-data; boundary=---------------------------986067328702277797612810267', 'HTTP_ACCEPT': 'text/html,application/xhtml+xml,application/xml;q=0.9,*/*;q=0.8', 'HTTP_ACCEPT_CHARSET': 'ISO-8859-1,utf-8;q=0.7,*;q=0.7', 'HTTP_ACCEPT_ENCODING': 'gzip, deflate', 'HTTP_ACCEPT_LANGUAGE': 'en-us,en;q=0.5', 'HTTP_CONNECTION': 'keep-alive', 'HTTP_CONTENT_LENGTH': '118882256', 'HTTP_CONTENT_TYPE': 'multipart/form-data; boundary=---------------------------986067328702277797612810267', 'HTTP_COOKIE': 'session_id_admin=127.0.0.1-67122ce4-50b2-4acf-b2...it=127.0.0.1-a8551263-bc3c-430c-abb2-8711fac671c1', ...}"
p1500
ssS'lnum'
p1501
I442
sS'lines'
p1502
(dp1503
I437
S''
sI438
S'                # ##################################################'
p1504
sI439
S'                # get the GET and POST data'
p1505
sI440
S'                # ##################################################'
p1506
sI441
S''
sI442
S'                parse_get_post_vars(request, environ)'
p1507
sI443
S''
sI444
S'                # ##################################################'
p1508
sI445
S'                # expose wsgi hooks for convenience'
p1509
sI446
S'                # ##################################################'
p1510
ssS'call'
p1511
S"(environ={'CONTENT_LENGTH': '118882256', 'CONTENT_TYPE': 'multipart/form-data; boundary=---------------------------986067328702277797612810267', 'HTTP_ACCEPT': 'text/html,application/xhtml+xml,application/xml;q=0.9,*/*;q=0.8', 'HTTP_ACCEPT_CHARSET': 'ISO-8859-1,utf-8;q=0.7,*;q=0.7', 'HTTP_ACCEPT_ENCODING': 'gzip, deflate', 'HTTP_ACCEPT_LANGUAGE': 'en-us,en;q=0.5', 'HTTP_CONNECTION': 'keep-alive', 'HTTP_CONTENT_LENGTH': '118882256', 'HTTP_CONTENT_TYPE': 'multipart/form-data; boundary=---------------------------986067328702277797612810267', 'HTTP_COOKIE': 'session_id_admin=127.0.0.1-67122ce4-50b2-4acf-b2...it=127.0.0.1-a8551263-bc3c-430c-abb2-8711fac671c1', ...}, responder=<function responder2>)"
p1512
sS'func'
p1513
S'wsgibase'
p1514
sa(dp1515
g1491
S'/opt/local/Library/Frameworks/Python.framework/Versions/2.7/lib/python2.7/gluon/main.py'
p1516
sg1493
(dp1517
S'global copystream_progress'
p1518
S'<function copystream_progress>'
p1519
sS'request.body'
p1520
S'None'
p1521
sS'request'
p1522
S"<Storage {'is_local': True, 'function': 'submiss....18-28-45.836477cf-8b30-44f3-86f9-25237d1b9453'}>"
p1523
ssg1501
I276
sg1502
(dp1524
I271
S'        else:'
p1525
sI272
S'            request.get_vars[key] = value'
p1526
sI273
S'        request.vars[key] = request.get_vars[key]'
p1527
sI274
S''
sI275
S'    # parse POST variables on POST, PUT, BOTH only in post_vars'
p1528
sI276
S'    request.body = copystream_progress(request) ### stores request body'
p1529
sI277
S"    if (request.body and request.env.request_method in ('POST', 'PUT', 'BOTH')):"
p1530
sI278
S'        dpost = cgi.FieldStorage(fp=request.body,environ=environ,keep_blank_values=1)'
p1531
sI279
S'        # The same detection used by FieldStorage to detect multipart POSTs'
p1532
sI280
S"        is_multipart = dpost.type[:10] == 'multipart/'"
p1533
ssg1511
S"(request=<Storage {'is_local': True, 'function': 'submiss....18-28-45.836477cf-8b30-44f3-86f9-25237d1b9453'}>, environ={'CONTENT_LENGTH': '118882256', 'CONTENT_TYPE': 'multipart/form-data; boundary=---------------------------986067328702277797612810267', 'HTTP_ACCEPT': 'text/html,application/xhtml+xml,application/xml;q=0.9,*/*;q=0.8', 'HTTP_ACCEPT_CHARSET': 'ISO-8859-1,utf-8;q=0.7,*;q=0.7', 'HTTP_ACCEPT_ENCODING': 'gzip, deflate', 'HTTP_ACCEPT_LANGUAGE': 'en-us,en;q=0.5', 'HTTP_CONNECTION': 'keep-alive', 'HTTP_CONTENT_LENGTH': '118882256', 'HTTP_CONTENT_TYPE': 'multipart/form-data; boundary=---------------------------986067328702277797612810267', 'HTTP_COOKIE': 'session_id_admin=127.0.0.1-67122ce4-50b2-4acf-b2...it=127.0.0.1-a8551263-bc3c-430c-abb2-8711fac671c1', ...})"
p1534
sg1513
S'parse_get_post_vars'
p1535
sa(dp1536
g1491
S'/opt/local/Library/Frameworks/Python.framework/Versions/2.7/lib/python2.7/gluon/main.py'
p1537
sg1493
(dp1538
S'dest'
p1539
S"<open file '<fdopen>', mode 'w+b'>"
p1540
sS'source'
p1541
S'<socket._fileobject object>'
p1542
sS'chunk_size'
p1543
S'100000'
p1544
sS'global copystream'
p1545
S'<function copystream>'
p1546
sS'size'
p1547
S'118882256'
p1548
ssg1501
I144
sg1502
(dp1549
I139
S'        return cStringIO.StringIO()'
p1550
sI140
S'    source = request.env.wsgi_input'
p1551
sI141
S'    size = int(request.env.content_length)'
p1552
sI142
S'    dest = tempfile.TemporaryFile()'
p1553
sI143
S"    if not 'X-Progress-ID' in request.vars:"
p1554
sI144
S'        copystream(source, dest, size, chunk_size)'
p1555
sI145
S'        return dest'
p1556
sI146
S"    cache_key = 'X-Progress-ID:'+request.vars['X-Progress-ID']"
p1557
sI147
S'    cache = Cache(request)'
p1558
sI148
S"    cache.ram(cache_key+':length', lambda: size, 0)"
p1559
ssg1511
S"(request=<Storage {'is_local': True, 'function': 'submiss....18-28-45.836477cf-8b30-44f3-86f9-25237d1b9453'}>, chunk_size=100000)"
p1560
sg1513
S'copystream_progress'
p1561
sa(dp1562
g1491
S'/opt/local/Library/Frameworks/Python.framework/Versions/2.7/lib/python2.7/gluon/fileutils.py'
p1563
sg1493
(dp1564
S'src'
p1565
S'<socket._fileobject object>'
p1566
sS'data'
p1567
S'\'\\x04\\x90;\\x0f]\\x05bE_\\n\\xa7\\x847UJ\\xc6-\\xd0-",b\\x88\\x8cAUQ\\x82\\xc4\\x1e\\xc6V1\\xdf\\xbc\\x0cb\\xc5US\\xd1\\xb5\\x87\\x95\\x94\\x02\\xc4]...\\x8b\\x8c\\nQ\\xc5\\xa7[Z\\xd6\\xab^73\\x93\\x8aW\\xc3&G\\xa3\\x998\\x05-\\xa9M\\x84\\x16R\\xc9aQ\\xd6\\x80\\x15@L[\\xe9\\xab\\x86\\xadP7%\\xde\\xea\\xb6P\''
p1568
sS'src.read'
p1569
S'<bound method _fileobject.read of <socket._fileobject object>>'
p1570
sS'chunk_size'
p1571
S'100000'
p1572
ssg1501
I366
sg1502
(dp1573
I361
S'    """'
p1574
sI362
S'    while size > 0:'
p1575
sI363
S'        if size < chunk_size:'
p1576
sI364
S'            data = src.read(size)'
p1577
sI365
S'        else:'
p1578
sI366
S'            data = src.read(chunk_size)'
p1579
sI367
S'        length = len(data)'
p1580
sI368
S'        if length > size:'
p1581
sI369
S'            (data, length) = (data[:size], size)'
p1582
sI370
S'        size -= length'
p1583
ssg1511
S"(src=<socket._fileobject object>, dest=<open file '<fdopen>', mode 'w+b'>, size=113482256, chunk_size=100000)"
p1584
sg1513
S'copystream'
p1585
sa(dp1586
g1491
S'/opt/local/Library/Frameworks/Python.framework/Versions/2.7/lib/python2.7/socket.py'
p1587
sg1493
(dp1588
S'self._sock.recv'
p1589
S'<built-in method recv of _socket.socket object>'
p1590
sS'self._sock'
p1591
S'<socket object, fd=10, family=2, type=1, protocol=0>'
p1592
sS'self'
p1593
S'<socket._fileobject object>'
p1594
sS'data'
p1595
S'undefined'
p1596
sS'left'
p1597
S'61859'
p1598
ssg1501
I380
sg1502
(dp1599
I384
S'                    raise'
p1600
sI375
S'                # parameter even though it often returns much less data'
p1601
sI376
S'                # than that.  The returned data string is short lived'
p1602
sI377
S'                # as we copy it into a StringIO and free it.  This avoids'
p1603
sI378
S'                # fragmentation issues on many platforms.'
p1604
sI379
S'                try:'
p1605
sI380
S'                    data = self._sock.recv(left)'
p1606
sI381
S'                except error, e:'
p1607
sI382
S'                    if e.args[0] == EINTR:'
p1608
sI383
S'                        continue'
p1609
ssg1511
S'(self=<socket._fileobject object>, size=100000)'
p1610
sg1513
S'read'
p1611
sasS'pyver'
p1612
S'Python 2.7.1: /opt/local/Library/Frameworks/Python.framework/Versions/2.7/Resources/Python.app/Contents/MacOS/Python'
p1613
sS'session'
p1614
g65
(g66
g67
NtRp1615
(dp1616
g70
(dp1617
sg72
(lp1618
g65
(g74
g67
NtRp1619
(dp1620
g70
(dp1621
g78
I5
ssg79
Nsg72
(lp1622
sbasbsS'etype'
p1623
S"<class 'socket.timeout'>"
p1624
sS'date'
p1625
S'Sat Aug 27 18:28:47 2011'
p1626
sS'response'
p1627
g65
(g66
g67
NtRp1628
(dp1629
g70
(dp1630
sg72
(lp1631
g65
(g74
g67
NtRp1632
(dp1633
g70
(dp1634
g78
I5
ssg79
Nsg72
(lp1635
g65
(g81
g67
NtRp1636
(dp1637
g70
(dp1638
sg79
g1632
sg72
(lp1639
g65
(g86
g67
NtRp1640
(dp1641
g70
(dp1642
g90
g91
ssg79
g1636
sg72
(lp1643
S'body'
p1644
asbag65
(g86
g67
NtRp1645
(dp1646
g70
(dp1647
g97
g98
ssg79
g1636
sg72
(lp1648
S':'
asbag65
(g86
g67
NtRp1649
(dp1650
g70
(dp1651
sg79
g1636
sg72
(lp1652
g65
(g66
g67
NtRp1653
(dp1654
g70
(dp1655
g78
I5
ssg79
g1649
sg72
(lp1656
S'<cStringIO.StringO object at 0x102626ed8>'
p1657
asbasbasbag65
(g81
g67
NtRp1658
(dp1659
g70
(dp1660
sg79
g1632
sg72
(lp1661
g65
(g86
g67
NtRp1662
(dp1663
g70
(dp1664
g90
g91
ssg79
g1658
sg72
(lp1665
g207
asbag65
(g86
g67
NtRp1666
(dp1667
g70
(dp1668
g97
g98
ssg79
g1658
sg72
(lp1669
S':'
asbag65
(g86
g67
NtRp1670
(dp1671
g70
(dp1672
sg79
g1658
sg72
(lp1673
g65
(g66
g67
NtRp1674
(dp1675
g70
(dp1676
g78
I5
ssg79
g1670
sg72
(lp1677
g65
(g74
g67
NtRp1678
(dp1679
g70
(dp1680
g78
I4
ssg79
Nsg72
(lp1681
sbasbasbasbag65
(g81
g67
NtRp1682
(dp1683
g70
(dp1684
sg79
g1632
sg72
(lp1685
g65
(g86
g67
NtRp1686
(dp1687
g70
(dp1688
g90
g91
ssg79
g1682
sg72
(lp1689
S'files'
p1690
asbag65
(g86
g67
NtRp1691
(dp1692
g70
(dp1693
g97
g98
ssg79
g1682
sg72
(lp1694
S':'
asbag65
(g86
g67
NtRp1695
(dp1696
g70
(dp1697
sg79
g1682
sg72
(lp1698
g65
(g66
g67
NtRp1699
(dp1700
g70
(dp1701
g78
I5
ssg79
g1695
sg72
(lp1702
g65
(g74
g67
NtRp1703
(dp1704
g70
(dp1705
g78
I4
ssg79
Nsg72
(lp1706
sbasbasbasbag65
(g81
g67
NtRp1707
(dp1708
g70
(dp1709
sg79
g1632
sg72
(lp1710
g65
(g86
g67
NtRp1711
(dp1712
g70
(dp1713
g90
g91
ssg79
g1707
sg72
(lp1714
S'flash'
p1715
asbag65
(g86
g67
NtRp1716
(dp1717
g70
(dp1718
g97
g98
ssg79
g1707
sg72
(lp1719
S':'
asbag65
(g86
g67
NtRp1720
(dp1721
g70
(dp1722
sg79
g1707
sg72
(lp1723
g65
(g66
g67
NtRp1724
(dp1725
g70
(dp1726
g78
I5
ssg79
g1720
sg72
(lp1727
S''
asbasbasbag65
(g81
g67
NtRp1728
(dp1729
g70
(dp1730
sg79
g1632
sg72
(lp1731
g65
(g86
g67
NtRp1732
(dp1733
g70
(dp1734
g90
g91
ssg79
g1728
sg72
(lp1735
S'generic_patterns'
p1736
asbag65
(g86
g67
NtRp1737
(dp1738
g70
(dp1739
g97
g98
ssg79
g1728
sg72
(lp1740
S':'
asbag65
(g86
g67
NtRp1741
(dp1742
g70
(dp1743
sg79
g1728
sg72
(lp1744
g65
(g66
g67
NtRp1745
(dp1746
g70
(dp1747
g78
I5
ssg79
g1741
sg72
(lp1748
g65
(g74
g67
NtRp1749
(dp1750
g70
(dp1751
g78
I4
ssg79
Nsg72
(lp1752
sbasbasbasbag65
(g81
g67
NtRp1753
(dp1754
g70
(dp1755
sg79
g1632
sg72
(lp1756
g65
(g86
g67
NtRp1757
(dp1758
g70
(dp1759
g90
g91
ssg79
g1753
sg72
(lp1760
S'headers'
p1761
asbag65
(g86
g67
NtRp1762
(dp1763
g70
(dp1764
g97
g98
ssg79
g1753
sg72
(lp1765
S':'
asbag65
(g86
g67
NtRp1766
(dp1767
g70
(dp1768
sg79
g1753
sg72
(lp1769
g65
(g66
g67
NtRp1770
(dp1771
g70
(dp1772
g78
I5
ssg79
g1766
sg72
(lp1773
g65
(g74
g67
NtRp1774
(dp1775
g70
(dp1776
g78
I4
ssg79
Nsg72
(lp1777
g65
(g81
g67
NtRp1778
(dp1779
g70
(dp1780
sg79
g1774
sg72
(lp1781
g65
(g86
g67
NtRp1782
(dp1783
g70
(dp1784
g90
g91
ssg79
g1778
sg72
(lp1785
S'X-Powered-By'
p1786
asbag65
(g86
g67
NtRp1787
(dp1788
g70
(dp1789
g97
g98
ssg79
g1778
sg72
(lp1790
S':'
asbag65
(g86
g67
NtRp1791
(dp1792
g70
(dp1793
sg79
g1778
sg72
(lp1794
g65
(g66
g67
NtRp1795
(dp1796
g70
(dp1797
g78
I4
ssg79
g1791
sg72
(lp1798
S'web2py'
p1799
asbasbasbasbasbasbasbag65
(g81
g67
NtRp1800
(dp1801
g70
(dp1802
sg79
g1632
sg72
(lp1803
g65
(g86
g67
NtRp1804
(dp1805
g70
(dp1806
g90
g91
ssg79
g1800
sg72
(lp1807
S'menu'
p1808
asbag65
(g86
g67
NtRp1809
(dp1810
g70
(dp1811
g97
g98
ssg79
g1800
sg72
(lp1812
S':'
asbag65
(g86
g67
NtRp1813
(dp1814
g70
(dp1815
sg79
g1800
sg72
(lp1816
g65
(g66
g67
NtRp1817
(dp1818
g70
(dp1819
g78
I5
ssg79
g1813
sg72
(lp1820
g65
(g74
g67
NtRp1821
(dp1822
g70
(dp1823
g78
I4
ssg79
Nsg72
(lp1824
sbasbasbasbag65
(g81
g67
NtRp1825
(dp1826
g70
(dp1827
sg79
g1632
sg72
(lp1828
g65
(g86
g67
NtRp1829
(dp1830
g70
(dp1831
g90
g91
ssg79
g1825
sg72
(lp1832
S'meta'
p1833
asbag65
(g86
g67
NtRp1834
(dp1835
g70
(dp1836
g97
g98
ssg79
g1825
sg72
(lp1837
S':'
asbag65
(g86
g67
NtRp1838
(dp1839
g70
(dp1840
sg79
g1825
sg72
(lp1841
g65
(g66
g67
NtRp1842
(dp1843
g70
(dp1844
g78
I5
ssg79
g1838
sg72
(lp1845
g65
(g74
g67
NtRp1846
(dp1847
g70
(dp1848
g78
I4
ssg79
Nsg72
(lp1849
sbasbasbasbag65
(g81
g67
NtRp1850
(dp1851
g70
(dp1852
sg79
g1632
sg72
(lp1853
g65
(g86
g67
NtRp1854
(dp1855
g70
(dp1856
g90
g91
ssg79
g1850
sg72
(lp1857
S'postprocessing'
p1858
asbag65
(g86
g67
NtRp1859
(dp1860
g70
(dp1861
g97
g98
ssg79
g1850
sg72
(lp1862
S':'
asbag65
(g86
g67
NtRp1863
(dp1864
g70
(dp1865
sg79
g1850
sg72
(lp1866
g65
(g66
g67
NtRp1867
(dp1868
g70
(dp1869
g78
I5
ssg79
g1863
sg72
(lp1870
g65
(g74
g67
NtRp1871
(dp1872
g70
(dp1873
g78
I4
ssg79
Nsg72
(lp1874
sbasbasbasbag65
(g81
g67
NtRp1875
(dp1876
g70
(dp1877
sg79
g1632
sg72
(lp1878
g65
(g86
g67
NtRp1879
(dp1880
g70
(dp1881
g90
g91
ssg79
g1875
sg72
(lp1882
S'status'
p1883
asbag65
(g86
g67
NtRp1884
(dp1885
g70
(dp1886
g97
g98
ssg79
g1875
sg72
(lp1887
S':'
asbag65
(g86
g67
NtRp1888
(dp1889
g70
(dp1890
sg79
g1875
sg72
(lp1891
g65
(g66
g67
NtRp1892
(dp1893
g70
(dp1894
g78
I5
ssg79
g1888
sg72
(lp1895
S'200'
p1896
asbasbasbag65
(g81
g67
NtRp1897
(dp1898
g70
(dp1899
sg79
g1632
sg72
(lp1900
g65
(g86
g67
NtRp1901
(dp1902
g70
(dp1903
g90
g91
ssg79
g1897
sg72
(lp1904
g1424
asbag65
(g86
g67
NtRp1905
(dp1906
g70
(dp1907
g97
g98
ssg79
g1897
sg72
(lp1908
S':'
asbag65
(g86
g67
NtRp1909
(dp1910
g70
(dp1911
sg79
g1897
sg72
(lp1912
g65
(g66
g67
NtRp1913
(dp1914
g70
(dp1915
g78
I5
ssg79
g1909
sg72
(lp1916
g1437
asbasbasbasbasbsS'locals'
p1917
(dp1918
S'e'
S"timeout('timed out',)"
p1919
sS'self'
p1920
S'<socket._fileobject object>'
p1921
sS'n'
S'38141'
p1922
sS'rbufsize'
p1923
S'16384'
p1924
sS'buf_len'
p1925
S'38141'
p1926
sS'left'
p1927
S'61859'
p1928
sS'buf'
p1929
S'<cStringIO.StringO object>'
p1930
sS'size'
p1931
S'100000'
p1932
sssS'traceback'
p1933
S'Traceback (most recent call last):\n  File "/opt/local/Library/Frameworks/Python.framework/Versions/2.7/lib/python2.7/gluon/main.py", line 442, in wsgibase\n    parse_get_post_vars(request, environ)\n  File "/opt/local/Library/Frameworks/Python.framework/Versions/2.7/lib/python2.7/gluon/main.py", line 276, in parse_get_post_vars\n    request.body = copystream_progress(request) ### stores request body\n  File "/opt/local/Library/Frameworks/Python.framework/Versions/2.7/lib/python2.7/gluon/main.py", line 144, in copystream_progress\n    copystream(source, dest, size, chunk_size)\n  File "/opt/local/Library/Frameworks/Python.framework/Versions/2.7/lib/python2.7/gluon/fileutils.py", line 366, in copystream\n    data = src.read(chunk_size)\n  File "/opt/local/Library/Frameworks/Python.framework/Versions/2.7/lib/python2.7/socket.py", line 380, in read\n    data = self._sock.recv(left)\ntimeout: timed out\n'
p1934
s.