(dp1
S'output'
p2
S''
sS'layer'
p3
S'/Users/hellais/Documents/code/mygit/globaleaks/webapp/applications/init/controllers/default.py'
p4
sS'code'
p5
S'# -*- coding: utf-8 -*-\n### required - do no delete\n\ndef gen_form():\n     \n    return (Field(\'Title\', requires=IS_NOT_EMPTY()),Field(\'Description\', \'text\', requires=IS_NOT_EMPTY()),Field(\'Tags\'),Field(\'material\', \'upload\', uploadfolder="uploads/"),\n        Field(\'dislaimer\', \'boolean\', requires=IS_EQUAL_TO("on", error_message="Please read the disclaimer")))\n\ndef user(): return dict(form=auth())\ndef download(): return response.download(request,db)\ndef call():\n    session.forget()\n    return service()\n### end requires\ndef index():\n    return dict(message=T("Diocane"))\n\ndef submission():\n    """form = FORM(\'Your name:\', INPUT(_name=\'Title\',requires=IS_NOT_EMPTY()),\n            \'Tags:\', INPUT(_name=\'Tags\',requires=IS_NOT_EMPTY()),\n            \'Description:\', INPUT(_name=\'Description\',requires=IS_NOT_EMPTY()),\n            \'Files:\', INPUT(_name=\'Files\'), \n            INPUT(_type=\'submit\')\n            )\n    \n    if form.accepts(request.vars, session):\n        response.flash = \'form accepted\'\n    elif form.errors:\n        response.flash = \'form has errors\'\n    else:\n        response.flash = \'please fill the form\'\n    """\n    \n    form = SQLFORM.factory(*gen_form())\n      """ \n    form = SQLFORM.factory(\n        Field(\'Title\', requires=IS_NOT_EMPTY()),\n        Field(\'Description\', \'text\', requires=IS_NOT_EMPTY()),\n        Field(\'Tags\'),\n        Field(\'material\', \'upload\', uploadfolder="uploads/"),\n        Field(\'dislaimer\', \'boolean\', requires=IS_EQUAL_TO("on", error_message="Please read the disclaimer")))\n """\n \n    if form.accepts(request.vars, session):\n        response.flash = \'form accepted\'\n    elif form.errors:\n        response.flash = \'form has errors\'\n    else:\n        response.flash = \'please fill the form\'        \n    \n    return dict(form=form)\n\ndef error():\n    return dict()\n\nresponse._vars=response._caller(submission)\n'
p6
sS'snapshot'
p7
(dp8
S'exception'
p9
(dp10
S'__getslice__'
p11
S"<method-wrapper '__getslice__' of exceptions.IndentationError object>"
p12
sS'text'
p13
S'\'      """ \\n\''
p14
sS'__str__'
p15
S"<method-wrapper '__str__' of exceptions.IndentationError object>"
p16
sS'__reduce__'
p17
S'<built-in method __reduce__ of exceptions.IndentationError object>'
p18
sS'__dict__'
p19
S'{}'
p20
sS'__sizeof__'
p21
S'<built-in method __sizeof__ of exceptions.IndentationError object>'
p22
sS'__init__'
p23
S"<method-wrapper '__init__' of exceptions.IndentationError object>"
p24
sS'__setattr__'
p25
S"<method-wrapper '__setattr__' of exceptions.IndentationError object>"
p26
sS'__reduce_ex__'
p27
S'<built-in method __reduce_ex__ of exceptions.IndentationError object>'
p28
sS'__new__'
p29
S'<built-in method __new__ of type object>'
p30
sS'__format__'
p31
S'<built-in method __format__ of exceptions.IndentationError object>'
p32
sS'__class__'
p33
S"<type 'exceptions.IndentationError'>"
p34
sS'filename'
p35
S"'/Users/hellais/Documents/code/mygit/globaleaks/webapp/applications/init/controllers/default.py'"
p36
sS'lineno'
p37
S'35'
p38
sS'msg'
p39
S"'unexpected indent'"
p40
sS'__doc__'
p41
S"'Improper indentation.'"
p42
sS'__getitem__'
p43
S"<method-wrapper '__getitem__' of exceptions.IndentationError object>"
p44
sS'__setstate__'
p45
S'<built-in method __setstate__ of exceptions.IndentationError object>'
p46
sS'__getattribute__'
p47
S"<method-wrapper '__getattribute__' of exceptions.IndentationError object>"
p48
sS'print_file_and_line'
p49
S'None'
p50
sS'args'
p51
S'(\'unexpected indent\', (\'/Users/hellais/Documents/code/mygit/globaleaks/webapp/applications/init/controllers/default.py\', 35, 6, \'      """ \\n\'))'
p52
sS'__subclasshook__'
p53
S'<built-in method __subclasshook__ of type object>'
p54
sS'offset'
p55
S'6'
sS'__unicode__'
p56
S'<built-in method __unicode__ of exceptions.IndentationError object>'
p57
sS'__delattr__'
p58
S"<method-wrapper '__delattr__' of exceptions.IndentationError object>"
p59
sS'__repr__'
p60
S"<method-wrapper '__repr__' of exceptions.IndentationError object>"
p61
sS'__hash__'
p62
S"<method-wrapper '__hash__' of exceptions.IndentationError object>"
p63
ssS'evalue'
p64
S'unexpected indent (default.py, line 35)'
p65
sS'request'
p66
ccopy_reg
_reconstructor
p67
(cgluon.html
BEAUTIFY
p68
c__builtin__
object
p69
NtRp70
(dp71
S'attributes'
p72
(dp73
sS'components'
p74
(lp75
g67
(cgluon.html
TABLE
p76
g69
NtRp77
(dp78
g72
(dp79
S'level'
p80
I5
ssS'parent'
p81
Nsg74
(lp82
g67
(cgluon.html
TR
p83
g69
NtRp84
(dp85
g72
(dp86
sg81
g77
sg74
(lp87
g67
(cgluon.html
TD
p88
g69
NtRp89
(dp90
g72
(dp91
S'_style'
p92
S'font-weight:bold;'
p93
ssg81
g84
sg74
(lp94
S'ajax'
p95
asbag67
(g88
g69
NtRp96
(dp97
g72
(dp98
S'_valign'
p99
S'top'
p100
ssg81
g84
sg74
(lp101
S':'
asbag67
(g88
g69
NtRp102
(dp103
g72
(dp104
sg81
g84
sg74
(lp105
g67
(g68
g69
NtRp106
(dp107
g72
(dp108
g80
I5
ssg81
g102
sg74
(lp109
S'False'
p110
asbasbasbag67
(g83
g69
NtRp111
(dp112
g72
(dp113
sg81
g77
sg74
(lp114
g67
(g88
g69
NtRp115
(dp116
g72
(dp117
g92
g93
ssg81
g111
sg74
(lp118
S'application'
p119
asbag67
(g88
g69
NtRp120
(dp121
g72
(dp122
g99
g100
ssg81
g111
sg74
(lp123
S':'
asbag67
(g88
g69
NtRp124
(dp125
g72
(dp126
sg81
g111
sg74
(lp127
g67
(g68
g69
NtRp128
(dp129
g72
(dp130
g80
I5
ssg81
g124
sg74
(lp131
S'init'
p132
asbasbasbag67
(g83
g69
NtRp133
(dp134
g72
(dp135
sg81
g77
sg74
(lp136
g67
(g88
g69
NtRp137
(dp138
g72
(dp139
g92
g93
ssg81
g133
sg74
(lp140
g51
asbag67
(g88
g69
NtRp141
(dp142
g72
(dp143
g99
g100
ssg81
g133
sg74
(lp144
S':'
asbag67
(g88
g69
NtRp145
(dp146
g72
(dp147
sg81
g133
sg74
(lp148
g67
(g68
g69
NtRp149
(dp150
g72
(dp151
g80
I5
ssg81
g145
sg74
(lp152
g67
(g76
g69
NtRp153
(dp154
g72
(dp155
g80
I4
ssg81
Nsg74
(lp156
sbasbasbasbag67
(g83
g69
NtRp157
(dp158
g72
(dp159
sg81
g77
sg74
(lp160
g67
(g88
g69
NtRp161
(dp162
g72
(dp163
g92
g93
ssg81
g157
sg74
(lp164
S'body'
p165
asbag67
(g88
g69
NtRp166
(dp167
g72
(dp168
g99
g100
ssg81
g157
sg74
(lp169
S':'
asbag67
(g88
g69
NtRp170
(dp171
g72
(dp172
sg81
g157
sg74
(lp173
g67
(g68
g69
NtRp174
(dp175
g72
(dp176
g80
I5
ssg81
g170
sg74
(lp177
S'<cStringIO.StringO object at 0x101c8a308>'
p178
asbasbasbag67
(g83
g69
NtRp179
(dp180
g72
(dp181
sg81
g77
sg74
(lp182
g67
(g88
g69
NtRp183
(dp184
g72
(dp185
g92
g93
ssg81
g179
sg74
(lp186
S'client'
p187
asbag67
(g88
g69
NtRp188
(dp189
g72
(dp190
g99
g100
ssg81
g179
sg74
(lp191
S':'
asbag67
(g88
g69
NtRp192
(dp193
g72
(dp194
sg81
g179
sg74
(lp195
g67
(g68
g69
NtRp196
(dp197
g72
(dp198
g80
I5
ssg81
g192
sg74
(lp199
S'127.0.0.1'
p200
asbasbasbag67
(g83
g69
NtRp201
(dp202
g72
(dp203
sg81
g77
sg74
(lp204
g67
(g88
g69
NtRp205
(dp206
g72
(dp207
g92
g93
ssg81
g201
sg74
(lp208
S'controller'
p209
asbag67
(g88
g69
NtRp210
(dp211
g72
(dp212
g99
g100
ssg81
g201
sg74
(lp213
S':'
asbag67
(g88
g69
NtRp214
(dp215
g72
(dp216
sg81
g201
sg74
(lp217
g67
(g68
g69
NtRp218
(dp219
g72
(dp220
g80
I5
ssg81
g214
sg74
(lp221
S'default'
p222
asbasbasbag67
(g83
g69
NtRp223
(dp224
g72
(dp225
sg81
g77
sg74
(lp226
g67
(g88
g69
NtRp227
(dp228
g72
(dp229
g92
g93
ssg81
g223
sg74
(lp230
S'cookies'
p231
asbag67
(g88
g69
NtRp232
(dp233
g72
(dp234
g99
g100
ssg81
g223
sg74
(lp235
S':'
asbag67
(g88
g69
NtRp236
(dp237
g72
(dp238
sg81
g223
sg74
(lp239
g67
(g68
g69
NtRp240
(dp241
g72
(dp242
g80
I5
ssg81
g236
sg74
(lp243
g67
(g76
g69
NtRp244
(dp245
g72
(dp246
g80
I4
ssg81
Nsg74
(lp247
g67
(g83
g69
NtRp248
(dp249
g72
(dp250
sg81
g244
sg74
(lp251
g67
(g88
g69
NtRp252
(dp253
g72
(dp254
g92
g93
ssg81
g248
sg74
(lp255
S'session_id_admin'
p256
asbag67
(g88
g69
NtRp257
(dp258
g72
(dp259
g99
g100
ssg81
g248
sg74
(lp260
S':'
asbag67
(g88
g69
NtRp261
(dp262
g72
(dp263
sg81
g248
sg74
(lp264
g67
(g68
g69
NtRp265
(dp266
g72
(dp267
g80
I4
ssg81
g261
sg74
(lp268
g67
(g76
g69
NtRp269
(dp270
g72
(dp271
g80
I3
ssg81
Nsg74
(lp272
g67
(g83
g69
NtRp273
(dp274
g72
(dp275
sg81
g269
sg74
(lp276
g67
(g88
g69
NtRp277
(dp278
g72
(dp279
g92
g93
ssg81
g273
sg74
(lp280
S'comment'
p281
asbag67
(g88
g69
NtRp282
(dp283
g72
(dp284
g99
g100
ssg81
g273
sg74
(lp285
S':'
asbag67
(g88
g69
NtRp286
(dp287
g72
(dp288
sg81
g273
sg74
(lp289
g67
(g68
g69
NtRp290
(dp291
g72
(dp292
g80
I3
ssg81
g286
sg74
(lp293
S''
asbasbasbag67
(g83
g69
NtRp294
(dp295
g72
(dp296
sg81
g269
sg74
(lp297
g67
(g88
g69
NtRp298
(dp299
g72
(dp300
g92
g93
ssg81
g294
sg74
(lp301
S'domain'
p302
asbag67
(g88
g69
NtRp303
(dp304
g72
(dp305
g99
g100
ssg81
g294
sg74
(lp306
S':'
asbag67
(g88
g69
NtRp307
(dp308
g72
(dp309
sg81
g294
sg74
(lp310
g67
(g68
g69
NtRp311
(dp312
g72
(dp313
g80
I3
ssg81
g307
sg74
(lp314
S''
asbasbasbag67
(g83
g69
NtRp315
(dp316
g72
(dp317
sg81
g269
sg74
(lp318
g67
(g88
g69
NtRp319
(dp320
g72
(dp321
g92
g93
ssg81
g315
sg74
(lp322
S'expires'
p323
asbag67
(g88
g69
NtRp324
(dp325
g72
(dp326
g99
g100
ssg81
g315
sg74
(lp327
S':'
asbag67
(g88
g69
NtRp328
(dp329
g72
(dp330
sg81
g315
sg74
(lp331
g67
(g68
g69
NtRp332
(dp333
g72
(dp334
g80
I3
ssg81
g328
sg74
(lp335
S''
asbasbasbag67
(g83
g69
NtRp336
(dp337
g72
(dp338
sg81
g269
sg74
(lp339
g67
(g88
g69
NtRp340
(dp341
g72
(dp342
g92
g93
ssg81
g336
sg74
(lp343
S'httponly'
p344
asbag67
(g88
g69
NtRp345
(dp346
g72
(dp347
g99
g100
ssg81
g336
sg74
(lp348
S':'
asbag67
(g88
g69
NtRp349
(dp350
g72
(dp351
sg81
g336
sg74
(lp352
g67
(g68
g69
NtRp353
(dp354
g72
(dp355
g80
I3
ssg81
g349
sg74
(lp356
S''
asbasbasbag67
(g83
g69
NtRp357
(dp358
g72
(dp359
sg81
g269
sg74
(lp360
g67
(g88
g69
NtRp361
(dp362
g72
(dp363
g92
g93
ssg81
g357
sg74
(lp364
S'max-age'
p365
asbag67
(g88
g69
NtRp366
(dp367
g72
(dp368
g99
g100
ssg81
g357
sg74
(lp369
S':'
asbag67
(g88
g69
NtRp370
(dp371
g72
(dp372
sg81
g357
sg74
(lp373
g67
(g68
g69
NtRp374
(dp375
g72
(dp376
g80
I3
ssg81
g370
sg74
(lp377
S''
asbasbasbag67
(g83
g69
NtRp378
(dp379
g72
(dp380
sg81
g269
sg74
(lp381
g67
(g88
g69
NtRp382
(dp383
g72
(dp384
g92
g93
ssg81
g378
sg74
(lp385
S'path'
p386
asbag67
(g88
g69
NtRp387
(dp388
g72
(dp389
g99
g100
ssg81
g378
sg74
(lp390
S':'
asbag67
(g88
g69
NtRp391
(dp392
g72
(dp393
sg81
g378
sg74
(lp394
g67
(g68
g69
NtRp395
(dp396
g72
(dp397
g80
I3
ssg81
g391
sg74
(lp398
S''
asbasbasbag67
(g83
g69
NtRp399
(dp400
g72
(dp401
sg81
g269
sg74
(lp402
g67
(g88
g69
NtRp403
(dp404
g72
(dp405
g92
g93
ssg81
g399
sg74
(lp406
S'secure'
p407
asbag67
(g88
g69
NtRp408
(dp409
g72
(dp410
g99
g100
ssg81
g399
sg74
(lp411
S':'
asbag67
(g88
g69
NtRp412
(dp413
g72
(dp414
sg81
g399
sg74
(lp415
g67
(g68
g69
NtRp416
(dp417
g72
(dp418
g80
I3
ssg81
g412
sg74
(lp419
S''
asbasbasbag67
(g83
g69
NtRp420
(dp421
g72
(dp422
sg81
g269
sg74
(lp423
g67
(g88
g69
NtRp424
(dp425
g72
(dp426
g92
g93
ssg81
g420
sg74
(lp427
S'version'
p428
asbag67
(g88
g69
NtRp429
(dp430
g72
(dp431
g99
g100
ssg81
g420
sg74
(lp432
S':'
asbag67
(g88
g69
NtRp433
(dp434
g72
(dp435
sg81
g420
sg74
(lp436
g67
(g68
g69
NtRp437
(dp438
g72
(dp439
g80
I3
ssg81
g433
sg74
(lp440
S''
asbasbasbasbasbasbasbag67
(g83
g69
NtRp441
(dp442
g72
(dp443
sg81
g244
sg74
(lp444
g67
(g88
g69
NtRp445
(dp446
g72
(dp447
g92
g93
ssg81
g441
sg74
(lp448
S'session_id_blabla'
p449
asbag67
(g88
g69
NtRp450
(dp451
g72
(dp452
g99
g100
ssg81
g441
sg74
(lp453
S':'
asbag67
(g88
g69
NtRp454
(dp455
g72
(dp456
sg81
g441
sg74
(lp457
g67
(g68
g69
NtRp458
(dp459
g72
(dp460
g80
I4
ssg81
g454
sg74
(lp461
g67
(g76
g69
NtRp462
(dp463
g72
(dp464
g80
I3
ssg81
Nsg74
(lp465
g67
(g83
g69
NtRp466
(dp467
g72
(dp468
sg81
g462
sg74
(lp469
g67
(g88
g69
NtRp470
(dp471
g72
(dp472
g92
g93
ssg81
g466
sg74
(lp473
g281
asbag67
(g88
g69
NtRp474
(dp475
g72
(dp476
g99
g100
ssg81
g466
sg74
(lp477
S':'
asbag67
(g88
g69
NtRp478
(dp479
g72
(dp480
sg81
g466
sg74
(lp481
g67
(g68
g69
NtRp482
(dp483
g72
(dp484
g80
I3
ssg81
g478
sg74
(lp485
S''
asbasbasbag67
(g83
g69
NtRp486
(dp487
g72
(dp488
sg81
g462
sg74
(lp489
g67
(g88
g69
NtRp490
(dp491
g72
(dp492
g92
g93
ssg81
g486
sg74
(lp493
g302
asbag67
(g88
g69
NtRp494
(dp495
g72
(dp496
g99
g100
ssg81
g486
sg74
(lp497
S':'
asbag67
(g88
g69
NtRp498
(dp499
g72
(dp500
sg81
g486
sg74
(lp501
g67
(g68
g69
NtRp502
(dp503
g72
(dp504
g80
I3
ssg81
g498
sg74
(lp505
S''
asbasbasbag67
(g83
g69
NtRp506
(dp507
g72
(dp508
sg81
g462
sg74
(lp509
g67
(g88
g69
NtRp510
(dp511
g72
(dp512
g92
g93
ssg81
g506
sg74
(lp513
g323
asbag67
(g88
g69
NtRp514
(dp515
g72
(dp516
g99
g100
ssg81
g506
sg74
(lp517
S':'
asbag67
(g88
g69
NtRp518
(dp519
g72
(dp520
sg81
g506
sg74
(lp521
g67
(g68
g69
NtRp522
(dp523
g72
(dp524
g80
I3
ssg81
g518
sg74
(lp525
S''
asbasbasbag67
(g83
g69
NtRp526
(dp527
g72
(dp528
sg81
g462
sg74
(lp529
g67
(g88
g69
NtRp530
(dp531
g72
(dp532
g92
g93
ssg81
g526
sg74
(lp533
g344
asbag67
(g88
g69
NtRp534
(dp535
g72
(dp536
g99
g100
ssg81
g526
sg74
(lp537
S':'
asbag67
(g88
g69
NtRp538
(dp539
g72
(dp540
sg81
g526
sg74
(lp541
g67
(g68
g69
NtRp542
(dp543
g72
(dp544
g80
I3
ssg81
g538
sg74
(lp545
S''
asbasbasbag67
(g83
g69
NtRp546
(dp547
g72
(dp548
sg81
g462
sg74
(lp549
g67
(g88
g69
NtRp550
(dp551
g72
(dp552
g92
g93
ssg81
g546
sg74
(lp553
g365
asbag67
(g88
g69
NtRp554
(dp555
g72
(dp556
g99
g100
ssg81
g546
sg74
(lp557
S':'
asbag67
(g88
g69
NtRp558
(dp559
g72
(dp560
sg81
g546
sg74
(lp561
g67
(g68
g69
NtRp562
(dp563
g72
(dp564
g80
I3
ssg81
g558
sg74
(lp565
S''
asbasbasbag67
(g83
g69
NtRp566
(dp567
g72
(dp568
sg81
g462
sg74
(lp569
g67
(g88
g69
NtRp570
(dp571
g72
(dp572
g92
g93
ssg81
g566
sg74
(lp573
g386
asbag67
(g88
g69
NtRp574
(dp575
g72
(dp576
g99
g100
ssg81
g566
sg74
(lp577
S':'
asbag67
(g88
g69
NtRp578
(dp579
g72
(dp580
sg81
g566
sg74
(lp581
g67
(g68
g69
NtRp582
(dp583
g72
(dp584
g80
I3
ssg81
g578
sg74
(lp585
S''
asbasbasbag67
(g83
g69
NtRp586
(dp587
g72
(dp588
sg81
g462
sg74
(lp589
g67
(g88
g69
NtRp590
(dp591
g72
(dp592
g92
g93
ssg81
g586
sg74
(lp593
g407
asbag67
(g88
g69
NtRp594
(dp595
g72
(dp596
g99
g100
ssg81
g586
sg74
(lp597
S':'
asbag67
(g88
g69
NtRp598
(dp599
g72
(dp600
sg81
g586
sg74
(lp601
g67
(g68
g69
NtRp602
(dp603
g72
(dp604
g80
I3
ssg81
g598
sg74
(lp605
S''
asbasbasbag67
(g83
g69
NtRp606
(dp607
g72
(dp608
sg81
g462
sg74
(lp609
g67
(g88
g69
NtRp610
(dp611
g72
(dp612
g92
g93
ssg81
g606
sg74
(lp613
g428
asbag67
(g88
g69
NtRp614
(dp615
g72
(dp616
g99
g100
ssg81
g606
sg74
(lp617
S':'
asbag67
(g88
g69
NtRp618
(dp619
g72
(dp620
sg81
g606
sg74
(lp621
g67
(g68
g69
NtRp622
(dp623
g72
(dp624
g80
I3
ssg81
g618
sg74
(lp625
S''
asbasbasbasbasbasbasbag67
(g83
g69
NtRp626
(dp627
g72
(dp628
sg81
g244
sg74
(lp629
g67
(g88
g69
NtRp630
(dp631
g72
(dp632
g92
g93
ssg81
g626
sg74
(lp633
S'session_id_globaleaks'
p634
asbag67
(g88
g69
NtRp635
(dp636
g72
(dp637
g99
g100
ssg81
g626
sg74
(lp638
S':'
asbag67
(g88
g69
NtRp639
(dp640
g72
(dp641
sg81
g626
sg74
(lp642
g67
(g68
g69
NtRp643
(dp644
g72
(dp645
g80
I4
ssg81
g639
sg74
(lp646
g67
(g76
g69
NtRp647
(dp648
g72
(dp649
g80
I3
ssg81
Nsg74
(lp650
g67
(g83
g69
NtRp651
(dp652
g72
(dp653
sg81
g647
sg74
(lp654
g67
(g88
g69
NtRp655
(dp656
g72
(dp657
g92
g93
ssg81
g651
sg74
(lp658
g281
asbag67
(g88
g69
NtRp659
(dp660
g72
(dp661
g99
g100
ssg81
g651
sg74
(lp662
S':'
asbag67
(g88
g69
NtRp663
(dp664
g72
(dp665
sg81
g651
sg74
(lp666
g67
(g68
g69
NtRp667
(dp668
g72
(dp669
g80
I3
ssg81
g663
sg74
(lp670
S''
asbasbasbag67
(g83
g69
NtRp671
(dp672
g72
(dp673
sg81
g647
sg74
(lp674
g67
(g88
g69
NtRp675
(dp676
g72
(dp677
g92
g93
ssg81
g671
sg74
(lp678
g302
asbag67
(g88
g69
NtRp679
(dp680
g72
(dp681
g99
g100
ssg81
g671
sg74
(lp682
S':'
asbag67
(g88
g69
NtRp683
(dp684
g72
(dp685
sg81
g671
sg74
(lp686
g67
(g68
g69
NtRp687
(dp688
g72
(dp689
g80
I3
ssg81
g683
sg74
(lp690
S''
asbasbasbag67
(g83
g69
NtRp691
(dp692
g72
(dp693
sg81
g647
sg74
(lp694
g67
(g88
g69
NtRp695
(dp696
g72
(dp697
g92
g93
ssg81
g691
sg74
(lp698
g323
asbag67
(g88
g69
NtRp699
(dp700
g72
(dp701
g99
g100
ssg81
g691
sg74
(lp702
S':'
asbag67
(g88
g69
NtRp703
(dp704
g72
(dp705
sg81
g691
sg74
(lp706
g67
(g68
g69
NtRp707
(dp708
g72
(dp709
g80
I3
ssg81
g703
sg74
(lp710
S''
asbasbasbag67
(g83
g69
NtRp711
(dp712
g72
(dp713
sg81
g647
sg74
(lp714
g67
(g88
g69
NtRp715
(dp716
g72
(dp717
g92
g93
ssg81
g711
sg74
(lp718
g344
asbag67
(g88
g69
NtRp719
(dp720
g72
(dp721
g99
g100
ssg81
g711
sg74
(lp722
S':'
asbag67
(g88
g69
NtRp723
(dp724
g72
(dp725
sg81
g711
sg74
(lp726
g67
(g68
g69
NtRp727
(dp728
g72
(dp729
g80
I3
ssg81
g723
sg74
(lp730
S''
asbasbasbag67
(g83
g69
NtRp731
(dp732
g72
(dp733
sg81
g647
sg74
(lp734
g67
(g88
g69
NtRp735
(dp736
g72
(dp737
g92
g93
ssg81
g731
sg74
(lp738
g365
asbag67
(g88
g69
NtRp739
(dp740
g72
(dp741
g99
g100
ssg81
g731
sg74
(lp742
S':'
asbag67
(g88
g69
NtRp743
(dp744
g72
(dp745
sg81
g731
sg74
(lp746
g67
(g68
g69
NtRp747
(dp748
g72
(dp749
g80
I3
ssg81
g743
sg74
(lp750
S''
asbasbasbag67
(g83
g69
NtRp751
(dp752
g72
(dp753
sg81
g647
sg74
(lp754
g67
(g88
g69
NtRp755
(dp756
g72
(dp757
g92
g93
ssg81
g751
sg74
(lp758
g386
asbag67
(g88
g69
NtRp759
(dp760
g72
(dp761
g99
g100
ssg81
g751
sg74
(lp762
S':'
asbag67
(g88
g69
NtRp763
(dp764
g72
(dp765
sg81
g751
sg74
(lp766
g67
(g68
g69
NtRp767
(dp768
g72
(dp769
g80
I3
ssg81
g763
sg74
(lp770
S''
asbasbasbag67
(g83
g69
NtRp771
(dp772
g72
(dp773
sg81
g647
sg74
(lp774
g67
(g88
g69
NtRp775
(dp776
g72
(dp777
g92
g93
ssg81
g771
sg74
(lp778
g407
asbag67
(g88
g69
NtRp779
(dp780
g72
(dp781
g99
g100
ssg81
g771
sg74
(lp782
S':'
asbag67
(g88
g69
NtRp783
(dp784
g72
(dp785
sg81
g771
sg74
(lp786
g67
(g68
g69
NtRp787
(dp788
g72
(dp789
g80
I3
ssg81
g783
sg74
(lp790
S''
asbasbasbag67
(g83
g69
NtRp791
(dp792
g72
(dp793
sg81
g647
sg74
(lp794
g67
(g88
g69
NtRp795
(dp796
g72
(dp797
g92
g93
ssg81
g791
sg74
(lp798
g428
asbag67
(g88
g69
NtRp799
(dp800
g72
(dp801
g99
g100
ssg81
g791
sg74
(lp802
S':'
asbag67
(g88
g69
NtRp803
(dp804
g72
(dp805
sg81
g791
sg74
(lp806
g67
(g68
g69
NtRp807
(dp808
g72
(dp809
g80
I3
ssg81
g803
sg74
(lp810
S''
asbasbasbasbasbasbasbag67
(g83
g69
NtRp811
(dp812
g72
(dp813
sg81
g244
sg74
(lp814
g67
(g88
g69
NtRp815
(dp816
g72
(dp817
g92
g93
ssg81
g811
sg74
(lp818
S'session_id_init'
p819
asbag67
(g88
g69
NtRp820
(dp821
g72
(dp822
g99
g100
ssg81
g811
sg74
(lp823
S':'
asbag67
(g88
g69
NtRp824
(dp825
g72
(dp826
sg81
g811
sg74
(lp827
g67
(g68
g69
NtRp828
(dp829
g72
(dp830
g80
I4
ssg81
g824
sg74
(lp831
g67
(g76
g69
NtRp832
(dp833
g72
(dp834
g80
I3
ssg81
Nsg74
(lp835
g67
(g83
g69
NtRp836
(dp837
g72
(dp838
sg81
g832
sg74
(lp839
g67
(g88
g69
NtRp840
(dp841
g72
(dp842
g92
g93
ssg81
g836
sg74
(lp843
g281
asbag67
(g88
g69
NtRp844
(dp845
g72
(dp846
g99
g100
ssg81
g836
sg74
(lp847
S':'
asbag67
(g88
g69
NtRp848
(dp849
g72
(dp850
sg81
g836
sg74
(lp851
g67
(g68
g69
NtRp852
(dp853
g72
(dp854
g80
I3
ssg81
g848
sg74
(lp855
S''
asbasbasbag67
(g83
g69
NtRp856
(dp857
g72
(dp858
sg81
g832
sg74
(lp859
g67
(g88
g69
NtRp860
(dp861
g72
(dp862
g92
g93
ssg81
g856
sg74
(lp863
g302
asbag67
(g88
g69
NtRp864
(dp865
g72
(dp866
g99
g100
ssg81
g856
sg74
(lp867
S':'
asbag67
(g88
g69
NtRp868
(dp869
g72
(dp870
sg81
g856
sg74
(lp871
g67
(g68
g69
NtRp872
(dp873
g72
(dp874
g80
I3
ssg81
g868
sg74
(lp875
S''
asbasbasbag67
(g83
g69
NtRp876
(dp877
g72
(dp878
sg81
g832
sg74
(lp879
g67
(g88
g69
NtRp880
(dp881
g72
(dp882
g92
g93
ssg81
g876
sg74
(lp883
g323
asbag67
(g88
g69
NtRp884
(dp885
g72
(dp886
g99
g100
ssg81
g876
sg74
(lp887
S':'
asbag67
(g88
g69
NtRp888
(dp889
g72
(dp890
sg81
g876
sg74
(lp891
g67
(g68
g69
NtRp892
(dp893
g72
(dp894
g80
I3
ssg81
g888
sg74
(lp895
S''
asbasbasbag67
(g83
g69
NtRp896
(dp897
g72
(dp898
sg81
g832
sg74
(lp899
g67
(g88
g69
NtRp900
(dp901
g72
(dp902
g92
g93
ssg81
g896
sg74
(lp903
g344
asbag67
(g88
g69
NtRp904
(dp905
g72
(dp906
g99
g100
ssg81
g896
sg74
(lp907
S':'
asbag67
(g88
g69
NtRp908
(dp909
g72
(dp910
sg81
g896
sg74
(lp911
g67
(g68
g69
NtRp912
(dp913
g72
(dp914
g80
I3
ssg81
g908
sg74
(lp915
S''
asbasbasbag67
(g83
g69
NtRp916
(dp917
g72
(dp918
sg81
g832
sg74
(lp919
g67
(g88
g69
NtRp920
(dp921
g72
(dp922
g92
g93
ssg81
g916
sg74
(lp923
g365
asbag67
(g88
g69
NtRp924
(dp925
g72
(dp926
g99
g100
ssg81
g916
sg74
(lp927
S':'
asbag67
(g88
g69
NtRp928
(dp929
g72
(dp930
sg81
g916
sg74
(lp931
g67
(g68
g69
NtRp932
(dp933
g72
(dp934
g80
I3
ssg81
g928
sg74
(lp935
S''
asbasbasbag67
(g83
g69
NtRp936
(dp937
g72
(dp938
sg81
g832
sg74
(lp939
g67
(g88
g69
NtRp940
(dp941
g72
(dp942
g92
g93
ssg81
g936
sg74
(lp943
g386
asbag67
(g88
g69
NtRp944
(dp945
g72
(dp946
g99
g100
ssg81
g936
sg74
(lp947
S':'
asbag67
(g88
g69
NtRp948
(dp949
g72
(dp950
sg81
g936
sg74
(lp951
g67
(g68
g69
NtRp952
(dp953
g72
(dp954
g80
I3
ssg81
g948
sg74
(lp955
S''
asbasbasbag67
(g83
g69
NtRp956
(dp957
g72
(dp958
sg81
g832
sg74
(lp959
g67
(g88
g69
NtRp960
(dp961
g72
(dp962
g92
g93
ssg81
g956
sg74
(lp963
g407
asbag67
(g88
g69
NtRp964
(dp965
g72
(dp966
g99
g100
ssg81
g956
sg74
(lp967
S':'
asbag67
(g88
g69
NtRp968
(dp969
g72
(dp970
sg81
g956
sg74
(lp971
g67
(g68
g69
NtRp972
(dp973
g72
(dp974
g80
I3
ssg81
g968
sg74
(lp975
S''
asbasbasbag67
(g83
g69
NtRp976
(dp977
g72
(dp978
sg81
g832
sg74
(lp979
g67
(g88
g69
NtRp980
(dp981
g72
(dp982
g92
g93
ssg81
g976
sg74
(lp983
g428
asbag67
(g88
g69
NtRp984
(dp985
g72
(dp986
g99
g100
ssg81
g976
sg74
(lp987
S':'
asbag67
(g88
g69
NtRp988
(dp989
g72
(dp990
sg81
g976
sg74
(lp991
g67
(g68
g69
NtRp992
(dp993
g72
(dp994
g80
I3
ssg81
g988
sg74
(lp995
S''
asbasbasbasbasbasbasbasbasbasbasbag67
(g83
g69
NtRp996
(dp997
g72
(dp998
sg81
g77
sg74
(lp999
g67
(g88
g69
NtRp1000
(dp1001
g72
(dp1002
g92
g93
ssg81
g996
sg74
(lp1003
S'env'
p1004
asbag67
(g88
g69
NtRp1005
(dp1006
g72
(dp1007
g99
g100
ssg81
g996
sg74
(lp1008
S':'
asbag67
(g88
g69
NtRp1009
(dp1010
g72
(dp1011
sg81
g996
sg74
(lp1012
g67
(g68
g69
NtRp1013
(dp1014
g72
(dp1015
g80
I5
ssg81
g1009
sg74
(lp1016
g67
(g76
g69
NtRp1017
(dp1018
g72
(dp1019
g80
I4
ssg81
Nsg74
(lp1020
g67
(g83
g69
NtRp1021
(dp1022
g72
(dp1023
sg81
g1017
sg74
(lp1024
g67
(g88
g69
NtRp1025
(dp1026
g72
(dp1027
g92
g93
ssg81
g1021
sg74
(lp1028
S'app_folders'
p1029
asbag67
(g88
g69
NtRp1030
(dp1031
g72
(dp1032
g99
g100
ssg81
g1021
sg74
(lp1033
S':'
asbag67
(g88
g69
NtRp1034
(dp1035
g72
(dp1036
sg81
g1021
sg74
(lp1037
g67
(g68
g69
NtRp1038
(dp1039
g72
(dp1040
g80
I4
ssg81
g1034
sg74
(lp1041
S"set(['/Users/hellais/Documents/code/mygit/globaleaks/webapp/applications/init/', '/Users/hellais/Documents/code/mygit/globaleaks/webapp/applications/admin/'])"
p1042
asbasbasbag67
(g83
g69
NtRp1043
(dp1044
g72
(dp1045
sg81
g1017
sg74
(lp1046
g67
(g88
g69
NtRp1047
(dp1048
g72
(dp1049
g92
g93
ssg81
g1043
sg74
(lp1050
S'applications_parent'
p1051
asbag67
(g88
g69
NtRp1052
(dp1053
g72
(dp1054
g99
g100
ssg81
g1043
sg74
(lp1055
S':'
asbag67
(g88
g69
NtRp1056
(dp1057
g72
(dp1058
sg81
g1043
sg74
(lp1059
g67
(g68
g69
NtRp1060
(dp1061
g72
(dp1062
g80
I4
ssg81
g1056
sg74
(lp1063
S'/Users/hellais/Documents/code/mygit/globaleaks/webapp'
p1064
asbasbasbag67
(g83
g69
NtRp1065
(dp1066
g72
(dp1067
sg81
g1017
sg74
(lp1068
g67
(g88
g69
NtRp1069
(dp1070
g72
(dp1071
g92
g93
ssg81
g1065
sg74
(lp1072
S'cmd_args'
p1073
asbag67
(g88
g69
NtRp1074
(dp1075
g72
(dp1076
g99
g100
ssg81
g1065
sg74
(lp1077
S':'
asbag67
(g88
g69
NtRp1078
(dp1079
g72
(dp1080
sg81
g1065
sg74
(lp1081
g67
(g68
g69
NtRp1082
(dp1083
g72
(dp1084
g80
I4
ssg81
g1078
sg74
(lp1085
g67
(g76
g69
NtRp1086
(dp1087
g72
(dp1088
g80
I3
ssg81
Nsg74
(lp1089
sbasbasbasbag67
(g83
g69
NtRp1090
(dp1091
g72
(dp1092
sg81
g1017
sg74
(lp1093
g67
(g88
g69
NtRp1094
(dp1095
g72
(dp1096
g92
g93
ssg81
g1090
sg74
(lp1097
S'cmd_options'
p1098
asbag67
(g88
g69
NtRp1099
(dp1100
g72
(dp1101
g99
g100
ssg81
g1090
sg74
(lp1102
S':'
asbag67
(g88
g69
NtRp1103
(dp1104
g72
(dp1105
sg81
g1090
sg74
(lp1106
g67
(g68
g69
NtRp1107
(dp1108
g72
(dp1109
g80
I4
ssg81
g1103
sg74
(lp1110
S"<Values at 0x1015f1320: {'verbose': False, 'ip': '127.0.0.1', 'shutdown_timeout': 5, 'taskbar': False, 'port': 8000, 'maxthreads': None, 'softcron': False, 'server_name': 'Jeanne.local', 'bpython': False, 'nogui': False, 'nocron': False, 'extcron': False, 'debuglevel': 30, 'test': None, 'folder': '/Users/hellais/Documents/code/mygit/globaleaks/webapp', 'config': '', 'import_models': False, 'winservice': '', 'shell': None, 'run': '', 'log_filename': 'httpserver.log', 'args': [''], 'profiler_filename': None, 'ssl_private_key': '', 'password': 'antani', 'request_queue_size': 5, 'ssl_certificate': '', 'cronjob': False, 'plain': False, 'quiet': False, 'interfaces': None, 'minthreads': None, 'timeout': 10, 'numthreads': None, 'nobanner': False, 'pid_filename': 'httpserver.pid'}>"
p1111
asbasbasbag67
(g83
g69
NtRp1112
(dp1113
g72
(dp1114
sg81
g1017
sg74
(lp1115
g67
(g88
g69
NtRp1116
(dp1117
g72
(dp1118
g92
g93
ssg81
g1112
sg74
(lp1119
S'db_sessions'
p1120
asbag67
(g88
g69
NtRp1121
(dp1122
g72
(dp1123
g99
g100
ssg81
g1112
sg74
(lp1124
S':'
asbag67
(g88
g69
NtRp1125
(dp1126
g72
(dp1127
sg81
g1112
sg74
(lp1128
g67
(g68
g69
NtRp1129
(dp1130
g72
(dp1131
g80
I4
ssg81
g1125
sg74
(lp1132
S'set([])'
p1133
asbasbasbag67
(g83
g69
NtRp1134
(dp1135
g72
(dp1136
sg81
g1017
sg74
(lp1137
g67
(g88
g69
NtRp1138
(dp1139
g72
(dp1140
g92
g93
ssg81
g1134
sg74
(lp1141
S'debugging'
p1142
asbag67
(g88
g69
NtRp1143
(dp1144
g72
(dp1145
g99
g100
ssg81
g1134
sg74
(lp1146
S':'
asbag67
(g88
g69
NtRp1147
(dp1148
g72
(dp1149
sg81
g1134
sg74
(lp1150
g67
(g68
g69
NtRp1151
(dp1152
g72
(dp1153
g80
I4
ssg81
g1147
sg74
(lp1154
g110
asbasbasbag67
(g83
g69
NtRp1155
(dp1156
g72
(dp1157
sg81
g1017
sg74
(lp1158
g67
(g88
g69
NtRp1159
(dp1160
g72
(dp1161
g92
g93
ssg81
g1155
sg74
(lp1162
S'gluon_parent'
p1163
asbag67
(g88
g69
NtRp1164
(dp1165
g72
(dp1166
g99
g100
ssg81
g1155
sg74
(lp1167
S':'
asbag67
(g88
g69
NtRp1168
(dp1169
g72
(dp1170
sg81
g1155
sg74
(lp1171
g67
(g68
g69
NtRp1172
(dp1173
g72
(dp1174
g80
I4
ssg81
g1168
sg74
(lp1175
S'/Users/hellais/Documents/code/mygit/globaleaks/webapp'
p1176
asbasbasbag67
(g83
g69
NtRp1177
(dp1178
g72
(dp1179
sg81
g1017
sg74
(lp1180
g67
(g88
g69
NtRp1181
(dp1182
g72
(dp1183
g92
g93
ssg81
g1177
sg74
(lp1184
S'http_accept'
p1185
asbag67
(g88
g69
NtRp1186
(dp1187
g72
(dp1188
g99
g100
ssg81
g1177
sg74
(lp1189
S':'
asbag67
(g88
g69
NtRp1190
(dp1191
g72
(dp1192
sg81
g1177
sg74
(lp1193
g67
(g68
g69
NtRp1194
(dp1195
g72
(dp1196
g80
I4
ssg81
g1190
sg74
(lp1197
S'text/html,application/xhtml+xml,application/xml;q=0.9,*/*;q=0.8'
p1198
asbasbasbag67
(g83
g69
NtRp1199
(dp1200
g72
(dp1201
sg81
g1017
sg74
(lp1202
g67
(g88
g69
NtRp1203
(dp1204
g72
(dp1205
g92
g93
ssg81
g1199
sg74
(lp1206
S'http_accept_charset'
p1207
asbag67
(g88
g69
NtRp1208
(dp1209
g72
(dp1210
g99
g100
ssg81
g1199
sg74
(lp1211
S':'
asbag67
(g88
g69
NtRp1212
(dp1213
g72
(dp1214
sg81
g1199
sg74
(lp1215
g67
(g68
g69
NtRp1216
(dp1217
g72
(dp1218
g80
I4
ssg81
g1212
sg74
(lp1219
S'ISO-8859-1,utf-8;q=0.7,*;q=0.7'
p1220
asbasbasbag67
(g83
g69
NtRp1221
(dp1222
g72
(dp1223
sg81
g1017
sg74
(lp1224
g67
(g88
g69
NtRp1225
(dp1226
g72
(dp1227
g92
g93
ssg81
g1221
sg74
(lp1228
S'http_accept_encoding'
p1229
asbag67
(g88
g69
NtRp1230
(dp1231
g72
(dp1232
g99
g100
ssg81
g1221
sg74
(lp1233
S':'
asbag67
(g88
g69
NtRp1234
(dp1235
g72
(dp1236
sg81
g1221
sg74
(lp1237
g67
(g68
g69
NtRp1238
(dp1239
g72
(dp1240
g80
I4
ssg81
g1234
sg74
(lp1241
S'gzip, deflate'
p1242
asbasbasbag67
(g83
g69
NtRp1243
(dp1244
g72
(dp1245
sg81
g1017
sg74
(lp1246
g67
(g88
g69
NtRp1247
(dp1248
g72
(dp1249
g92
g93
ssg81
g1243
sg74
(lp1250
S'http_accept_language'
p1251
asbag67
(g88
g69
NtRp1252
(dp1253
g72
(dp1254
g99
g100
ssg81
g1243
sg74
(lp1255
S':'
asbag67
(g88
g69
NtRp1256
(dp1257
g72
(dp1258
sg81
g1243
sg74
(lp1259
g67
(g68
g69
NtRp1260
(dp1261
g72
(dp1262
g80
I4
ssg81
g1256
sg74
(lp1263
S'en-us,en;q=0.5'
p1264
asbasbasbag67
(g83
g69
NtRp1265
(dp1266
g72
(dp1267
sg81
g1017
sg74
(lp1268
g67
(g88
g69
NtRp1269
(dp1270
g72
(dp1271
g92
g93
ssg81
g1265
sg74
(lp1272
S'http_cache_control'
p1273
asbag67
(g88
g69
NtRp1274
(dp1275
g72
(dp1276
g99
g100
ssg81
g1265
sg74
(lp1277
S':'
asbag67
(g88
g69
NtRp1278
(dp1279
g72
(dp1280
sg81
g1265
sg74
(lp1281
g67
(g68
g69
NtRp1282
(dp1283
g72
(dp1284
g80
I4
ssg81
g1278
sg74
(lp1285
S'max-age=0'
p1286
asbasbasbag67
(g83
g69
NtRp1287
(dp1288
g72
(dp1289
sg81
g1017
sg74
(lp1290
g67
(g88
g69
NtRp1291
(dp1292
g72
(dp1293
g92
g93
ssg81
g1287
sg74
(lp1294
S'http_connection'
p1295
asbag67
(g88
g69
NtRp1296
(dp1297
g72
(dp1298
g99
g100
ssg81
g1287
sg74
(lp1299
S':'
asbag67
(g88
g69
NtRp1300
(dp1301
g72
(dp1302
sg81
g1287
sg74
(lp1303
g67
(g68
g69
NtRp1304
(dp1305
g72
(dp1306
g80
I4
ssg81
g1300
sg74
(lp1307
S'keep-alive'
p1308
asbasbasbag67
(g83
g69
NtRp1309
(dp1310
g72
(dp1311
sg81
g1017
sg74
(lp1312
g67
(g88
g69
NtRp1313
(dp1314
g72
(dp1315
g92
g93
ssg81
g1309
sg74
(lp1316
S'http_cookie'
p1317
asbag67
(g88
g69
NtRp1318
(dp1319
g72
(dp1320
g99
g100
ssg81
g1309
sg74
(lp1321
S':'
asbag67
(g88
g69
NtRp1322
(dp1323
g72
(dp1324
sg81
g1309
sg74
(lp1325
g67
(g68
g69
NtRp1326
(dp1327
g72
(dp1328
g80
I4
ssg81
g1322
sg74
(lp1329
S'session_id_admin=127.0.0.1-67122ce4-50b2-4acf-b28e-7a14feeff4d9; session_id_globaleaks=127.0.0.1-c6d5b9b3-1ec7-41c1-8d72-04c21b7a6b11; session_id_blabla=127.0.0.1-c445384e-a3ea-4484-8fe2-52f3295bbb7c; session_id_init=127.0.0.1-a8551263-bc3c-430c-abb2-8711fac671c1'
p1330
asbasbasbag67
(g83
g69
NtRp1331
(dp1332
g72
(dp1333
sg81
g1017
sg74
(lp1334
g67
(g88
g69
NtRp1335
(dp1336
g72
(dp1337
g92
g93
ssg81
g1331
sg74
(lp1338
S'http_host'
p1339
asbag67
(g88
g69
NtRp1340
(dp1341
g72
(dp1342
g99
g100
ssg81
g1331
sg74
(lp1343
S':'
asbag67
(g88
g69
NtRp1344
(dp1345
g72
(dp1346
sg81
g1331
sg74
(lp1347
g67
(g68
g69
NtRp1348
(dp1349
g72
(dp1350
g80
I4
ssg81
g1344
sg74
(lp1351
S'127.0.0.1:8000'
p1352
asbasbasbag67
(g83
g69
NtRp1353
(dp1354
g72
(dp1355
sg81
g1017
sg74
(lp1356
g67
(g88
g69
NtRp1357
(dp1358
g72
(dp1359
g92
g93
ssg81
g1353
sg74
(lp1360
S'http_referer'
p1361
asbag67
(g88
g69
NtRp1362
(dp1363
g72
(dp1364
g99
g100
ssg81
g1353
sg74
(lp1365
S':'
asbag67
(g88
g69
NtRp1366
(dp1367
g72
(dp1368
sg81
g1353
sg74
(lp1369
g67
(g68
g69
NtRp1370
(dp1371
g72
(dp1372
g80
I4
ssg81
g1366
sg74
(lp1373
S'http://127.0.0.1:8000/'
p1374
asbasbasbag67
(g83
g69
NtRp1375
(dp1376
g72
(dp1377
sg81
g1017
sg74
(lp1378
g67
(g88
g69
NtRp1379
(dp1380
g72
(dp1381
g92
g93
ssg81
g1375
sg74
(lp1382
S'http_user_agent'
p1383
asbag67
(g88
g69
NtRp1384
(dp1385
g72
(dp1386
g99
g100
ssg81
g1375
sg74
(lp1387
S':'
asbag67
(g88
g69
NtRp1388
(dp1389
g72
(dp1390
sg81
g1375
sg74
(lp1391
g67
(g68
g69
NtRp1392
(dp1393
g72
(dp1394
g80
I4
ssg81
g1388
sg74
(lp1395
S'Mozilla/5.0 (Macintosh; Intel Mac OS X 10.6; rv:5.0.1) Gecko/20100101 Firefox/5.0.1'
p1396
asbasbasbag67
(g83
g69
NtRp1397
(dp1398
g72
(dp1399
sg81
g1017
sg74
(lp1400
g67
(g88
g69
NtRp1401
(dp1402
g72
(dp1403
g92
g93
ssg81
g1397
sg74
(lp1404
S'is_jython'
p1405
asbag67
(g88
g69
NtRp1406
(dp1407
g72
(dp1408
g99
g100
ssg81
g1397
sg74
(lp1409
S':'
asbag67
(g88
g69
NtRp1410
(dp1411
g72
(dp1412
sg81
g1397
sg74
(lp1413
g67
(g68
g69
NtRp1414
(dp1415
g72
(dp1416
g80
I4
ssg81
g1410
sg74
(lp1417
g110
asbasbasbag67
(g83
g69
NtRp1418
(dp1419
g72
(dp1420
sg81
g1017
sg74
(lp1421
g67
(g88
g69
NtRp1422
(dp1423
g72
(dp1424
g92
g93
ssg81
g1418
sg74
(lp1425
S'path_info'
p1426
asbag67
(g88
g69
NtRp1427
(dp1428
g72
(dp1429
g99
g100
ssg81
g1418
sg74
(lp1430
S':'
asbag67
(g88
g69
NtRp1431
(dp1432
g72
(dp1433
sg81
g1418
sg74
(lp1434
g67
(g68
g69
NtRp1435
(dp1436
g72
(dp1437
g80
I4
ssg81
g1431
sg74
(lp1438
S'/init/default/submission'
p1439
asbasbasbag67
(g83
g69
NtRp1440
(dp1441
g72
(dp1442
sg81
g1017
sg74
(lp1443
g67
(g88
g69
NtRp1444
(dp1445
g72
(dp1446
g92
g93
ssg81
g1440
sg74
(lp1447
S'query_string'
p1448
asbag67
(g88
g69
NtRp1449
(dp1450
g72
(dp1451
g99
g100
ssg81
g1440
sg74
(lp1452
S':'
asbag67
(g88
g69
NtRp1453
(dp1454
g72
(dp1455
sg81
g1440
sg74
(lp1456
g67
(g68
g69
NtRp1457
(dp1458
g72
(dp1459
g80
I4
ssg81
g1453
sg74
(lp1460
S''
asbasbasbag67
(g83
g69
NtRp1461
(dp1462
g72
(dp1463
sg81
g1017
sg74
(lp1464
g67
(g88
g69
NtRp1465
(dp1466
g72
(dp1467
g92
g93
ssg81
g1461
sg74
(lp1468
S'remote_addr'
p1469
asbag67
(g88
g69
NtRp1470
(dp1471
g72
(dp1472
g99
g100
ssg81
g1461
sg74
(lp1473
S':'
asbag67
(g88
g69
NtRp1474
(dp1475
g72
(dp1476
sg81
g1461
sg74
(lp1477
g67
(g68
g69
NtRp1478
(dp1479
g72
(dp1480
g80
I4
ssg81
g1474
sg74
(lp1481
g200
asbasbasbag67
(g83
g69
NtRp1482
(dp1483
g72
(dp1484
sg81
g1017
sg74
(lp1485
g67
(g88
g69
NtRp1486
(dp1487
g72
(dp1488
g92
g93
ssg81
g1482
sg74
(lp1489
S'remote_port'
p1490
asbag67
(g88
g69
NtRp1491
(dp1492
g72
(dp1493
g99
g100
ssg81
g1482
sg74
(lp1494
S':'
asbag67
(g88
g69
NtRp1495
(dp1496
g72
(dp1497
sg81
g1482
sg74
(lp1498
g67
(g68
g69
NtRp1499
(dp1500
g72
(dp1501
g80
I4
ssg81
g1495
sg74
(lp1502
S'54819'
p1503
asbasbasbag67
(g83
g69
NtRp1504
(dp1505
g72
(dp1506
sg81
g1017
sg74
(lp1507
g67
(g88
g69
NtRp1508
(dp1509
g72
(dp1510
g92
g93
ssg81
g1504
sg74
(lp1511
S'request_method'
p1512
asbag67
(g88
g69
NtRp1513
(dp1514
g72
(dp1515
g99
g100
ssg81
g1504
sg74
(lp1516
S':'
asbag67
(g88
g69
NtRp1517
(dp1518
g72
(dp1519
sg81
g1504
sg74
(lp1520
g67
(g68
g69
NtRp1521
(dp1522
g72
(dp1523
g80
I4
ssg81
g1517
sg74
(lp1524
S'GET'
p1525
asbasbasbag67
(g83
g69
NtRp1526
(dp1527
g72
(dp1528
sg81
g1017
sg74
(lp1529
g67
(g88
g69
NtRp1530
(dp1531
g72
(dp1532
g92
g93
ssg81
g1526
sg74
(lp1533
S'script_name'
p1534
asbag67
(g88
g69
NtRp1535
(dp1536
g72
(dp1537
g99
g100
ssg81
g1526
sg74
(lp1538
S':'
asbag67
(g88
g69
NtRp1539
(dp1540
g72
(dp1541
sg81
g1526
sg74
(lp1542
g67
(g68
g69
NtRp1543
(dp1544
g72
(dp1545
g80
I4
ssg81
g1539
sg74
(lp1546
S''
asbasbasbag67
(g83
g69
NtRp1547
(dp1548
g72
(dp1549
sg81
g1017
sg74
(lp1550
g67
(g88
g69
NtRp1551
(dp1552
g72
(dp1553
g92
g93
ssg81
g1547
sg74
(lp1554
S'server_name'
p1555
asbag67
(g88
g69
NtRp1556
(dp1557
g72
(dp1558
g99
g100
ssg81
g1547
sg74
(lp1559
S':'
asbag67
(g88
g69
NtRp1560
(dp1561
g72
(dp1562
sg81
g1547
sg74
(lp1563
g67
(g68
g69
NtRp1564
(dp1565
g72
(dp1566
g80
I4
ssg81
g1560
sg74
(lp1567
S'Jeanne.local'
p1568
asbasbasbag67
(g83
g69
NtRp1569
(dp1570
g72
(dp1571
sg81
g1017
sg74
(lp1572
g67
(g88
g69
NtRp1573
(dp1574
g72
(dp1575
g92
g93
ssg81
g1569
sg74
(lp1576
S'server_port'
p1577
asbag67
(g88
g69
NtRp1578
(dp1579
g72
(dp1580
g99
g100
ssg81
g1569
sg74
(lp1581
S':'
asbag67
(g88
g69
NtRp1582
(dp1583
g72
(dp1584
sg81
g1569
sg74
(lp1585
g67
(g68
g69
NtRp1586
(dp1587
g72
(dp1588
g80
I4
ssg81
g1582
sg74
(lp1589
S'8000'
p1590
asbasbasbag67
(g83
g69
NtRp1591
(dp1592
g72
(dp1593
sg81
g1017
sg74
(lp1594
g67
(g88
g69
NtRp1595
(dp1596
g72
(dp1597
g92
g93
ssg81
g1591
sg74
(lp1598
S'server_protocol'
p1599
asbag67
(g88
g69
NtRp1600
(dp1601
g72
(dp1602
g99
g100
ssg81
g1591
sg74
(lp1603
S':'
asbag67
(g88
g69
NtRp1604
(dp1605
g72
(dp1606
sg81
g1591
sg74
(lp1607
g67
(g68
g69
NtRp1608
(dp1609
g72
(dp1610
g80
I4
ssg81
g1604
sg74
(lp1611
S'HTTP/1.1'
p1612
asbasbasbag67
(g83
g69
NtRp1613
(dp1614
g72
(dp1615
sg81
g1017
sg74
(lp1616
g67
(g88
g69
NtRp1617
(dp1618
g72
(dp1619
g92
g93
ssg81
g1613
sg74
(lp1620
S'server_software'
p1621
asbag67
(g88
g69
NtRp1622
(dp1623
g72
(dp1624
g99
g100
ssg81
g1613
sg74
(lp1625
S':'
asbag67
(g88
g69
NtRp1626
(dp1627
g72
(dp1628
sg81
g1613
sg74
(lp1629
g67
(g68
g69
NtRp1630
(dp1631
g72
(dp1632
g80
I4
ssg81
g1626
sg74
(lp1633
S'Rocket 1.2.2'
p1634
asbasbasbag67
(g83
g69
NtRp1635
(dp1636
g72
(dp1637
sg81
g1017
sg74
(lp1638
g67
(g88
g69
NtRp1639
(dp1640
g72
(dp1641
g92
g93
ssg81
g1635
sg74
(lp1642
S'web2py_crontype'
p1643
asbag67
(g88
g69
NtRp1644
(dp1645
g72
(dp1646
g99
g100
ssg81
g1635
sg74
(lp1647
S':'
asbag67
(g88
g69
NtRp1648
(dp1649
g72
(dp1650
sg81
g1635
sg74
(lp1651
g67
(g68
g69
NtRp1652
(dp1653
g72
(dp1654
g80
I4
ssg81
g1648
sg74
(lp1655
S'hard'
p1656
asbasbasbag67
(g83
g69
NtRp1657
(dp1658
g72
(dp1659
sg81
g1017
sg74
(lp1660
g67
(g88
g69
NtRp1661
(dp1662
g72
(dp1663
g92
g93
ssg81
g1657
sg74
(lp1664
S'web2py_path'
p1665
asbag67
(g88
g69
NtRp1666
(dp1667
g72
(dp1668
g99
g100
ssg81
g1657
sg74
(lp1669
S':'
asbag67
(g88
g69
NtRp1670
(dp1671
g72
(dp1672
sg81
g1657
sg74
(lp1673
g67
(g68
g69
NtRp1674
(dp1675
g72
(dp1676
g80
I4
ssg81
g1670
sg74
(lp1677
g1064
asbasbasbag67
(g83
g69
NtRp1678
(dp1679
g72
(dp1680
sg81
g1017
sg74
(lp1681
g67
(g88
g69
NtRp1682
(dp1683
g72
(dp1684
g92
g93
ssg81
g1678
sg74
(lp1685
S'web2py_version'
p1686
asbag67
(g88
g69
NtRp1687
(dp1688
g72
(dp1689
g99
g100
ssg81
g1678
sg74
(lp1690
S':'
asbag67
(g88
g69
NtRp1691
(dp1692
g72
(dp1693
sg81
g1678
sg74
(lp1694
g67
(g68
g69
NtRp1695
(dp1696
g72
(dp1697
g80
I4
ssg81
g1691
sg74
(lp1698
S'Version 1.98.2 (2011-08-04 00:47:09)\n'
p1699
asbasbasbag67
(g83
g69
NtRp1700
(dp1701
g72
(dp1702
sg81
g1017
sg74
(lp1703
g67
(g88
g69
NtRp1704
(dp1705
g72
(dp1706
g92
g93
ssg81
g1700
sg74
(lp1707
S'wsgi_errors'
p1708
asbag67
(g88
g69
NtRp1709
(dp1710
g72
(dp1711
g99
g100
ssg81
g1700
sg74
(lp1712
S':'
asbag67
(g88
g69
NtRp1713
(dp1714
g72
(dp1715
sg81
g1700
sg74
(lp1716
g67
(g68
g69
NtRp1717
(dp1718
g72
(dp1719
g80
I4
ssg81
g1713
sg74
(lp1720
S"<open file '<stderr>', mode 'w' at 0x100287270>"
p1721
asbasbasbag67
(g83
g69
NtRp1722
(dp1723
g72
(dp1724
sg81
g1017
sg74
(lp1725
g67
(g88
g69
NtRp1726
(dp1727
g72
(dp1728
g92
g93
ssg81
g1722
sg74
(lp1729
S'wsgi_file_wrapper'
p1730
asbag67
(g88
g69
NtRp1731
(dp1732
g72
(dp1733
g99
g100
ssg81
g1722
sg74
(lp1734
S':'
asbag67
(g88
g69
NtRp1735
(dp1736
g72
(dp1737
sg81
g1722
sg74
(lp1738
g67
(g68
g69
NtRp1739
(dp1740
g72
(dp1741
g80
I4
ssg81
g1735
sg74
(lp1742
S'<class gluon.rocket.FileWrapper at 0x101668e20>'
p1743
asbasbasbag67
(g83
g69
NtRp1744
(dp1745
g72
(dp1746
sg81
g1017
sg74
(lp1747
g67
(g88
g69
NtRp1748
(dp1749
g72
(dp1750
g92
g93
ssg81
g1744
sg74
(lp1751
S'wsgi_input'
p1752
asbag67
(g88
g69
NtRp1753
(dp1754
g72
(dp1755
g99
g100
ssg81
g1744
sg74
(lp1756
S':'
asbag67
(g88
g69
NtRp1757
(dp1758
g72
(dp1759
sg81
g1744
sg74
(lp1760
g67
(g68
g69
NtRp1761
(dp1762
g72
(dp1763
g80
I4
ssg81
g1757
sg74
(lp1764
S'<socket._fileobject object at 0x103809cd0>'
p1765
asbasbasbag67
(g83
g69
NtRp1766
(dp1767
g72
(dp1768
sg81
g1017
sg74
(lp1769
g67
(g88
g69
NtRp1770
(dp1771
g72
(dp1772
g92
g93
ssg81
g1766
sg74
(lp1773
S'wsgi_multiprocess'
p1774
asbag67
(g88
g69
NtRp1775
(dp1776
g72
(dp1777
g99
g100
ssg81
g1766
sg74
(lp1778
S':'
asbag67
(g88
g69
NtRp1779
(dp1780
g72
(dp1781
sg81
g1766
sg74
(lp1782
g67
(g68
g69
NtRp1783
(dp1784
g72
(dp1785
g80
I4
ssg81
g1779
sg74
(lp1786
g110
asbasbasbag67
(g83
g69
NtRp1787
(dp1788
g72
(dp1789
sg81
g1017
sg74
(lp1790
g67
(g88
g69
NtRp1791
(dp1792
g72
(dp1793
g92
g93
ssg81
g1787
sg74
(lp1794
S'wsgi_multithread'
p1795
asbag67
(g88
g69
NtRp1796
(dp1797
g72
(dp1798
g99
g100
ssg81
g1787
sg74
(lp1799
S':'
asbag67
(g88
g69
NtRp1800
(dp1801
g72
(dp1802
sg81
g1787
sg74
(lp1803
g67
(g68
g69
NtRp1804
(dp1805
g72
(dp1806
g80
I4
ssg81
g1800
sg74
(lp1807
S'True'
p1808
asbasbasbag67
(g83
g69
NtRp1809
(dp1810
g72
(dp1811
sg81
g1017
sg74
(lp1812
g67
(g88
g69
NtRp1813
(dp1814
g72
(dp1815
g92
g93
ssg81
g1809
sg74
(lp1816
S'wsgi_run_once'
p1817
asbag67
(g88
g69
NtRp1818
(dp1819
g72
(dp1820
g99
g100
ssg81
g1809
sg74
(lp1821
S':'
asbag67
(g88
g69
NtRp1822
(dp1823
g72
(dp1824
sg81
g1809
sg74
(lp1825
g67
(g68
g69
NtRp1826
(dp1827
g72
(dp1828
g80
I4
ssg81
g1822
sg74
(lp1829
g110
asbasbasbag67
(g83
g69
NtRp1830
(dp1831
g72
(dp1832
sg81
g1017
sg74
(lp1833
g67
(g88
g69
NtRp1834
(dp1835
g72
(dp1836
g92
g93
ssg81
g1830
sg74
(lp1837
S'wsgi_url_scheme'
p1838
asbag67
(g88
g69
NtRp1839
(dp1840
g72
(dp1841
g99
g100
ssg81
g1830
sg74
(lp1842
S':'
asbag67
(g88
g69
NtRp1843
(dp1844
g72
(dp1845
sg81
g1830
sg74
(lp1846
g67
(g68
g69
NtRp1847
(dp1848
g72
(dp1849
g80
I4
ssg81
g1843
sg74
(lp1850
S'http'
p1851
asbasbasbag67
(g83
g69
NtRp1852
(dp1853
g72
(dp1854
sg81
g1017
sg74
(lp1855
g67
(g88
g69
NtRp1856
(dp1857
g72
(dp1858
g92
g93
ssg81
g1852
sg74
(lp1859
S'wsgi_version'
p1860
asbag67
(g88
g69
NtRp1861
(dp1862
g72
(dp1863
g99
g100
ssg81
g1852
sg74
(lp1864
S':'
asbag67
(g88
g69
NtRp1865
(dp1866
g72
(dp1867
sg81
g1852
sg74
(lp1868
g67
(g68
g69
NtRp1869
(dp1870
g72
(dp1871
g80
I4
ssg81
g1865
sg74
(lp1872
g67
(g76
g69
NtRp1873
(dp1874
g72
(dp1875
g80
I3
ssg81
Nsg74
(lp1876
g67
(g83
g69
NtRp1877
(dp1878
g72
(dp1879
sg81
g1873
sg74
(lp1880
g67
(g88
g69
NtRp1881
(dp1882
g72
(dp1883
sg81
g1877
sg74
(lp1884
g67
(g68
g69
NtRp1885
(dp1886
g72
(dp1887
g80
I3
ssg81
g1881
sg74
(lp1888
S'1'
asbasbasbag67
(g83
g69
NtRp1889
(dp1890
g72
(dp1891
sg81
g1873
sg74
(lp1892
g67
(g88
g69
NtRp1893
(dp1894
g72
(dp1895
sg81
g1889
sg74
(lp1896
g67
(g68
g69
NtRp1897
(dp1898
g72
(dp1899
g80
I3
ssg81
g1893
sg74
(lp1900
S'0'
asbasbasbasbasbasbasbasbasbasbasbag67
(g83
g69
NtRp1901
(dp1902
g72
(dp1903
sg81
g77
sg74
(lp1904
g67
(g88
g69
NtRp1905
(dp1906
g72
(dp1907
g92
g93
ssg81
g1901
sg74
(lp1908
S'extension'
p1909
asbag67
(g88
g69
NtRp1910
(dp1911
g72
(dp1912
g99
g100
ssg81
g1901
sg74
(lp1913
S':'
asbag67
(g88
g69
NtRp1914
(dp1915
g72
(dp1916
sg81
g1901
sg74
(lp1917
g67
(g68
g69
NtRp1918
(dp1919
g72
(dp1920
g80
I5
ssg81
g1914
sg74
(lp1921
S'html'
p1922
asbasbasbag67
(g83
g69
NtRp1923
(dp1924
g72
(dp1925
sg81
g77
sg74
(lp1926
g67
(g88
g69
NtRp1927
(dp1928
g72
(dp1929
g92
g93
ssg81
g1923
sg74
(lp1930
S'folder'
p1931
asbag67
(g88
g69
NtRp1932
(dp1933
g72
(dp1934
g99
g100
ssg81
g1923
sg74
(lp1935
S':'
asbag67
(g88
g69
NtRp1936
(dp1937
g72
(dp1938
sg81
g1923
sg74
(lp1939
g67
(g68
g69
NtRp1940
(dp1941
g72
(dp1942
g80
I5
ssg81
g1936
sg74
(lp1943
S'/Users/hellais/Documents/code/mygit/globaleaks/webapp/applications/init/'
p1944
asbasbasbag67
(g83
g69
NtRp1945
(dp1946
g72
(dp1947
sg81
g77
sg74
(lp1948
g67
(g88
g69
NtRp1949
(dp1950
g72
(dp1951
g92
g93
ssg81
g1945
sg74
(lp1952
S'function'
p1953
asbag67
(g88
g69
NtRp1954
(dp1955
g72
(dp1956
g99
g100
ssg81
g1945
sg74
(lp1957
S':'
asbag67
(g88
g69
NtRp1958
(dp1959
g72
(dp1960
sg81
g1945
sg74
(lp1961
g67
(g68
g69
NtRp1962
(dp1963
g72
(dp1964
g80
I5
ssg81
g1958
sg74
(lp1965
S'submission'
p1966
asbasbasbag67
(g83
g69
NtRp1967
(dp1968
g72
(dp1969
sg81
g77
sg74
(lp1970
g67
(g88
g69
NtRp1971
(dp1972
g72
(dp1973
g92
g93
ssg81
g1967
sg74
(lp1974
S'get_vars'
p1975
asbag67
(g88
g69
NtRp1976
(dp1977
g72
(dp1978
g99
g100
ssg81
g1967
sg74
(lp1979
S':'
asbag67
(g88
g69
NtRp1980
(dp1981
g72
(dp1982
sg81
g1967
sg74
(lp1983
g67
(g68
g69
NtRp1984
(dp1985
g72
(dp1986
g80
I5
ssg81
g1980
sg74
(lp1987
g67
(g76
g69
NtRp1988
(dp1989
g72
(dp1990
g80
I4
ssg81
Nsg74
(lp1991
sbasbasbasbag67
(g83
g69
NtRp1992
(dp1993
g72
(dp1994
sg81
g77
sg74
(lp1995
g67
(g88
g69
NtRp1996
(dp1997
g72
(dp1998
g92
g93
ssg81
g1992
sg74
(lp1999
S'is_https'
p2000
asbag67
(g88
g69
NtRp2001
(dp2002
g72
(dp2003
g99
g100
ssg81
g1992
sg74
(lp2004
S':'
asbag67
(g88
g69
NtRp2005
(dp2006
g72
(dp2007
sg81
g1992
sg74
(lp2008
g67
(g68
g69
NtRp2009
(dp2010
g72
(dp2011
g80
I5
ssg81
g2005
sg74
(lp2012
g110
asbasbasbag67
(g83
g69
NtRp2013
(dp2014
g72
(dp2015
sg81
g77
sg74
(lp2016
g67
(g88
g69
NtRp2017
(dp2018
g72
(dp2019
g92
g93
ssg81
g2013
sg74
(lp2020
S'is_local'
p2021
asbag67
(g88
g69
NtRp2022
(dp2023
g72
(dp2024
g99
g100
ssg81
g2013
sg74
(lp2025
S':'
asbag67
(g88
g69
NtRp2026
(dp2027
g72
(dp2028
sg81
g2013
sg74
(lp2029
g67
(g68
g69
NtRp2030
(dp2031
g72
(dp2032
g80
I5
ssg81
g2026
sg74
(lp2033
g1808
asbasbasbag67
(g83
g69
NtRp2034
(dp2035
g72
(dp2036
sg81
g77
sg74
(lp2037
g67
(g88
g69
NtRp2038
(dp2039
g72
(dp2040
g92
g93
ssg81
g2034
sg74
(lp2041
S'is_restful'
p2042
asbag67
(g88
g69
NtRp2043
(dp2044
g72
(dp2045
g99
g100
ssg81
g2034
sg74
(lp2046
S':'
asbag67
(g88
g69
NtRp2047
(dp2048
g72
(dp2049
sg81
g2034
sg74
(lp2050
g67
(g68
g69
NtRp2051
(dp2052
g72
(dp2053
g80
I5
ssg81
g2047
sg74
(lp2054
g110
asbasbasbag67
(g83
g69
NtRp2055
(dp2056
g72
(dp2057
sg81
g77
sg74
(lp2058
g67
(g88
g69
NtRp2059
(dp2060
g72
(dp2061
g92
g93
ssg81
g2055
sg74
(lp2062
S'now'
p2063
asbag67
(g88
g69
NtRp2064
(dp2065
g72
(dp2066
g99
g100
ssg81
g2055
sg74
(lp2067
S':'
asbag67
(g88
g69
NtRp2068
(dp2069
g72
(dp2070
sg81
g2055
sg74
(lp2071
g67
(g68
g69
NtRp2072
(dp2073
g72
(dp2074
g80
I5
ssg81
g2068
sg74
(lp2075
S'datetime.datetime(2011, 8, 28, 0, 0, 6, 190325)'
p2076
asbasbasbag67
(g83
g69
NtRp2077
(dp2078
g72
(dp2079
sg81
g77
sg74
(lp2080
g67
(g88
g69
NtRp2081
(dp2082
g72
(dp2083
g92
g93
ssg81
g2077
sg74
(lp2084
S'post_vars'
p2085
asbag67
(g88
g69
NtRp2086
(dp2087
g72
(dp2088
g99
g100
ssg81
g2077
sg74
(lp2089
S':'
asbag67
(g88
g69
NtRp2090
(dp2091
g72
(dp2092
sg81
g2077
sg74
(lp2093
g67
(g68
g69
NtRp2094
(dp2095
g72
(dp2096
g80
I5
ssg81
g2090
sg74
(lp2097
g67
(g76
g69
NtRp2098
(dp2099
g72
(dp2100
g80
I4
ssg81
Nsg74
(lp2101
sbasbasbasbag67
(g83
g69
NtRp2102
(dp2103
g72
(dp2104
sg81
g77
sg74
(lp2105
g67
(g88
g69
NtRp2106
(dp2107
g72
(dp2108
g92
g93
ssg81
g2102
sg74
(lp2109
S'url'
p2110
asbag67
(g88
g69
NtRp2111
(dp2112
g72
(dp2113
g99
g100
ssg81
g2102
sg74
(lp2114
S':'
asbag67
(g88
g69
NtRp2115
(dp2116
g72
(dp2117
sg81
g2102
sg74
(lp2118
g67
(g68
g69
NtRp2119
(dp2120
g72
(dp2121
g80
I5
ssg81
g2115
sg74
(lp2122
S'/init/default/submission'
p2123
asbasbasbag67
(g83
g69
NtRp2124
(dp2125
g72
(dp2126
sg81
g77
sg74
(lp2127
g67
(g88
g69
NtRp2128
(dp2129
g72
(dp2130
g92
g93
ssg81
g2124
sg74
(lp2131
S'uuid'
p2132
asbag67
(g88
g69
NtRp2133
(dp2134
g72
(dp2135
g99
g100
ssg81
g2124
sg74
(lp2136
S':'
asbag67
(g88
g69
NtRp2137
(dp2138
g72
(dp2139
sg81
g2124
sg74
(lp2140
g67
(g68
g69
NtRp2141
(dp2142
g72
(dp2143
g80
I5
ssg81
g2137
sg74
(lp2144
S'init/127.0.0.1.2011-08-28.00-00-06.21147a43-32a6-4ea7-8c65-0ef567c266d8'
p2145
asbasbasbag67
(g83
g69
NtRp2146
(dp2147
g72
(dp2148
sg81
g77
sg74
(lp2149
g67
(g88
g69
NtRp2150
(dp2151
g72
(dp2152
g92
g93
ssg81
g2146
sg74
(lp2153
S'vars'
p2154
asbag67
(g88
g69
NtRp2155
(dp2156
g72
(dp2157
g99
g100
ssg81
g2146
sg74
(lp2158
S':'
asbag67
(g88
g69
NtRp2159
(dp2160
g72
(dp2161
sg81
g2146
sg74
(lp2162
g67
(g68
g69
NtRp2163
(dp2164
g72
(dp2165
g80
I5
ssg81
g2159
sg74
(lp2166
g67
(g76
g69
NtRp2167
(dp2168
g72
(dp2169
g80
I4
ssg81
Nsg74
(lp2170
sbasbasbasbag67
(g83
g69
NtRp2171
(dp2172
g72
(dp2173
sg81
g77
sg74
(lp2174
g67
(g88
g69
NtRp2175
(dp2176
g72
(dp2177
g92
g93
ssg81
g2171
sg74
(lp2178
S'wsgi'
p2179
asbag67
(g88
g69
NtRp2180
(dp2181
g72
(dp2182
g99
g100
ssg81
g2171
sg74
(lp2183
S':'
asbag67
(g88
g69
NtRp2184
(dp2185
g72
(dp2186
sg81
g2171
sg74
(lp2187
g67
(g68
g69
NtRp2188
(dp2189
g72
(dp2190
g80
I5
ssg81
g2184
sg74
(lp2191
g67
(g76
g69
NtRp2192
(dp2193
g72
(dp2194
g80
I4
ssg81
Nsg74
(lp2195
g67
(g83
g69
NtRp2196
(dp2197
g72
(dp2198
sg81
g2192
sg74
(lp2199
g67
(g88
g69
NtRp2200
(dp2201
g72
(dp2202
g92
g93
ssg81
g2196
sg74
(lp2203
S'environ'
p2204
asbag67
(g88
g69
NtRp2205
(dp2206
g72
(dp2207
g99
g100
ssg81
g2196
sg74
(lp2208
S':'
asbag67
(g88
g69
NtRp2209
(dp2210
g72
(dp2211
sg81
g2196
sg74
(lp2212
g67
(g68
g69
NtRp2213
(dp2214
g72
(dp2215
g80
I4
ssg81
g2209
sg74
(lp2216
g67
(g76
g69
NtRp2217
(dp2218
g72
(dp2219
g80
I3
ssg81
Nsg74
(lp2220
g67
(g83
g69
NtRp2221
(dp2222
g72
(dp2223
sg81
g2217
sg74
(lp2224
g67
(g88
g69
NtRp2225
(dp2226
g72
(dp2227
g92
g93
ssg81
g2221
sg74
(lp2228
S'HTTP_ACCEPT'
p2229
asbag67
(g88
g69
NtRp2230
(dp2231
g72
(dp2232
g99
g100
ssg81
g2221
sg74
(lp2233
S':'
asbag67
(g88
g69
NtRp2234
(dp2235
g72
(dp2236
sg81
g2221
sg74
(lp2237
g67
(g68
g69
NtRp2238
(dp2239
g72
(dp2240
g80
I3
ssg81
g2234
sg74
(lp2241
g1198
asbasbasbag67
(g83
g69
NtRp2242
(dp2243
g72
(dp2244
sg81
g2217
sg74
(lp2245
g67
(g88
g69
NtRp2246
(dp2247
g72
(dp2248
g92
g93
ssg81
g2242
sg74
(lp2249
S'HTTP_ACCEPT_CHARSET'
p2250
asbag67
(g88
g69
NtRp2251
(dp2252
g72
(dp2253
g99
g100
ssg81
g2242
sg74
(lp2254
S':'
asbag67
(g88
g69
NtRp2255
(dp2256
g72
(dp2257
sg81
g2242
sg74
(lp2258
g67
(g68
g69
NtRp2259
(dp2260
g72
(dp2261
g80
I3
ssg81
g2255
sg74
(lp2262
g1220
asbasbasbag67
(g83
g69
NtRp2263
(dp2264
g72
(dp2265
sg81
g2217
sg74
(lp2266
g67
(g88
g69
NtRp2267
(dp2268
g72
(dp2269
g92
g93
ssg81
g2263
sg74
(lp2270
S'HTTP_ACCEPT_ENCODING'
p2271
asbag67
(g88
g69
NtRp2272
(dp2273
g72
(dp2274
g99
g100
ssg81
g2263
sg74
(lp2275
S':'
asbag67
(g88
g69
NtRp2276
(dp2277
g72
(dp2278
sg81
g2263
sg74
(lp2279
g67
(g68
g69
NtRp2280
(dp2281
g72
(dp2282
g80
I3
ssg81
g2276
sg74
(lp2283
g1242
asbasbasbag67
(g83
g69
NtRp2284
(dp2285
g72
(dp2286
sg81
g2217
sg74
(lp2287
g67
(g88
g69
NtRp2288
(dp2289
g72
(dp2290
g92
g93
ssg81
g2284
sg74
(lp2291
S'HTTP_ACCEPT_LANGUAGE'
p2292
asbag67
(g88
g69
NtRp2293
(dp2294
g72
(dp2295
g99
g100
ssg81
g2284
sg74
(lp2296
S':'
asbag67
(g88
g69
NtRp2297
(dp2298
g72
(dp2299
sg81
g2284
sg74
(lp2300
g67
(g68
g69
NtRp2301
(dp2302
g72
(dp2303
g80
I3
ssg81
g2297
sg74
(lp2304
g1264
asbasbasbag67
(g83
g69
NtRp2305
(dp2306
g72
(dp2307
sg81
g2217
sg74
(lp2308
g67
(g88
g69
NtRp2309
(dp2310
g72
(dp2311
g92
g93
ssg81
g2305
sg74
(lp2312
S'HTTP_CACHE_CONTROL'
p2313
asbag67
(g88
g69
NtRp2314
(dp2315
g72
(dp2316
g99
g100
ssg81
g2305
sg74
(lp2317
S':'
asbag67
(g88
g69
NtRp2318
(dp2319
g72
(dp2320
sg81
g2305
sg74
(lp2321
g67
(g68
g69
NtRp2322
(dp2323
g72
(dp2324
g80
I3
ssg81
g2318
sg74
(lp2325
g1286
asbasbasbag67
(g83
g69
NtRp2326
(dp2327
g72
(dp2328
sg81
g2217
sg74
(lp2329
g67
(g88
g69
NtRp2330
(dp2331
g72
(dp2332
g92
g93
ssg81
g2326
sg74
(lp2333
S'HTTP_CONNECTION'
p2334
asbag67
(g88
g69
NtRp2335
(dp2336
g72
(dp2337
g99
g100
ssg81
g2326
sg74
(lp2338
S':'
asbag67
(g88
g69
NtRp2339
(dp2340
g72
(dp2341
sg81
g2326
sg74
(lp2342
g67
(g68
g69
NtRp2343
(dp2344
g72
(dp2345
g80
I3
ssg81
g2339
sg74
(lp2346
g1308
asbasbasbag67
(g83
g69
NtRp2347
(dp2348
g72
(dp2349
sg81
g2217
sg74
(lp2350
g67
(g88
g69
NtRp2351
(dp2352
g72
(dp2353
g92
g93
ssg81
g2347
sg74
(lp2354
S'HTTP_COOKIE'
p2355
asbag67
(g88
g69
NtRp2356
(dp2357
g72
(dp2358
g99
g100
ssg81
g2347
sg74
(lp2359
S':'
asbag67
(g88
g69
NtRp2360
(dp2361
g72
(dp2362
sg81
g2347
sg74
(lp2363
g67
(g68
g69
NtRp2364
(dp2365
g72
(dp2366
g80
I3
ssg81
g2360
sg74
(lp2367
g1330
asbasbasbag67
(g83
g69
NtRp2368
(dp2369
g72
(dp2370
sg81
g2217
sg74
(lp2371
g67
(g88
g69
NtRp2372
(dp2373
g72
(dp2374
g92
g93
ssg81
g2368
sg74
(lp2375
S'HTTP_HOST'
p2376
asbag67
(g88
g69
NtRp2377
(dp2378
g72
(dp2379
g99
g100
ssg81
g2368
sg74
(lp2380
S':'
asbag67
(g88
g69
NtRp2381
(dp2382
g72
(dp2383
sg81
g2368
sg74
(lp2384
g67
(g68
g69
NtRp2385
(dp2386
g72
(dp2387
g80
I3
ssg81
g2381
sg74
(lp2388
g1352
asbasbasbag67
(g83
g69
NtRp2389
(dp2390
g72
(dp2391
sg81
g2217
sg74
(lp2392
g67
(g88
g69
NtRp2393
(dp2394
g72
(dp2395
g92
g93
ssg81
g2389
sg74
(lp2396
S'HTTP_REFERER'
p2397
asbag67
(g88
g69
NtRp2398
(dp2399
g72
(dp2400
g99
g100
ssg81
g2389
sg74
(lp2401
S':'
asbag67
(g88
g69
NtRp2402
(dp2403
g72
(dp2404
sg81
g2389
sg74
(lp2405
g67
(g68
g69
NtRp2406
(dp2407
g72
(dp2408
g80
I3
ssg81
g2402
sg74
(lp2409
g1374
asbasbasbag67
(g83
g69
NtRp2410
(dp2411
g72
(dp2412
sg81
g2217
sg74
(lp2413
g67
(g88
g69
NtRp2414
(dp2415
g72
(dp2416
g92
g93
ssg81
g2410
sg74
(lp2417
S'HTTP_USER_AGENT'
p2418
asbag67
(g88
g69
NtRp2419
(dp2420
g72
(dp2421
g99
g100
ssg81
g2410
sg74
(lp2422
S':'
asbag67
(g88
g69
NtRp2423
(dp2424
g72
(dp2425
sg81
g2410
sg74
(lp2426
g67
(g68
g69
NtRp2427
(dp2428
g72
(dp2429
g80
I3
ssg81
g2423
sg74
(lp2430
g1396
asbasbasbag67
(g83
g69
NtRp2431
(dp2432
g72
(dp2433
sg81
g2217
sg74
(lp2434
g67
(g88
g69
NtRp2435
(dp2436
g72
(dp2437
g92
g93
ssg81
g2431
sg74
(lp2438
S'PATH_INFO'
p2439
asbag67
(g88
g69
NtRp2440
(dp2441
g72
(dp2442
g99
g100
ssg81
g2431
sg74
(lp2443
S':'
asbag67
(g88
g69
NtRp2444
(dp2445
g72
(dp2446
sg81
g2431
sg74
(lp2447
g67
(g68
g69
NtRp2448
(dp2449
g72
(dp2450
g80
I3
ssg81
g2444
sg74
(lp2451
g1439
asbasbasbag67
(g83
g69
NtRp2452
(dp2453
g72
(dp2454
sg81
g2217
sg74
(lp2455
g67
(g88
g69
NtRp2456
(dp2457
g72
(dp2458
g92
g93
ssg81
g2452
sg74
(lp2459
S'QUERY_STRING'
p2460
asbag67
(g88
g69
NtRp2461
(dp2462
g72
(dp2463
g99
g100
ssg81
g2452
sg74
(lp2464
S':'
asbag67
(g88
g69
NtRp2465
(dp2466
g72
(dp2467
sg81
g2452
sg74
(lp2468
g67
(g68
g69
NtRp2469
(dp2470
g72
(dp2471
g80
I3
ssg81
g2465
sg74
(lp2472
S''
asbasbasbag67
(g83
g69
NtRp2473
(dp2474
g72
(dp2475
sg81
g2217
sg74
(lp2476
g67
(g88
g69
NtRp2477
(dp2478
g72
(dp2479
g92
g93
ssg81
g2473
sg74
(lp2480
S'REMOTE_ADDR'
p2481
asbag67
(g88
g69
NtRp2482
(dp2483
g72
(dp2484
g99
g100
ssg81
g2473
sg74
(lp2485
S':'
asbag67
(g88
g69
NtRp2486
(dp2487
g72
(dp2488
sg81
g2473
sg74
(lp2489
g67
(g68
g69
NtRp2490
(dp2491
g72
(dp2492
g80
I3
ssg81
g2486
sg74
(lp2493
g200
asbasbasbag67
(g83
g69
NtRp2494
(dp2495
g72
(dp2496
sg81
g2217
sg74
(lp2497
g67
(g88
g69
NtRp2498
(dp2499
g72
(dp2500
g92
g93
ssg81
g2494
sg74
(lp2501
S'REMOTE_PORT'
p2502
asbag67
(g88
g69
NtRp2503
(dp2504
g72
(dp2505
g99
g100
ssg81
g2494
sg74
(lp2506
S':'
asbag67
(g88
g69
NtRp2507
(dp2508
g72
(dp2509
sg81
g2494
sg74
(lp2510
g67
(g68
g69
NtRp2511
(dp2512
g72
(dp2513
g80
I3
ssg81
g2507
sg74
(lp2514
g1503
asbasbasbag67
(g83
g69
NtRp2515
(dp2516
g72
(dp2517
sg81
g2217
sg74
(lp2518
g67
(g88
g69
NtRp2519
(dp2520
g72
(dp2521
g92
g93
ssg81
g2515
sg74
(lp2522
S'REQUEST_METHOD'
p2523
asbag67
(g88
g69
NtRp2524
(dp2525
g72
(dp2526
g99
g100
ssg81
g2515
sg74
(lp2527
S':'
asbag67
(g88
g69
NtRp2528
(dp2529
g72
(dp2530
sg81
g2515
sg74
(lp2531
g67
(g68
g69
NtRp2532
(dp2533
g72
(dp2534
g80
I3
ssg81
g2528
sg74
(lp2535
g1525
asbasbasbag67
(g83
g69
NtRp2536
(dp2537
g72
(dp2538
sg81
g2217
sg74
(lp2539
g67
(g88
g69
NtRp2540
(dp2541
g72
(dp2542
g92
g93
ssg81
g2536
sg74
(lp2543
S'SCRIPT_NAME'
p2544
asbag67
(g88
g69
NtRp2545
(dp2546
g72
(dp2547
g99
g100
ssg81
g2536
sg74
(lp2548
S':'
asbag67
(g88
g69
NtRp2549
(dp2550
g72
(dp2551
sg81
g2536
sg74
(lp2552
g67
(g68
g69
NtRp2553
(dp2554
g72
(dp2555
g80
I3
ssg81
g2549
sg74
(lp2556
S''
asbasbasbag67
(g83
g69
NtRp2557
(dp2558
g72
(dp2559
sg81
g2217
sg74
(lp2560
g67
(g88
g69
NtRp2561
(dp2562
g72
(dp2563
g92
g93
ssg81
g2557
sg74
(lp2564
S'SERVER_NAME'
p2565
asbag67
(g88
g69
NtRp2566
(dp2567
g72
(dp2568
g99
g100
ssg81
g2557
sg74
(lp2569
S':'
asbag67
(g88
g69
NtRp2570
(dp2571
g72
(dp2572
sg81
g2557
sg74
(lp2573
g67
(g68
g69
NtRp2574
(dp2575
g72
(dp2576
g80
I3
ssg81
g2570
sg74
(lp2577
g1568
asbasbasbag67
(g83
g69
NtRp2578
(dp2579
g72
(dp2580
sg81
g2217
sg74
(lp2581
g67
(g88
g69
NtRp2582
(dp2583
g72
(dp2584
g92
g93
ssg81
g2578
sg74
(lp2585
S'SERVER_PORT'
p2586
asbag67
(g88
g69
NtRp2587
(dp2588
g72
(dp2589
g99
g100
ssg81
g2578
sg74
(lp2590
S':'
asbag67
(g88
g69
NtRp2591
(dp2592
g72
(dp2593
sg81
g2578
sg74
(lp2594
g67
(g68
g69
NtRp2595
(dp2596
g72
(dp2597
g80
I3
ssg81
g2591
sg74
(lp2598
g1590
asbasbasbag67
(g83
g69
NtRp2599
(dp2600
g72
(dp2601
sg81
g2217
sg74
(lp2602
g67
(g88
g69
NtRp2603
(dp2604
g72
(dp2605
g92
g93
ssg81
g2599
sg74
(lp2606
S'SERVER_PROTOCOL'
p2607
asbag67
(g88
g69
NtRp2608
(dp2609
g72
(dp2610
g99
g100
ssg81
g2599
sg74
(lp2611
S':'
asbag67
(g88
g69
NtRp2612
(dp2613
g72
(dp2614
sg81
g2599
sg74
(lp2615
g67
(g68
g69
NtRp2616
(dp2617
g72
(dp2618
g80
I3
ssg81
g2612
sg74
(lp2619
g1612
asbasbasbag67
(g83
g69
NtRp2620
(dp2621
g72
(dp2622
sg81
g2217
sg74
(lp2623
g67
(g88
g69
NtRp2624
(dp2625
g72
(dp2626
g92
g93
ssg81
g2620
sg74
(lp2627
S'SERVER_SOFTWARE'
p2628
asbag67
(g88
g69
NtRp2629
(dp2630
g72
(dp2631
g99
g100
ssg81
g2620
sg74
(lp2632
S':'
asbag67
(g88
g69
NtRp2633
(dp2634
g72
(dp2635
sg81
g2620
sg74
(lp2636
g67
(g68
g69
NtRp2637
(dp2638
g72
(dp2639
g80
I3
ssg81
g2633
sg74
(lp2640
g1634
asbasbasbag67
(g83
g69
NtRp2641
(dp2642
g72
(dp2643
sg81
g2217
sg74
(lp2644
g67
(g88
g69
NtRp2645
(dp2646
g72
(dp2647
g92
g93
ssg81
g2641
sg74
(lp2648
S'wsgi.errors'
p2649
asbag67
(g88
g69
NtRp2650
(dp2651
g72
(dp2652
g99
g100
ssg81
g2641
sg74
(lp2653
S':'
asbag67
(g88
g69
NtRp2654
(dp2655
g72
(dp2656
sg81
g2641
sg74
(lp2657
g67
(g68
g69
NtRp2658
(dp2659
g72
(dp2660
g80
I3
ssg81
g2654
sg74
(lp2661
S"<open file '<stderr>', mode 'w' at 0x100287270>"
p2662
asbasbasbag67
(g83
g69
NtRp2663
(dp2664
g72
(dp2665
sg81
g2217
sg74
(lp2666
g67
(g88
g69
NtRp2667
(dp2668
g72
(dp2669
g92
g93
ssg81
g2663
sg74
(lp2670
S'wsgi.file_wrapper'
p2671
asbag67
(g88
g69
NtRp2672
(dp2673
g72
(dp2674
g99
g100
ssg81
g2663
sg74
(lp2675
S':'
asbag67
(g88
g69
NtRp2676
(dp2677
g72
(dp2678
sg81
g2663
sg74
(lp2679
g67
(g68
g69
NtRp2680
(dp2681
g72
(dp2682
g80
I3
ssg81
g2676
sg74
(lp2683
S'<class gluon.rocket.FileWrapper at 0x101668e20>'
p2684
asbasbasbag67
(g83
g69
NtRp2685
(dp2686
g72
(dp2687
sg81
g2217
sg74
(lp2688
g67
(g88
g69
NtRp2689
(dp2690
g72
(dp2691
g92
g93
ssg81
g2685
sg74
(lp2692
S'wsgi.input'
p2693
asbag67
(g88
g69
NtRp2694
(dp2695
g72
(dp2696
g99
g100
ssg81
g2685
sg74
(lp2697
S':'
asbag67
(g88
g69
NtRp2698
(dp2699
g72
(dp2700
sg81
g2685
sg74
(lp2701
g67
(g68
g69
NtRp2702
(dp2703
g72
(dp2704
g80
I3
ssg81
g2698
sg74
(lp2705
S'<cStringIO.StringO object at 0x101c8a308>'
p2706
asbasbasbag67
(g83
g69
NtRp2707
(dp2708
g72
(dp2709
sg81
g2217
sg74
(lp2710
g67
(g88
g69
NtRp2711
(dp2712
g72
(dp2713
g92
g93
ssg81
g2707
sg74
(lp2714
S'wsgi.multiprocess'
p2715
asbag67
(g88
g69
NtRp2716
(dp2717
g72
(dp2718
g99
g100
ssg81
g2707
sg74
(lp2719
S':'
asbag67
(g88
g69
NtRp2720
(dp2721
g72
(dp2722
sg81
g2707
sg74
(lp2723
g67
(g68
g69
NtRp2724
(dp2725
g72
(dp2726
g80
I3
ssg81
g2720
sg74
(lp2727
g110
asbasbasbag67
(g83
g69
NtRp2728
(dp2729
g72
(dp2730
sg81
g2217
sg74
(lp2731
g67
(g88
g69
NtRp2732
(dp2733
g72
(dp2734
g92
g93
ssg81
g2728
sg74
(lp2735
S'wsgi.multithread'
p2736
asbag67
(g88
g69
NtRp2737
(dp2738
g72
(dp2739
g99
g100
ssg81
g2728
sg74
(lp2740
S':'
asbag67
(g88
g69
NtRp2741
(dp2742
g72
(dp2743
sg81
g2728
sg74
(lp2744
g67
(g68
g69
NtRp2745
(dp2746
g72
(dp2747
g80
I3
ssg81
g2741
sg74
(lp2748
g1808
asbasbasbag67
(g83
g69
NtRp2749
(dp2750
g72
(dp2751
sg81
g2217
sg74
(lp2752
g67
(g88
g69
NtRp2753
(dp2754
g72
(dp2755
g92
g93
ssg81
g2749
sg74
(lp2756
S'wsgi.run_once'
p2757
asbag67
(g88
g69
NtRp2758
(dp2759
g72
(dp2760
g99
g100
ssg81
g2749
sg74
(lp2761
S':'
asbag67
(g88
g69
NtRp2762
(dp2763
g72
(dp2764
sg81
g2749
sg74
(lp2765
g67
(g68
g69
NtRp2766
(dp2767
g72
(dp2768
g80
I3
ssg81
g2762
sg74
(lp2769
g110
asbasbasbag67
(g83
g69
NtRp2770
(dp2771
g72
(dp2772
sg81
g2217
sg74
(lp2773
g67
(g88
g69
NtRp2774
(dp2775
g72
(dp2776
g92
g93
ssg81
g2770
sg74
(lp2777
S'wsgi.url_scheme'
p2778
asbag67
(g88
g69
NtRp2779
(dp2780
g72
(dp2781
g99
g100
ssg81
g2770
sg74
(lp2782
S':'
asbag67
(g88
g69
NtRp2783
(dp2784
g72
(dp2785
sg81
g2770
sg74
(lp2786
g67
(g68
g69
NtRp2787
(dp2788
g72
(dp2789
g80
I3
ssg81
g2783
sg74
(lp2790
g1851
asbasbasbag67
(g83
g69
NtRp2791
(dp2792
g72
(dp2793
sg81
g2217
sg74
(lp2794
g67
(g88
g69
NtRp2795
(dp2796
g72
(dp2797
g92
g93
ssg81
g2791
sg74
(lp2798
S'wsgi.version'
p2799
asbag67
(g88
g69
NtRp2800
(dp2801
g72
(dp2802
g99
g100
ssg81
g2791
sg74
(lp2803
S':'
asbag67
(g88
g69
NtRp2804
(dp2805
g72
(dp2806
sg81
g2791
sg74
(lp2807
g67
(g68
g69
NtRp2808
(dp2809
g72
(dp2810
g80
I3
ssg81
g2804
sg74
(lp2811
S'1'
asbasbasbasbasbasbasbasbasbasbasbasbasbsS'frames'
p2812
(lp2813
(dp2814
S'file'
p2815
S'/opt/local/Library/Frameworks/Python.framework/Versions/2.7/lib/python2.7/gluon/restricted.py'
p2816
sS'dump'
p2817
(dp2818
S'code'
p2819
S"'# -*- coding: utf-8 -*-\\n### required - do no del...t()\\n\\nresponse._vars=response._caller(submission)\\n'"
p2820
sS'layer'
p2821
S"'/Users/hellais/Documents/code/mygit/globaleaks/webapp/applications/init/controllers/default.py'"
p2822
sS'global compile2'
p2823
S'<function compile2>'
p2824
sS'ccode'
p2825
S'undefined'
p2826
ssS'lnum'
p2827
I191
sS'lines'
p2828
(dp2829
I192
S'        exec ccode in environment'
p2830
sI193
S'    except HTTP:'
p2831
sI194
S'        raise'
p2832
sI195
S'    except Exception, error:'
p2833
sI186
S"    environment['__file__'] = layer"
p2834
sI187
S'    try:'
p2835
sI188
S'        if type(code) == types.CodeType:'
p2836
sI189
S'            ccode = code'
p2837
sI190
S'        else:'
p2838
sI191
S'            ccode = compile2(code,layer)'
p2839
ssS'call'
p2840
S"(code='# -*- coding: utf-8 -*-\\n### required - do no del...t()\\n\\nresponse._vars=response._caller(submission)\\n', environment={'A': <class 'gluon.html.A'>, 'Auth': <class 'gluon.tools.Auth'>, 'B': <class 'gluon.html.B'>, 'BEAUTIFY': <class 'gluon.html.BEAUTIFY'>, 'BODY': <class 'gluon.html.BODY'>, 'BR': <class 'gluon.html.BR'>, 'BUTTON': <class 'gluon.html.BUTTON'>, 'CAT': <class 'gluon.html.CAT'>, 'CENTER': <class 'gluon.html.CENTER'>, 'CLEANUP': <class 'gluon.validators.CLEANUP'>, ...}, layer='/Users/hellais/Documents/code/mygit/globaleaks/webapp/applications/init/controllers/default.py')"
p2841
sS'func'
p2842
S'restricted'
p2843
sa(dp2844
g2815
S'/opt/local/Library/Frameworks/Python.framework/Versions/2.7/lib/python2.7/gluon/restricted.py'
p2845
sg2817
(dp2846
S'builtincompile'
p2847
S'<built-in function compile>'
p2848
sS'code'
p2849
S"'# -*- coding: utf-8 -*-\\n### required - do no del...t()\\n\\nresponse._vars=response._caller(submission)\\n'"
p2850
sS'code.rstrip'
p2851
S'<built-in method rstrip of str object>'
p2852
sS').replace'
p2853
g2826
sS'layer'
p2854
S"'/Users/hellais/Documents/code/mygit/globaleaks/webapp/applications/init/controllers/default.py'"
p2855
ssg2827
I178
sg2828
(dp2856
I173
S''
sI174
S'def compile2(code,layer):'
p2857
sI175
S'    """'
p2858
sI176
S"    The +'\\n' is necessary else compile fails when code ends in a comment."
p2859
sI177
S'    """'
p2860
sI178
S"    return compile(code.rstrip().replace('\\r\\n','\\n')+'\\n', layer, 'exec')"
p2861
sI179
S''
sI180
S"def restricted(code, environment={}, layer='Unknown'):"
p2862
sI181
S'    """'
p2863
sI182
S'    runs code in environment and returns the output. if an exception occurs'
p2864
ssg2840
S"(code='# -*- coding: utf-8 -*-\\n### required - do no del...t()\\n\\nresponse._vars=response._caller(submission)\\n', layer='/Users/hellais/Documents/code/mygit/globaleaks/webapp/applications/init/controllers/default.py')"
p2865
sg2842
S'compile2'
p2866
sasS'pyver'
p2867
S'Python 2.7.1: /opt/local/Library/Frameworks/Python.framework/Versions/2.7/Resources/Python.app/Contents/MacOS/Python'
p2868
sS'session'
p2869
g67
(g68
g69
NtRp2870
(dp2871
g72
(dp2872
sg74
(lp2873
g67
(g76
g69
NtRp2874
(dp2875
g72
(dp2876
g80
I5
ssg81
Nsg74
(lp2877
sbasbsS'etype'
p2878
S"<type 'exceptions.IndentationError'>"
p2879
sS'date'
p2880
S'Sun Aug 28 00:00:06 2011'
p2881
sS'response'
p2882
g67
(g68
g69
NtRp2883
(dp2884
g72
(dp2885
sg74
(lp2886
g67
(g76
g69
NtRp2887
(dp2888
g72
(dp2889
g80
I5
ssg81
Nsg74
(lp2890
g67
(g83
g69
NtRp2891
(dp2892
g72
(dp2893
sg81
g2887
sg74
(lp2894
g67
(g88
g69
NtRp2895
(dp2896
g72
(dp2897
g92
g93
ssg81
g2891
sg74
(lp2898
g165
asbag67
(g88
g69
NtRp2899
(dp2900
g72
(dp2901
g99
g100
ssg81
g2891
sg74
(lp2902
S':'
asbag67
(g88
g69
NtRp2903
(dp2904
g72
(dp2905
sg81
g2891
sg74
(lp2906
g67
(g68
g69
NtRp2907
(dp2908
g72
(dp2909
g80
I5
ssg81
g2903
sg74
(lp2910
S'<cStringIO.StringO object at 0x1021b01b8>'
p2911
asbasbasbag67
(g83
g69
NtRp2912
(dp2913
g72
(dp2914
sg81
g2887
sg74
(lp2915
g67
(g88
g69
NtRp2916
(dp2917
g72
(dp2918
g92
g93
ssg81
g2912
sg74
(lp2919
g231
asbag67
(g88
g69
NtRp2920
(dp2921
g72
(dp2922
g99
g100
ssg81
g2912
sg74
(lp2923
S':'
asbag67
(g88
g69
NtRp2924
(dp2925
g72
(dp2926
sg81
g2912
sg74
(lp2927
g67
(g68
g69
NtRp2928
(dp2929
g72
(dp2930
g80
I5
ssg81
g2924
sg74
(lp2931
g67
(g76
g69
NtRp2932
(dp2933
g72
(dp2934
g80
I4
ssg81
Nsg74
(lp2935
g67
(g83
g69
NtRp2936
(dp2937
g72
(dp2938
sg81
g2932
sg74
(lp2939
g67
(g88
g69
NtRp2940
(dp2941
g72
(dp2942
g92
g93
ssg81
g2936
sg74
(lp2943
S'session_id_init'
p2944
asbag67
(g88
g69
NtRp2945
(dp2946
g72
(dp2947
g99
g100
ssg81
g2936
sg74
(lp2948
S':'
asbag67
(g88
g69
NtRp2949
(dp2950
g72
(dp2951
sg81
g2936
sg74
(lp2952
g67
(g68
g69
NtRp2953
(dp2954
g72
(dp2955
g80
I4
ssg81
g2949
sg74
(lp2956
g67
(g76
g69
NtRp2957
(dp2958
g72
(dp2959
g80
I3
ssg81
Nsg74
(lp2960
g67
(g83
g69
NtRp2961
(dp2962
g72
(dp2963
sg81
g2957
sg74
(lp2964
g67
(g88
g69
NtRp2965
(dp2966
g72
(dp2967
g92
g93
ssg81
g2961
sg74
(lp2968
g281
asbag67
(g88
g69
NtRp2969
(dp2970
g72
(dp2971
g99
g100
ssg81
g2961
sg74
(lp2972
S':'
asbag67
(g88
g69
NtRp2973
(dp2974
g72
(dp2975
sg81
g2961
sg74
(lp2976
g67
(g68
g69
NtRp2977
(dp2978
g72
(dp2979
g80
I3
ssg81
g2973
sg74
(lp2980
S''
asbasbasbag67
(g83
g69
NtRp2981
(dp2982
g72
(dp2983
sg81
g2957
sg74
(lp2984
g67
(g88
g69
NtRp2985
(dp2986
g72
(dp2987
g92
g93
ssg81
g2981
sg74
(lp2988
g302
asbag67
(g88
g69
NtRp2989
(dp2990
g72
(dp2991
g99
g100
ssg81
g2981
sg74
(lp2992
S':'
asbag67
(g88
g69
NtRp2993
(dp2994
g72
(dp2995
sg81
g2981
sg74
(lp2996
g67
(g68
g69
NtRp2997
(dp2998
g72
(dp2999
g80
I3
ssg81
g2993
sg74
(lp3000
S''
asbasbasbag67
(g83
g69
NtRp3001
(dp3002
g72
(dp3003
sg81
g2957
sg74
(lp3004
g67
(g88
g69
NtRp3005
(dp3006
g72
(dp3007
g92
g93
ssg81
g3001
sg74
(lp3008
g323
asbag67
(g88
g69
NtRp3009
(dp3010
g72
(dp3011
g99
g100
ssg81
g3001
sg74
(lp3012
S':'
asbag67
(g88
g69
NtRp3013
(dp3014
g72
(dp3015
sg81
g3001
sg74
(lp3016
g67
(g68
g69
NtRp3017
(dp3018
g72
(dp3019
g80
I3
ssg81
g3013
sg74
(lp3020
S''
asbasbasbag67
(g83
g69
NtRp3021
(dp3022
g72
(dp3023
sg81
g2957
sg74
(lp3024
g67
(g88
g69
NtRp3025
(dp3026
g72
(dp3027
g92
g93
ssg81
g3021
sg74
(lp3028
g344
asbag67
(g88
g69
NtRp3029
(dp3030
g72
(dp3031
g99
g100
ssg81
g3021
sg74
(lp3032
S':'
asbag67
(g88
g69
NtRp3033
(dp3034
g72
(dp3035
sg81
g3021
sg74
(lp3036
g67
(g68
g69
NtRp3037
(dp3038
g72
(dp3039
g80
I3
ssg81
g3033
sg74
(lp3040
S''
asbasbasbag67
(g83
g69
NtRp3041
(dp3042
g72
(dp3043
sg81
g2957
sg74
(lp3044
g67
(g88
g69
NtRp3045
(dp3046
g72
(dp3047
g92
g93
ssg81
g3041
sg74
(lp3048
g365
asbag67
(g88
g69
NtRp3049
(dp3050
g72
(dp3051
g99
g100
ssg81
g3041
sg74
(lp3052
S':'
asbag67
(g88
g69
NtRp3053
(dp3054
g72
(dp3055
sg81
g3041
sg74
(lp3056
g67
(g68
g69
NtRp3057
(dp3058
g72
(dp3059
g80
I3
ssg81
g3053
sg74
(lp3060
S''
asbasbasbag67
(g83
g69
NtRp3061
(dp3062
g72
(dp3063
sg81
g2957
sg74
(lp3064
g67
(g88
g69
NtRp3065
(dp3066
g72
(dp3067
g92
g93
ssg81
g3061
sg74
(lp3068
g386
asbag67
(g88
g69
NtRp3069
(dp3070
g72
(dp3071
g99
g100
ssg81
g3061
sg74
(lp3072
S':'
asbag67
(g88
g69
NtRp3073
(dp3074
g72
(dp3075
sg81
g3061
sg74
(lp3076
g67
(g68
g69
NtRp3077
(dp3078
g72
(dp3079
g80
I3
ssg81
g3073
sg74
(lp3080
S'/'
asbasbasbag67
(g83
g69
NtRp3081
(dp3082
g72
(dp3083
sg81
g2957
sg74
(lp3084
g67
(g88
g69
NtRp3085
(dp3086
g72
(dp3087
g92
g93
ssg81
g3081
sg74
(lp3088
g407
asbag67
(g88
g69
NtRp3089
(dp3090
g72
(dp3091
g99
g100
ssg81
g3081
sg74
(lp3092
S':'
asbag67
(g88
g69
NtRp3093
(dp3094
g72
(dp3095
sg81
g3081
sg74
(lp3096
g67
(g68
g69
NtRp3097
(dp3098
g72
(dp3099
g80
I3
ssg81
g3093
sg74
(lp3100
S''
asbasbasbag67
(g83
g69
NtRp3101
(dp3102
g72
(dp3103
sg81
g2957
sg74
(lp3104
g67
(g88
g69
NtRp3105
(dp3106
g72
(dp3107
g92
g93
ssg81
g3101
sg74
(lp3108
g428
asbag67
(g88
g69
NtRp3109
(dp3110
g72
(dp3111
g99
g100
ssg81
g3101
sg74
(lp3112
S':'
asbag67
(g88
g69
NtRp3113
(dp3114
g72
(dp3115
sg81
g3101
sg74
(lp3116
g67
(g68
g69
NtRp3117
(dp3118
g72
(dp3119
g80
I3
ssg81
g3113
sg74
(lp3120
S''
asbasbasbasbasbasbasbasbasbasbasbag67
(g83
g69
NtRp3121
(dp3122
g72
(dp3123
sg81
g2887
sg74
(lp3124
g67
(g88
g69
NtRp3125
(dp3126
g72
(dp3127
g92
g93
ssg81
g3121
sg74
(lp3128
S'files'
p3129
asbag67
(g88
g69
NtRp3130
(dp3131
g72
(dp3132
g99
g100
ssg81
g3121
sg74
(lp3133
S':'
asbag67
(g88
g69
NtRp3134
(dp3135
g72
(dp3136
sg81
g3121
sg74
(lp3137
g67
(g68
g69
NtRp3138
(dp3139
g72
(dp3140
g80
I5
ssg81
g3134
sg74
(lp3141
g67
(g76
g69
NtRp3142
(dp3143
g72
(dp3144
g80
I4
ssg81
Nsg74
(lp3145
sbasbasbasbag67
(g83
g69
NtRp3146
(dp3147
g72
(dp3148
sg81
g2887
sg74
(lp3149
g67
(g88
g69
NtRp3150
(dp3151
g72
(dp3152
g92
g93
ssg81
g3146
sg74
(lp3153
S'flash'
p3154
asbag67
(g88
g69
NtRp3155
(dp3156
g72
(dp3157
g99
g100
ssg81
g3146
sg74
(lp3158
S':'
asbag67
(g88
g69
NtRp3159
(dp3160
g72
(dp3161
sg81
g3146
sg74
(lp3162
g67
(g68
g69
NtRp3163
(dp3164
g72
(dp3165
g80
I5
ssg81
g3159
sg74
(lp3166
S''
asbasbasbag67
(g83
g69
NtRp3167
(dp3168
g72
(dp3169
sg81
g2887
sg74
(lp3170
g67
(g88
g69
NtRp3171
(dp3172
g72
(dp3173
g92
g93
ssg81
g3167
sg74
(lp3174
S'generic_patterns'
p3175
asbag67
(g88
g69
NtRp3176
(dp3177
g72
(dp3178
g99
g100
ssg81
g3167
sg74
(lp3179
S':'
asbag67
(g88
g69
NtRp3180
(dp3181
g72
(dp3182
sg81
g3167
sg74
(lp3183
g67
(g68
g69
NtRp3184
(dp3185
g72
(dp3186
g80
I5
ssg81
g3180
sg74
(lp3187
g67
(g76
g69
NtRp3188
(dp3189
g72
(dp3190
g80
I4
ssg81
Nsg74
(lp3191
sbasbasbasbag67
(g83
g69
NtRp3192
(dp3193
g72
(dp3194
sg81
g2887
sg74
(lp3195
g67
(g88
g69
NtRp3196
(dp3197
g72
(dp3198
g92
g93
ssg81
g3192
sg74
(lp3199
S'headers'
p3200
asbag67
(g88
g69
NtRp3201
(dp3202
g72
(dp3203
g99
g100
ssg81
g3192
sg74
(lp3204
S':'
asbag67
(g88
g69
NtRp3205
(dp3206
g72
(dp3207
sg81
g3192
sg74
(lp3208
g67
(g68
g69
NtRp3209
(dp3210
g72
(dp3211
g80
I5
ssg81
g3205
sg74
(lp3212
g67
(g76
g69
NtRp3213
(dp3214
g72
(dp3215
g80
I4
ssg81
Nsg74
(lp3216
g67
(g83
g69
NtRp3217
(dp3218
g72
(dp3219
sg81
g3213
sg74
(lp3220
g67
(g88
g69
NtRp3221
(dp3222
g72
(dp3223
g92
g93
ssg81
g3217
sg74
(lp3224
S'Cache-Control'
p3225
asbag67
(g88
g69
NtRp3226
(dp3227
g72
(dp3228
g99
g100
ssg81
g3217
sg74
(lp3229
S':'
asbag67
(g88
g69
NtRp3230
(dp3231
g72
(dp3232
sg81
g3217
sg74
(lp3233
g67
(g68
g69
NtRp3234
(dp3235
g72
(dp3236
g80
I4
ssg81
g3230
sg74
(lp3237
S'no-store, no-cache, must-revalidate, post-check=0, pre-check=0'
p3238
asbasbasbag67
(g83
g69
NtRp3239
(dp3240
g72
(dp3241
sg81
g3213
sg74
(lp3242
g67
(g88
g69
NtRp3243
(dp3244
g72
(dp3245
g92
g93
ssg81
g3239
sg74
(lp3246
S'Content-Type'
p3247
asbag67
(g88
g69
NtRp3248
(dp3249
g72
(dp3250
g99
g100
ssg81
g3239
sg74
(lp3251
S':'
asbag67
(g88
g69
NtRp3252
(dp3253
g72
(dp3254
sg81
g3239
sg74
(lp3255
g67
(g68
g69
NtRp3256
(dp3257
g72
(dp3258
g80
I4
ssg81
g3252
sg74
(lp3259
S'text/html; charset=utf-8'
p3260
asbasbasbag67
(g83
g69
NtRp3261
(dp3262
g72
(dp3263
sg81
g3213
sg74
(lp3264
g67
(g88
g69
NtRp3265
(dp3266
g72
(dp3267
g92
g93
ssg81
g3261
sg74
(lp3268
S'Expires'
p3269
asbag67
(g88
g69
NtRp3270
(dp3271
g72
(dp3272
g99
g100
ssg81
g3261
sg74
(lp3273
S':'
asbag67
(g88
g69
NtRp3274
(dp3275
g72
(dp3276
sg81
g3261
sg74
(lp3277
g67
(g68
g69
NtRp3278
(dp3279
g72
(dp3280
g80
I4
ssg81
g3274
sg74
(lp3281
S'Sat, 27 Aug 2011 22:00:06 GMT'
p3282
asbasbasbag67
(g83
g69
NtRp3283
(dp3284
g72
(dp3285
sg81
g3213
sg74
(lp3286
g67
(g88
g69
NtRp3287
(dp3288
g72
(dp3289
g92
g93
ssg81
g3283
sg74
(lp3290
S'Pragma'
p3291
asbag67
(g88
g69
NtRp3292
(dp3293
g72
(dp3294
g99
g100
ssg81
g3283
sg74
(lp3295
S':'
asbag67
(g88
g69
NtRp3296
(dp3297
g72
(dp3298
sg81
g3283
sg74
(lp3299
g67
(g68
g69
NtRp3300
(dp3301
g72
(dp3302
g80
I4
ssg81
g3296
sg74
(lp3303
S'no-cache'
p3304
asbasbasbag67
(g83
g69
NtRp3305
(dp3306
g72
(dp3307
sg81
g3213
sg74
(lp3308
g67
(g88
g69
NtRp3309
(dp3310
g72
(dp3311
g92
g93
ssg81
g3305
sg74
(lp3312
S'X-Powered-By'
p3313
asbag67
(g88
g69
NtRp3314
(dp3315
g72
(dp3316
g99
g100
ssg81
g3305
sg74
(lp3317
S':'
asbag67
(g88
g69
NtRp3318
(dp3319
g72
(dp3320
sg81
g3305
sg74
(lp3321
g67
(g68
g69
NtRp3322
(dp3323
g72
(dp3324
g80
I4
ssg81
g3318
sg74
(lp3325
S'web2py'
p3326
asbasbasbasbasbasbasbag67
(g83
g69
NtRp3327
(dp3328
g72
(dp3329
sg81
g2887
sg74
(lp3330
g67
(g88
g69
NtRp3331
(dp3332
g72
(dp3333
g92
g93
ssg81
g3327
sg74
(lp3334
S'menu'
p3335
asbag67
(g88
g69
NtRp3336
(dp3337
g72
(dp3338
g99
g100
ssg81
g3327
sg74
(lp3339
S':'
asbag67
(g88
g69
NtRp3340
(dp3341
g72
(dp3342
sg81
g3327
sg74
(lp3343
g67
(g68
g69
NtRp3344
(dp3345
g72
(dp3346
g80
I5
ssg81
g3340
sg74
(lp3347
g67
(g76
g69
NtRp3348
(dp3349
g72
(dp3350
g80
I4
ssg81
Nsg74
(lp3351
g67
(g83
g69
NtRp3352
(dp3353
g72
(dp3354
sg81
g3348
sg74
(lp3355
g67
(g88
g69
NtRp3356
(dp3357
g72
(dp3358
sg81
g3352
sg74
(lp3359
g67
(g68
g69
NtRp3360
(dp3361
g72
(dp3362
g80
I4
ssg81
g3356
sg74
(lp3363
g67
(g76
g69
NtRp3364
(dp3365
g72
(dp3366
g80
I3
ssg81
Nsg74
(lp3367
g67
(g83
g69
NtRp3368
(dp3369
g72
(dp3370
sg81
g3364
sg74
(lp3371
g67
(g88
g69
NtRp3372
(dp3373
g72
(dp3374
sg81
g3368
sg74
(lp3375
g67
(g68
g69
NtRp3376
(dp3377
g72
(dp3378
g80
I3
ssg81
g3372
sg74
(lp3379
cgluon.languages
lazyT_unpickle
p3380
(S't\x05\x00\x00\x00Index'
tRp3381
asbasbasbag67
(g83
g69
NtRp3382
(dp3383
g72
(dp3384
sg81
g3364
sg74
(lp3385
g67
(g88
g69
NtRp3386
(dp3387
g72
(dp3388
sg81
g3382
sg74
(lp3389
g67
(g68
g69
NtRp3390
(dp3391
g72
(dp3392
g80
I3
ssg81
g3386
sg74
(lp3393
g110
asbasbasbag67
(g83
g69
NtRp3394
(dp3395
g72
(dp3396
sg81
g3364
sg74
(lp3397
g67
(g88
g69
NtRp3398
(dp3399
g72
(dp3400
sg81
g3394
sg74
(lp3401
g67
(g68
g69
NtRp3402
(dp3403
g72
(dp3404
g80
I3
ssg81
g3398
sg74
(lp3405
S'/init/default/index'
p3406
asbasbasbag67
(g83
g69
NtRp3407
(dp3408
g72
(dp3409
sg81
g3364
sg74
(lp3410
g67
(g88
g69
NtRp3411
(dp3412
g72
(dp3413
sg81
g3407
sg74
(lp3414
g67
(g68
g69
NtRp3415
(dp3416
g72
(dp3417
g80
I3
ssg81
g3411
sg74
(lp3418
g67
(g76
g69
NtRp3419
(dp3420
g72
(dp3421
g80
I2
ssg81
Nsg74
(lp3422
sbasbasbasbasbasbasbasbasbasbasbasbag67
(g83
g69
NtRp3423
(dp3424
g72
(dp3425
sg81
g2887
sg74
(lp3426
g67
(g88
g69
NtRp3427
(dp3428
g72
(dp3429
g92
g93
ssg81
g3423
sg74
(lp3430
S'meta'
p3431
asbag67
(g88
g69
NtRp3432
(dp3433
g72
(dp3434
g99
g100
ssg81
g3423
sg74
(lp3435
S':'
asbag67
(g88
g69
NtRp3436
(dp3437
g72
(dp3438
sg81
g3423
sg74
(lp3439
g67
(g68
g69
NtRp3440
(dp3441
g72
(dp3442
g80
I5
ssg81
g3436
sg74
(lp3443
g67
(g76
g69
NtRp3444
(dp3445
g72
(dp3446
g80
I4
ssg81
Nsg74
(lp3447
g67
(g83
g69
NtRp3448
(dp3449
g72
(dp3450
sg81
g3444
sg74
(lp3451
g67
(g88
g69
NtRp3452
(dp3453
g72
(dp3454
g92
g93
ssg81
g3448
sg74
(lp3455
S'author'
p3456
asbag67
(g88
g69
NtRp3457
(dp3458
g72
(dp3459
g99
g100
ssg81
g3448
sg74
(lp3460
S':'
asbag67
(g88
g69
NtRp3461
(dp3462
g72
(dp3463
sg81
g3448
sg74
(lp3464
g67
(g68
g69
NtRp3465
(dp3466
g72
(dp3467
g80
I4
ssg81
g3461
sg74
(lp3468
S'RGC <info@globaleaks.org>'
p3469
asbasbasbag67
(g83
g69
NtRp3470
(dp3471
g72
(dp3472
sg81
g3444
sg74
(lp3473
g67
(g88
g69
NtRp3474
(dp3475
g72
(dp3476
g92
g93
ssg81
g3470
sg74
(lp3477
S'description'
p3478
asbag67
(g88
g69
NtRp3479
(dp3480
g72
(dp3481
g99
g100
ssg81
g3470
sg74
(lp3482
S':'
asbag67
(g88
g69
NtRp3483
(dp3484
g72
(dp3485
sg81
g3470
sg74
(lp3486
g67
(g68
g69
NtRp3487
(dp3488
g72
(dp3489
g80
I4
ssg81
g3483
sg74
(lp3490
S''
asbasbasbag67
(g83
g69
NtRp3491
(dp3492
g72
(dp3493
sg81
g3444
sg74
(lp3494
g67
(g88
g69
NtRp3495
(dp3496
g72
(dp3497
g92
g93
ssg81
g3491
sg74
(lp3498
S'keywords'
p3499
asbag67
(g88
g69
NtRp3500
(dp3501
g72
(dp3502
g99
g100
ssg81
g3491
sg74
(lp3503
S':'
asbag67
(g88
g69
NtRp3504
(dp3505
g72
(dp3506
sg81
g3491
sg74
(lp3507
g67
(g68
g69
NtRp3508
(dp3509
g72
(dp3510
g80
I4
ssg81
g3504
sg74
(lp3511
S''
asbasbasbasbasbasbasbag67
(g83
g69
NtRp3512
(dp3513
g72
(dp3514
sg81
g2887
sg74
(lp3515
g67
(g88
g69
NtRp3516
(dp3517
g72
(dp3518
g92
g93
ssg81
g3512
sg74
(lp3519
S'postprocessing'
p3520
asbag67
(g88
g69
NtRp3521
(dp3522
g72
(dp3523
g99
g100
ssg81
g3512
sg74
(lp3524
S':'
asbag67
(g88
g69
NtRp3525
(dp3526
g72
(dp3527
sg81
g3512
sg74
(lp3528
g67
(g68
g69
NtRp3529
(dp3530
g72
(dp3531
g80
I5
ssg81
g3525
sg74
(lp3532
g67
(g76
g69
NtRp3533
(dp3534
g72
(dp3535
g80
I4
ssg81
Nsg74
(lp3536
sbasbasbasbag67
(g83
g69
NtRp3537
(dp3538
g72
(dp3539
sg81
g2887
sg74
(lp3540
g67
(g88
g69
NtRp3541
(dp3542
g72
(dp3543
g92
g93
ssg81
g3537
sg74
(lp3544
S'session_file'
p3545
asbag67
(g88
g69
NtRp3546
(dp3547
g72
(dp3548
g99
g100
ssg81
g3537
sg74
(lp3549
S':'
asbag67
(g88
g69
NtRp3550
(dp3551
g72
(dp3552
sg81
g3537
sg74
(lp3553
g67
(g68
g69
NtRp3554
(dp3555
g72
(dp3556
g80
I5
ssg81
g3550
sg74
(lp3557
S"<open file '/Users/hellais/Documents/code/mygit/globaleaks/webapp/applications/init/sessions/127.0.0.1-a8551263-bc3c-430c-abb2-8711fac671c1', mode 'rb+' at 0x1019a30c0>"
p3558
asbasbasbag67
(g83
g69
NtRp3559
(dp3560
g72
(dp3561
sg81
g2887
sg74
(lp3562
g67
(g88
g69
NtRp3563
(dp3564
g72
(dp3565
g92
g93
ssg81
g3559
sg74
(lp3566
S'session_filename'
p3567
asbag67
(g88
g69
NtRp3568
(dp3569
g72
(dp3570
g99
g100
ssg81
g3559
sg74
(lp3571
S':'
asbag67
(g88
g69
NtRp3572
(dp3573
g72
(dp3574
sg81
g3559
sg74
(lp3575
g67
(g68
g69
NtRp3576
(dp3577
g72
(dp3578
g80
I5
ssg81
g3572
sg74
(lp3579
S'/Users/hellais/Documents/code/mygit/globaleaks/webapp/applications/init/sessions/127.0.0.1-a8551263-bc3c-430c-abb2-8711fac671c1'
p3580
asbasbasbag67
(g83
g69
NtRp3581
(dp3582
g72
(dp3583
sg81
g2887
sg74
(lp3584
g67
(g88
g69
NtRp3585
(dp3586
g72
(dp3587
g92
g93
ssg81
g3581
sg74
(lp3588
S'session_id'
p3589
asbag67
(g88
g69
NtRp3590
(dp3591
g72
(dp3592
g99
g100
ssg81
g3581
sg74
(lp3593
S':'
asbag67
(g88
g69
NtRp3594
(dp3595
g72
(dp3596
sg81
g3581
sg74
(lp3597
g67
(g68
g69
NtRp3598
(dp3599
g72
(dp3600
g80
I5
ssg81
g3594
sg74
(lp3601
S'127.0.0.1-a8551263-bc3c-430c-abb2-8711fac671c1'
p3602
asbasbasbag67
(g83
g69
NtRp3603
(dp3604
g72
(dp3605
sg81
g2887
sg74
(lp3606
g67
(g88
g69
NtRp3607
(dp3608
g72
(dp3609
g92
g93
ssg81
g3603
sg74
(lp3610
S'session_id_name'
p3611
asbag67
(g88
g69
NtRp3612
(dp3613
g72
(dp3614
g99
g100
ssg81
g3603
sg74
(lp3615
S':'
asbag67
(g88
g69
NtRp3616
(dp3617
g72
(dp3618
sg81
g3603
sg74
(lp3619
g67
(g68
g69
NtRp3620
(dp3621
g72
(dp3622
g80
I5
ssg81
g3616
sg74
(lp3623
g2944
asbasbasbag67
(g83
g69
NtRp3624
(dp3625
g72
(dp3626
sg81
g2887
sg74
(lp3627
g67
(g88
g69
NtRp3628
(dp3629
g72
(dp3630
g92
g93
ssg81
g3624
sg74
(lp3631
S'session_locked'
p3632
asbag67
(g88
g69
NtRp3633
(dp3634
g72
(dp3635
g99
g100
ssg81
g3624
sg74
(lp3636
S':'
asbag67
(g88
g69
NtRp3637
(dp3638
g72
(dp3639
sg81
g3624
sg74
(lp3640
g67
(g68
g69
NtRp3641
(dp3642
g72
(dp3643
g80
I5
ssg81
g3637
sg74
(lp3644
g1808
asbasbasbag67
(g83
g69
NtRp3645
(dp3646
g72
(dp3647
sg81
g2887
sg74
(lp3648
g67
(g88
g69
NtRp3649
(dp3650
g72
(dp3651
g92
g93
ssg81
g3645
sg74
(lp3652
S'session_new'
p3653
asbag67
(g88
g69
NtRp3654
(dp3655
g72
(dp3656
g99
g100
ssg81
g3645
sg74
(lp3657
S':'
asbag67
(g88
g69
NtRp3658
(dp3659
g72
(dp3660
sg81
g3645
sg74
(lp3661
g67
(g68
g69
NtRp3662
(dp3663
g72
(dp3664
g80
I5
ssg81
g3658
sg74
(lp3665
g110
asbasbasbag67
(g83
g69
NtRp3666
(dp3667
g72
(dp3668
sg81
g2887
sg74
(lp3669
g67
(g88
g69
NtRp3670
(dp3671
g72
(dp3672
g92
g93
ssg81
g3666
sg74
(lp3673
S'status'
p3674
asbag67
(g88
g69
NtRp3675
(dp3676
g72
(dp3677
g99
g100
ssg81
g3666
sg74
(lp3678
S':'
asbag67
(g88
g69
NtRp3679
(dp3680
g72
(dp3681
sg81
g3666
sg74
(lp3682
g67
(g68
g69
NtRp3683
(dp3684
g72
(dp3685
g80
I5
ssg81
g3679
sg74
(lp3686
S'200'
p3687
asbasbasbag67
(g83
g69
NtRp3688
(dp3689
g72
(dp3690
sg81
g2887
sg74
(lp3691
g67
(g88
g69
NtRp3692
(dp3693
g72
(dp3694
g92
g93
ssg81
g3688
sg74
(lp3695
S'subtitle'
p3696
asbag67
(g88
g69
NtRp3697
(dp3698
g72
(dp3699
g99
g100
ssg81
g3688
sg74
(lp3700
S':'
asbag67
(g88
g69
NtRp3701
(dp3702
g72
(dp3703
sg81
g3688
sg74
(lp3704
g67
(g68
g69
NtRp3705
(dp3706
g72
(dp3707
g80
I5
ssg81
g3701
sg74
(lp3708
S'Open Source Whistleblowing Platform'
p3709
asbasbasbag67
(g83
g69
NtRp3710
(dp3711
g72
(dp3712
sg81
g2887
sg74
(lp3713
g67
(g88
g69
NtRp3714
(dp3715
g72
(dp3716
g92
g93
ssg81
g3710
sg74
(lp3717
S'title'
p3718
asbag67
(g88
g69
NtRp3719
(dp3720
g72
(dp3721
g99
g100
ssg81
g3710
sg74
(lp3722
S':'
asbag67
(g88
g69
NtRp3723
(dp3724
g72
(dp3725
sg81
g3710
sg74
(lp3726
g67
(g68
g69
NtRp3727
(dp3728
g72
(dp3729
g80
I5
ssg81
g3723
sg74
(lp3730
S'GlobaLeaks'
p3731
asbasbasbag67
(g83
g69
NtRp3732
(dp3733
g72
(dp3734
sg81
g2887
sg74
(lp3735
g67
(g88
g69
NtRp3736
(dp3737
g72
(dp3738
g92
g93
ssg81
g3732
sg74
(lp3739
g2132
asbag67
(g88
g69
NtRp3740
(dp3741
g72
(dp3742
g99
g100
ssg81
g3732
sg74
(lp3743
S':'
asbag67
(g88
g69
NtRp3744
(dp3745
g72
(dp3746
sg81
g3732
sg74
(lp3747
g67
(g68
g69
NtRp3748
(dp3749
g72
(dp3750
g80
I5
ssg81
g3744
sg74
(lp3751
g2145
asbasbasbag67
(g83
g69
NtRp3752
(dp3753
g72
(dp3754
sg81
g2887
sg74
(lp3755
g67
(g88
g69
NtRp3756
(dp3757
g72
(dp3758
g92
g93
ssg81
g3752
sg74
(lp3759
S'view'
p3760
asbag67
(g88
g69
NtRp3761
(dp3762
g72
(dp3763
g99
g100
ssg81
g3752
sg74
(lp3764
S':'
asbag67
(g88
g69
NtRp3765
(dp3766
g72
(dp3767
sg81
g3752
sg74
(lp3768
g67
(g68
g69
NtRp3769
(dp3770
g72
(dp3771
g80
I5
ssg81
g3765
sg74
(lp3772
S'default/submission.html'
p3773
asbasbasbasbasbsS'locals'
p3774
(dp3775
g3
S"'/Users/hellais/Documents/code/mygit/globaleaks/webapp/applications/init/controllers/default.py'"
p3776
sg5
S"'# -*- coding: utf-8 -*-\\n### required - do no del...t()\\n\\nresponse._vars=response._caller(submission)\\n'"
p3777
sssS'traceback'
p3778
S'Traceback (most recent call last):\n  File "/opt/local/Library/Frameworks/Python.framework/Versions/2.7/lib/python2.7/gluon/restricted.py", line 191, in restricted\n    ccode = compile2(code,layer)\n  File "/opt/local/Library/Frameworks/Python.framework/Versions/2.7/lib/python2.7/gluon/restricted.py", line 178, in compile2\n    return compile(code.rstrip().replace(\'\\r\\n\',\'\\n\')+\'\\n\', layer, \'exec\')\n  File "/Users/hellais/Documents/code/mygit/globaleaks/webapp/applications/init/controllers/default.py", line 35\n    """\n   ^\nIndentationError: unexpected indent\n'
p3779
s.