(dp1
S'submission_timestamp'
p2
(dp3
S'type'
p4
S'string'
p5
sS'sortable'
p6
I4
sS'sql'
p7
S'CHAR(512)'
p8
ssS'desc'
p9
(dp10
g4
g5
sg6
I3
sg7
S'CHAR(512)'
p11
ssS'id'
p12
(dp13
g4
g12
sg6
I1
sg7
S'INTEGER PRIMARY KEY AUTOINCREMENT'
p14
ssS'leaker_id'
p15
(dp16
g4
S'reference target'
p17
sg6
I5
sg7
S'INTEGER REFERENCES target(id) ON DELETE CASCADE'
p18
ssS'title'
p19
(dp20
g4
g5
sg6
I2
sg7
S'CHAR(512)'
p21
ss.