(dp1
S'leak_id'
p2
(dp3
S'type'
p4
S'reference leak'
p5
sS'sortable'
p6
I2
sS'sql'
p7
S'INTEGER REFERENCES leak(id) ON DELETE CASCADE'
p8
ssS'comment'
p9
(dp10
g4
S'string'
p11
sg6
I4
sg7
S'CHAR(512)'
p12
ssS'id'
p13
(dp14
g4
g13
sg6
I1
sg7
S'INTEGER PRIMARY KEY AUTOINCREMENT'
p15
ssS'commenter_id'
p16
(dp17
g4
S'reference target'
p18
sg6
I3
sg7
S'INTEGER REFERENCES target(id) ON DELETE CASCADE'
p19
ss.