(dp1
S'url'
p2
(dp3
S'type'
p4
S'string'
p5
sS'sortable'
p6
I2
sS'sql'
p7
S'CHAR(512) UNIQUE'
p8
ssS'leak_id'
p9
(dp10
g4
S'reference leak'
p11
sg6
I3
sg7
S'INTEGER REFERENCES leak(id) ON DELETE CASCADE'
p12
ssg4
(dp13
g4
g5
sg6
I4
sg7
S'CHAR(512)'
p14
ssS'id'
p15
(dp16
g4
g15
sg6
I1
sg7
S'INTEGER PRIMARY KEY AUTOINCREMENT'
p17
ss.